///////////////////////////////////////////////////////////////////////////////
//                                                                            /
// IAR 8051 C/C++ Compiler V7.30B/W32                   18/Mar/2013  18:21:51 /
// Copyright 2004-2007 IAR Systems. All rights reserved.                      /
//                                                                            /
//    Core               =  plain                                             /
//    Code model         =  banked                                            /
//    Data model         =  large                                             /
//    Calling convention =  xdata reentrant                                   /
//    Constant location  =  data                                              /
//    Dptr setup         =  1,16                                              /
//    Source file        =  C:\Texas Instruments\ZStack-1.4.3-1.2.1\Projects\ /
//                          zstack\Samples\cc2430-zstack-adxl345\Drivers\adxl /
//                          345.c                                             /
//    Command line       =  -f "C:\Texas Instruments\ZStack-1.4.3-1.2.1\Proje /
//                          cts\zstack\Samples\cc2430-zstack-adxl345\CC2430DB /
//                          \..\..\..\Tools\CC2430DB\f8wEndev.cfg"            /
//                          (-DCPU32MHZ -DFORCE_MAC_NEAR -DROOT=__near_func   /
//                          -DMAC_OPT_FFD=0 -DBLINK_LEDS "-DCONST=const       /
//                          __code" -DGENERIC=__generic) -f "C:\Texas         /
//                          Instruments\ZStack-1.4.3-1.2.1\Projects\zstack\Sa /
//                          mples\cc2430-zstack-adxl345\CC2430DB\..\..\..\Too /
//                          ls\CC2430DB\f8wConfig.cfg" (-DSECURE=0            /
//                          -DDEFAULT_CHANLIST=0x00000800                     /
//                          -DZDAPP_CONFIG_PAN_ID=0xFFFF                      /
//                          -DNWK_START_DELAY=100 -DEXTENDED_JOINING_RANDOM_M /
//                          ASK=0x007F -DBEACON_REQUEST_DELAY=100             /
//                          -DBEACON_REQ_DELAY_MASK=0x00FF                    /
//                          -DROUTE_EXPIRY_TIME=30 -DAPSC_ACK_WAIT_DURATION_P /
//                          OLLED=3000 -DNWK_INDIRECT_MSG_TIMEOUT=7           /
//                          -DMAX_RREQ_ENTRIES=10 -DAPSC_MAX_FRAME_RETRIES=3  /
//                          -DNWK_MAX_DATA_RETRIES=2                          /
//                          -DMAX_POLL_FAILURE_RETRIES=2 -DMAX_BCAST=9        /
//                          -DAPS_MAX_GROUPS=16 -DMAX_RTG_ENTRIES=20          /
//                          -DNWK_MAX_BINDING_ENTRIES=10                      /
//                          -DMAX_BINDING_CLUSTER_IDS=5                       /
//                          "-DDEFAULT_KEY={0x01, 0x03, 0x05, 0x07, 0x09,     /
//                          0x0B, 0x0D, 0x0F, 0x00, 0x02, 0x04, 0x06, 0x08,   /
//                          0x0A, 0x0C, 0x0D}" -DRFD_RCVC_ALWAYS_ON=FALSE     /
//                          -DPOLL_RATE=1000 -DQUEUED_POLL_RATE=100           /
//                          -DRESPONSE_POLL_RATE=100) -DREJOIN_POLL_RATE=440  /
//                          "C:\Texas Instruments\ZStack-1.4.3-1.2.1\Projects /
//                          \zstack\Samples\cc2430-zstack-adxl345\Drivers\adx /
//                          l345.c" -D CC2430EB -D AXD_END3 -D NWK_AUTO_POLL  /
//                          -D REFLECTOR -D xZTOOL_P1 -D xMT_TASK -D          /
//                          xMT_ZDO_FUNC -D xLCD_SUPPORTED=DEBUG -D           /
//                          xPOWER_SAVING -lC "C:\Texas                       /
//                          Instruments\ZStack-1.4.3-1.2.1\Projects\zstack\Sa /
//                          mples\cc2430-zstack-adxl345\CC2430DB\EndDeviceEB3 /
//                          \List\" -lA "C:\Texas Instruments\ZStack-1.4.3-1. /
//                          2.1\Projects\zstack\Samples\cc2430-zstack-adxl345 /
//                          \CC2430DB\EndDeviceEB3\List\" --diag_suppress     /
//                          Pe001,Pa010 --diag_remark pe550 -o "C:\Texas      /
//                          Instruments\ZStack-1.4.3-1.2.1\Projects\zstack\Sa /
//                          mples\cc2430-zstack-adxl345\CC2430DB\EndDeviceEB3 /
//                          \Obj\" -e --require_prototypes -z2 --no_cse       /
//                          --no_unroll --no_inline --no_code_motion          /
//                          --no_tbaa --debug --core=plain --dptr=16,1        /
//                          --data_model=large --code_model=banked            /
//                          --calling_convention=xdata_reentrant              /
//                          --place_constants=data --nr_virtual_regs 8 -I     /
//                          "C:\Texas Instruments\ZStack-1.4.3-1.2.1\Projects /
//                          \zstack\Samples\cc2430-zstack-adxl345\CC2430DB\"  /
//                          -I "C:\Texas Instruments\ZStack-1.4.3-1.2.1\Proje /
//                          cts\zstack\Samples\cc2430-zstack-adxl345\CC2430DB /
//                          \..\SOURCE\" -I "C:\Texas                         /
//                          Instruments\ZStack-1.4.3-1.2.1\Projects\zstack\Sa /
//                          mples\cc2430-zstack-adxl345\CC2430DB\..\Drivers\" /
//                           -I "C:\Texas Instruments\ZStack-1.4.3-1.2.1\Proj /
//                          ects\zstack\Samples\cc2430-zstack-adxl345\CC2430D /
//                          B\..\..\..\ZMAIN\TI2430DB\" -I "C:\Texas          /
//                          Instruments\ZStack-1.4.3-1.2.1\Projects\zstack\Sa /
//                          mples\cc2430-zstack-adxl345\CC2430DB\..\..\..\..\ /
//                          ..\COMPONENTS\MT\" -I "C:\Texas                   /
//                          Instruments\ZStack-1.4.3-1.2.1\Projects\zstack\Sa /
//                          mples\cc2430-zstack-adxl345\CC2430DB\..\..\..\..\ /
//                          ..\COMPONENTS\HAL\INCLUDE\" -I "C:\Texas          /
//                          Instruments\ZStack-1.4.3-1.2.1\Projects\zstack\Sa /
//                          mples\cc2430-zstack-adxl345\CC2430DB\..\..\..\..\ /
//                          ..\COMPONENTS\HAL\TARGET\CC2430EB\" -I "C:\Texas  /
//                          Instruments\ZStack-1.4.3-1.2.1\Projects\zstack\Sa /
//                          mples\cc2430-zstack-adxl345\CC2430DB\..\..\..\..\ /
//                          ..\COMPONENTS\OSAL\MCU\CCSOC\" -I "C:\Texas       /
//                          Instruments\ZStack-1.4.3-1.2.1\Projects\zstack\Sa /
//                          mples\cc2430-zstack-adxl345\CC2430DB\..\..\..\..\ /
//                          ..\COMPONENTS\OSAL\INCLUDE\" -I "C:\Texas         /
//                          Instruments\ZStack-1.4.3-1.2.1\Projects\zstack\Sa /
//                          mples\cc2430-zstack-adxl345\CC2430DB\..\..\..\..\ /
//                          ..\COMPONENTS\STACK\AF\" -I "C:\Texas             /
//                          Instruments\ZStack-1.4.3-1.2.1\Projects\zstack\Sa /
//                          mples\cc2430-zstack-adxl345\CC2430DB\..\..\..\..\ /
//                          ..\COMPONENTS\STACK\NWK\" -I "C:\Texas            /
//                          Instruments\ZStack-1.4.3-1.2.1\Projects\zstack\Sa /
//                          mples\cc2430-zstack-adxl345\CC2430DB\..\..\..\..\ /
//                          ..\COMPONENTS\STACK\SEC\" -I "C:\Texas            /
//                          Instruments\ZStack-1.4.3-1.2.1\Projects\zstack\Sa /
//                          mples\cc2430-zstack-adxl345\CC2430DB\..\..\..\..\ /
//                          ..\COMPONENTS\STACK\SYS\" -I "C:\Texas            /
//                          Instruments\ZStack-1.4.3-1.2.1\Projects\zstack\Sa /
//                          mples\cc2430-zstack-adxl345\CC2430DB\..\..\..\..\ /
//                          ..\COMPONENTS\STACK\ZDO\" -I "C:\Texas            /
//                          Instruments\ZStack-1.4.3-1.2.1\Projects\zstack\Sa /
//                          mples\cc2430-zstack-adxl345\CC2430DB\..\..\..\..\ /
//                          ..\COMPONENTS\ZMAC\F8W\" -I "C:\Texas             /
//                          Instruments\ZStack-1.4.3-1.2.1\Projects\zstack\Sa /
//                          mples\cc2430-zstack-adxl345\CC2430DB\..\..\..\..\ /
//                          ..\COMPONENTS\ZMAC\" -I "C:\Texas                 /
//                          Instruments\ZStack-1.4.3-1.2.1\Projects\zstack\Sa /
//                          mples\cc2430-zstack-adxl345\CC2430DB\..\..\..\..\ /
//                          ..\COMPONENTS\SERVICES\SADDR\" -I "C:\Texas       /
//                          Instruments\ZStack-1.4.3-1.2.1\Projects\zstack\Sa /
//                          mples\cc2430-zstack-adxl345\CC2430DB\..\..\..\..\ /
//                          ..\COMPONENTS\SERVICES\SDATA\" -I "C:\Texas       /
//                          Instruments\ZStack-1.4.3-1.2.1\Projects\zstack\Sa /
//                          mples\cc2430-zstack-adxl345\CC2430DB\..\..\..\..\ /
//                          ..\COMPONENTS\MAC\INCLUDE\" -I "C:\Texas          /
//                          Instruments\ZStack-1.4.3-1.2.1\Projects\zstack\Sa /
//                          mples\cc2430-zstack-adxl345\CC2430DB\..\..\..\..\ /
//                          ..\COMPONENTS\MAC\HIGH_LEVEL\" -I "C:\Texas       /
//                          Instruments\ZStack-1.4.3-1.2.1\Projects\zstack\Sa /
//                          mples\cc2430-zstack-adxl345\CC2430DB\..\..\..\..\ /
//                          ..\COMPONENTS\MAC\LOW_LEVEL\SRF03\" -I "C:\Texas  /
//                          Instruments\ZStack-1.4.3-1.2.1\Projects\zstack\Sa /
//                          mples\cc2430-zstack-adxl345\CC2430DB\..\..\..\..\ /
//                          ..\COMPONENTS\MAC\LOW_LEVEL\SRF03\SINGLE_CHIP\"   /
//                          -I "C:\Program Files\IAR Systems\Embedded         /
//                          Workbench 4.0 Evaluation version\8051\INC\" -I    /
//                          "C:\Program Files\IAR Systems\Embedded Workbench  /
//                          4.0 Evaluation version\8051\INC\CLIB\"            /
//    List file          =  C:\Texas Instruments\ZStack-1.4.3-1.2.1\Projects\ /
//                          zstack\Samples\cc2430-zstack-adxl345\CC2430DB\End /
//                          DeviceEB3\List\adxl345.s51                        /
//                                                                            /
//                                                                            /
///////////////////////////////////////////////////////////////////////////////

        NAME adxl345

        RTMODEL "__calling_convention", "xdata_reentrant"
        RTMODEL "__code_model", "banked"
        RTMODEL "__core", "plain"
        RTMODEL "__data_model", "large"
        RTMODEL "__dptr_size", "16"
        RTMODEL "__extended_stack", "disabled"
        RTMODEL "__location_for_constants", "data"
        RTMODEL "__number_of_dptrs", "1"
        RTMODEL "__rt_version", "1"

        RSEG DOVERLAY:DATA:NOROOT(0)
        RSEG IOVERLAY:IDATA:NOROOT(0)
        RSEG ISTACK:IDATA:NOROOT(0)
        RSEG PSTACK:XDATA:NOROOT(0)
        RSEG XSTACK:XDATA:NOROOT(0)

        EXTERN ??Delay?relay
        EXTERN ??Delay_1u?relay
        EXTERN ??I2C_Check_ack?relay
        EXTERN ??I2C_Start_1?relay
        EXTERN ??I2C_Stop_1?relay
        EXTERN ??ReadI2CByte_1?relay
        EXTERN ??Sendack?relay
        EXTERN ??Single_Write_ADXL345?relay
        EXTERN ??WriteI2CByte_1?relay
        EXTERN ?ALLOC_XSTACK8
        EXTERN ?BANKED_ENTER_XDATA
        EXTERN ?BANKED_LEAVE_XDATA
        EXTERN ?BDISPATCH
        EXTERN ?BRET
        EXTERN ?DEALLOC_XSTACK8
        EXTERN ?FLT_DIV
        EXTERN ?FLT_MUL
        EXTERN ?FLT_TO_L
        EXTERN ?L_MOV_X
        EXTERN ?L_TO_FLT
        EXTERN ?PUSH_XSTACK_I_ONE
        EXTERN ?UL_TO_FLT
        EXTERN ?US_DIV_MOD
        EXTERN ?V0
        EXTERN ?XSP
        EXTERN ?XSTACK_DISP0_8
        EXTERN __INIT_XDATA_I
        EXTERN __INIT_XDATA_Z

        PUBLIC ??Delay?relay
        FUNCTION ??Delay?relay,0203H
        PUBLIC ??Delay_1u?relay
        FUNCTION ??Delay_1u?relay,0203H
        PUBLIC ??I2C_Check_ack?relay
        FUNCTION ??I2C_Check_ack?relay,0203H
        PUBLIC ??I2C_Start_1?relay
        FUNCTION ??I2C_Start_1?relay,0203H
        PUBLIC ??I2C_Stop_1?relay
        FUNCTION ??I2C_Stop_1?relay,0203H
        PUBLIC ??Init_ADXL345?relay
        FUNCTION ??Init_ADXL345?relay,0203H
        PUBLIC ??Multiple_Read_ADXL345?relay
        FUNCTION ??Multiple_Read_ADXL345?relay,0203H
        PUBLIC ??ReadI2CByte_1?relay
        FUNCTION ??ReadI2CByte_1?relay,0203H
        PUBLIC ??Sendack?relay
        FUNCTION ??Sendack?relay,0203H
        PUBLIC ??Single_Read_ADXL345?relay
        FUNCTION ??Single_Read_ADXL345?relay,0203H
        PUBLIC ??Single_Write_ADXL345?relay
        FUNCTION ??Single_Write_ADXL345?relay,0203H
        PUBLIC ??WriteI2CByte_1?relay
        FUNCTION ??WriteI2CByte_1?relay,0203H
        PUBLIC ??conversion?relay
        FUNCTION ??conversion?relay,0203H
        PUBLIC ??displayXYZ?relay
        FUNCTION ??displayXYZ?relay,0203H
        PUBLIC BUFFER
        PUBLIC Delay
        FUNCTION Delay,0203H
        ARGFRAME XSTACK, 9, STACK
        ARGFRAME IOVERLAY, 0, STATIC
        ARGFRAME DOVERLAY, 0, STATIC
        PUBLIC Delay_1u
        FUNCTION Delay_1u,080203H
        ARGFRAME XSTACK, 9, STACK
        ARGFRAME IOVERLAY, 0, STATIC
        ARGFRAME DOVERLAY, 0, STATIC
        PUBLIC I2C_Check_ack
        FUNCTION I2C_Check_ack,021203H
        ARGFRAME XSTACK, 9, STACK
        ARGFRAME IOVERLAY, 0, STATIC
        ARGFRAME DOVERLAY, 0, STATIC
        LOCFRAME ISTACK, 2, STACK
        PUBLIC I2C_Start_1
        FUNCTION I2C_Start_1,021203H
        ARGFRAME XSTACK, 10, STACK
        ARGFRAME IOVERLAY, 0, STATIC
        ARGFRAME DOVERLAY, 0, STATIC
        LOCFRAME ISTACK, 2, STACK
        PUBLIC I2C_Stop_1
        FUNCTION I2C_Stop_1,021203H
        ARGFRAME XSTACK, 10, STACK
        ARGFRAME IOVERLAY, 0, STATIC
        ARGFRAME DOVERLAY, 0, STATIC
        LOCFRAME ISTACK, 2, STACK
        PUBLIC Init_ADXL345
        FUNCTION Init_ADXL345,021203H
        ARGFRAME XSTACK, 0, STACK
        LOCFRAME ISTACK, 2, STACK
        PUBLIC Multiple_Read_ADXL345
        FUNCTION Multiple_Read_ADXL345,021203H
        ARGFRAME XSTACK, 0, STACK
        LOCFRAME ISTACK, 1, STACK
        LOCFRAME XSTACK, 10, STACK
        PUBWEAK P1DIR
        PUBLIC ReadI2CByte_1
        FUNCTION ReadI2CByte_1,021203H
        ARGFRAME XSTACK, 10, STACK
        ARGFRAME IOVERLAY, 0, STATIC
        ARGFRAME DOVERLAY, 0, STATIC
        LOCFRAME XSTACK, 9, STACK
        PUBLIC Sendack
        FUNCTION Sendack,021203H
        ARGFRAME XSTACK, 10, STACK
        ARGFRAME IOVERLAY, 0, STATIC
        ARGFRAME DOVERLAY, 0, STATIC
        LOCFRAME XSTACK, 9, STACK
        PUBLIC Single_Read_ADXL345
        FUNCTION Single_Read_ADXL345,021203H
        ARGFRAME XSTACK, 0, STACK
        LOCFRAME XSTACK, 9, STACK
        PUBLIC Single_Write_ADXL345
        FUNCTION Single_Write_ADXL345,021203H
        ARGFRAME XSTACK, 0, STACK
        ARGFRAME IOVERLAY, 0, STATIC
        ARGFRAME DOVERLAY, 0, STATIC
        LOCFRAME XSTACK, 9, STACK
        PUBLIC WriteI2CByte_1
        FUNCTION WriteI2CByte_1,021203H
        ARGFRAME XSTACK, 10, STACK
        ARGFRAME IOVERLAY, 0, STATIC
        ARGFRAME DOVERLAY, 0, STATIC
        LOCFRAME XSTACK, 9, STACK
        PUBWEAK _A_P1
        PUBWEAK __Constant_4079999a
        PUBWEAK __Constant_42c80000
        PUBWEAK __Constant_45800000
        PUBLIC bai
        PUBLIC conversion
        FUNCTION conversion,0203H
        ARGFRAME XSTACK, 0, STACK
        LOCFRAME XSTACK, 16, STACK
        PUBLIC dis_data
        PUBLIC displayXYZ
        FUNCTION displayXYZ,021203H
        ARGFRAME XSTACK, 0, STACK
        LOCFRAME XSTACK, 21, STACK
        PUBLIC `ge`
        PUBLIC qian
        PUBLIC shi
        PUBLIC wan
        
        CFI Names cfiNames0
        CFI StackFrame CFA_SP SP DATA
        CFI StackFrame CFA_PSP16 PSP16 XDATA
        CFI StackFrame CFA_XSP16 XSP16 XDATA
        CFI StaticOverlayFrame CFA_IOVERLAY IOVERLAY
        CFI StaticOverlayFrame CFA_DOVERLAY DOVERLAY
        CFI Resource `PSW.CY`:1, `B.BR0`:1, `B.BR1`:1, `B.BR2`:1, `B.BR3`:1
        CFI Resource `B.BR4`:1, `B.BR5`:1, `B.BR6`:1, `B.BR7`:1, `VB.BR8`:1
        CFI Resource `VB.BR9`:1, `VB.BR10`:1, `VB.BR11`:1, `VB.BR12`:1
        CFI Resource `VB.BR13`:1, `VB.BR14`:1, `VB.BR15`:1, VB:8, B:8, A:8
        CFI Resource PSW:8, DPL0:8, DPH0:8, R0:8, R1:8, R2:8, R3:8, R4:8, R5:8
        CFI Resource R6:8, R7:8, V0:8, V1:8, V2:8, V3:8, V4:8, V5:8, V6:8, V7:8
        CFI Resource SP:8, PSPH:8, PSPL:8, PSP16:16, XSPH:8, XSPL:8, XSP16:16
        CFI VirtualResource ?RET:24
        CFI Resource ?BRET_EXT:8
        CFI VirtualResource ?RET_HIGH:8, ?RET_LOW:8
        CFI ResourceParts PSP16 PSPH, PSPL
        CFI ResourceParts XSP16 XSPH, XSPL
        CFI ResourceParts ?RET ?BRET_EXT, ?RET_HIGH, ?RET_LOW
        CFI EndNames cfiNames0
        
        CFI Common cfiCommon0 Using cfiNames0
        CFI CodeAlign 1
        CFI DataAlign -1
        CFI ReturnAddress ?RET CODE
        CFI CFA_DOVERLAY Used
        CFI CFA_IOVERLAY Used
        CFI CFA_SP SP+-3
        CFI CFA_PSP16 PSP16+0
        CFI CFA_XSP16 XSP16+0
        CFI `PSW.CY` SameValue
        CFI `B.BR0` SameValue
        CFI `B.BR1` SameValue
        CFI `B.BR2` SameValue
        CFI `B.BR3` SameValue
        CFI `B.BR4` SameValue
        CFI `B.BR5` SameValue
        CFI `B.BR6` SameValue
        CFI `B.BR7` SameValue
        CFI `VB.BR8` SameValue
        CFI `VB.BR9` SameValue
        CFI `VB.BR10` SameValue
        CFI `VB.BR11` SameValue
        CFI `VB.BR12` SameValue
        CFI `VB.BR13` SameValue
        CFI `VB.BR14` SameValue
        CFI `VB.BR15` SameValue
        CFI VB SameValue
        CFI B Undefined
        CFI A Undefined
        CFI PSW SameValue
        CFI DPL0 SameValue
        CFI DPH0 SameValue
        CFI R0 Undefined
        CFI R1 Undefined
        CFI R2 Undefined
        CFI R3 Undefined
        CFI R4 Undefined
        CFI R5 Undefined
        CFI R6 SameValue
        CFI R7 SameValue
        CFI V0 SameValue
        CFI V1 SameValue
        CFI V2 SameValue
        CFI V3 SameValue
        CFI V4 SameValue
        CFI V5 SameValue
        CFI V6 SameValue
        CFI V7 SameValue
        CFI PSPH Undefined
        CFI PSPL Undefined
        CFI XSPH Undefined
        CFI XSPL Undefined
        CFI ?RET Concat
        CFI ?BRET_EXT Frame(CFA_SP, 3)
        CFI ?RET_HIGH Frame(CFA_SP, 2)
        CFI ?RET_LOW Frame(CFA_SP, 1)
        CFI EndCommon cfiCommon0
        
HalLcdWriteStringValue SYMBOL "HalLcdWriteStringValue"
??HalLcdWriteStringValue?relay SYMBOL "?relay", HalLcdWriteStringValue
Delay               SYMBOL "Delay"
??Delay?relay       SYMBOL "?relay", Delay
Delay_1u            SYMBOL "Delay_1u"
??Delay_1u?relay    SYMBOL "?relay", Delay_1u
I2C_Check_ack       SYMBOL "I2C_Check_ack"
??I2C_Check_ack?relay SYMBOL "?relay", I2C_Check_ack
I2C_Start_1         SYMBOL "I2C_Start_1"
??I2C_Start_1?relay SYMBOL "?relay", I2C_Start_1
I2C_Stop_1          SYMBOL "I2C_Stop_1"
??I2C_Stop_1?relay  SYMBOL "?relay", I2C_Stop_1
Init_ADXL345        SYMBOL "Init_ADXL345"
??Init_ADXL345?relay SYMBOL "?relay", Init_ADXL345
Multiple_Read_ADXL345 SYMBOL "Multiple_Read_ADXL345"
??Multiple_Read_ADXL345?relay SYMBOL "?relay", Multiple_Read_ADXL345
ReadI2CByte_1       SYMBOL "ReadI2CByte_1"
??ReadI2CByte_1?relay SYMBOL "?relay", ReadI2CByte_1
Sendack             SYMBOL "Sendack"
??Sendack?relay     SYMBOL "?relay", Sendack
Single_Read_ADXL345 SYMBOL "Single_Read_ADXL345"
??Single_Read_ADXL345?relay SYMBOL "?relay", Single_Read_ADXL345
Single_Write_ADXL345 SYMBOL "Single_Write_ADXL345"
??Single_Write_ADXL345?relay SYMBOL "?relay", Single_Write_ADXL345
WriteI2CByte_1      SYMBOL "WriteI2CByte_1"
??WriteI2CByte_1?relay SYMBOL "?relay", WriteI2CByte_1
conversion          SYMBOL "conversion"
??conversion?relay  SYMBOL "?relay", conversion
displayXYZ          SYMBOL "displayXYZ"
??displayXYZ?relay  SYMBOL "?relay", displayXYZ

        EXTERN HalLcdWriteStringValue
        FUNCTION HalLcdWriteStringValue,0202H
        ARGFRAME ISTACK, 0, STACK
        ARGFRAME PSTACK, 0, STACK
        ARGFRAME XSTACK, 21, STACK
        ARGFRAME IOVERLAY, 0, STATIC
        ARGFRAME DOVERLAY, 0, STATIC
        EXTERN ??HalLcdWriteStringValue?relay
        FUNCTION ??HalLcdWriteStringValue?relay,00H

// C:\Texas Instruments\ZStack-1.4.3-1.2.1\Projects\zstack\Samples\cc2430-zstack-adxl345\Drivers\adxl345.c
//    1 #include <ioCC2430.h>

        ASEGN SFR_AN:DATA:NOROOT,090H
// union <unnamed> volatile __sfr _A_P1
_A_P1:
        DS 1

        ASEGN SFR_AN:DATA:NOROOT,0feH
// unsigned char volatile __sfr P1DIR
P1DIR:
        DS 1
//    2 #include <string.h>
//    3 #include <math.h>
//    4 #include <stdio.h>
//    5 #include "adxl345.h"
//    6 //#include "LCD3310.h"
//    7 #define SCL     P1_2   
//    8 #define SDA     P1_3
//    9 
//   10 #define SDADirOut P1DIR|=0x08;      //xxxx1M01
//   11 #define SDADirIn  P1DIR&=~0x08;
//   12 
//   13 #define TRUE 1
//   14 #define FALSE 0
//   15 #define	SlaveAddress 0xA6 //定义器件在IIC总线中的从地址,根据ALT  ADDRESS地址引脚不同修改
//   16 

        RSEG XDATA_Z:XDATA:NOROOT(0)
//   17 INT8U BUFFER[14];
BUFFER:
        DS 14
        REQUIRE __INIT_XDATA_Z

        RSEG XDATA_Z:XDATA:NOROOT(0)
//   18 int  dis_data;
dis_data:
        DS 2
        REQUIRE __INIT_XDATA_Z
//   19 

        RSEG XDATA_Z:XDATA:NOROOT(0)
//   20 char wan,qian,bai,shi,ge;
wan:
        DS 1
        REQUIRE __INIT_XDATA_Z

        RSEG XDATA_Z:XDATA:NOROOT(0)
qian:
        DS 1
        REQUIRE __INIT_XDATA_Z

        RSEG XDATA_Z:XDATA:NOROOT(0)
bai:
        DS 1
        REQUIRE __INIT_XDATA_Z

        RSEG XDATA_Z:XDATA:NOROOT(0)
shi:
        DS 1
        REQUIRE __INIT_XDATA_Z

        RSEG XDATA_Z:XDATA:NOROOT(0)
`ge`:
        DS 1
        REQUIRE __INIT_XDATA_Z
//   21 
//   22 void initUARTtest(void);
//   23 void UartTX_Send_String(char *Data,int len);
//   24 void conversion(void);
//   25 
//   26 void Sendack(unsigned char h);
//   27 unsigned char I2C_Check_ack();
//   28 
//   29 void I2C_Start_1(void);
//   30 void I2C_Stop_1(void);
//   31 
//   32 void WriteI2CByte_1(INT8U b);
//   33 unsigned char ReadI2CByte_1(void);
//   34 
//   35 unsigned char Single_Read_ADXL345(INT8U REG_Address);
//   36 void Single_Write_ADXL345(INT8U REG_Address,INT8U REG_data);
//   37 
//   38 void Init_ADXL345();
//   39 
//   40 void Delay_1u(unsigned int microSecs);
//   41 void Delay(INT16U n);
//   42 
//   43 INT8U I2C_Check_ack(void);
//   44 
//   45 
//   46 void Multiple_Read_ADXL345(void);
//   47 

        RSEG BANKED_CODE:CODE:NOROOT(0)
//   48 void Delay(INT16U n)      //(5/32)*n   us
Delay:
        CFI Block cfiBlock0 Using cfiCommon0
        CFI Function Delay
//   49 {
        ; Saved register size: 0
        ; Auto size: 0
//   50 	INT16U d;
//   51 	for(d=0;d<n;d++);
        MOV     R0,#0x0
        MOV     R1,#0x0
??Delay_0:
        CLR     C
        MOV     A,R0
        SUBB    A,R2
        MOV     A,R1
        SUBB    A,R3
        JNC     ??Delay_1
        MOV     A,R0
        ADD     A,#0x1
        MOV     R0,A
        MOV     A,R1
        ADDC    A,#0x0
        MOV     R1,A
        SJMP    ??Delay_0
//   52 	for(d=0;d<n;d++);
??Delay_1:
        MOV     R0,#0x0
        MOV     R1,#0x0
??Delay_2:
        CLR     C
        MOV     A,R0
        SUBB    A,R2
        MOV     A,R1
        SUBB    A,R3
        JNC     ??Delay_3
        MOV     A,R0
        ADD     A,#0x1
        MOV     R0,A
        MOV     A,R1
        ADDC    A,#0x0
        MOV     R1,A
        SJMP    ??Delay_2
//   53 	for(d=0;d<n;d++);
??Delay_3:
        MOV     R0,#0x0
        MOV     R1,#0x0
??Delay_4:
        CLR     C
        MOV     A,R0
        SUBB    A,R2
        MOV     A,R1
        SUBB    A,R3
        JNC     ??Delay_5
        MOV     A,R0
        ADD     A,#0x1
        MOV     R0,A
        MOV     A,R1
        ADDC    A,#0x0
        MOV     R1,A
        SJMP    ??Delay_4
//   54 	for(d=0;d<n;d++);
??Delay_5:
        MOV     R0,#0x0
        MOV     R1,#0x0
??Delay_6:
        CLR     C
        MOV     A,R0
        SUBB    A,R2
        MOV     A,R1
        SUBB    A,R3
        JNC     ??Delay_7
        MOV     A,R0
        ADD     A,#0x1
        MOV     R0,A
        MOV     A,R1
        ADDC    A,#0x0
        MOV     R1,A
        SJMP    ??Delay_6
//   55 	for(d=0;d<n;d++);
??Delay_7:
        MOV     R0,#0x0
        MOV     R1,#0x0
??Delay_8:
        CLR     C
        MOV     A,R0
        SUBB    A,R2
        MOV     A,R1
        SUBB    A,R3
        JNC     ??Delay_9
        MOV     A,R0
        ADD     A,#0x1
        MOV     R0,A
        MOV     A,R1
        ADDC    A,#0x0
        MOV     R1,A
        SJMP    ??Delay_8
//   56 }
??Delay_9:
        LJMP    ?BRET
        CFI EndBlock cfiBlock0
//   57 

        RSEG BANKED_CODE:CODE:NOROOT(0)
//   58 void Delay_1u(unsigned int microSecs) {
Delay_1u:
        CFI Block cfiBlock1 Using cfiCommon0
        CFI Function Delay_1u
        ; Saved register size: 0
        ; Auto size: 0
//   59   while(microSecs--)
??Delay_1u_0:
        MOV     A,R2
        MOV     R0,A
        MOV     A,R3
        MOV     R1,A
        MOV     A,#-0x1
        ADD     A,R0
        MOV     R2,A
        MOV     A,#-0x1
        ADDC    A,R1
        MOV     R3,A
        MOV     A,#0x0
        XRL     A,R0
        JNZ     ??Delay_1u_1
        MOV     A,#0x0
        XRL     A,R1
??Delay_1u_1:
        JZ      ??Delay_1u_2
//   60   {
//   61     /* 32 NOPs == 1 usecs */
//   62     asm("nop"); asm("nop"); asm("nop"); asm("nop"); asm("nop");
        nop
        nop
        nop
        nop
        nop
//   63     asm("nop"); asm("nop"); asm("nop"); asm("nop"); asm("nop");
        nop
        nop
        nop
        nop
        nop
//   64     asm("nop"); asm("nop"); asm("nop"); asm("nop"); asm("nop");
        nop
        nop
        nop
        nop
        nop
//   65     asm("nop"); asm("nop"); asm("nop"); asm("nop"); asm("nop");
        nop
        nop
        nop
        nop
        nop
//   66     asm("nop"); asm("nop"); asm("nop"); asm("nop"); asm("nop");
        nop
        nop
        nop
        nop
        nop
//   67     asm("nop"); asm("nop"); asm("nop"); asm("nop"); asm("nop");
        nop
        nop
        nop
        nop
        nop
//   68     asm("nop"); asm("nop");
        nop
        nop
        SJMP    ??Delay_1u_0
//   69   }
//   70 }
??Delay_1u_2:
        LJMP    ?BRET
        CFI EndBlock cfiBlock1
//   71 

        RSEG BANKED_CODE:CODE:NOROOT(0)
//   72 void conversion(void)   
conversion:
        CFI Block cfiBlock2 Using cfiCommon0
        CFI Function conversion
//   73 {  
        MOV     A,#-0x10
        LCALL   ?BANKED_ENTER_XDATA
        CFI DPH0 load(1, XDATA, add(CFA_XSP16, literal(-1)))
        CFI DPL0 load(1, XDATA, add(CFA_XSP16, literal(-2)))
        CFI ?BRET_EXT load(1, XDATA, add(CFA_XSP16, literal(-3)))
        CFI ?RET_HIGH load(1, XDATA, add(CFA_XSP16, literal(-4)))
        CFI ?RET_LOW load(1, XDATA, add(CFA_XSP16, literal(-5)))
        CFI R7 load(1, XDATA, add(CFA_XSP16, literal(-6)))
        CFI V7 load(1, XDATA, add(CFA_XSP16, literal(-7)))
        CFI V6 load(1, XDATA, add(CFA_XSP16, literal(-8)))
        CFI V5 load(1, XDATA, add(CFA_XSP16, literal(-9)))
        CFI V4 load(1, XDATA, add(CFA_XSP16, literal(-10)))
        CFI V3 load(1, XDATA, add(CFA_XSP16, literal(-11)))
        CFI V2 load(1, XDATA, add(CFA_XSP16, literal(-12)))
        CFI V1 load(1, XDATA, add(CFA_XSP16, literal(-13)))
        CFI V0 load(1, XDATA, add(CFA_XSP16, literal(-14)))
        CFI VB load(1, XDATA, add(CFA_XSP16, literal(-15)))
        CFI R6 load(1, XDATA, add(CFA_XSP16, literal(-16)))
        CFI CFA_SP SP+0
        CFI CFA_XSP16 add(XSP16, 16)
        ; Saved register size: 16
        ; Auto size: 0
//   74   BUFFER[13] = 0xff;
        MOV     A,#-0x1
        MOV     DPTR,#(BUFFER + 13)
        MOVX    @DPTR,A
//   75   INT16U temp_data;
//   76   if ((BUFFER[8] & 0x80) == 0x80)
        MOV     DPTR,#(BUFFER + 8)
        MOVX    A,@DPTR
        MOV     C,0xE0 /* A   */.7
        JNC     ??conversion_0
//   77   {
//   78     BUFFER[13] &= ~0x01;    
        MOV     DPTR,#(BUFFER + 13)
        MOVX    A,@DPTR
        CLR     0xE0 /* A   */.0
        MOVX    @DPTR,A
//   79   }
//   80   temp_data = ((BUFFER[8] & 0x0f) << 8) + BUFFER[7];    
??conversion_0:
        MOV     DPTR,#(BUFFER + 8)
        MOVX    A,@DPTR
        MOV     R0,A
        MOV     A,#0xf
        ANL     A,R0
        MOV     R0,A
        CLR     A
        XCH     A,R0
        MOV     R1,A
        MOV     DPTR,#(BUFFER + 7)
        MOVX    A,@DPTR
        MOV     R3,#0x0
        ADD     A,R0
        MOV     R0,A
        MOV     A,R3
        ADDC    A,R1
        MOV     R1,A
        MOV     A,R0
        MOV     R4,A
        MOV     A,R1
        MOV     R5,A
//   81   temp_data = (INT16U)(((float)temp_data /4096 ) * 100);
        MOV     ?V0 + 0,R4
        MOV     ?V0 + 1,R5
        CLR     A
        MOV     ?V0 + 2,A
        MOV     ?V0 + 3,A
        MOV     R0,#?V0 + 0
        LCALL   ?UL_TO_FLT
        MOV     DPTR,#__Constant_45800000
        MOV     R0,#?V0 + 4
        LCALL   ?L_MOV_X
        MOV     R0,#?V0 + 0
        MOV     R1,#?V0 + 4
        LCALL   ?FLT_DIV
        MOV     DPTR,#__Constant_42c80000
        MOV     R0,#?V0 + 4
        LCALL   ?L_MOV_X
        MOV     R0,#?V0 + 0
        MOV     R1,#?V0 + 4
        LCALL   ?FLT_MUL
        MOV     R0,#?V0 + 0
        LCALL   ?FLT_TO_L
        MOV     R4,?V0 + 0
        MOV     R5,?V0 + 1
//   82   BUFFER[7] = (INT8U)((temp_data) % 10 + '0');
        MOV     A,R4
        MOV     R0,A
        MOV     A,R5
        MOV     R1,A
        MOV     R2,#0xa
        MOV     R3,#0x0
        LCALL   ?US_DIV_MOD
        MOV     A,R2
        ADD     A,#0x30
        MOV     DPTR,#(BUFFER + 7)
        MOVX    @DPTR,A
//   83   BUFFER[8] = (INT8U)((temp_data) / 10 + '0');
        MOV     A,R4
        MOV     R0,A
        MOV     A,R5
        MOV     R1,A
        MOV     R2,#0xa
        MOV     R3,#0x0
        LCALL   ?US_DIV_MOD
        MOV     A,R0
        ADD     A,#0x30
        MOV     DPTR,#(BUFFER + 8)
        MOVX    @DPTR,A
//   84     if ((BUFFER[10] & 0x80) == 0x80)
        MOV     DPTR,#(BUFFER + 10)
        MOVX    A,@DPTR
        MOV     C,0xE0 /* A   */.7
        JNC     ??conversion_1
//   85   {
//   86     BUFFER[13] &= ~0x02;    
        MOV     DPTR,#(BUFFER + 13)
        MOVX    A,@DPTR
        CLR     0xE0 /* A   */.1
        MOVX    @DPTR,A
//   87   }
//   88   temp_data = ((BUFFER[10] & 0x0f) << 8) + BUFFER[9];    
??conversion_1:
        MOV     DPTR,#(BUFFER + 10)
        MOVX    A,@DPTR
        MOV     R0,A
        MOV     A,#0xf
        ANL     A,R0
        MOV     R0,A
        CLR     A
        XCH     A,R0
        MOV     R1,A
        MOV     DPTR,#(BUFFER + 9)
        MOVX    A,@DPTR
        MOV     R3,#0x0
        ADD     A,R0
        MOV     R0,A
        MOV     A,R3
        ADDC    A,R1
        MOV     R1,A
        MOV     A,R0
        MOV     R4,A
        MOV     A,R1
        MOV     R5,A
//   89   temp_data = (INT16U)(((float)temp_data / 4096) * 100);
        MOV     ?V0 + 0,R4
        MOV     ?V0 + 1,R5
        CLR     A
        MOV     ?V0 + 2,A
        MOV     ?V0 + 3,A
        MOV     R0,#?V0 + 0
        LCALL   ?UL_TO_FLT
        MOV     DPTR,#__Constant_45800000
        MOV     R0,#?V0 + 4
        LCALL   ?L_MOV_X
        MOV     R0,#?V0 + 0
        MOV     R1,#?V0 + 4
        LCALL   ?FLT_DIV
        MOV     DPTR,#__Constant_42c80000
        MOV     R0,#?V0 + 4
        LCALL   ?L_MOV_X
        MOV     R0,#?V0 + 0
        MOV     R1,#?V0 + 4
        LCALL   ?FLT_MUL
        MOV     R0,#?V0 + 0
        LCALL   ?FLT_TO_L
        MOV     R4,?V0 + 0
        MOV     R5,?V0 + 1
//   90   BUFFER[9] = (INT8U)((temp_data) % 10 + '0');
        MOV     A,R4
        MOV     R0,A
        MOV     A,R5
        MOV     R1,A
        MOV     R2,#0xa
        MOV     R3,#0x0
        LCALL   ?US_DIV_MOD
        MOV     A,R2
        ADD     A,#0x30
        MOV     DPTR,#(BUFFER + 9)
        MOVX    @DPTR,A
//   91   BUFFER[10] = (INT8U)((temp_data) / 10 + '0');
        MOV     A,R4
        MOV     R0,A
        MOV     A,R5
        MOV     R1,A
        MOV     R2,#0xa
        MOV     R3,#0x0
        LCALL   ?US_DIV_MOD
        MOV     A,R0
        ADD     A,#0x30
        MOV     DPTR,#(BUFFER + 10)
        MOVX    @DPTR,A
//   92     if ((BUFFER[12] & 0x80) == 0x80)
        MOV     DPTR,#(BUFFER + 12)
        MOVX    A,@DPTR
        MOV     C,0xE0 /* A   */.7
        JNC     ??conversion_2
//   93   {
//   94     BUFFER[13] &= ~0x04;    
        MOV     DPTR,#(BUFFER + 13)
        MOVX    A,@DPTR
        CLR     0xE0 /* A   */.2
        MOVX    @DPTR,A
//   95   }
//   96   temp_data = ((BUFFER[12] & 0x0f) << 8) + BUFFER[11];    
??conversion_2:
        MOV     DPTR,#(BUFFER + 12)
        MOVX    A,@DPTR
        MOV     R0,A
        MOV     A,#0xf
        ANL     A,R0
        MOV     R0,A
        CLR     A
        XCH     A,R0
        MOV     R1,A
        MOV     DPTR,#(BUFFER + 11)
        MOVX    A,@DPTR
        MOV     R3,#0x0
        ADD     A,R0
        MOV     R0,A
        MOV     A,R3
        ADDC    A,R1
        MOV     R1,A
        MOV     A,R0
        MOV     R4,A
        MOV     A,R1
        MOV     R5,A
//   97   temp_data = (INT16U)(((float)temp_data / 4096) * 100);
        MOV     ?V0 + 0,R4
        MOV     ?V0 + 1,R5
        CLR     A
        MOV     ?V0 + 2,A
        MOV     ?V0 + 3,A
        MOV     R0,#?V0 + 0
        LCALL   ?UL_TO_FLT
        MOV     DPTR,#__Constant_45800000
        MOV     R0,#?V0 + 4
        LCALL   ?L_MOV_X
        MOV     R0,#?V0 + 0
        MOV     R1,#?V0 + 4
        LCALL   ?FLT_DIV
        MOV     DPTR,#__Constant_42c80000
        MOV     R0,#?V0 + 4
        LCALL   ?L_MOV_X
        MOV     R0,#?V0 + 0
        MOV     R1,#?V0 + 4
        LCALL   ?FLT_MUL
        MOV     R0,#?V0 + 0
        LCALL   ?FLT_TO_L
        MOV     R4,?V0 + 0
        MOV     R5,?V0 + 1
//   98   BUFFER[11] = (INT8U)((temp_data) % 10 + '0');
        MOV     A,R4
        MOV     R0,A
        MOV     A,R5
        MOV     R1,A
        MOV     R2,#0xa
        MOV     R3,#0x0
        LCALL   ?US_DIV_MOD
        MOV     A,R2
        ADD     A,#0x30
        MOV     DPTR,#(BUFFER + 11)
        MOVX    @DPTR,A
//   99   BUFFER[12] = (INT8U)((temp_data) / 10 + '0');
        MOV     A,R4
        MOV     R0,A
        MOV     A,R5
        MOV     R1,A
        MOV     R2,#0xa
        MOV     R3,#0x0
        LCALL   ?US_DIV_MOD
        MOV     A,R0
        ADD     A,#0x30
        MOV     DPTR,#(BUFFER + 12)
        MOVX    @DPTR,A
//  100 } 
        MOV     R7,#0x8
        LJMP    ?BANKED_LEAVE_XDATA
        CFI EndBlock cfiBlock2
//  101 

        RSEG BANKED_CODE:CODE:NOROOT(0)
//  102 void I2C_Start_1(void)
I2C_Start_1:
        CFI Block cfiBlock3 Using cfiCommon0
        CFI Function I2C_Start_1
//  103     {
        FUNCALL I2C_Start_1, Delay_1u
        LOCFRAME ISTACK, 2, STACK
        LOCFRAME PSTACK, 0, STACK
        LOCFRAME XSTACK, 0, STACK
        LOCFRAME IOVERLAY, 0, STATIC
        LOCFRAME DOVERLAY, 0, STATIC
        ARGFRAME ISTACK, 2, STACK
        ARGFRAME PSTACK, 0, STACK
        ARGFRAME XSTACK, 0, STACK
        ARGFRAME IOVERLAY, 0, STATIC
        ARGFRAME DOVERLAY, 0, STATIC
        FUNCALL I2C_Start_1, Delay_1u
        LOCFRAME ISTACK, 2, STACK
        LOCFRAME PSTACK, 0, STACK
        LOCFRAME XSTACK, 0, STACK
        LOCFRAME IOVERLAY, 0, STATIC
        LOCFRAME DOVERLAY, 0, STATIC
        ARGFRAME ISTACK, 2, STACK
        ARGFRAME PSTACK, 0, STACK
        ARGFRAME XSTACK, 0, STACK
        ARGFRAME IOVERLAY, 0, STATIC
        ARGFRAME DOVERLAY, 0, STATIC
        FUNCALL I2C_Start_1, Delay_1u
        LOCFRAME ISTACK, 2, STACK
        LOCFRAME PSTACK, 0, STACK
        LOCFRAME XSTACK, 0, STACK
        LOCFRAME IOVERLAY, 0, STATIC
        LOCFRAME DOVERLAY, 0, STATIC
        ARGFRAME ISTACK, 2, STACK
        ARGFRAME PSTACK, 0, STACK
        ARGFRAME XSTACK, 0, STACK
        ARGFRAME IOVERLAY, 0, STATIC
        ARGFRAME DOVERLAY, 0, STATIC
        FUNCALL I2C_Start_1, Delay_1u
        LOCFRAME ISTACK, 2, STACK
        LOCFRAME PSTACK, 0, STACK
        LOCFRAME XSTACK, 0, STACK
        LOCFRAME IOVERLAY, 0, STATIC
        LOCFRAME DOVERLAY, 0, STATIC
        ARGFRAME ISTACK, 2, STACK
        ARGFRAME PSTACK, 0, STACK
        ARGFRAME XSTACK, 0, STACK
        ARGFRAME IOVERLAY, 0, STATIC
        ARGFRAME DOVERLAY, 0, STATIC
        PUSH    DPL
        CFI DPL0 Frame(CFA_SP, 4)
        CFI CFA_SP SP+-4
        PUSH    DPH
        CFI DPH0 Frame(CFA_SP, 5)
        CFI CFA_SP SP+-5
        ; Saved register size: 2
        ; Auto size: 0
//  104         /*启动I2C总线的函数，当SCL为高电平时使SDA产生一个负跳变*/
//  105         SDADirOut;
        ORL     0xfe,#0x8
//  106         Delay_1u(1); 
        ; Setup parameters for call to function Delay_1u
        MOV     R2,#0x1
        MOV     R3,#0x0
        LCALL   ??Delay_1u?relay
//  107         SDA=1;
        SETB    0x90.3
//  108         SCL=1;
        SETB    0x90.2
//  109         Delay_1u(5);
        ; Setup parameters for call to function Delay_1u
        MOV     R2,#0x5
        MOV     R3,#0x0
        LCALL   ??Delay_1u?relay
//  110         SDA=0;
        CLR     0x90.3
//  111         Delay_1u(5);
        ; Setup parameters for call to function Delay_1u
        MOV     R2,#0x5
        MOV     R3,#0x0
        LCALL   ??Delay_1u?relay
//  112         SCL=0;
        CLR     0x90.2
//  113         Delay_1u(5);
        ; Setup parameters for call to function Delay_1u
        MOV     R2,#0x5
        MOV     R3,#0x0
        LCALL   ??Delay_1u?relay
//  114     }
        POP     DPH
        CFI DPH0 SameValue
        CFI CFA_SP SP+-4
        POP     DPL
        CFI DPL0 SameValue
        CFI CFA_SP SP+-3
        LJMP    ?BRET
        CFI EndBlock cfiBlock3
        REQUIRE P1DIR
        REQUIRE _A_P1
//  115 

        RSEG BANKED_CODE:CODE:NOROOT(0)
//  116     void I2C_Stop_1(void)
I2C_Stop_1:
        CFI Block cfiBlock4 Using cfiCommon0
        CFI Function I2C_Stop_1
//  117     {
        FUNCALL I2C_Stop_1, Delay_1u
        LOCFRAME ISTACK, 2, STACK
        LOCFRAME PSTACK, 0, STACK
        LOCFRAME XSTACK, 0, STACK
        LOCFRAME IOVERLAY, 0, STATIC
        LOCFRAME DOVERLAY, 0, STATIC
        ARGFRAME ISTACK, 2, STACK
        ARGFRAME PSTACK, 0, STACK
        ARGFRAME XSTACK, 0, STACK
        ARGFRAME IOVERLAY, 0, STATIC
        ARGFRAME DOVERLAY, 0, STATIC
        FUNCALL I2C_Stop_1, Delay_1u
        LOCFRAME ISTACK, 2, STACK
        LOCFRAME PSTACK, 0, STACK
        LOCFRAME XSTACK, 0, STACK
        LOCFRAME IOVERLAY, 0, STATIC
        LOCFRAME DOVERLAY, 0, STATIC
        ARGFRAME ISTACK, 2, STACK
        ARGFRAME PSTACK, 0, STACK
        ARGFRAME XSTACK, 0, STACK
        ARGFRAME IOVERLAY, 0, STATIC
        ARGFRAME DOVERLAY, 0, STATIC
        FUNCALL I2C_Stop_1, Delay_1u
        LOCFRAME ISTACK, 2, STACK
        LOCFRAME PSTACK, 0, STACK
        LOCFRAME XSTACK, 0, STACK
        LOCFRAME IOVERLAY, 0, STATIC
        LOCFRAME DOVERLAY, 0, STATIC
        ARGFRAME ISTACK, 2, STACK
        ARGFRAME PSTACK, 0, STACK
        ARGFRAME XSTACK, 0, STACK
        ARGFRAME IOVERLAY, 0, STATIC
        ARGFRAME DOVERLAY, 0, STATIC
        FUNCALL I2C_Stop_1, Delay_1u
        LOCFRAME ISTACK, 2, STACK
        LOCFRAME PSTACK, 0, STACK
        LOCFRAME XSTACK, 0, STACK
        LOCFRAME IOVERLAY, 0, STATIC
        LOCFRAME DOVERLAY, 0, STATIC
        ARGFRAME ISTACK, 2, STACK
        ARGFRAME PSTACK, 0, STACK
        ARGFRAME XSTACK, 0, STACK
        ARGFRAME IOVERLAY, 0, STATIC
        ARGFRAME DOVERLAY, 0, STATIC
        FUNCALL I2C_Stop_1, Delay_1u
        LOCFRAME ISTACK, 2, STACK
        LOCFRAME PSTACK, 0, STACK
        LOCFRAME XSTACK, 0, STACK
        LOCFRAME IOVERLAY, 0, STATIC
        LOCFRAME DOVERLAY, 0, STATIC
        ARGFRAME ISTACK, 2, STACK
        ARGFRAME PSTACK, 0, STACK
        ARGFRAME XSTACK, 0, STACK
        ARGFRAME IOVERLAY, 0, STATIC
        ARGFRAME DOVERLAY, 0, STATIC
        PUSH    DPL
        CFI DPL0 Frame(CFA_SP, 4)
        CFI CFA_SP SP+-4
        PUSH    DPH
        CFI DPH0 Frame(CFA_SP, 5)
        CFI CFA_SP SP+-5
        ; Saved register size: 2
        ; Auto size: 0
//  118         /*终止I2C总线，当SCL为高电平时使SDA产生一个正跳变*/
//  119         SCL=0;
        CLR     0x90.2
//  120         Delay_1u(1);
        ; Setup parameters for call to function Delay_1u
        MOV     R2,#0x1
        MOV     R3,#0x0
        LCALL   ??Delay_1u?relay
//  121         SDADirOut;
        ORL     0xfe,#0x8
//  122         Delay_1u(1);
        ; Setup parameters for call to function Delay_1u
        MOV     R2,#0x1
        MOV     R3,#0x0
        LCALL   ??Delay_1u?relay
//  123         SDA=0;
        CLR     0x90.3
//  124         Delay_1u(5);
        ; Setup parameters for call to function Delay_1u
        MOV     R2,#0x5
        MOV     R3,#0x0
        LCALL   ??Delay_1u?relay
//  125         SCL=1;
        SETB    0x90.2
//  126         Delay_1u(5);
        ; Setup parameters for call to function Delay_1u
        MOV     R2,#0x5
        MOV     R3,#0x0
        LCALL   ??Delay_1u?relay
//  127         SDA=1;
        SETB    0x90.3
//  128         Delay_1u(5);
        ; Setup parameters for call to function Delay_1u
        MOV     R2,#0x5
        MOV     R3,#0x0
        LCALL   ??Delay_1u?relay
//  129     }
        POP     DPH
        CFI DPH0 SameValue
        CFI CFA_SP SP+-4
        POP     DPL
        CFI DPL0 SameValue
        CFI CFA_SP SP+-3
        LJMP    ?BRET
        CFI EndBlock cfiBlock4
        REQUIRE P1DIR
        REQUIRE _A_P1
//  130 

        RSEG BANKED_CODE:CODE:NOROOT(0)
//  131 void Sendack(unsigned char h){
Sendack:
        CFI Block cfiBlock5 Using cfiCommon0
        CFI Function Sendack
        FUNCALL Sendack, Delay_1u
        LOCFRAME ISTACK, 0, STACK
        LOCFRAME PSTACK, 0, STACK
        LOCFRAME XSTACK, 9, STACK
        LOCFRAME IOVERLAY, 0, STATIC
        LOCFRAME DOVERLAY, 0, STATIC
        ARGFRAME ISTACK, 0, STACK
        ARGFRAME PSTACK, 0, STACK
        ARGFRAME XSTACK, 9, STACK
        ARGFRAME IOVERLAY, 0, STATIC
        ARGFRAME DOVERLAY, 0, STATIC
        FUNCALL Sendack, Delay
        LOCFRAME ISTACK, 0, STACK
        LOCFRAME PSTACK, 0, STACK
        LOCFRAME XSTACK, 9, STACK
        LOCFRAME IOVERLAY, 0, STATIC
        LOCFRAME DOVERLAY, 0, STATIC
        ARGFRAME ISTACK, 0, STACK
        ARGFRAME PSTACK, 0, STACK
        ARGFRAME XSTACK, 9, STACK
        ARGFRAME IOVERLAY, 0, STATIC
        ARGFRAME DOVERLAY, 0, STATIC
        FUNCALL Sendack, Delay_1u
        LOCFRAME ISTACK, 0, STACK
        LOCFRAME PSTACK, 0, STACK
        LOCFRAME XSTACK, 9, STACK
        LOCFRAME IOVERLAY, 0, STATIC
        LOCFRAME DOVERLAY, 0, STATIC
        ARGFRAME ISTACK, 0, STACK
        ARGFRAME PSTACK, 0, STACK
        ARGFRAME XSTACK, 9, STACK
        ARGFRAME IOVERLAY, 0, STATIC
        ARGFRAME DOVERLAY, 0, STATIC
        FUNCALL Sendack, Delay_1u
        LOCFRAME ISTACK, 0, STACK
        LOCFRAME PSTACK, 0, STACK
        LOCFRAME XSTACK, 9, STACK
        LOCFRAME IOVERLAY, 0, STATIC
        LOCFRAME DOVERLAY, 0, STATIC
        ARGFRAME ISTACK, 0, STACK
        ARGFRAME PSTACK, 0, STACK
        ARGFRAME XSTACK, 9, STACK
        ARGFRAME IOVERLAY, 0, STATIC
        ARGFRAME DOVERLAY, 0, STATIC
        FUNCALL Sendack, Delay_1u
        LOCFRAME ISTACK, 0, STACK
        LOCFRAME PSTACK, 0, STACK
        LOCFRAME XSTACK, 9, STACK
        LOCFRAME IOVERLAY, 0, STATIC
        LOCFRAME DOVERLAY, 0, STATIC
        ARGFRAME ISTACK, 0, STACK
        ARGFRAME PSTACK, 0, STACK
        ARGFRAME XSTACK, 9, STACK
        ARGFRAME IOVERLAY, 0, STATIC
        ARGFRAME DOVERLAY, 0, STATIC
        MOV     A,#-0x9
        LCALL   ?BANKED_ENTER_XDATA
        CFI DPH0 load(1, XDATA, add(CFA_XSP16, literal(-1)))
        CFI DPL0 load(1, XDATA, add(CFA_XSP16, literal(-2)))
        CFI ?BRET_EXT load(1, XDATA, add(CFA_XSP16, literal(-3)))
        CFI ?RET_HIGH load(1, XDATA, add(CFA_XSP16, literal(-4)))
        CFI ?RET_LOW load(1, XDATA, add(CFA_XSP16, literal(-5)))
        CFI R7 load(1, XDATA, add(CFA_XSP16, literal(-6)))
        CFI V0 load(1, XDATA, add(CFA_XSP16, literal(-7)))
        CFI VB load(1, XDATA, add(CFA_XSP16, literal(-8)))
        CFI R6 load(1, XDATA, add(CFA_XSP16, literal(-9)))
        CFI CFA_SP SP+0
        CFI CFA_XSP16 add(XSP16, 9)
        ; Saved register size: 9
        ; Auto size: 0
        MOV     A,R1
        MOV     R6,A
//  132         SCL=0;
        CLR     0x90.2
//  133         Delay_1u(5);
        ; Setup parameters for call to function Delay_1u
        MOV     R2,#0x5
        MOV     R3,#0x0
        LCALL   ??Delay_1u?relay
//  134         SDADirOut;
        ORL     0xfe,#0x8
//  135         Delay(5);
        ; Setup parameters for call to function Delay
        MOV     R2,#0x5
        MOV     R3,#0x0
        LCALL   ??Delay?relay
//  136         SDA=h&0x01;
        MOV     A,R6
        MOV     C,0xE0 /* A   */.0
        MOV     0x90.3,C
//  137         Delay_1u(5);
        ; Setup parameters for call to function Delay_1u
        MOV     R2,#0x5
        MOV     R3,#0x0
        LCALL   ??Delay_1u?relay
//  138         SCL=1;
        SETB    0x90.2
//  139         Delay_1u(5);
        ; Setup parameters for call to function Delay_1u
        MOV     R2,#0x5
        MOV     R3,#0x0
        LCALL   ??Delay_1u?relay
//  140         SCL=0;
        CLR     0x90.2
//  141         Delay_1u(5);
        ; Setup parameters for call to function Delay_1u
        MOV     R2,#0x5
        MOV     R3,#0x0
        LCALL   ??Delay_1u?relay
//  142     }
        MOV     R7,#0x1
        LJMP    ?BANKED_LEAVE_XDATA
        CFI EndBlock cfiBlock5
        REQUIRE P1DIR
        REQUIRE _A_P1
//  143 

        RSEG BANKED_CODE:CODE:NOROOT(0)
//  144 INT8U I2C_Check_ack(void){
I2C_Check_ack:
        CFI Block cfiBlock6 Using cfiCommon0
        CFI Function I2C_Check_ack
        FUNCALL I2C_Check_ack, Delay_1u
        LOCFRAME ISTACK, 2, STACK
        LOCFRAME PSTACK, 0, STACK
        LOCFRAME XSTACK, 0, STACK
        LOCFRAME IOVERLAY, 0, STATIC
        LOCFRAME DOVERLAY, 0, STATIC
        ARGFRAME ISTACK, 2, STACK
        ARGFRAME PSTACK, 0, STACK
        ARGFRAME XSTACK, 0, STACK
        ARGFRAME IOVERLAY, 0, STATIC
        ARGFRAME DOVERLAY, 0, STATIC
        FUNCALL I2C_Check_ack, Delay_1u
        LOCFRAME ISTACK, 2, STACK
        LOCFRAME PSTACK, 0, STACK
        LOCFRAME XSTACK, 0, STACK
        LOCFRAME IOVERLAY, 0, STATIC
        LOCFRAME DOVERLAY, 0, STATIC
        ARGFRAME ISTACK, 2, STACK
        ARGFRAME PSTACK, 0, STACK
        ARGFRAME XSTACK, 0, STACK
        ARGFRAME IOVERLAY, 0, STATIC
        ARGFRAME DOVERLAY, 0, STATIC
        FUNCALL I2C_Check_ack, Delay_1u
        LOCFRAME ISTACK, 2, STACK
        LOCFRAME PSTACK, 0, STACK
        LOCFRAME XSTACK, 0, STACK
        LOCFRAME IOVERLAY, 0, STATIC
        LOCFRAME DOVERLAY, 0, STATIC
        ARGFRAME ISTACK, 2, STACK
        ARGFRAME PSTACK, 0, STACK
        ARGFRAME XSTACK, 0, STACK
        ARGFRAME IOVERLAY, 0, STATIC
        ARGFRAME DOVERLAY, 0, STATIC
        PUSH    DPL
        CFI DPL0 Frame(CFA_SP, 4)
        CFI CFA_SP SP+-4
        PUSH    DPH
        CFI DPH0 Frame(CFA_SP, 5)
        CFI CFA_SP SP+-5
        ; Saved register size: 2
        ; Auto size: 0
//  145     SCL=0;
        CLR     0x90.2
//  146     Delay_1u(5);
        ; Setup parameters for call to function Delay_1u
        MOV     R2,#0x5
        MOV     R3,#0x0
        LCALL   ??Delay_1u?relay
//  147     SDADirOut;
        ORL     0xfe,#0x8
//  148     SDA=1;
        SETB    0x90.3
//  149     SDADirIn;
        ANL     0xfe,#0xf7
//  150     Delay_1u(5);          //此处是否有必要使SDA先拉高？！？！
        ; Setup parameters for call to function Delay_1u
        MOV     R2,#0x5
        MOV     R3,#0x0
        LCALL   ??Delay_1u?relay
//  151     SCL=1;
        SETB    0x90.2
//  152     Delay_1u(5);
        ; Setup parameters for call to function Delay_1u
        MOV     R2,#0x5
        MOV     R3,#0x0
        LCALL   ??Delay_1u?relay
//  153     if(SDA==1)
        MOV     C,0x90.3
        JNC     ??I2C_Check_ack_0
//  154     {
//  155       SCL=0;
        CLR     0x90.2
//  156       return 0;  //er
        MOV     R1,#0x0
        SJMP    ??I2C_Check_ack_1
//  157     }
//  158     SCL=0;
??I2C_Check_ack_0:
        CLR     0x90.2
//  159     return 1;
        MOV     R1,#0x1
??I2C_Check_ack_1:
        POP     DPH
        CFI DPH0 SameValue
        CFI CFA_SP SP+-4
        POP     DPL
        CFI DPL0 SameValue
        CFI CFA_SP SP+-3
        LJMP    ?BRET
        CFI EndBlock cfiBlock6
        REQUIRE P1DIR
        REQUIRE _A_P1
//  160 }
//  161 
//  162     
//  163 
//  164 

        RSEG BANKED_CODE:CODE:NOROOT(0)
//  165     void WriteI2CByte_1(unsigned char b)
WriteI2CByte_1:
        CFI Block cfiBlock7 Using cfiCommon0
        CFI Function WriteI2CByte_1
//  166     {
        FUNCALL WriteI2CByte_1, Delay_1u
        LOCFRAME ISTACK, 0, STACK
        LOCFRAME PSTACK, 0, STACK
        LOCFRAME XSTACK, 9, STACK
        LOCFRAME IOVERLAY, 0, STATIC
        LOCFRAME DOVERLAY, 0, STATIC
        ARGFRAME ISTACK, 0, STACK
        ARGFRAME PSTACK, 0, STACK
        ARGFRAME XSTACK, 9, STACK
        ARGFRAME IOVERLAY, 0, STATIC
        ARGFRAME DOVERLAY, 0, STATIC
        FUNCALL WriteI2CByte_1, Delay_1u
        LOCFRAME ISTACK, 0, STACK
        LOCFRAME PSTACK, 0, STACK
        LOCFRAME XSTACK, 9, STACK
        LOCFRAME IOVERLAY, 0, STATIC
        LOCFRAME DOVERLAY, 0, STATIC
        ARGFRAME ISTACK, 0, STACK
        ARGFRAME PSTACK, 0, STACK
        ARGFRAME XSTACK, 9, STACK
        ARGFRAME IOVERLAY, 0, STATIC
        ARGFRAME DOVERLAY, 0, STATIC
        FUNCALL WriteI2CByte_1, Delay_1u
        LOCFRAME ISTACK, 0, STACK
        LOCFRAME PSTACK, 0, STACK
        LOCFRAME XSTACK, 9, STACK
        LOCFRAME IOVERLAY, 0, STATIC
        LOCFRAME DOVERLAY, 0, STATIC
        ARGFRAME ISTACK, 0, STACK
        ARGFRAME PSTACK, 0, STACK
        ARGFRAME XSTACK, 9, STACK
        ARGFRAME IOVERLAY, 0, STATIC
        ARGFRAME DOVERLAY, 0, STATIC
        FUNCALL WriteI2CByte_1, I2C_Check_ack
        LOCFRAME ISTACK, 0, STACK
        LOCFRAME PSTACK, 0, STACK
        LOCFRAME XSTACK, 9, STACK
        LOCFRAME IOVERLAY, 0, STATIC
        LOCFRAME DOVERLAY, 0, STATIC
        ARGFRAME ISTACK, 0, STACK
        ARGFRAME PSTACK, 0, STACK
        ARGFRAME XSTACK, 9, STACK
        ARGFRAME IOVERLAY, 0, STATIC
        ARGFRAME DOVERLAY, 0, STATIC
        MOV     A,#-0x9
        LCALL   ?BANKED_ENTER_XDATA
        CFI DPH0 load(1, XDATA, add(CFA_XSP16, literal(-1)))
        CFI DPL0 load(1, XDATA, add(CFA_XSP16, literal(-2)))
        CFI ?BRET_EXT load(1, XDATA, add(CFA_XSP16, literal(-3)))
        CFI ?RET_HIGH load(1, XDATA, add(CFA_XSP16, literal(-4)))
        CFI ?RET_LOW load(1, XDATA, add(CFA_XSP16, literal(-5)))
        CFI R7 load(1, XDATA, add(CFA_XSP16, literal(-6)))
        CFI V0 load(1, XDATA, add(CFA_XSP16, literal(-7)))
        CFI VB load(1, XDATA, add(CFA_XSP16, literal(-8)))
        CFI R6 load(1, XDATA, add(CFA_XSP16, literal(-9)))
        CFI CFA_SP SP+0
        CFI CFA_XSP16 add(XSP16, 9)
        ; Saved register size: 9
        ; Auto size: 0
        MOV     A,R1
        MOV     R6,A
//  167         /*向I2C总线写一个字节*/
//  168         unsigned char e=8;
        MOV     R7,#0x8
//  169         SDADirOut;
        ORL     0xfe,#0x8
//  170         while(e--){
??WriteI2CByte_1_0:
        MOV     A,R7
        MOV     R2,A
        MOV     A,#-0x1
        ADD     A,R2
        MOV     R7,A
        MOV     A,R2
        JZ      ??WriteI2CByte_1_1
//  171           SCL=0;
        CLR     0x90.2
//  172           Delay_1u(5);
        ; Setup parameters for call to function Delay_1u
        MOV     R2,#0x5
        MOV     R3,#0x0
        LCALL   ??Delay_1u?relay
//  173           if(b&0x80)SDA=1;
        MOV     A,R6
        MOV     C,0xE0 /* A   */.7
        JNC     ??WriteI2CByte_1_2
        SETB    0x90.3
        SJMP    ??WriteI2CByte_1_3
//  174           else SDA=0;
??WriteI2CByte_1_2:
        CLR     0x90.3
//  175           b<<=1;
??WriteI2CByte_1_3:
        MOV     A,R6
        CLR     C
        RLC     A
        MOV     R6,A
//  176           Delay_1u(3);
        ; Setup parameters for call to function Delay_1u
        MOV     R2,#0x3
        MOV     R3,#0x0
        LCALL   ??Delay_1u?relay
//  177           SCL=1;
        SETB    0x90.2
//  178           Delay_1u(5);
        ; Setup parameters for call to function Delay_1u
        MOV     R2,#0x5
        MOV     R3,#0x0
        LCALL   ??Delay_1u?relay
        SJMP    ??WriteI2CByte_1_0
//  179         }
//  180         SCL=0;
??WriteI2CByte_1_1:
        CLR     0x90.2
//  181         I2C_Check_ack();
        ; Setup parameters for call to function I2C_Check_ack
        LCALL   ??I2C_Check_ack?relay
//  182     }
        MOV     R7,#0x1
        LJMP    ?BANKED_LEAVE_XDATA
        CFI EndBlock cfiBlock7
        REQUIRE P1DIR
        REQUIRE _A_P1
//  183 

        RSEG BANKED_CODE:CODE:NOROOT(0)
//  184 unsigned char ReadI2CByte_1(void)
ReadI2CByte_1:
        CFI Block cfiBlock8 Using cfiCommon0
        CFI Function ReadI2CByte_1
//  185     {
        FUNCALL ReadI2CByte_1, Delay_1u
        LOCFRAME ISTACK, 0, STACK
        LOCFRAME PSTACK, 0, STACK
        LOCFRAME XSTACK, 9, STACK
        LOCFRAME IOVERLAY, 0, STATIC
        LOCFRAME DOVERLAY, 0, STATIC
        ARGFRAME ISTACK, 0, STACK
        ARGFRAME PSTACK, 0, STACK
        ARGFRAME XSTACK, 9, STACK
        ARGFRAME IOVERLAY, 0, STATIC
        ARGFRAME DOVERLAY, 0, STATIC
        FUNCALL ReadI2CByte_1, Delay_1u
        LOCFRAME ISTACK, 0, STACK
        LOCFRAME PSTACK, 0, STACK
        LOCFRAME XSTACK, 9, STACK
        LOCFRAME IOVERLAY, 0, STATIC
        LOCFRAME DOVERLAY, 0, STATIC
        ARGFRAME ISTACK, 0, STACK
        ARGFRAME PSTACK, 0, STACK
        ARGFRAME XSTACK, 9, STACK
        ARGFRAME IOVERLAY, 0, STATIC
        ARGFRAME DOVERLAY, 0, STATIC
        FUNCALL ReadI2CByte_1, Delay_1u
        LOCFRAME ISTACK, 0, STACK
        LOCFRAME PSTACK, 0, STACK
        LOCFRAME XSTACK, 9, STACK
        LOCFRAME IOVERLAY, 0, STATIC
        LOCFRAME DOVERLAY, 0, STATIC
        ARGFRAME ISTACK, 0, STACK
        ARGFRAME PSTACK, 0, STACK
        ARGFRAME XSTACK, 9, STACK
        ARGFRAME IOVERLAY, 0, STATIC
        ARGFRAME DOVERLAY, 0, STATIC
        MOV     A,#-0x9
        LCALL   ?BANKED_ENTER_XDATA
        CFI DPH0 load(1, XDATA, add(CFA_XSP16, literal(-1)))
        CFI DPL0 load(1, XDATA, add(CFA_XSP16, literal(-2)))
        CFI ?BRET_EXT load(1, XDATA, add(CFA_XSP16, literal(-3)))
        CFI ?RET_HIGH load(1, XDATA, add(CFA_XSP16, literal(-4)))
        CFI ?RET_LOW load(1, XDATA, add(CFA_XSP16, literal(-5)))
        CFI R7 load(1, XDATA, add(CFA_XSP16, literal(-6)))
        CFI V0 load(1, XDATA, add(CFA_XSP16, literal(-7)))
        CFI VB load(1, XDATA, add(CFA_XSP16, literal(-8)))
        CFI R6 load(1, XDATA, add(CFA_XSP16, literal(-9)))
        CFI CFA_SP SP+0
        CFI CFA_XSP16 add(XSP16, 9)
        ; Saved register size: 9
        ; Auto size: 0
//  186         /*从I2C总线读一个字节*/
//  187     unsigned char i=8;
        MOV     R6,#0x8
//  188     unsigned char c=0;
        MOV     R7,#0x0
//  189     SCL=0;
        CLR     0x90.2
//  190     SDADirOut;
        ORL     0xfe,#0x8
//  191     SDA=1;
        SETB    0x90.3
//  192     Delay_1u(3);
        ; Setup parameters for call to function Delay_1u
        MOV     R2,#0x3
        MOV     R3,#0x0
        LCALL   ??Delay_1u?relay
//  193     SDADirIn;
        ANL     0xfe,#0xf7
//  194     while(i--){
??ReadI2CByte_1_0:
        MOV     A,R6
        MOV     R2,A
        MOV     A,#-0x1
        ADD     A,R2
        MOV     R6,A
        MOV     A,R2
        JZ      ??ReadI2CByte_1_1
//  195       c<<=1;
        MOV     A,R7
        CLR     C
        RLC     A
        MOV     R7,A
//  196       SCL=0;
        CLR     0x90.2
//  197       Delay_1u(5);
        ; Setup parameters for call to function Delay_1u
        MOV     R2,#0x5
        MOV     R3,#0x0
        LCALL   ??Delay_1u?relay
//  198       SCL=1;
        SETB    0x90.2
//  199       Delay_1u(5);
        ; Setup parameters for call to function Delay_1u
        MOV     R2,#0x5
        MOV     R3,#0x0
        LCALL   ??Delay_1u?relay
//  200       if(SDA==1)c|=0x01;
        MOV     C,0x90.3
        JNC     ??ReadI2CByte_1_2
        SETB    C
        MOV     A,R7
        MOV     0xE0 /* A   */.0,C
        MOV     R7,A
        SJMP    ??ReadI2CByte_1_0
//  201       else c&=0xfe;
??ReadI2CByte_1_2:
        CLR     C
        MOV     A,R7
        MOV     0xE0 /* A   */.0,C
        MOV     R7,A
        SJMP    ??ReadI2CByte_1_0
//  202     }
//  203     SCL=0;
??ReadI2CByte_1_1:
        CLR     0x90.2
//  204     SDADirOut;
        ORL     0xfe,#0x8
//  205     return c; 
        MOV     A,R7
        MOV     R1,A
        MOV     R7,#0x1
        LJMP    ?BANKED_LEAVE_XDATA
        CFI EndBlock cfiBlock8
        REQUIRE P1DIR
        REQUIRE _A_P1
//  206     }
//  207 //******单字节写入******************************************* 
//  208 

        RSEG BANKED_CODE:CODE:NOROOT(0)
//  209 void Single_Write_ADXL345(INT8U REG_Address,INT8U REG_data) 
Single_Write_ADXL345:
        CFI Block cfiBlock9 Using cfiCommon0
        CFI Function Single_Write_ADXL345
//  210 { 
        FUNCALL Single_Write_ADXL345, I2C_Start_1
        LOCFRAME ISTACK, 0, STACK
        LOCFRAME PSTACK, 0, STACK
        LOCFRAME XSTACK, 9, STACK
        LOCFRAME IOVERLAY, 0, STATIC
        LOCFRAME DOVERLAY, 0, STATIC
        ARGFRAME ISTACK, 0, STACK
        ARGFRAME PSTACK, 0, STACK
        ARGFRAME XSTACK, 9, STACK
        ARGFRAME IOVERLAY, 0, STATIC
        ARGFRAME DOVERLAY, 0, STATIC
        FUNCALL Single_Write_ADXL345, WriteI2CByte_1
        LOCFRAME ISTACK, 0, STACK
        LOCFRAME PSTACK, 0, STACK
        LOCFRAME XSTACK, 9, STACK
        LOCFRAME IOVERLAY, 0, STATIC
        LOCFRAME DOVERLAY, 0, STATIC
        ARGFRAME ISTACK, 0, STACK
        ARGFRAME PSTACK, 0, STACK
        ARGFRAME XSTACK, 9, STACK
        ARGFRAME IOVERLAY, 0, STATIC
        ARGFRAME DOVERLAY, 0, STATIC
        FUNCALL Single_Write_ADXL345, WriteI2CByte_1
        LOCFRAME ISTACK, 0, STACK
        LOCFRAME PSTACK, 0, STACK
        LOCFRAME XSTACK, 9, STACK
        LOCFRAME IOVERLAY, 0, STATIC
        LOCFRAME DOVERLAY, 0, STATIC
        ARGFRAME ISTACK, 0, STACK
        ARGFRAME PSTACK, 0, STACK
        ARGFRAME XSTACK, 9, STACK
        ARGFRAME IOVERLAY, 0, STATIC
        ARGFRAME DOVERLAY, 0, STATIC
        FUNCALL Single_Write_ADXL345, WriteI2CByte_1
        LOCFRAME ISTACK, 0, STACK
        LOCFRAME PSTACK, 0, STACK
        LOCFRAME XSTACK, 9, STACK
        LOCFRAME IOVERLAY, 0, STATIC
        LOCFRAME DOVERLAY, 0, STATIC
        ARGFRAME ISTACK, 0, STACK
        ARGFRAME PSTACK, 0, STACK
        ARGFRAME XSTACK, 9, STACK
        ARGFRAME IOVERLAY, 0, STATIC
        ARGFRAME DOVERLAY, 0, STATIC
        FUNCALL Single_Write_ADXL345, I2C_Stop_1
        LOCFRAME ISTACK, 0, STACK
        LOCFRAME PSTACK, 0, STACK
        LOCFRAME XSTACK, 9, STACK
        LOCFRAME IOVERLAY, 0, STATIC
        LOCFRAME DOVERLAY, 0, STATIC
        ARGFRAME ISTACK, 0, STACK
        ARGFRAME PSTACK, 0, STACK
        ARGFRAME XSTACK, 9, STACK
        ARGFRAME IOVERLAY, 0, STATIC
        ARGFRAME DOVERLAY, 0, STATIC
        MOV     A,#-0x9
        LCALL   ?BANKED_ENTER_XDATA
        CFI DPH0 load(1, XDATA, add(CFA_XSP16, literal(-1)))
        CFI DPL0 load(1, XDATA, add(CFA_XSP16, literal(-2)))
        CFI ?BRET_EXT load(1, XDATA, add(CFA_XSP16, literal(-3)))
        CFI ?RET_HIGH load(1, XDATA, add(CFA_XSP16, literal(-4)))
        CFI ?RET_LOW load(1, XDATA, add(CFA_XSP16, literal(-5)))
        CFI R7 load(1, XDATA, add(CFA_XSP16, literal(-6)))
        CFI V0 load(1, XDATA, add(CFA_XSP16, literal(-7)))
        CFI VB load(1, XDATA, add(CFA_XSP16, literal(-8)))
        CFI R6 load(1, XDATA, add(CFA_XSP16, literal(-9)))
        CFI CFA_SP SP+0
        CFI CFA_XSP16 add(XSP16, 9)
        ; Saved register size: 9
        ; Auto size: 0
        MOV     A,R1
        MOV     R6,A
        MOV     A,R2
        MOV     R7,A
//  211     I2C_Start_1();                  //起始信号 
        ; Setup parameters for call to function I2C_Start_1
        LCALL   ??I2C_Start_1?relay
//  212     WriteI2CByte_1(SlaveAddress);   //发送设备地址+写信号 
        ; Setup parameters for call to function WriteI2CByte_1
        MOV     R1,#-0x5a
        LCALL   ??WriteI2CByte_1?relay
//  213     WriteI2CByte_1(REG_Address);    //内部寄存器地址，请参考中文pdf22页  
        ; Setup parameters for call to function WriteI2CByte_1
        MOV     A,R6
        MOV     R1,A
        LCALL   ??WriteI2CByte_1?relay
//  214     WriteI2CByte_1(REG_data);       //内部寄存器数据，请参考中文pdf22页  
        ; Setup parameters for call to function WriteI2CByte_1
        MOV     A,R7
        MOV     R1,A
        LCALL   ??WriteI2CByte_1?relay
//  215     I2C_Stop_1();                   //发送停止信号 
        ; Setup parameters for call to function I2C_Stop_1
        LCALL   ??I2C_Stop_1?relay
//  216 } 
        MOV     R7,#0x1
        LJMP    ?BANKED_LEAVE_XDATA
        CFI EndBlock cfiBlock9
//  217 
//  218 //********单字节读取***************************************** 

        RSEG BANKED_CODE:CODE:NOROOT(0)
//  219 unsigned char Single_Read_ADXL345(INT8U REG_Address) 
Single_Read_ADXL345:
        CFI Block cfiBlock10 Using cfiCommon0
        CFI Function Single_Read_ADXL345
//  220 {  INT8U REG_data;
        FUNCALL Single_Read_ADXL345, I2C_Start_1
        LOCFRAME ISTACK, 0, STACK
        LOCFRAME PSTACK, 0, STACK
        LOCFRAME XSTACK, 9, STACK
        LOCFRAME IOVERLAY, 0, STATIC
        LOCFRAME DOVERLAY, 0, STATIC
        ARGFRAME ISTACK, 0, STACK
        ARGFRAME PSTACK, 0, STACK
        ARGFRAME XSTACK, 9, STACK
        ARGFRAME IOVERLAY, 0, STATIC
        ARGFRAME DOVERLAY, 0, STATIC
        FUNCALL Single_Read_ADXL345, WriteI2CByte_1
        LOCFRAME ISTACK, 0, STACK
        LOCFRAME PSTACK, 0, STACK
        LOCFRAME XSTACK, 9, STACK
        LOCFRAME IOVERLAY, 0, STATIC
        LOCFRAME DOVERLAY, 0, STATIC
        ARGFRAME ISTACK, 0, STACK
        ARGFRAME PSTACK, 0, STACK
        ARGFRAME XSTACK, 9, STACK
        ARGFRAME IOVERLAY, 0, STATIC
        ARGFRAME DOVERLAY, 0, STATIC
        FUNCALL Single_Read_ADXL345, WriteI2CByte_1
        LOCFRAME ISTACK, 0, STACK
        LOCFRAME PSTACK, 0, STACK
        LOCFRAME XSTACK, 9, STACK
        LOCFRAME IOVERLAY, 0, STATIC
        LOCFRAME DOVERLAY, 0, STATIC
        ARGFRAME ISTACK, 0, STACK
        ARGFRAME PSTACK, 0, STACK
        ARGFRAME XSTACK, 9, STACK
        ARGFRAME IOVERLAY, 0, STATIC
        ARGFRAME DOVERLAY, 0, STATIC
        FUNCALL Single_Read_ADXL345, I2C_Start_1
        LOCFRAME ISTACK, 0, STACK
        LOCFRAME PSTACK, 0, STACK
        LOCFRAME XSTACK, 9, STACK
        LOCFRAME IOVERLAY, 0, STATIC
        LOCFRAME DOVERLAY, 0, STATIC
        ARGFRAME ISTACK, 0, STACK
        ARGFRAME PSTACK, 0, STACK
        ARGFRAME XSTACK, 9, STACK
        ARGFRAME IOVERLAY, 0, STATIC
        ARGFRAME DOVERLAY, 0, STATIC
        FUNCALL Single_Read_ADXL345, WriteI2CByte_1
        LOCFRAME ISTACK, 0, STACK
        LOCFRAME PSTACK, 0, STACK
        LOCFRAME XSTACK, 9, STACK
        LOCFRAME IOVERLAY, 0, STATIC
        LOCFRAME DOVERLAY, 0, STATIC
        ARGFRAME ISTACK, 0, STACK
        ARGFRAME PSTACK, 0, STACK
        ARGFRAME XSTACK, 9, STACK
        ARGFRAME IOVERLAY, 0, STATIC
        ARGFRAME DOVERLAY, 0, STATIC
        FUNCALL Single_Read_ADXL345, ReadI2CByte_1
        LOCFRAME ISTACK, 0, STACK
        LOCFRAME PSTACK, 0, STACK
        LOCFRAME XSTACK, 9, STACK
        LOCFRAME IOVERLAY, 0, STATIC
        LOCFRAME DOVERLAY, 0, STATIC
        ARGFRAME ISTACK, 0, STACK
        ARGFRAME PSTACK, 0, STACK
        ARGFRAME XSTACK, 9, STACK
        ARGFRAME IOVERLAY, 0, STATIC
        ARGFRAME DOVERLAY, 0, STATIC
        FUNCALL Single_Read_ADXL345, Sendack
        LOCFRAME ISTACK, 0, STACK
        LOCFRAME PSTACK, 0, STACK
        LOCFRAME XSTACK, 9, STACK
        LOCFRAME IOVERLAY, 0, STATIC
        LOCFRAME DOVERLAY, 0, STATIC
        ARGFRAME ISTACK, 0, STACK
        ARGFRAME PSTACK, 0, STACK
        ARGFRAME XSTACK, 9, STACK
        ARGFRAME IOVERLAY, 0, STATIC
        ARGFRAME DOVERLAY, 0, STATIC
        FUNCALL Single_Read_ADXL345, I2C_Stop_1
        LOCFRAME ISTACK, 0, STACK
        LOCFRAME PSTACK, 0, STACK
        LOCFRAME XSTACK, 9, STACK
        LOCFRAME IOVERLAY, 0, STATIC
        LOCFRAME DOVERLAY, 0, STATIC
        ARGFRAME ISTACK, 0, STACK
        ARGFRAME PSTACK, 0, STACK
        ARGFRAME XSTACK, 9, STACK
        ARGFRAME IOVERLAY, 0, STATIC
        ARGFRAME DOVERLAY, 0, STATIC
        MOV     A,#-0x9
        LCALL   ?BANKED_ENTER_XDATA
        CFI DPH0 load(1, XDATA, add(CFA_XSP16, literal(-1)))
        CFI DPL0 load(1, XDATA, add(CFA_XSP16, literal(-2)))
        CFI ?BRET_EXT load(1, XDATA, add(CFA_XSP16, literal(-3)))
        CFI ?RET_HIGH load(1, XDATA, add(CFA_XSP16, literal(-4)))
        CFI ?RET_LOW load(1, XDATA, add(CFA_XSP16, literal(-5)))
        CFI R7 load(1, XDATA, add(CFA_XSP16, literal(-6)))
        CFI V0 load(1, XDATA, add(CFA_XSP16, literal(-7)))
        CFI VB load(1, XDATA, add(CFA_XSP16, literal(-8)))
        CFI R6 load(1, XDATA, add(CFA_XSP16, literal(-9)))
        CFI CFA_SP SP+0
        CFI CFA_XSP16 add(XSP16, 9)
        ; Saved register size: 9
        ; Auto size: 0
        MOV     A,R1
        MOV     R6,A
//  221     I2C_Start_1();                          //起始信号 
        ; Setup parameters for call to function I2C_Start_1
        LCALL   ??I2C_Start_1?relay
//  222     WriteI2CByte_1(SlaveAddress);           //发送设备地址+写信号 
        ; Setup parameters for call to function WriteI2CByte_1
        MOV     R1,#-0x5a
        LCALL   ??WriteI2CByte_1?relay
//  223     WriteI2CByte_1(REG_Address);                   //发送存储单元地址，从0开始	
        ; Setup parameters for call to function WriteI2CByte_1
        MOV     A,R6
        MOV     R1,A
        LCALL   ??WriteI2CByte_1?relay
//  224     I2C_Start_1();                          //起始信号 
        ; Setup parameters for call to function I2C_Start_1
        LCALL   ??I2C_Start_1?relay
//  225     WriteI2CByte_1(SlaveAddress+1);         //发送设备地址+读信号 
        ; Setup parameters for call to function WriteI2CByte_1
        MOV     R1,#-0x59
        LCALL   ??WriteI2CByte_1?relay
//  226     REG_data=ReadI2CByte_1();              //读出寄存器数据 
        ; Setup parameters for call to function ReadI2CByte_1
        LCALL   ??ReadI2CByte_1?relay
        MOV     A,R1
        MOV     R7,A
//  227     Sendack(1);   
        ; Setup parameters for call to function Sendack
        MOV     R1,#0x1
        LCALL   ??Sendack?relay
//  228     I2C_Stop_1();                           //停止信号 
        ; Setup parameters for call to function I2C_Stop_1
        LCALL   ??I2C_Stop_1?relay
//  229     return REG_data;  
        MOV     A,R7
        MOV     R1,A
        MOV     R7,#0x1
        LJMP    ?BANKED_LEAVE_XDATA
        CFI EndBlock cfiBlock10
//  230 } 
//  231 

        RSEG BANKED_CODE:CODE:NOROOT(0)
//  232 void Init_ADXL345() 
Init_ADXL345:
        CFI Block cfiBlock11 Using cfiCommon0
        CFI Function Init_ADXL345
//  233 { 
        FUNCALL Init_ADXL345, Single_Write_ADXL345
        LOCFRAME ISTACK, 2, STACK
        LOCFRAME PSTACK, 0, STACK
        LOCFRAME XSTACK, 0, STACK
        LOCFRAME IOVERLAY, 0, STATIC
        LOCFRAME DOVERLAY, 0, STATIC
        ARGFRAME ISTACK, 2, STACK
        ARGFRAME PSTACK, 0, STACK
        ARGFRAME XSTACK, 0, STACK
        ARGFRAME IOVERLAY, 0, STATIC
        ARGFRAME DOVERLAY, 0, STATIC
        FUNCALL Init_ADXL345, Single_Write_ADXL345
        LOCFRAME ISTACK, 2, STACK
        LOCFRAME PSTACK, 0, STACK
        LOCFRAME XSTACK, 0, STACK
        LOCFRAME IOVERLAY, 0, STATIC
        LOCFRAME DOVERLAY, 0, STATIC
        ARGFRAME ISTACK, 2, STACK
        ARGFRAME PSTACK, 0, STACK
        ARGFRAME XSTACK, 0, STACK
        ARGFRAME IOVERLAY, 0, STATIC
        ARGFRAME DOVERLAY, 0, STATIC
        FUNCALL Init_ADXL345, Single_Write_ADXL345
        LOCFRAME ISTACK, 2, STACK
        LOCFRAME PSTACK, 0, STACK
        LOCFRAME XSTACK, 0, STACK
        LOCFRAME IOVERLAY, 0, STATIC
        LOCFRAME DOVERLAY, 0, STATIC
        ARGFRAME ISTACK, 2, STACK
        ARGFRAME PSTACK, 0, STACK
        ARGFRAME XSTACK, 0, STACK
        ARGFRAME IOVERLAY, 0, STATIC
        ARGFRAME DOVERLAY, 0, STATIC
        FUNCALL Init_ADXL345, Single_Write_ADXL345
        LOCFRAME ISTACK, 2, STACK
        LOCFRAME PSTACK, 0, STACK
        LOCFRAME XSTACK, 0, STACK
        LOCFRAME IOVERLAY, 0, STATIC
        LOCFRAME DOVERLAY, 0, STATIC
        ARGFRAME ISTACK, 2, STACK
        ARGFRAME PSTACK, 0, STACK
        ARGFRAME XSTACK, 0, STACK
        ARGFRAME IOVERLAY, 0, STATIC
        ARGFRAME DOVERLAY, 0, STATIC
        FUNCALL Init_ADXL345, Single_Write_ADXL345
        LOCFRAME ISTACK, 2, STACK
        LOCFRAME PSTACK, 0, STACK
        LOCFRAME XSTACK, 0, STACK
        LOCFRAME IOVERLAY, 0, STATIC
        LOCFRAME DOVERLAY, 0, STATIC
        ARGFRAME ISTACK, 2, STACK
        ARGFRAME PSTACK, 0, STACK
        ARGFRAME XSTACK, 0, STACK
        ARGFRAME IOVERLAY, 0, STATIC
        ARGFRAME DOVERLAY, 0, STATIC
        FUNCALL Init_ADXL345, Single_Write_ADXL345
        LOCFRAME ISTACK, 2, STACK
        LOCFRAME PSTACK, 0, STACK
        LOCFRAME XSTACK, 0, STACK
        LOCFRAME IOVERLAY, 0, STATIC
        LOCFRAME DOVERLAY, 0, STATIC
        ARGFRAME ISTACK, 2, STACK
        ARGFRAME PSTACK, 0, STACK
        ARGFRAME XSTACK, 0, STACK
        ARGFRAME IOVERLAY, 0, STATIC
        ARGFRAME DOVERLAY, 0, STATIC
        FUNCALL Init_ADXL345, Single_Write_ADXL345
        LOCFRAME ISTACK, 2, STACK
        LOCFRAME PSTACK, 0, STACK
        LOCFRAME XSTACK, 0, STACK
        LOCFRAME IOVERLAY, 0, STATIC
        LOCFRAME DOVERLAY, 0, STATIC
        ARGFRAME ISTACK, 2, STACK
        ARGFRAME PSTACK, 0, STACK
        ARGFRAME XSTACK, 0, STACK
        ARGFRAME IOVERLAY, 0, STATIC
        ARGFRAME DOVERLAY, 0, STATIC
        PUSH    DPL
        CFI DPL0 Frame(CFA_SP, 4)
        CFI CFA_SP SP+-4
        PUSH    DPH
        CFI DPH0 Frame(CFA_SP, 5)
        CFI CFA_SP SP+-5
        ; Saved register size: 2
        ; Auto size: 0
//  234   P1DIR = 0x0C;
        MOV     0xfe,#0xc
//  235    Single_Write_ADXL345(0x31,0x0B);   //测量范围,正负16g，13位模式 
        ; Setup parameters for call to function Single_Write_ADXL345
        MOV     R2,#0xb
        MOV     R1,#0x31
        LCALL   ??Single_Write_ADXL345?relay
//  236    Single_Write_ADXL345(0x2C,0x0F);   //速率设定为12.5 参考pdf13页 
        ; Setup parameters for call to function Single_Write_ADXL345
        MOV     R2,#0xf
        MOV     R1,#0x2c
        LCALL   ??Single_Write_ADXL345?relay
//  237    Single_Write_ADXL345(0x2D,0x08);   //选择电源模式   参考pdf24页 
        ; Setup parameters for call to function Single_Write_ADXL345
        MOV     R2,#0x8
        MOV     R1,#0x2d
        LCALL   ??Single_Write_ADXL345?relay
//  238    Single_Write_ADXL345(0x2E,0x80);   //使能 DATA_READY 中断 
        ; Setup parameters for call to function Single_Write_ADXL345
        MOV     R2,#-0x80
        MOV     R1,#0x2e
        LCALL   ??Single_Write_ADXL345?relay
//  239    Single_Write_ADXL345(0x1E,0x00);   //X 偏移量 根据测试传感器的状态写入pdf29页 
        ; Setup parameters for call to function Single_Write_ADXL345
        MOV     R2,#0x0
        MOV     R1,#0x1e
        LCALL   ??Single_Write_ADXL345?relay
//  240    Single_Write_ADXL345(0x1F,0x00);   //Y 偏移量 根据测试传感器的状态写入pdf29页 
        ; Setup parameters for call to function Single_Write_ADXL345
        MOV     R2,#0x0
        MOV     R1,#0x1f
        LCALL   ??Single_Write_ADXL345?relay
//  241    Single_Write_ADXL345(0x20,0x05);   //Z 偏移量 根据测试传感器的状态写入pdf29页 
        ; Setup parameters for call to function Single_Write_ADXL345
        MOV     R2,#0x5
        MOV     R1,#0x20
        LCALL   ??Single_Write_ADXL345?relay
//  242 } 
        POP     DPH
        CFI DPH0 SameValue
        CFI CFA_SP SP+-4
        POP     DPL
        CFI DPL0 SameValue
        CFI CFA_SP SP+-3
        LJMP    ?BRET
        CFI EndBlock cfiBlock11
        REQUIRE P1DIR
//  243 
//  244 //********************************************************* 
//  245 // 
//  246 //连续读出ADXL345内部加速度数据，地址范围0x32~0x37 
//  247 // 
//  248 //********************************************************* 

        RSEG BANKED_CODE:CODE:NOROOT(0)
//  249 void Multiple_Read_ADXL345(void) 
Multiple_Read_ADXL345:
        CFI Block cfiBlock12 Using cfiCommon0
        CFI Function Multiple_Read_ADXL345
//  250 {   INT8U f; 
        FUNCALL Multiple_Read_ADXL345, I2C_Start_1
        LOCFRAME ISTACK, 0, STACK
        LOCFRAME PSTACK, 0, STACK
        LOCFRAME XSTACK, 10, STACK
        LOCFRAME IOVERLAY, 0, STATIC
        LOCFRAME DOVERLAY, 0, STATIC
        ARGFRAME ISTACK, 0, STACK
        ARGFRAME PSTACK, 0, STACK
        ARGFRAME XSTACK, 10, STACK
        ARGFRAME IOVERLAY, 0, STATIC
        ARGFRAME DOVERLAY, 0, STATIC
        FUNCALL Multiple_Read_ADXL345, WriteI2CByte_1
        LOCFRAME ISTACK, 0, STACK
        LOCFRAME PSTACK, 0, STACK
        LOCFRAME XSTACK, 10, STACK
        LOCFRAME IOVERLAY, 0, STATIC
        LOCFRAME DOVERLAY, 0, STATIC
        ARGFRAME ISTACK, 0, STACK
        ARGFRAME PSTACK, 0, STACK
        ARGFRAME XSTACK, 10, STACK
        ARGFRAME IOVERLAY, 0, STATIC
        ARGFRAME DOVERLAY, 0, STATIC
        FUNCALL Multiple_Read_ADXL345, WriteI2CByte_1
        LOCFRAME ISTACK, 0, STACK
        LOCFRAME PSTACK, 0, STACK
        LOCFRAME XSTACK, 10, STACK
        LOCFRAME IOVERLAY, 0, STATIC
        LOCFRAME DOVERLAY, 0, STATIC
        ARGFRAME ISTACK, 0, STACK
        ARGFRAME PSTACK, 0, STACK
        ARGFRAME XSTACK, 10, STACK
        ARGFRAME IOVERLAY, 0, STATIC
        ARGFRAME DOVERLAY, 0, STATIC
        FUNCALL Multiple_Read_ADXL345, I2C_Start_1
        LOCFRAME ISTACK, 0, STACK
        LOCFRAME PSTACK, 0, STACK
        LOCFRAME XSTACK, 10, STACK
        LOCFRAME IOVERLAY, 0, STATIC
        LOCFRAME DOVERLAY, 0, STATIC
        ARGFRAME ISTACK, 0, STACK
        ARGFRAME PSTACK, 0, STACK
        ARGFRAME XSTACK, 10, STACK
        ARGFRAME IOVERLAY, 0, STATIC
        ARGFRAME DOVERLAY, 0, STATIC
        FUNCALL Multiple_Read_ADXL345, WriteI2CByte_1
        LOCFRAME ISTACK, 0, STACK
        LOCFRAME PSTACK, 0, STACK
        LOCFRAME XSTACK, 10, STACK
        LOCFRAME IOVERLAY, 0, STATIC
        LOCFRAME DOVERLAY, 0, STATIC
        ARGFRAME ISTACK, 0, STACK
        ARGFRAME PSTACK, 0, STACK
        ARGFRAME XSTACK, 10, STACK
        ARGFRAME IOVERLAY, 0, STATIC
        ARGFRAME DOVERLAY, 0, STATIC
        FUNCALL Multiple_Read_ADXL345, ReadI2CByte_1
        LOCFRAME ISTACK, 0, STACK
        LOCFRAME PSTACK, 0, STACK
        LOCFRAME XSTACK, 10, STACK
        LOCFRAME IOVERLAY, 0, STATIC
        LOCFRAME DOVERLAY, 0, STATIC
        ARGFRAME ISTACK, 0, STACK
        ARGFRAME PSTACK, 0, STACK
        ARGFRAME XSTACK, 10, STACK
        ARGFRAME IOVERLAY, 0, STATIC
        ARGFRAME DOVERLAY, 0, STATIC
        FUNCALL Multiple_Read_ADXL345, Sendack
        LOCFRAME ISTACK, 0, STACK
        LOCFRAME PSTACK, 0, STACK
        LOCFRAME XSTACK, 10, STACK
        LOCFRAME IOVERLAY, 0, STATIC
        LOCFRAME DOVERLAY, 0, STATIC
        ARGFRAME ISTACK, 0, STACK
        ARGFRAME PSTACK, 0, STACK
        ARGFRAME XSTACK, 10, STACK
        ARGFRAME IOVERLAY, 0, STATIC
        ARGFRAME DOVERLAY, 0, STATIC
        FUNCALL Multiple_Read_ADXL345, Sendack
        LOCFRAME ISTACK, 0, STACK
        LOCFRAME PSTACK, 0, STACK
        LOCFRAME XSTACK, 10, STACK
        LOCFRAME IOVERLAY, 0, STATIC
        LOCFRAME DOVERLAY, 0, STATIC
        ARGFRAME ISTACK, 0, STACK
        ARGFRAME PSTACK, 0, STACK
        ARGFRAME XSTACK, 10, STACK
        ARGFRAME IOVERLAY, 0, STATIC
        ARGFRAME DOVERLAY, 0, STATIC
        FUNCALL Multiple_Read_ADXL345, I2C_Stop_1
        LOCFRAME ISTACK, 0, STACK
        LOCFRAME PSTACK, 0, STACK
        LOCFRAME XSTACK, 10, STACK
        LOCFRAME IOVERLAY, 0, STATIC
        LOCFRAME DOVERLAY, 0, STATIC
        ARGFRAME ISTACK, 0, STACK
        ARGFRAME PSTACK, 0, STACK
        ARGFRAME XSTACK, 10, STACK
        ARGFRAME IOVERLAY, 0, STATIC
        ARGFRAME DOVERLAY, 0, STATIC
        MOV     A,#-0xa
        LCALL   ?BANKED_ENTER_XDATA
        CFI DPH0 load(1, XDATA, add(CFA_XSP16, literal(-1)))
        CFI DPL0 load(1, XDATA, add(CFA_XSP16, literal(-2)))
        CFI ?BRET_EXT load(1, XDATA, add(CFA_XSP16, literal(-3)))
        CFI ?RET_HIGH load(1, XDATA, add(CFA_XSP16, literal(-4)))
        CFI ?RET_LOW load(1, XDATA, add(CFA_XSP16, literal(-5)))
        CFI R7 load(1, XDATA, add(CFA_XSP16, literal(-6)))
        CFI V1 load(1, XDATA, add(CFA_XSP16, literal(-7)))
        CFI V0 load(1, XDATA, add(CFA_XSP16, literal(-8)))
        CFI VB load(1, XDATA, add(CFA_XSP16, literal(-9)))
        CFI R6 load(1, XDATA, add(CFA_XSP16, literal(-10)))
        CFI CFA_SP SP+0
        CFI CFA_XSP16 add(XSP16, 10)
        ; Saved register size: 10
        ; Auto size: 0
//  251     I2C_Start_1();                          //起始信号 
        ; Setup parameters for call to function I2C_Start_1
        LCALL   ??I2C_Start_1?relay
//  252     WriteI2CByte_1(SlaveAddress);           //发送设备地址+写信号 
        ; Setup parameters for call to function WriteI2CByte_1
        MOV     R1,#-0x5a
        LCALL   ??WriteI2CByte_1?relay
//  253     WriteI2CByte_1(0x32);                   //发送存储单元地址，从0x32开始	
        ; Setup parameters for call to function WriteI2CByte_1
        MOV     R1,#0x32
        LCALL   ??WriteI2CByte_1?relay
//  254     I2C_Start_1();                          //起始信号 
        ; Setup parameters for call to function I2C_Start_1
        LCALL   ??I2C_Start_1?relay
//  255     WriteI2CByte_1(SlaveAddress+1);         //发送设备地址+读信号 
        ; Setup parameters for call to function WriteI2CByte_1
        MOV     R1,#-0x59
        LCALL   ??WriteI2CByte_1?relay
//  256  for (f=0; f<6; f++)                      //连续读取6个地址数据，存储中BUF 
        MOV     R6,#0x0
??Multiple_Read_ADXL345_0:
        MOV     A,R6
        CLR     C
        SUBB    A,#0x6
        JNC     ??Multiple_Read_ADXL345_1
//  257     { 
//  258         BUFFER[7+f] = ReadI2CByte_1();          //BUF[0]存储0x32地址中的数据 
        ; Setup parameters for call to function ReadI2CByte_1
        LCALL   ??ReadI2CByte_1?relay
        MOV     A,R1
        PUSH    A
        CFI CFA_SP SP+-1
        MOV     ?V0 + 0,R6
        MOV     ?V0 + 1,#0x0
        MOV     A,?V0 + 0
        ADD     A,#((BUFFER + 7) & 0xff)
        MOV     DPL,A
        MOV     A,?V0 + 1
        ADDC    A,#(((BUFFER + 7) >> 8) & 0xff)
        MOV     DPH,A
        POP     A
        CFI CFA_SP SP+0
        MOVX    @DPTR,A
//  259       if (f == 5) 
        MOV     A,#0x5
        XRL     A,R6
        JNZ     ??Multiple_Read_ADXL345_2
//  260         { 
//  261           Sendack(1);                //最后一个数据需要回NOACK 
        ; Setup parameters for call to function Sendack
        MOV     R1,#0x1
        LCALL   ??Sendack?relay
        SJMP    ??Multiple_Read_ADXL345_3
//  262         } 
//  263         else 
//  264         { 
//  265           Sendack(0);                //回应ACK 
??Multiple_Read_ADXL345_2:
        ; Setup parameters for call to function Sendack
        MOV     R1,#0x0
        LCALL   ??Sendack?relay
//  266        } 
//  267    } 
??Multiple_Read_ADXL345_3:
        INC     R6
        SJMP    ??Multiple_Read_ADXL345_0
//  268     I2C_Stop_1();                          //停止信号 
??Multiple_Read_ADXL345_1:
        ; Setup parameters for call to function I2C_Stop_1
        LCALL   ??I2C_Stop_1?relay
//  269 //    Delay(500);
//  270 //    Delay(500);
//  271 //    Delay(500);
//  272 //    Delay(500);
//  273 } 
        MOV     R7,#0x2
        LJMP    ?BANKED_LEAVE_XDATA
        CFI EndBlock cfiBlock12
//  274 

        RSEG BANKED_CODE:CODE:NOROOT(0)
//  275 void displayXYZ(INT8U *pData){
displayXYZ:
        CFI Block cfiBlock13 Using cfiCommon0
        CFI Function displayXYZ
        FUNCALL displayXYZ, HalLcdWriteStringValue
        LOCFRAME ISTACK, 0, STACK
        LOCFRAME PSTACK, 0, STACK
        LOCFRAME XSTACK, 21, STACK
        LOCFRAME IOVERLAY, 0, STATIC
        LOCFRAME DOVERLAY, 0, STATIC
        ARGFRAME ISTACK, 0, STACK
        ARGFRAME PSTACK, 0, STACK
        ARGFRAME XSTACK, 21, STACK
        ARGFRAME IOVERLAY, 0, STATIC
        ARGFRAME DOVERLAY, 0, STATIC
        FUNCALL displayXYZ, HalLcdWriteStringValue
        LOCFRAME ISTACK, 0, STACK
        LOCFRAME PSTACK, 0, STACK
        LOCFRAME XSTACK, 21, STACK
        LOCFRAME IOVERLAY, 0, STATIC
        LOCFRAME DOVERLAY, 0, STATIC
        ARGFRAME ISTACK, 0, STACK
        ARGFRAME PSTACK, 0, STACK
        ARGFRAME XSTACK, 21, STACK
        ARGFRAME IOVERLAY, 0, STATIC
        ARGFRAME DOVERLAY, 0, STATIC
        FUNCALL displayXYZ, HalLcdWriteStringValue
        LOCFRAME ISTACK, 0, STACK
        LOCFRAME PSTACK, 0, STACK
        LOCFRAME XSTACK, 21, STACK
        LOCFRAME IOVERLAY, 0, STATIC
        LOCFRAME DOVERLAY, 0, STATIC
        ARGFRAME ISTACK, 0, STACK
        ARGFRAME PSTACK, 0, STACK
        ARGFRAME XSTACK, 21, STACK
        ARGFRAME IOVERLAY, 0, STATIC
        ARGFRAME DOVERLAY, 0, STATIC
        FUNCALL displayXYZ, HalLcdWriteStringValue
        LOCFRAME ISTACK, 0, STACK
        LOCFRAME PSTACK, 0, STACK
        LOCFRAME XSTACK, 21, STACK
        LOCFRAME IOVERLAY, 0, STATIC
        LOCFRAME DOVERLAY, 0, STATIC
        ARGFRAME ISTACK, 0, STACK
        ARGFRAME PSTACK, 0, STACK
        ARGFRAME XSTACK, 21, STACK
        ARGFRAME IOVERLAY, 0, STATIC
        ARGFRAME DOVERLAY, 0, STATIC
        FUNCALL displayXYZ, HalLcdWriteStringValue
        LOCFRAME ISTACK, 0, STACK
        LOCFRAME PSTACK, 0, STACK
        LOCFRAME XSTACK, 21, STACK
        LOCFRAME IOVERLAY, 0, STATIC
        LOCFRAME DOVERLAY, 0, STATIC
        ARGFRAME ISTACK, 0, STACK
        ARGFRAME PSTACK, 0, STACK
        ARGFRAME XSTACK, 21, STACK
        ARGFRAME IOVERLAY, 0, STATIC
        ARGFRAME DOVERLAY, 0, STATIC
        FUNCALL displayXYZ, HalLcdWriteStringValue
        LOCFRAME ISTACK, 0, STACK
        LOCFRAME PSTACK, 0, STACK
        LOCFRAME XSTACK, 21, STACK
        LOCFRAME IOVERLAY, 0, STATIC
        LOCFRAME DOVERLAY, 0, STATIC
        ARGFRAME ISTACK, 0, STACK
        ARGFRAME PSTACK, 0, STACK
        ARGFRAME XSTACK, 21, STACK
        ARGFRAME IOVERLAY, 0, STATIC
        ARGFRAME DOVERLAY, 0, STATIC
        MOV     A,#-0x10
        LCALL   ?BANKED_ENTER_XDATA
        CFI DPH0 load(1, XDATA, add(CFA_XSP16, literal(-1)))
        CFI DPL0 load(1, XDATA, add(CFA_XSP16, literal(-2)))
        CFI ?BRET_EXT load(1, XDATA, add(CFA_XSP16, literal(-3)))
        CFI ?RET_HIGH load(1, XDATA, add(CFA_XSP16, literal(-4)))
        CFI ?RET_LOW load(1, XDATA, add(CFA_XSP16, literal(-5)))
        CFI R7 load(1, XDATA, add(CFA_XSP16, literal(-6)))
        CFI V7 load(1, XDATA, add(CFA_XSP16, literal(-7)))
        CFI V6 load(1, XDATA, add(CFA_XSP16, literal(-8)))
        CFI V5 load(1, XDATA, add(CFA_XSP16, literal(-9)))
        CFI V4 load(1, XDATA, add(CFA_XSP16, literal(-10)))
        CFI V3 load(1, XDATA, add(CFA_XSP16, literal(-11)))
        CFI V2 load(1, XDATA, add(CFA_XSP16, literal(-12)))
        CFI V1 load(1, XDATA, add(CFA_XSP16, literal(-13)))
        CFI V0 load(1, XDATA, add(CFA_XSP16, literal(-14)))
        CFI VB load(1, XDATA, add(CFA_XSP16, literal(-15)))
        CFI R6 load(1, XDATA, add(CFA_XSP16, literal(-16)))
        CFI CFA_SP SP+0
        CFI CFA_XSP16 add(XSP16, 16)
        ; Saved register size: 16
        ; Auto size: 4
        MOV     A,#-0x4
        LCALL   ?ALLOC_XSTACK8
        CFI CFA_XSP16 add(XSP16, 20)
        MOV     A,#0x2
        LCALL   ?XSTACK_DISP0_8
        MOV     A,R2
        MOVX    @DPTR,A
        INC     DPTR
        MOV     A,R3
        MOVX    @DPTR,A
//  276   int  dis_data;
//  277   uint16 temp;
//  278   dis_data=(pData[7]<<8)+pData[6];
        MOV     A,#0x2
        LCALL   ?XSTACK_DISP0_8
        MOVX    A,@DPTR
        MOV     R0,A
        INC     DPTR
        MOVX    A,@DPTR
        MOV     DPH,A
        MOV     DPL,R0
        INC     DPTR
        INC     DPTR
        INC     DPTR
        INC     DPTR
        INC     DPTR
        INC     DPTR
        INC     DPTR
        MOVX    A,@DPTR
        MOV     R0,A
        CLR     A
        XCH     A,R0
        MOV     R1,A
        MOV     A,#0x2
        LCALL   ?XSTACK_DISP0_8
        MOVX    A,@DPTR
        MOV     R2,A
        INC     DPTR
        MOVX    A,@DPTR
        MOV     DPH,A
        MOV     DPL,R2
        INC     DPTR
        INC     DPTR
        INC     DPTR
        INC     DPTR
        INC     DPTR
        INC     DPTR
        MOVX    A,@DPTR
        MOV     R3,#0x0
        ADD     A,R0
        MOV     R0,A
        MOV     A,R3
        ADDC    A,R1
        MOV     R1,A
        MOV     DPL,?XSP + 0
        MOV     DPH,?XSP + 1
        MOV     A,R0
        MOVX    @DPTR,A
        INC     DPTR
        MOV     A,R1
        MOVX    @DPTR,A
//  279     temp=(uint16)((float)dis_data*3.9);  //计算数据和显示,查考ADXL345快速入门第4页
        MOV     DPL,?XSP + 0
        MOV     DPH,?XSP + 1
        MOVX    A,@DPTR
        MOV     ?V0 + 4,A
        INC     DPTR
        MOVX    A,@DPTR
        MOV     ?V0 + 5,A
        MOV     A,?V0 + 5
        RLC     A
        SUBB    A,0xE0 /* A   */
        MOV     ?V0 + 6,A
        MOV     ?V0 + 7,A
        MOV     R0,#?V0 + 4
        LCALL   ?L_TO_FLT
        MOV     DPTR,#__Constant_4079999a
        MOV     R0,#?V0 + 0
        LCALL   ?L_MOV_X
        MOV     R0,#?V0 + 4
        MOV     R1,#?V0 + 0
        LCALL   ?FLT_MUL
        MOV     R0,#?V0 + 4
        LCALL   ?FLT_TO_L
        MOV     R6,?V0 + 4
        MOV     R7,?V0 + 5
//  280 	if(dis_data<0){
        MOV     DPL,?XSP + 0
        MOV     DPH,?XSP + 1
        CLR     C
        MOVX    A,@DPTR
        SUBB    A,#0x0
        INC     DPTR
        MOVX    A,@DPTR
        SUBB    A,#0x0
        MOV     C,0xD0 /* PSW */.2
        XRL     A,PSW
        RLC     A
        JNC     ??displayXYZ_0
//  281 	dis_data=-dis_data;
        MOV     DPL,?XSP + 0
        MOV     DPH,?XSP + 1
        MOVX    A,@DPTR
        MOV     R0,A
        INC     DPTR
        MOVX    A,@DPTR
        MOV     R1,A
        CLR     C
        CLR     A
        SUBB    A,R0
        MOV     R0,A
        CLR     A
        SUBB    A,R1
        MOV     R1,A
        MOV     DPL,?XSP + 0
        MOV     DPH,?XSP + 1
        MOV     A,R0
        MOVX    @DPTR,A
        INC     DPTR
        MOV     A,R1
        MOVX    @DPTR,A
//  282         HalLcdWriteStringValue("X: -",temp,10,0);
        ; Setup parameters for call to function HalLcdWriteStringValue
        MOV     ?V0 + 0,#0x0
        MOV     R0,#?V0 + 0
        LCALL   ?PUSH_XSTACK_I_ONE
        CFI CFA_XSP16 add(XSP16, 21)
        MOV     R1,#0xa
        MOV     A,R6
        MOV     R4,A
        MOV     A,R7
        MOV     R5,A
        MOV     R2,#(`?<Constant "X: -">` & 0xff)
        MOV     R3,#((`?<Constant "X: -">` >> 8) & 0xff)
        LCALL   ??HalLcdWriteStringValue?relay
        MOV     A,#0x1
        LCALL   ?DEALLOC_XSTACK8
        CFI CFA_XSP16 add(XSP16, 20)
        SJMP    ??displayXYZ_1
//  283 	}
//  284 	else
//  285     {
//  286         HalLcdWriteStringValue("X:  ",temp,10,0);
??displayXYZ_0:
        ; Setup parameters for call to function HalLcdWriteStringValue
        MOV     ?V0 + 0,#0x0
        MOV     R0,#?V0 + 0
        LCALL   ?PUSH_XSTACK_I_ONE
        CFI CFA_XSP16 add(XSP16, 21)
        MOV     R1,#0xa
        MOV     A,R6
        MOV     R4,A
        MOV     A,R7
        MOV     R5,A
        MOV     R2,#(`?<Constant "X:  ">` & 0xff)
        MOV     R3,#((`?<Constant "X:  ">` >> 8) & 0xff)
        LCALL   ??HalLcdWriteStringValue?relay
        MOV     A,#0x1
        LCALL   ?DEALLOC_XSTACK8
        CFI CFA_XSP16 add(XSP16, 20)
//  287     }
//  288     dis_data=(pData[9]<<8)+pData[8];  //合成数据   
??displayXYZ_1:
        MOV     A,#0x2
        LCALL   ?XSTACK_DISP0_8
        MOVX    A,@DPTR
        MOV     R0,A
        INC     DPTR
        MOVX    A,@DPTR
        MOV     DPH,A
        MOV     DPL,R0
        INC     DPTR
        INC     DPTR
        INC     DPTR
        INC     DPTR
        INC     DPTR
        INC     DPTR
        INC     DPTR
        INC     DPTR
        INC     DPTR
        MOVX    A,@DPTR
        MOV     R0,A
        CLR     A
        XCH     A,R0
        MOV     R1,A
        MOV     A,#0x2
        LCALL   ?XSTACK_DISP0_8
        MOVX    A,@DPTR
        MOV     R2,A
        INC     DPTR
        MOVX    A,@DPTR
        MOV     DPH,A
        MOV     DPL,R2
        INC     DPTR
        INC     DPTR
        INC     DPTR
        INC     DPTR
        INC     DPTR
        INC     DPTR
        INC     DPTR
        INC     DPTR
        MOVX    A,@DPTR
        MOV     R3,#0x0
        ADD     A,R0
        MOV     R0,A
        MOV     A,R3
        ADDC    A,R1
        MOV     R1,A
        MOV     DPL,?XSP + 0
        MOV     DPH,?XSP + 1
        MOV     A,R0
        MOVX    @DPTR,A
        INC     DPTR
        MOV     A,R1
        MOVX    @DPTR,A
//  289 	    temp=(uint16)((float)dis_data*3.9);  //计算数据和显示,查考ADXL345快速入门第4页
        MOV     DPL,?XSP + 0
        MOV     DPH,?XSP + 1
        MOVX    A,@DPTR
        MOV     ?V0 + 4,A
        INC     DPTR
        MOVX    A,@DPTR
        MOV     ?V0 + 5,A
        MOV     A,?V0 + 5
        RLC     A
        SUBB    A,0xE0 /* A   */
        MOV     ?V0 + 6,A
        MOV     ?V0 + 7,A
        MOV     R0,#?V0 + 4
        LCALL   ?L_TO_FLT
        MOV     DPTR,#__Constant_4079999a
        MOV     R0,#?V0 + 0
        LCALL   ?L_MOV_X
        MOV     R0,#?V0 + 4
        MOV     R1,#?V0 + 0
        LCALL   ?FLT_MUL
        MOV     R0,#?V0 + 4
        LCALL   ?FLT_TO_L
        MOV     R6,?V0 + 4
        MOV     R7,?V0 + 5
//  290 	if(dis_data<0){
        MOV     DPL,?XSP + 0
        MOV     DPH,?XSP + 1
        CLR     C
        MOVX    A,@DPTR
        SUBB    A,#0x0
        INC     DPTR
        MOVX    A,@DPTR
        SUBB    A,#0x0
        MOV     C,0xD0 /* PSW */.2
        XRL     A,PSW
        RLC     A
        JNC     ??displayXYZ_2
//  291 	dis_data=-dis_data;
        MOV     DPL,?XSP + 0
        MOV     DPH,?XSP + 1
        MOVX    A,@DPTR
        MOV     R0,A
        INC     DPTR
        MOVX    A,@DPTR
        MOV     R1,A
        CLR     C
        CLR     A
        SUBB    A,R0
        MOV     R0,A
        CLR     A
        SUBB    A,R1
        MOV     R1,A
        MOV     DPL,?XSP + 0
        MOV     DPH,?XSP + 1
        MOV     A,R0
        MOVX    @DPTR,A
        INC     DPTR
        MOV     A,R1
        MOVX    @DPTR,A
//  292         HalLcdWriteStringValue("Y: -",temp,10,1);
        ; Setup parameters for call to function HalLcdWriteStringValue
        MOV     ?V0 + 0,#0x1
        MOV     R0,#?V0 + 0
        LCALL   ?PUSH_XSTACK_I_ONE
        CFI CFA_XSP16 add(XSP16, 21)
        MOV     R1,#0xa
        MOV     A,R6
        MOV     R4,A
        MOV     A,R7
        MOV     R5,A
        MOV     R2,#(`?<Constant "Y: -">` & 0xff)
        MOV     R3,#((`?<Constant "Y: -">` >> 8) & 0xff)
        LCALL   ??HalLcdWriteStringValue?relay
        MOV     A,#0x1
        LCALL   ?DEALLOC_XSTACK8
        CFI CFA_XSP16 add(XSP16, 20)
        SJMP    ??displayXYZ_3
//  293 	}
//  294 	else
//  295     {
//  296         HalLcdWriteStringValue("Y:  ",temp,10,1);
??displayXYZ_2:
        ; Setup parameters for call to function HalLcdWriteStringValue
        MOV     ?V0 + 0,#0x1
        MOV     R0,#?V0 + 0
        LCALL   ?PUSH_XSTACK_I_ONE
        CFI CFA_XSP16 add(XSP16, 21)
        MOV     R1,#0xa
        MOV     A,R6
        MOV     R4,A
        MOV     A,R7
        MOV     R5,A
        MOV     R2,#(`?<Constant "Y:  ">` & 0xff)
        MOV     R3,#((`?<Constant "Y:  ">` >> 8) & 0xff)
        LCALL   ??HalLcdWriteStringValue?relay
        MOV     A,#0x1
        LCALL   ?DEALLOC_XSTACK8
        CFI CFA_XSP16 add(XSP16, 20)
//  297     }
//  298     dis_data=(pData[11]<<8)+pData[10];    //合成数据  
??displayXYZ_3:
        MOV     A,#0x2
        LCALL   ?XSTACK_DISP0_8
        MOVX    A,@DPTR
        ADD     A,#0xb
        MOV     R0,A
        INC     DPTR
        MOVX    A,@DPTR
        ADDC    A,#0x0
        MOV     R1,A
        MOV     DPL,R0
        MOV     DPH,R1
        MOVX    A,@DPTR
        MOV     R0,A
        CLR     A
        XCH     A,R0
        MOV     R1,A
        MOV     A,#0x2
        LCALL   ?XSTACK_DISP0_8
        MOVX    A,@DPTR
        MOV     R2,A
        INC     DPTR
        MOVX    A,@DPTR
        MOV     DPH,A
        MOV     DPL,R2
        INC     DPTR
        INC     DPTR
        INC     DPTR
        INC     DPTR
        INC     DPTR
        INC     DPTR
        INC     DPTR
        INC     DPTR
        INC     DPTR
        INC     DPTR
        MOVX    A,@DPTR
        MOV     R3,#0x0
        ADD     A,R0
        MOV     R0,A
        MOV     A,R3
        ADDC    A,R1
        MOV     R1,A
        MOV     DPL,?XSP + 0
        MOV     DPH,?XSP + 1
        MOV     A,R0
        MOVX    @DPTR,A
        INC     DPTR
        MOV     A,R1
        MOVX    @DPTR,A
//  299     temp=(uint16)((float)dis_data*3.9);  //计算数据和显示,查考ADXL345快速入门第4页
        MOV     DPL,?XSP + 0
        MOV     DPH,?XSP + 1
        MOVX    A,@DPTR
        MOV     ?V0 + 4,A
        INC     DPTR
        MOVX    A,@DPTR
        MOV     ?V0 + 5,A
        MOV     A,?V0 + 5
        RLC     A
        SUBB    A,0xE0 /* A   */
        MOV     ?V0 + 6,A
        MOV     ?V0 + 7,A
        MOV     R0,#?V0 + 4
        LCALL   ?L_TO_FLT
        MOV     DPTR,#__Constant_4079999a
        MOV     R0,#?V0 + 0
        LCALL   ?L_MOV_X
        MOV     R0,#?V0 + 4
        MOV     R1,#?V0 + 0
        LCALL   ?FLT_MUL
        MOV     R0,#?V0 + 4
        LCALL   ?FLT_TO_L
        MOV     R6,?V0 + 4
        MOV     R7,?V0 + 5
//  300 	if(dis_data<0){
        MOV     DPL,?XSP + 0
        MOV     DPH,?XSP + 1
        CLR     C
        MOVX    A,@DPTR
        SUBB    A,#0x0
        INC     DPTR
        MOVX    A,@DPTR
        SUBB    A,#0x0
        MOV     C,0xD0 /* PSW */.2
        XRL     A,PSW
        RLC     A
        JNC     ??displayXYZ_4
//  301 	dis_data=-dis_data;
        MOV     DPL,?XSP + 0
        MOV     DPH,?XSP + 1
        MOVX    A,@DPTR
        MOV     R0,A
        INC     DPTR
        MOVX    A,@DPTR
        MOV     R1,A
        CLR     C
        CLR     A
        SUBB    A,R0
        MOV     R0,A
        CLR     A
        SUBB    A,R1
        MOV     R1,A
        MOV     DPL,?XSP + 0
        MOV     DPH,?XSP + 1
        MOV     A,R0
        MOVX    @DPTR,A
        INC     DPTR
        MOV     A,R1
        MOVX    @DPTR,A
//  302         HalLcdWriteStringValue("Z: -",temp,10,2);
        ; Setup parameters for call to function HalLcdWriteStringValue
        MOV     ?V0 + 0,#0x2
        MOV     R0,#?V0 + 0
        LCALL   ?PUSH_XSTACK_I_ONE
        CFI CFA_XSP16 add(XSP16, 21)
        MOV     R1,#0xa
        MOV     A,R6
        MOV     R4,A
        MOV     A,R7
        MOV     R5,A
        MOV     R2,#(`?<Constant "Z: -">` & 0xff)
        MOV     R3,#((`?<Constant "Z: -">` >> 8) & 0xff)
        LCALL   ??HalLcdWriteStringValue?relay
        MOV     A,#0x1
        LCALL   ?DEALLOC_XSTACK8
        CFI CFA_XSP16 add(XSP16, 20)
        SJMP    ??displayXYZ_5
//  303 	}
//  304 	else
//  305     {
//  306         HalLcdWriteStringValue("Z:  ",temp,10,2);
??displayXYZ_4:
        ; Setup parameters for call to function HalLcdWriteStringValue
        MOV     ?V0 + 0,#0x2
        MOV     R0,#?V0 + 0
        LCALL   ?PUSH_XSTACK_I_ONE
        CFI CFA_XSP16 add(XSP16, 21)
        MOV     R1,#0xa
        MOV     A,R6
        MOV     R4,A
        MOV     A,R7
        MOV     R5,A
        MOV     R2,#(`?<Constant "Z:  ">` & 0xff)
        MOV     R3,#((`?<Constant "Z:  ">` >> 8) & 0xff)
        LCALL   ??HalLcdWriteStringValue?relay
        MOV     A,#0x1
        LCALL   ?DEALLOC_XSTACK8
        CFI CFA_XSP16 add(XSP16, 20)
//  307     }
//  308 }
??displayXYZ_5:
        MOV     A,#0x4
        LCALL   ?DEALLOC_XSTACK8
        CFI CFA_XSP16 add(XSP16, 16)
        MOV     R7,#0x8
        LJMP    ?BANKED_LEAVE_XDATA
        CFI EndBlock cfiBlock13

        RSEG XDATA_ID:CODE:NOROOT(0)
        DATA
`?<Initializer for <Constant "X: -">>`:
        DB "X: -"

        RSEG XDATA_ID:CODE:NOROOT(0)
        DATA
`?<Initializer for <Constant "X:  ">>`:
        DB "X:  "

        RSEG XDATA_ID:CODE:NOROOT(0)
        DATA
`?<Initializer for <Constant "Y: -">>`:
        DB "Y: -"

        RSEG XDATA_ID:CODE:NOROOT(0)
        DATA
`?<Initializer for <Constant "Y:  ">>`:
        DB "Y:  "

        RSEG XDATA_ID:CODE:NOROOT(0)
        DATA
`?<Initializer for <Constant "Z: -">>`:
        DB "Z: -"

        RSEG XDATA_ID:CODE:NOROOT(0)
        DATA
`?<Initializer for <Constant "Z:  ">>`:
        DB "Z:  "

        RSEG XDATA_ID:CODE:NOROOT(0)
        DATA
`?<Initializer for __Constant_45800000>`:
        DD 45800000H

        RSEG XDATA_ID:CODE:NOROOT(0)
        DATA
`?<Initializer for __Constant_42c80000>`:
        DD 42C80000H

        RSEG XDATA_ID:CODE:NOROOT(0)
        DATA
`?<Initializer for __Constant_4079999a>`:
        DD 4079999AH

        RSEG BANK_RELAYS:CODE:REORDER:NOROOT(0)
??Delay?relay:
        LCALL   ?BDISPATCH
        DATA
        DC24    Delay

        RSEG BANK_RELAYS:CODE:REORDER:NOROOT(0)
??Delay_1u?relay:
        LCALL   ?BDISPATCH
        DATA
        DC24    Delay_1u

        RSEG BANK_RELAYS:CODE:REORDER:NOROOT(0)
??conversion?relay:
        LCALL   ?BDISPATCH
        DATA
        DC24    conversion

        RSEG BANK_RELAYS:CODE:REORDER:NOROOT(0)
??I2C_Start_1?relay:
        LCALL   ?BDISPATCH
        DATA
        DC24    I2C_Start_1

        RSEG BANK_RELAYS:CODE:REORDER:NOROOT(0)
??I2C_Stop_1?relay:
        LCALL   ?BDISPATCH
        DATA
        DC24    I2C_Stop_1

        RSEG BANK_RELAYS:CODE:REORDER:NOROOT(0)
??Sendack?relay:
        LCALL   ?BDISPATCH
        DATA
        DC24    Sendack

        RSEG BANK_RELAYS:CODE:REORDER:NOROOT(0)
??I2C_Check_ack?relay:
        LCALL   ?BDISPATCH
        DATA
        DC24    I2C_Check_ack

        RSEG BANK_RELAYS:CODE:REORDER:NOROOT(0)
??WriteI2CByte_1?relay:
        LCALL   ?BDISPATCH
        DATA
        DC24    WriteI2CByte_1

        RSEG BANK_RELAYS:CODE:REORDER:NOROOT(0)
??ReadI2CByte_1?relay:
        LCALL   ?BDISPATCH
        DATA
        DC24    ReadI2CByte_1

        RSEG BANK_RELAYS:CODE:REORDER:NOROOT(0)
??Single_Write_ADXL345?relay:
        LCALL   ?BDISPATCH
        DATA
        DC24    Single_Write_ADXL345

        RSEG BANK_RELAYS:CODE:REORDER:NOROOT(0)
??Single_Read_ADXL345?relay:
        LCALL   ?BDISPATCH
        DATA
        DC24    Single_Read_ADXL345

        RSEG BANK_RELAYS:CODE:REORDER:NOROOT(0)
??Init_ADXL345?relay:
        LCALL   ?BDISPATCH
        DATA
        DC24    Init_ADXL345

        RSEG BANK_RELAYS:CODE:REORDER:NOROOT(0)
??Multiple_Read_ADXL345?relay:
        LCALL   ?BDISPATCH
        DATA
        DC24    Multiple_Read_ADXL345

        RSEG BANK_RELAYS:CODE:REORDER:NOROOT(0)
??displayXYZ?relay:
        LCALL   ?BDISPATCH
        DATA
        DC24    displayXYZ

        RSEG XDATA_I:XDATA:NOROOT(0)
        DATA
`?<Constant "X: -">`:
        DS 5
        REQUIRE `?<Initializer for <Constant "X: -">>`
        REQUIRE __INIT_XDATA_I

        RSEG XDATA_I:XDATA:NOROOT(0)
        DATA
`?<Constant "X:  ">`:
        DS 5
        REQUIRE `?<Initializer for <Constant "X:  ">>`
        REQUIRE __INIT_XDATA_I

        RSEG XDATA_I:XDATA:NOROOT(0)
        DATA
`?<Constant "Y: -">`:
        DS 5
        REQUIRE `?<Initializer for <Constant "Y: -">>`
        REQUIRE __INIT_XDATA_I

        RSEG XDATA_I:XDATA:NOROOT(0)
        DATA
`?<Constant "Y:  ">`:
        DS 5
        REQUIRE `?<Initializer for <Constant "Y:  ">>`
        REQUIRE __INIT_XDATA_I

        RSEG XDATA_I:XDATA:NOROOT(0)
        DATA
`?<Constant "Z: -">`:
        DS 5
        REQUIRE `?<Initializer for <Constant "Z: -">>`
        REQUIRE __INIT_XDATA_I

        RSEG XDATA_I:XDATA:NOROOT(0)
        DATA
`?<Constant "Z:  ">`:
        DS 5
        REQUIRE `?<Initializer for <Constant "Z:  ">>`
        REQUIRE __INIT_XDATA_I

        RSEG XDATA_I:XDATA:NOROOT(0)
        DATA
__Constant_45800000:
        DS 4
        REQUIRE `?<Initializer for __Constant_45800000>`
        REQUIRE __INIT_XDATA_I

        RSEG XDATA_I:XDATA:NOROOT(0)
        DATA
__Constant_42c80000:
        DS 4
        REQUIRE `?<Initializer for __Constant_42c80000>`
        REQUIRE __INIT_XDATA_I

        RSEG XDATA_I:XDATA:NOROOT(0)
        DATA
__Constant_4079999a:
        DS 4
        REQUIRE `?<Initializer for __Constant_4079999a>`
        REQUIRE __INIT_XDATA_I

        END
// 
// 1 886 bytes in segment BANKED_CODE
//    84 bytes in segment BANK_RELAYS
//     2 bytes in segment SFR_AN
//    42 bytes in segment XDATA_I
//    42 bytes in segment XDATA_ID
//    21 bytes in segment XDATA_Z
// 
// 2 000 bytes of CODE  memory (+ 12 bytes shared)
//     0 bytes of DATA  memory (+  2 bytes shared)
//    51 bytes of XDATA memory (+ 12 bytes shared)
//
//Errors: none
//Warnings: none
