///////////////////////////////////////////////////////////////////////////////
//                                                                            /
// IAR 8051 C/C++ Compiler V7.30B/W32                   18/Mar/2013  18:27:03 /
// Copyright 2004-2007 IAR Systems. All rights reserved.                      /
//                                                                            /
//    Core               =  plain                                             /
//    Code model         =  banked                                            /
//    Data model         =  large                                             /
//    Calling convention =  xdata reentrant                                   /
//    Constant location  =  data                                              /
//    Dptr setup         =  1,16                                              /
//    Source file        =  C:\Texas Instruments\ZStack-1.4.3-1.2.1\Projects\ /
//                          zstack\Samples\cc2430-zstack-adxl345\Source\AXD.c /
//    Command line       =  -f "C:\Texas Instruments\ZStack-1.4.3-1.2.1\Proje /
//                          cts\zstack\Samples\cc2430-zstack-adxl345\CC2430DB /
//                          \..\..\..\Tools\CC2430DB\f8wEndev.cfg"            /
//                          (-DCPU32MHZ -DFORCE_MAC_NEAR -DROOT=__near_func   /
//                          -DMAC_OPT_FFD=0 -DBLINK_LEDS "-DCONST=const       /
//                          __code" -DGENERIC=__generic) -f "C:\Texas         /
//                          Instruments\ZStack-1.4.3-1.2.1\Projects\zstack\Sa /
//                          mples\cc2430-zstack-adxl345\CC2430DB\..\..\..\Too /
//                          ls\CC2430DB\f8wConfig.cfg" (-DSECURE=0            /
//                          -DDEFAULT_CHANLIST=0x00000800                     /
//                          -DZDAPP_CONFIG_PAN_ID=0xFFFF                      /
//                          -DNWK_START_DELAY=100 -DEXTENDED_JOINING_RANDOM_M /
//                          ASK=0x007F -DBEACON_REQUEST_DELAY=100             /
//                          -DBEACON_REQ_DELAY_MASK=0x00FF                    /
//                          -DROUTE_EXPIRY_TIME=30 -DAPSC_ACK_WAIT_DURATION_P /
//                          OLLED=3000 -DNWK_INDIRECT_MSG_TIMEOUT=7           /
//                          -DMAX_RREQ_ENTRIES=10 -DAPSC_MAX_FRAME_RETRIES=3  /
//                          -DNWK_MAX_DATA_RETRIES=2                          /
//                          -DMAX_POLL_FAILURE_RETRIES=2 -DMAX_BCAST=9        /
//                          -DAPS_MAX_GROUPS=16 -DMAX_RTG_ENTRIES=20          /
//                          -DNWK_MAX_BINDING_ENTRIES=10                      /
//                          -DMAX_BINDING_CLUSTER_IDS=5                       /
//                          "-DDEFAULT_KEY={0x01, 0x03, 0x05, 0x07, 0x09,     /
//                          0x0B, 0x0D, 0x0F, 0x00, 0x02, 0x04, 0x06, 0x08,   /
//                          0x0A, 0x0C, 0x0D}" -DRFD_RCVC_ALWAYS_ON=FALSE     /
//                          -DPOLL_RATE=1000 -DQUEUED_POLL_RATE=100           /
//                          -DRESPONSE_POLL_RATE=100) -DREJOIN_POLL_RATE=440  /
//                          "C:\Texas Instruments\ZStack-1.4.3-1.2.1\Projects /
//                          \zstack\Samples\cc2430-zstack-adxl345\Source\AXD. /
//                          c" -D CC2430EB -D AXD_END3 -D NWK_AUTO_POLL -D    /
//                          REFLECTOR -D xZTOOL_P1 -D xMT_TASK -D             /
//                          xMT_ZDO_FUNC -D xLCD_SUPPORTED=DEBUG -D           /
//                          xPOWER_SAVING -lC "C:\Texas                       /
//                          Instruments\ZStack-1.4.3-1.2.1\Projects\zstack\Sa /
//                          mples\cc2430-zstack-adxl345\CC2430DB\EndDeviceEB3 /
//                          \List\" -lA "C:\Texas Instruments\ZStack-1.4.3-1. /
//                          2.1\Projects\zstack\Samples\cc2430-zstack-adxl345 /
//                          \CC2430DB\EndDeviceEB3\List\" --diag_suppress     /
//                          Pe001,Pa010 --diag_remark pe550 -o "C:\Texas      /
//                          Instruments\ZStack-1.4.3-1.2.1\Projects\zstack\Sa /
//                          mples\cc2430-zstack-adxl345\CC2430DB\EndDeviceEB3 /
//                          \Obj\" -e --require_prototypes -z2 --no_cse       /
//                          --no_unroll --no_inline --no_code_motion          /
//                          --no_tbaa --debug --core=plain --dptr=16,1        /
//                          --data_model=large --code_model=banked            /
//                          --calling_convention=xdata_reentrant              /
//                          --place_constants=data --nr_virtual_regs 8 -I     /
//                          "C:\Texas Instruments\ZStack-1.4.3-1.2.1\Projects /
//                          \zstack\Samples\cc2430-zstack-adxl345\CC2430DB\"  /
//                          -I "C:\Texas Instruments\ZStack-1.4.3-1.2.1\Proje /
//                          cts\zstack\Samples\cc2430-zstack-adxl345\CC2430DB /
//                          \..\SOURCE\" -I "C:\Texas                         /
//                          Instruments\ZStack-1.4.3-1.2.1\Projects\zstack\Sa /
//                          mples\cc2430-zstack-adxl345\CC2430DB\..\Drivers\" /
//                           -I "C:\Texas Instruments\ZStack-1.4.3-1.2.1\Proj /
//                          ects\zstack\Samples\cc2430-zstack-adxl345\CC2430D /
//                          B\..\..\..\ZMAIN\TI2430DB\" -I "C:\Texas          /
//                          Instruments\ZStack-1.4.3-1.2.1\Projects\zstack\Sa /
//                          mples\cc2430-zstack-adxl345\CC2430DB\..\..\..\..\ /
//                          ..\COMPONENTS\MT\" -I "C:\Texas                   /
//                          Instruments\ZStack-1.4.3-1.2.1\Projects\zstack\Sa /
//                          mples\cc2430-zstack-adxl345\CC2430DB\..\..\..\..\ /
//                          ..\COMPONENTS\HAL\INCLUDE\" -I "C:\Texas          /
//                          Instruments\ZStack-1.4.3-1.2.1\Projects\zstack\Sa /
//                          mples\cc2430-zstack-adxl345\CC2430DB\..\..\..\..\ /
//                          ..\COMPONENTS\HAL\TARGET\CC2430EB\" -I "C:\Texas  /
//                          Instruments\ZStack-1.4.3-1.2.1\Projects\zstack\Sa /
//                          mples\cc2430-zstack-adxl345\CC2430DB\..\..\..\..\ /
//                          ..\COMPONENTS\OSAL\MCU\CCSOC\" -I "C:\Texas       /
//                          Instruments\ZStack-1.4.3-1.2.1\Projects\zstack\Sa /
//                          mples\cc2430-zstack-adxl345\CC2430DB\..\..\..\..\ /
//                          ..\COMPONENTS\OSAL\INCLUDE\" -I "C:\Texas         /
//                          Instruments\ZStack-1.4.3-1.2.1\Projects\zstack\Sa /
//                          mples\cc2430-zstack-adxl345\CC2430DB\..\..\..\..\ /
//                          ..\COMPONENTS\STACK\AF\" -I "C:\Texas             /
//                          Instruments\ZStack-1.4.3-1.2.1\Projects\zstack\Sa /
//                          mples\cc2430-zstack-adxl345\CC2430DB\..\..\..\..\ /
//                          ..\COMPONENTS\STACK\NWK\" -I "C:\Texas            /
//                          Instruments\ZStack-1.4.3-1.2.1\Projects\zstack\Sa /
//                          mples\cc2430-zstack-adxl345\CC2430DB\..\..\..\..\ /
//                          ..\COMPONENTS\STACK\SEC\" -I "C:\Texas            /
//                          Instruments\ZStack-1.4.3-1.2.1\Projects\zstack\Sa /
//                          mples\cc2430-zstack-adxl345\CC2430DB\..\..\..\..\ /
//                          ..\COMPONENTS\STACK\SYS\" -I "C:\Texas            /
//                          Instruments\ZStack-1.4.3-1.2.1\Projects\zstack\Sa /
//                          mples\cc2430-zstack-adxl345\CC2430DB\..\..\..\..\ /
//                          ..\COMPONENTS\STACK\ZDO\" -I "C:\Texas            /
//                          Instruments\ZStack-1.4.3-1.2.1\Projects\zstack\Sa /
//                          mples\cc2430-zstack-adxl345\CC2430DB\..\..\..\..\ /
//                          ..\COMPONENTS\ZMAC\F8W\" -I "C:\Texas             /
//                          Instruments\ZStack-1.4.3-1.2.1\Projects\zstack\Sa /
//                          mples\cc2430-zstack-adxl345\CC2430DB\..\..\..\..\ /
//                          ..\COMPONENTS\ZMAC\" -I "C:\Texas                 /
//                          Instruments\ZStack-1.4.3-1.2.1\Projects\zstack\Sa /
//                          mples\cc2430-zstack-adxl345\CC2430DB\..\..\..\..\ /
//                          ..\COMPONENTS\SERVICES\SADDR\" -I "C:\Texas       /
//                          Instruments\ZStack-1.4.3-1.2.1\Projects\zstack\Sa /
//                          mples\cc2430-zstack-adxl345\CC2430DB\..\..\..\..\ /
//                          ..\COMPONENTS\SERVICES\SDATA\" -I "C:\Texas       /
//                          Instruments\ZStack-1.4.3-1.2.1\Projects\zstack\Sa /
//                          mples\cc2430-zstack-adxl345\CC2430DB\..\..\..\..\ /
//                          ..\COMPONENTS\MAC\INCLUDE\" -I "C:\Texas          /
//                          Instruments\ZStack-1.4.3-1.2.1\Projects\zstack\Sa /
//                          mples\cc2430-zstack-adxl345\CC2430DB\..\..\..\..\ /
//                          ..\COMPONENTS\MAC\HIGH_LEVEL\" -I "C:\Texas       /
//                          Instruments\ZStack-1.4.3-1.2.1\Projects\zstack\Sa /
//                          mples\cc2430-zstack-adxl345\CC2430DB\..\..\..\..\ /
//                          ..\COMPONENTS\MAC\LOW_LEVEL\SRF03\" -I "C:\Texas  /
//                          Instruments\ZStack-1.4.3-1.2.1\Projects\zstack\Sa /
//                          mples\cc2430-zstack-adxl345\CC2430DB\..\..\..\..\ /
//                          ..\COMPONENTS\MAC\LOW_LEVEL\SRF03\SINGLE_CHIP\"   /
//                          -I "C:\Program Files\IAR Systems\Embedded         /
//                          Workbench 4.0 Evaluation version\8051\INC\" -I    /
//                          "C:\Program Files\IAR Systems\Embedded Workbench  /
//                          4.0 Evaluation version\8051\INC\CLIB\"            /
//    List file          =  C:\Texas Instruments\ZStack-1.4.3-1.2.1\Projects\ /
//                          zstack\Samples\cc2430-zstack-adxl345\CC2430DB\End /
//                          DeviceEB3\List\AXD.s51                            /
//                                                                            /
//                                                                            /
///////////////////////////////////////////////////////////////////////////////

        NAME AXD

        RTMODEL "__calling_convention", "xdata_reentrant"
        RTMODEL "__code_model", "banked"
        RTMODEL "__core", "plain"
        RTMODEL "__data_model", "large"
        RTMODEL "__dptr_size", "16"
        RTMODEL "__extended_stack", "disabled"
        RTMODEL "__location_for_constants", "data"
        RTMODEL "__number_of_dptrs", "1"
        RTMODEL "__rt_version", "1"

        RSEG DOVERLAY:DATA:NOROOT(0)
        RSEG IOVERLAY:IDATA:NOROOT(0)
        RSEG ISTACK:IDATA:NOROOT(0)
        RSEG PSTACK:XDATA:NOROOT(0)
        RSEG XSTACK:XDATA:NOROOT(0)

        EXTERN ??AXD_HandleKeys?relay
        EXTERN ??AXD_ProcessZDOMsgs?relay
        EXTERN ??AXD_SendTheMessage?relay
        EXTERN ??rxCB_Loopback?relay
        EXTERN ?ALLOC_XSTACK8
        EXTERN ?BANKED_ENTER_XDATA
        EXTERN ?BANKED_LEAVE_XDATA
        EXTERN ?BDISPATCH
        EXTERN ?BRET
        EXTERN ?DEALLOC_XSTACK8
        EXTERN ?FLT_DIV
        EXTERN ?FLT_MUL
        EXTERN ?FLT_TO_L
        EXTERN ?L_MOV_X
        EXTERN ?PUSH_XSTACK_I_ONE
        EXTERN ?PUSH_XSTACK_I_TWO
        EXTERN ?UC_SWITCH_SPARSE
        EXTERN ?UL_TO_FLT
        EXTERN ?US_DIV_MOD
        EXTERN ?US_SHR
        EXTERN ?US_SWITCH_DENSE
        EXTERN ?US_SWITCH_SPARSE
        EXTERN ?V0
        EXTERN ?XSP
        EXTERN ?XSTACK_DISP0_8
        EXTERN __INIT_XDATA_I
        EXTERN __INIT_XDATA_Z

        PUBLIC ??AXD_HandleKeys?relay
        FUNCTION ??AXD_HandleKeys?relay,0203H
        PUBLIC ??AXD_Init?relay
        FUNCTION ??AXD_Init?relay,0203H
        PUBLIC ??AXD_MessageMSGCB?relay
        FUNCTION ??AXD_MessageMSGCB?relay,0203H
        PUBLIC ??AXD_ProcessEvent?relay
        FUNCTION ??AXD_ProcessEvent?relay,0203H
        PUBLIC ??AXD_ProcessZDOMsgs?relay
        FUNCTION ??AXD_ProcessZDOMsgs?relay,0203H
        PUBLIC ??AXD_ReceiveDataIndication?relay
        FUNCTION ??AXD_ReceiveDataIndication?relay,0203H
        PUBLIC ??AXD_SendTheMessage?relay
        FUNCTION ??AXD_SendTheMessage?relay,0203H
        PUBLIC ??ReadAdcValue?relay
        FUNCTION ??ReadAdcValue?relay,0203H
        PUBLIC ??myApp_ReadTemperature?relay
        FUNCTION ??myApp_ReadTemperature?relay,0203H
        FUNCTION ??rxCB_Loopback?relay,0203H
        PUBWEAK ADCCON3
        PUBWEAK ADCH
        PUBWEAK ADCL
        PUBLIC AXD_ClusterList
        PUBLIC AXD_DstAddr
        PUBLIC AXD_Group
        PUBLIC AXD_HandleKeys
        FUNCTION AXD_HandleKeys,021203H
        ARGFRAME XSTACK, 18, STACK
        ARGFRAME IOVERLAY, 0, STATIC
        ARGFRAME DOVERLAY, 0, STATIC
        LOCFRAME ISTACK, 1, STACK
        LOCFRAME XSTACK, 28, STACK
        PUBLIC AXD_Init
        FUNCTION AXD_Init,021203H
        ARGFRAME XSTACK, 0, STACK
        LOCFRAME ISTACK, 1, STACK
        LOCFRAME XSTACK, 38, STACK
        PUBLIC AXD_MessageMSGCB
        FUNCTION AXD_MessageMSGCB,0a1203H
        ARGFRAME XSTACK, 0, STACK
        LOCFRAME XSTACK, 10, STACK
        PUBLIC AXD_NwkState
        PUBLIC AXD_ProcessEvent
        FUNCTION AXD_ProcessEvent,0a1203H
        ARGFRAME XSTACK, 0, STACK
        LOCFRAME ISTACK, 1, STACK
        LOCFRAME XSTACK, 18, STACK
        PUBLIC AXD_ProcessZDOMsgs
        FUNCTION AXD_ProcessZDOMsgs,0a1203H
        ARGFRAME XSTACK, 18, STACK
        ARGFRAME IOVERLAY, 0, STATIC
        ARGFRAME DOVERLAY, 0, STATIC
        LOCFRAME XSTACK, 12, STACK
        PUBLIC AXD_ReceiveDataIndication
        FUNCTION AXD_ReceiveDataIndication,021203H
        ARGFRAME XSTACK, 4, STACK
        LOCFRAME XSTACK, 18, STACK
        PUBLIC AXD_SendTheMessage
        FUNCTION AXD_SendTheMessage,0203H
        ARGFRAME XSTACK, 18, STACK
        ARGFRAME IOVERLAY, 0, STATIC
        ARGFRAME DOVERLAY, 0, STATIC
        PUBLIC AXD_SimpleDesc
        PUBLIC AXD_TaskID
        PUBLIC AXD_TransID
        PUBLIC AXD_epDesc
        PUBLIC ReadAdcValue
        FUNCTION ReadAdcValue,0203H
        ARGFRAME XSTACK, 0, STACK
        LOCFRAME XSTACK, 16, STACK
        PUBWEAK _A_TCON
        PUBWEAK __Constant_427b999a
        PUBWEAK __Constant_43a50000
        PUBWEAK __Constant_46000000
        PUBLIC myApp_ReadTemperature
        FUNCTION myApp_ReadTemperature,0203H
        ARGFRAME XSTACK, 0, STACK
        LOCFRAME XSTACK, 16, STACK
        FUNCTION rxCB_Loopback,021603H
        ARGFRAME XSTACK, 0, STACK
        LOCFRAME XSTACK, 10, STACK
        PUBLIC test2
        
        CFI Names cfiNames0
        CFI StackFrame CFA_SP SP DATA
        CFI StackFrame CFA_PSP16 PSP16 XDATA
        CFI StackFrame CFA_XSP16 XSP16 XDATA
        CFI StaticOverlayFrame CFA_IOVERLAY IOVERLAY
        CFI StaticOverlayFrame CFA_DOVERLAY DOVERLAY
        CFI Resource `PSW.CY`:1, `B.BR0`:1, `B.BR1`:1, `B.BR2`:1, `B.BR3`:1
        CFI Resource `B.BR4`:1, `B.BR5`:1, `B.BR6`:1, `B.BR7`:1, `VB.BR8`:1
        CFI Resource `VB.BR9`:1, `VB.BR10`:1, `VB.BR11`:1, `VB.BR12`:1
        CFI Resource `VB.BR13`:1, `VB.BR14`:1, `VB.BR15`:1, VB:8, B:8, A:8
        CFI Resource PSW:8, DPL0:8, DPH0:8, R0:8, R1:8, R2:8, R3:8, R4:8, R5:8
        CFI Resource R6:8, R7:8, V0:8, V1:8, V2:8, V3:8, V4:8, V5:8, V6:8, V7:8
        CFI Resource SP:8, PSPH:8, PSPL:8, PSP16:16, XSPH:8, XSPL:8, XSP16:16
        CFI VirtualResource ?RET:24
        CFI Resource ?BRET_EXT:8
        CFI VirtualResource ?RET_HIGH:8, ?RET_LOW:8
        CFI ResourceParts PSP16 PSPH, PSPL
        CFI ResourceParts XSP16 XSPH, XSPL
        CFI ResourceParts ?RET ?BRET_EXT, ?RET_HIGH, ?RET_LOW
        CFI EndNames cfiNames0
        
        CFI Common cfiCommon0 Using cfiNames0
        CFI CodeAlign 1
        CFI DataAlign -1
        CFI ReturnAddress ?RET CODE
        CFI CFA_DOVERLAY Used
        CFI CFA_IOVERLAY Used
        CFI CFA_SP SP+-3
        CFI CFA_PSP16 PSP16+0
        CFI CFA_XSP16 XSP16+0
        CFI `PSW.CY` SameValue
        CFI `B.BR0` SameValue
        CFI `B.BR1` SameValue
        CFI `B.BR2` SameValue
        CFI `B.BR3` SameValue
        CFI `B.BR4` SameValue
        CFI `B.BR5` SameValue
        CFI `B.BR6` SameValue
        CFI `B.BR7` SameValue
        CFI `VB.BR8` SameValue
        CFI `VB.BR9` SameValue
        CFI `VB.BR10` SameValue
        CFI `VB.BR11` SameValue
        CFI `VB.BR12` SameValue
        CFI `VB.BR13` SameValue
        CFI `VB.BR14` SameValue
        CFI `VB.BR15` SameValue
        CFI VB SameValue
        CFI B Undefined
        CFI A Undefined
        CFI PSW SameValue
        CFI DPL0 SameValue
        CFI DPH0 SameValue
        CFI R0 Undefined
        CFI R1 Undefined
        CFI R2 Undefined
        CFI R3 Undefined
        CFI R4 Undefined
        CFI R5 Undefined
        CFI R6 SameValue
        CFI R7 SameValue
        CFI V0 SameValue
        CFI V1 SameValue
        CFI V2 SameValue
        CFI V3 SameValue
        CFI V4 SameValue
        CFI V5 SameValue
        CFI V6 SameValue
        CFI V7 SameValue
        CFI PSPH Undefined
        CFI PSPL Undefined
        CFI XSPH Undefined
        CFI XSPL Undefined
        CFI ?RET Concat
        CFI ?BRET_EXT Frame(CFA_SP, 3)
        CFI ?RET_HIGH Frame(CFA_SP, 2)
        CFI ?RET_LOW Frame(CFA_SP, 1)
        CFI EndCommon cfiCommon0
        
afRegister          SYMBOL "afRegister"
RegisterForKeys     SYMBOL "RegisterForKeys"
HalUARTOpen         SYMBOL "HalUARTOpen"
ZDO_RegisterForZDOMsg SYMBOL "ZDO_RegisterForZDOMsg"
aps_AddGroup        SYMBOL "aps_AddGroup"
osal_msg_receive    SYMBOL "osal_msg_receive"
osal_start_timerEx  SYMBOL "osal_start_timerEx"
osal_msg_deallocate SYMBOL "osal_msg_deallocate"
zb_HandleOsalEvent  SYMBOL "zb_HandleOsalEvent"
HalLedSet           SYMBOL "HalLedSet"
ZDO_ParseEPListRsp  SYMBOL "ZDO_ParseEPListRsp"
osal_mem_free       SYMBOL "osal_mem_free"
NLME_GetShortAddr   SYMBOL "NLME_GetShortAddr"
ZDP_EndDeviceBindReq SYMBOL "ZDP_EndDeviceBindReq"
ZDP_MatchDescReq    SYMBOL "ZDP_MatchDescReq"
displayXYZ          SYMBOL "displayXYZ"
HalUARTWrite        SYMBOL "HalUARTWrite"
zb_ReceiveDataIndication SYMBOL "zb_ReceiveDataIndication"
osal_stop_timerEx   SYMBOL "osal_stop_timerEx"
HalUARTRead         SYMBOL "HalUARTRead"
??HalLedSet?relay   SYMBOL "?relay", HalLedSet
??HalUARTOpen?relay SYMBOL "?relay", HalUARTOpen
??HalUARTRead?relay SYMBOL "?relay", HalUARTRead
??HalUARTWrite?relay SYMBOL "?relay", HalUARTWrite
??NLME_GetShortAddr?relay SYMBOL "?relay", NLME_GetShortAddr
??RegisterForKeys?relay SYMBOL "?relay", RegisterForKeys
??ZDO_ParseEPListRsp?relay SYMBOL "?relay", ZDO_ParseEPListRsp
??ZDO_RegisterForZDOMsg?relay SYMBOL "?relay", ZDO_RegisterForZDOMsg
??ZDP_EndDeviceBindReq?relay SYMBOL "?relay", ZDP_EndDeviceBindReq
??ZDP_MatchDescReq?relay SYMBOL "?relay", ZDP_MatchDescReq
??afRegister?relay  SYMBOL "?relay", afRegister
??aps_AddGroup?relay SYMBOL "?relay", aps_AddGroup
??displayXYZ?relay  SYMBOL "?relay", displayXYZ
??osal_mem_free?relay SYMBOL "?relay", osal_mem_free
??osal_msg_deallocate?relay SYMBOL "?relay", osal_msg_deallocate
??osal_msg_receive?relay SYMBOL "?relay", osal_msg_receive
??osal_start_timerEx?relay SYMBOL "?relay", osal_start_timerEx
??osal_stop_timerEx?relay SYMBOL "?relay", osal_stop_timerEx
??zb_HandleOsalEvent?relay SYMBOL "?relay", zb_HandleOsalEvent
??zb_ReceiveDataIndication?relay SYMBOL "?relay", zb_ReceiveDataIndication
AXD_HandleKeys      SYMBOL "AXD_HandleKeys"
??AXD_HandleKeys?relay SYMBOL "?relay", AXD_HandleKeys
AXD_Init            SYMBOL "AXD_Init"
??AXD_Init?relay    SYMBOL "?relay", AXD_Init
AXD_MessageMSGCB    SYMBOL "AXD_MessageMSGCB"
??AXD_MessageMSGCB?relay SYMBOL "?relay", AXD_MessageMSGCB
AXD_ProcessEvent    SYMBOL "AXD_ProcessEvent"
??AXD_ProcessEvent?relay SYMBOL "?relay", AXD_ProcessEvent
AXD_ProcessZDOMsgs  SYMBOL "AXD_ProcessZDOMsgs"
??AXD_ProcessZDOMsgs?relay SYMBOL "?relay", AXD_ProcessZDOMsgs
AXD_ReceiveDataIndication SYMBOL "AXD_ReceiveDataIndication"
??AXD_ReceiveDataIndication?relay SYMBOL "?relay", AXD_ReceiveDataIndication
AXD_SendTheMessage  SYMBOL "AXD_SendTheMessage"
??AXD_SendTheMessage?relay SYMBOL "?relay", AXD_SendTheMessage
ReadAdcValue        SYMBOL "ReadAdcValue"
??ReadAdcValue?relay SYMBOL "?relay", ReadAdcValue
myApp_ReadTemperature SYMBOL "myApp_ReadTemperature"
??myApp_ReadTemperature?relay SYMBOL "?relay", myApp_ReadTemperature

        EXTERN afRegister
        FUNCTION afRegister,0202H
        ARGFRAME ISTACK, 0, STACK
        ARGFRAME PSTACK, 0, STACK
        ARGFRAME XSTACK, 38, STACK
        ARGFRAME IOVERLAY, 0, STATIC
        ARGFRAME DOVERLAY, 0, STATIC
        EXTERN RegisterForKeys
        FUNCTION RegisterForKeys,0202H
        ARGFRAME ISTACK, 0, STACK
        ARGFRAME PSTACK, 0, STACK
        ARGFRAME XSTACK, 38, STACK
        ARGFRAME IOVERLAY, 0, STATIC
        ARGFRAME DOVERLAY, 0, STATIC
        EXTERN HalUARTOpen
        FUNCTION HalUARTOpen,0202H
        ARGFRAME ISTACK, 0, STACK
        ARGFRAME PSTACK, 0, STACK
        ARGFRAME XSTACK, 38, STACK
        ARGFRAME IOVERLAY, 0, STATIC
        ARGFRAME DOVERLAY, 0, STATIC
        EXTERN ZDO_RegisterForZDOMsg
        FUNCTION ZDO_RegisterForZDOMsg,0202H
        ARGFRAME ISTACK, 0, STACK
        ARGFRAME PSTACK, 0, STACK
        ARGFRAME XSTACK, 38, STACK
        ARGFRAME IOVERLAY, 0, STATIC
        ARGFRAME DOVERLAY, 0, STATIC
        EXTERN aps_AddGroup
        FUNCTION aps_AddGroup,0202H
        ARGFRAME ISTACK, 0, STACK
        ARGFRAME PSTACK, 0, STACK
        ARGFRAME XSTACK, 38, STACK
        ARGFRAME IOVERLAY, 0, STATIC
        ARGFRAME DOVERLAY, 0, STATIC
        EXTERN osal_msg_receive
        FUNCTION osal_msg_receive,0202H
        ARGFRAME ISTACK, 0, STACK
        ARGFRAME PSTACK, 0, STACK
        ARGFRAME XSTACK, 18, STACK
        ARGFRAME IOVERLAY, 0, STATIC
        ARGFRAME DOVERLAY, 0, STATIC
        EXTERN osal_start_timerEx
        FUNCTION osal_start_timerEx,0202H
        ARGFRAME ISTACK, 0, STACK
        ARGFRAME PSTACK, 0, STACK
        ARGFRAME XSTACK, 18, STACK
        ARGFRAME IOVERLAY, 0, STATIC
        ARGFRAME DOVERLAY, 0, STATIC
        EXTERN osal_msg_deallocate
        FUNCTION osal_msg_deallocate,0202H
        ARGFRAME ISTACK, 0, STACK
        ARGFRAME PSTACK, 0, STACK
        ARGFRAME XSTACK, 18, STACK
        ARGFRAME IOVERLAY, 0, STATIC
        ARGFRAME DOVERLAY, 0, STATIC
        EXTERN zb_HandleOsalEvent
        FUNCTION zb_HandleOsalEvent,0202H
        ARGFRAME ISTACK, 0, STACK
        ARGFRAME PSTACK, 0, STACK
        ARGFRAME XSTACK, 18, STACK
        ARGFRAME IOVERLAY, 0, STATIC
        ARGFRAME DOVERLAY, 0, STATIC
        EXTERN HalLedSet
        FUNCTION HalLedSet,0202H
        ARGFRAME ISTACK, 0, STACK
        ARGFRAME PSTACK, 0, STACK
        ARGFRAME XSTACK, 19, STACK
        ARGFRAME IOVERLAY, 0, STATIC
        ARGFRAME DOVERLAY, 0, STATIC
        EXTERN ZDO_ParseEPListRsp
        FUNCTION ZDO_ParseEPListRsp,0202H
        ARGFRAME ISTACK, 0, STACK
        ARGFRAME PSTACK, 0, STACK
        ARGFRAME XSTACK, 12, STACK
        ARGFRAME IOVERLAY, 0, STATIC
        ARGFRAME DOVERLAY, 0, STATIC
        EXTERN osal_mem_free
        FUNCTION osal_mem_free,0202H
        ARGFRAME ISTACK, 0, STACK
        ARGFRAME PSTACK, 0, STACK
        ARGFRAME XSTACK, 12, STACK
        ARGFRAME IOVERLAY, 0, STATIC
        ARGFRAME DOVERLAY, 0, STATIC
        EXTERN NLME_GetShortAddr
        FUNCTION NLME_GetShortAddr,0202H
        ARGFRAME ISTACK, 0, STACK
        ARGFRAME PSTACK, 0, STACK
        ARGFRAME XSTACK, 19, STACK
        ARGFRAME IOVERLAY, 0, STATIC
        ARGFRAME DOVERLAY, 0, STATIC
        EXTERN ZDP_EndDeviceBindReq
        FUNCTION ZDP_EndDeviceBindReq,0202H
        ARGFRAME ISTACK, 0, STACK
        ARGFRAME PSTACK, 0, STACK
        ARGFRAME XSTACK, 28, STACK
        ARGFRAME IOVERLAY, 0, STATIC
        ARGFRAME DOVERLAY, 0, STATIC
        EXTERN ZDP_MatchDescReq
        FUNCTION ZDP_MatchDescReq,0202H
        ARGFRAME ISTACK, 0, STACK
        ARGFRAME PSTACK, 0, STACK
        ARGFRAME XSTACK, 27, STACK
        ARGFRAME IOVERLAY, 0, STATIC
        ARGFRAME DOVERLAY, 0, STATIC
        EXTERN displayXYZ
        FUNCTION displayXYZ,0202H
        ARGFRAME ISTACK, 0, STACK
        ARGFRAME PSTACK, 0, STACK
        ARGFRAME XSTACK, 10, STACK
        ARGFRAME IOVERLAY, 0, STATIC
        ARGFRAME DOVERLAY, 0, STATIC
        EXTERN HalUARTWrite
        FUNCTION HalUARTWrite,0202H
        ARGFRAME ISTACK, 0, STACK
        ARGFRAME PSTACK, 0, STACK
        ARGFRAME XSTACK, 10, STACK
        ARGFRAME IOVERLAY, 0, STATIC
        ARGFRAME DOVERLAY, 0, STATIC
        EXTERN zb_ReceiveDataIndication
        FUNCTION zb_ReceiveDataIndication,0202H
        ARGFRAME ISTACK, 0, STACK
        ARGFRAME PSTACK, 0, STACK
        ARGFRAME XSTACK, 18, STACK
        ARGFRAME IOVERLAY, 0, STATIC
        ARGFRAME DOVERLAY, 0, STATIC
        EXTERN osal_stop_timerEx
        FUNCTION osal_stop_timerEx,0202H
        ARGFRAME ISTACK, 0, STACK
        ARGFRAME PSTACK, 0, STACK
        ARGFRAME XSTACK, 10, STACK
        ARGFRAME IOVERLAY, 0, STATIC
        ARGFRAME DOVERLAY, 0, STATIC
        EXTERN HalUARTRead
        FUNCTION HalUARTRead,0202H
        ARGFRAME ISTACK, 0, STACK
        ARGFRAME PSTACK, 0, STACK
        ARGFRAME XSTACK, 10, STACK
        ARGFRAME IOVERLAY, 0, STATIC
        ARGFRAME DOVERLAY, 0, STATIC
        EXTERN ??HalLedSet?relay
        FUNCTION ??HalLedSet?relay,00H
        EXTERN ??HalUARTOpen?relay
        FUNCTION ??HalUARTOpen?relay,00H
        EXTERN ??HalUARTRead?relay
        FUNCTION ??HalUARTRead?relay,00H
        EXTERN ??HalUARTWrite?relay
        FUNCTION ??HalUARTWrite?relay,00H
        EXTERN ??NLME_GetShortAddr?relay
        FUNCTION ??NLME_GetShortAddr?relay,00H
        EXTERN ??RegisterForKeys?relay
        FUNCTION ??RegisterForKeys?relay,00H
        EXTERN ??ZDO_ParseEPListRsp?relay
        FUNCTION ??ZDO_ParseEPListRsp?relay,00H
        EXTERN ??ZDO_RegisterForZDOMsg?relay
        FUNCTION ??ZDO_RegisterForZDOMsg?relay,00H
        EXTERN ??ZDP_EndDeviceBindReq?relay
        FUNCTION ??ZDP_EndDeviceBindReq?relay,00H
        EXTERN ??ZDP_MatchDescReq?relay
        FUNCTION ??ZDP_MatchDescReq?relay,00H
        EXTERN ??afRegister?relay
        FUNCTION ??afRegister?relay,00H
        EXTERN ??aps_AddGroup?relay
        FUNCTION ??aps_AddGroup?relay,00H
        EXTERN ??displayXYZ?relay
        FUNCTION ??displayXYZ?relay,00H
        EXTERN ??osal_mem_free?relay
        FUNCTION ??osal_mem_free?relay,00H
        EXTERN ??osal_msg_deallocate?relay
        FUNCTION ??osal_msg_deallocate?relay,00H
        EXTERN ??osal_msg_receive?relay
        FUNCTION ??osal_msg_receive?relay,00H
        EXTERN ??osal_start_timerEx?relay
        FUNCTION ??osal_start_timerEx?relay,00H
        EXTERN ??osal_stop_timerEx?relay
        FUNCTION ??osal_stop_timerEx?relay,00H
        EXTERN ??zb_HandleOsalEvent?relay
        FUNCTION ??zb_HandleOsalEvent?relay,00H
        EXTERN ??zb_ReceiveDataIndication?relay
        FUNCTION ??zb_ReceiveDataIndication?relay,00H
        EXTERN BUFFER

// C:\Texas Instruments\ZStack-1.4.3-1.2.1\Projects\zstack\Samples\cc2430-zstack-adxl345\Source\AXD.c
//    1 /**************************************************************************************************
//    2   Filename:       AXD.c
//    3   Revised:        $Date: 2007-10-27 17:16:54 -0700 (Sat, 27 Oct 2007) $
//    4   Revision:       $Revision: 15793 $
//    5 
//    6   Description:    Generic Application (no Profile).
//    7 
//    8 
//    9   Copyright 2004-2007 Texas Instruments Incorporated. All rights reserved.
//   10 
//   11   IMPORTANT: Your use of this Software is limited to those specific rights
//   12   granted under the terms of a software license agreement between the user
//   13   who downloaded the software, his/her employer (which must be your employer)
//   14   and Texas Instruments Incorporated (the "License").  You may not use this
//   15   Software unless you agree to abide by the terms of the License. The License
//   16   limits your use, and you acknowledge, that the Software may not be modified,
//   17   copied or distributed unless embedded on a Texas Instruments microcontroller
//   18   or used solely and exclusively in conjunction with a Texas Instruments radio
//   19   frequency transceiver, which is integrated into your product.  Other than for
//   20   the foregoing purpose, you may not use, reproduce, copy, prepare derivative
//   21   works of, modify, distribute, perform, display or sell this Software and/or
//   22   its documentation for any purpose.
//   23 
//   24   YOU FURTHER ACKNOWLEDGE AND AGREE THAT THE SOFTWARE AND DOCUMENTATION ARE
//   25   PROVIDED AS IS?WITHOUT WARRANTY OF ANY KIND, EITHER EXPRESS OR IMPLIED, 
//   26   INCLUDING WITHOUT LIMITATION, ANY WARRANTY OF MERCHANTABILITY, TITLE, 
//   27   NON-INFRINGEMENT AND FITNESS FOR A PARTICULAR PURPOSE. IN NO EVENT SHALL
//   28   TEXAS INSTRUMENTS OR ITS LICENSORS BE LIABLE OR OBLIGATED UNDER CONTRACT,
//   29   NEGLIGENCE, STRICT LIABILITY, CONTRIBUTION, BREACH OF WARRANTY, OR OTHER
//   30   LEGAL EQUITABLE THEORY ANY DIRECT OR INDIRECT DAMAGES OR EXPENSES
//   31   INCLUDING BUT NOT LIMITED TO ANY INCIDENTAL, SPECIAL, INDIRECT, PUNITIVE
//   32   OR CONSEQUENTIAL DAMAGES, LOST PROFITS OR LOST DATA, COST OF PROCUREMENT
//   33   OF SUBSTITUTE GOODS, TECHNOLOGY, SERVICES, OR ANY CLAIMS BY THIRD PARTIES
//   34   (INCLUDING BUT NOT LIMITED TO ANY DEFENSE THEREOF), OR OTHER SIMILAR COSTS.
//   35 
//   36   Should you have any questions regarding your right to use this Software,
//   37   contact Texas Instruments Incorporated at www.TI.com. 
//   38 **************************************************************************************************/
//   39 
//   40 /*********************************************************************
//   41   This application isn't intended to do anything useful, it is
//   42   intended to be a simple example of an application's structure.
//   43 
//   44   This application sends "Hello World" to another "Generic"
//   45   application every 15 seconds.  The application will also
//   46   receive "Hello World" packets.
//   47 
//   48   The "Hello World" messages are sent/received as MSG type message.
//   49 
//   50   This applications doesn't have a profile, so it handles everything
//   51   directly - itself.
//   52 
//   53   Key control:
//   54     SW1:
//   55     SW2:  initiates end device binding
//   56     SW3:
//   57     SW4:  initiates a match description request
//   58 *********************************************************************/
//   59 
//   60 /*********************************************************************
//   61  * INCLUDES
//   62  */
//   63 #include "OSAL.h"
//   64 #include "AF.h"
//   65 #include "ZDApp.h"
//   66 #include "ZDObject.h"
//   67 #include "ZDProfile.h"
//   68 #include "aps_groups.h"
//   69 
//   70 #include "AXD.h"
//   71 #include "DebugTrace.h"
//   72 
//   73 #if !defined( WIN32 )
//   74   #include "OnBoard.h"

        ASEGN SFR_AN:DATA:NOROOT,088H
// union <unnamed> volatile __sfr _A_TCON
_A_TCON:
        DS 1

        ASEGN SFR_AN:DATA:NOROOT,0b6H
// unsigned char volatile __sfr ADCCON3
ADCCON3:
        DS 1

        ASEGN SFR_AN:DATA:NOROOT,0baH
// unsigned char volatile __sfr ADCL
ADCL:
        DS 1

        ASEGN SFR_AN:DATA:NOROOT,0bbH
// unsigned char volatile __sfr ADCH
ADCH:
        DS 1
//   75 #endif
//   76 
//   77 /* HAL */
//   78 #include "hal_lcd.h"
//   79 #include "hal_led.h"
//   80 #include "hal_key.h"
//   81 #include "hal_uart.h"
//   82 #include "hal_adc.h"
//   83 
//   84 /*用户自己的头文件*/
//   85 #include "adxl345.h"
//   86 #include "readaxd.h"
//   87 
//   88 /*********************************************************************
//   89  * MACROS
//   90  */
//   91 #define FREE_OTABUF() { \ 
//   92   if ( otaBuf ) \ 
//   93   { \ 
//   94     osal_mem_free( otaBuf ); \ 
//   95   } \ 
//   96   if ( otaBuf2 ) \ 
//   97   { \ 
//   98     SerialApp_SendData( otaBuf2, otaLen2 ); \ 
//   99     otaBuf2 = NULL; \ 
//  100   } \ 
//  101   else \ 
//  102   { \ 
//  103     otaBuf = NULL; \ 
//  104   } \ 
//  105 }
//  106 
//  107 #define HAL_ADC_REF_125V    0x00    /* Internal 1.25V Reference */
//  108 #define HAL_ADC_REF_AIN7    0x40    /* AIN7 Reference */
//  109 #define HAL_ADC_DEC_064     0x00    /* Decimate by 64 : 8-bit resolution */
//  110 #define HAL_ADC_DEC_128     0x10    /* Decimate by 128 : 10-bit resolution */
//  111 #define HAL_ADC_DEC_512     0x30    /* Decimate by 512 : 14-bit resolution */
//  112 #define HAL_ADC_CHN_VDD3    0x0f    /* Input channel: VDD/3 */
//  113 #define HAL_ADC_CHN_AIN1    0x01    /* AIN1 */
//  114 #define HAL_ADC_CHN_AIN2    0x02    /* AIN2 */
//  115 #define HAL_ADC_CHN_AIN4    0x04    /* AIN4 */
//  116 #define HAL_ADC_CHN_AIN5    0x05    /* AIN5 */
//  117 #define HAL_ADC_CHN_TEMP    0x0e    /* Temperature sensor */
//  118 #define ADC_TEMP            0x00
//  119 #define ADC_PULSE           0x01
//  120 
//  121 #define DEVICE_A 0x01;
//  122 #define DEVICE_B 0x02;
//  123 #define DEVICE_C 0x03;
//  124 /*********************************************************************
//  125  * CONSTANTS
//  126  */
//  127 #define ZB_USER_EVENTS                    0x00FF
//  128 #if !defined( SERIAL_APP_PORT )
//  129   #define SERIAL_APP_PORT  0
//  130 #endif
//  131 
//  132 #if !defined( SERIAL_APP_BAUD )
//  133   // CC2430 only allows 38.4k or 115.2k.
//  134   //#define SERIAL_APP_BAUD  HAL_UART_BR_38400
//  135   #define SERIAL_APP_BAUD  HAL_UART_BR_115200
//  136 #endif
//  137 
//  138 // When the Rx buf space is less than this threshold, invoke the Rx callback.
//  139 #if !defined( SERIAL_APP_THRESH )
//  140   #define SERIAL_APP_THRESH  48
//  141 #endif
//  142 
//  143 #if !defined( SERIAL_APP_RX_MAX )
//  144   #if (defined( HAL_UART_DMA )) && HAL_UART_DMA
//  145     #define SERIAL_APP_RX_MAX  128
//  146   #else
//  147     /* The generic safe Rx minimum is 48, but if you know your PC App will not
//  148      * continue to send more than a byte after receiving the ~CTS, lower max
//  149      * here and safe min in _hal_uart.c to just 8.
//  150      */
//  151     #define SERIAL_APP_RX_MAX  64
//  152   #endif
//  153 #endif
//  154 
//  155 #if !defined( SERIAL_APP_TX_MAX )
//  156   #if (defined( HAL_UART_DMA )) && HAL_UART_DMA
//  157   #define SERIAL_APP_TX_MAX  128
//  158   #else
//  159     #define SERIAL_APP_TX_MAX  64
//  160   #endif
//  161 #endif
//  162 
//  163 // Millisecs of idle time after a byte is received before invoking Rx callback.
//  164 #if !defined( SERIAL_APP_IDLE )
//  165   #define SERIAL_APP_IDLE  6
//  166 #endif
//  167 
//  168 // This is the desired byte count per OTA message.
//  169 #if !defined( SERIAL_APP_RX_CNT )
//  170   #if (defined( HAL_UART_DMA )) && HAL_UART_DMA
//  171     #define SERIAL_APP_RX_CNT  80
//  172   #else
//  173     #define SERIAL_APP_RX_CNT  6
//  174   #endif
//  175 #endif
//  176 
//  177 // Loopback Rx bytes to Tx for thruput testing.
//  178 #if !defined( SERIAL_APP_LOOPBACK )
//  179   #define SERIAL_APP_LOOPBACK  TRUE
//  180 #endif
//  181 
//  182 #if SERIAL_APP_LOOPBACK
//  183   #define SERIALAPP_TX_RTRY_EVT      0x0010
//  184   #define SERIALAPP_TX_RTRY_TIMEOUT  250
//  185 #endif
//  186 
//  187 #define SERIAL_APP_RSP_CNT  4
//  188 
//  189 /*********************************************************************
//  190  * TYPEDEFS
//  191  */
//  192 
//  193 /*********************************************************************
//  194  * GLOBAL VARIABLES
//  195  */

        RSEG XDATA_Z:XDATA:NOROOT(0)
//  196 aps_Group_t AXD_Group;
AXD_Group:
        DS 18
        REQUIRE __INIT_XDATA_Z
//  197 
//  198 // This list should be filled with Application specific Cluster IDs.

        RSEG XDATA_I:XDATA:NOROOT(0)
        DATA
//  199 const cId_t AXD_ClusterList[AXD_MAX_CLUSTERS] =
AXD_ClusterList:
        DS 6
        REQUIRE `?<Initializer for AXD_ClusterList>`
        REQUIRE __INIT_XDATA_I
//  200 {
//  201   AXD_CLUSTERID,
//  202   AXD_TEST_CLUSTERID
//  203 };
//  204 

        RSEG XDATA_I:XDATA:NOROOT(0)
        DATA
//  205 const SimpleDescriptionFormat_t AXD_SimpleDesc =
AXD_SimpleDesc:
        DS 12
        REQUIRE `?<Initializer for AXD_SimpleDesc>`
        REQUIRE __INIT_XDATA_I

        RSEG XDATA_I:XDATA:NOROOT(0)
        DATA
__Constant_427b999a:
        DS 4
        REQUIRE `?<Initializer for __Constant_427b999a>`
        REQUIRE __INIT_XDATA_I

        RSEG XDATA_I:XDATA:NOROOT(0)
        DATA
__Constant_43a50000:
        DS 4
        REQUIRE `?<Initializer for __Constant_43a50000>`
        REQUIRE __INIT_XDATA_I

        RSEG XDATA_I:XDATA:NOROOT(0)
        DATA
__Constant_46000000:
        DS 4
        REQUIRE `?<Initializer for __Constant_46000000>`
        REQUIRE __INIT_XDATA_I
//  206 {
//  207   AXD_ENDPOINT,              //  int Endpoint;
//  208   AXD_PROFID,                //  uint16 AppProfId[2];
//  209   AXD_DEVICEID,              //  uint16 AppDeviceId[2];
//  210   AXD_DEVICE_VERSION,        //  int   AppDevVer:4;
//  211   AXD_FLAGS,                 //  int   AppFlags:4;
//  212   AXD_MAX_CLUSTERS,          //  byte  AppNumInClusters;
//  213   (cId_t *)AXD_ClusterList,  //  byte *pAppInClusterList;
//  214   AXD_MAX_CLUSTERS,          //  byte  AppNumInClusters;
//  215   (cId_t *)AXD_ClusterList   //  byte *pAppInClusterList;
//  216 };
//  217 
//  218 // This is the Endpoint/Interface description.  It is defined here, but
//  219 // filled-in in AXD_Init().  Another way to go would be to fill
//  220 // in the structure here and make it a "const" (in code space).  The
//  221 // way it's defined in this sample app it is define in RAM.

        RSEG XDATA_Z:XDATA:NOROOT(0)
//  222 endPointDesc_t AXD_epDesc;
AXD_epDesc:
        DS 6
        REQUIRE __INIT_XDATA_Z
//  223 
//  224 /*********************************************************************
//  225  * EXTERNAL VARIABLES
//  226  */

        RSEG XDATA_Z:XDATA:NOROOT(0)
//  227 uint16 test2 = 0;
test2:
        DS 2
        REQUIRE __INIT_XDATA_Z
//  228 
//  229 /*********************************************************************
//  230  * EXTERNAL FUNCTIONS
//  231  */
//  232 
//  233 /*********************************************************************
//  234  * LOCAL VARIABLES
//  235  */

        RSEG XDATA_Z:XDATA:NOROOT(0)
//  236 byte AXD_TaskID;   // Task ID for internal task/event processing
AXD_TaskID:
        DS 1
        REQUIRE __INIT_XDATA_Z
//  237                           // This variable will be received when
//  238                           // AXD_Init() is called.

        RSEG XDATA_Z:XDATA:NOROOT(0)
//  239 devStates_t AXD_NwkState;
AXD_NwkState:
        DS 1
        REQUIRE __INIT_XDATA_Z
//  240 
//  241 

        RSEG XDATA_Z:XDATA:NOROOT(0)
//  242 byte AXD_TransID;  // This is the unique message ID (counter)
AXD_TransID:
        DS 1
        REQUIRE __INIT_XDATA_Z
//  243 //byte AXD_TransID2;
//  244 

        RSEG XDATA_Z:XDATA:NOROOT(0)
//  245 afAddrType_t AXD_DstAddr;
AXD_DstAddr:
        DS 4
        REQUIRE __INIT_XDATA_Z
//  246 #if SERIAL_APP_LOOPBACK

        RSEG XDATA_Z:XDATA:NOROOT(0)
//  247 static uint8 rxLen;
rxLen:
        DS 1
        REQUIRE __INIT_XDATA_Z

        RSEG XDATA_Z:XDATA:NOROOT(0)
//  248 static uint8 rxBuf[SERIAL_APP_RX_CNT];
rxBuf:
        DS 6
        REQUIRE __INIT_XDATA_Z
//  249 #endif
//  250 
//  251 /*********************************************************************
//  252  * LOCAL FUNCTIONS
//  253  */
//  254 void AXD_ProcessZDOMsgs( zdoIncomingMsg_t *inMsg );
//  255 void AXD_HandleKeys( byte shift, byte keys );
//  256 void AXD_MessageMSGCB( afIncomingMSGPacket_t *pckt );
//  257 void AXD_SendTheMessage( void );
//  258 
//  259 #if SERIAL_APP_LOOPBACK
//  260 static void rxCB_Loopback( uint8 port, uint8 event );
//  261 #else
//  262 static void rxCB( uint8 port, uint8 event );
//  263 #endif
//  264 
//  265 /*********************************************************************
//  266  * NETWORK LAYER CALLBACKS
//  267  */
//  268 
//  269 /*********************************************************************
//  270  * PUBLIC FUNCTIONS
//  271  */
//  272 
//  273 /*********************************************************************
//  274  * @fn      AXD_Init
//  275  *
//  276  * @brief   Initialization function for the Generic App Task.
//  277  *          This is called during initialization and should contain
//  278  *          any application specific initialization (ie. hardware
//  279  *          initialization/setup, table initialization, power up
//  280  *          notificaiton ... ).
//  281  *
//  282  * @param   task_id - the ID assigned by OSAL.  This ID should be
//  283  *                    used to send messages and set timers.
//  284  *
//  285  * @return  none
//  286  */

        RSEG BANKED_CODE:CODE:NOROOT(0)
//  287 void AXD_Init( byte task_id )
AXD_Init:
        CFI Block cfiBlock0 Using cfiCommon0
        CFI Function AXD_Init
//  288 {
        FUNCALL AXD_Init, afRegister
        LOCFRAME ISTACK, 0, STACK
        LOCFRAME PSTACK, 0, STACK
        LOCFRAME XSTACK, 38, STACK
        LOCFRAME IOVERLAY, 0, STATIC
        LOCFRAME DOVERLAY, 0, STATIC
        ARGFRAME ISTACK, 0, STACK
        ARGFRAME PSTACK, 0, STACK
        ARGFRAME XSTACK, 38, STACK
        ARGFRAME IOVERLAY, 0, STATIC
        ARGFRAME DOVERLAY, 0, STATIC
        FUNCALL AXD_Init, RegisterForKeys
        LOCFRAME ISTACK, 0, STACK
        LOCFRAME PSTACK, 0, STACK
        LOCFRAME XSTACK, 38, STACK
        LOCFRAME IOVERLAY, 0, STATIC
        LOCFRAME DOVERLAY, 0, STATIC
        ARGFRAME ISTACK, 0, STACK
        ARGFRAME PSTACK, 0, STACK
        ARGFRAME XSTACK, 38, STACK
        ARGFRAME IOVERLAY, 0, STATIC
        ARGFRAME DOVERLAY, 0, STATIC
        FUNCALL AXD_Init, HalUARTOpen
        LOCFRAME ISTACK, 0, STACK
        LOCFRAME PSTACK, 0, STACK
        LOCFRAME XSTACK, 38, STACK
        LOCFRAME IOVERLAY, 0, STATIC
        LOCFRAME DOVERLAY, 0, STATIC
        ARGFRAME ISTACK, 0, STACK
        ARGFRAME PSTACK, 0, STACK
        ARGFRAME XSTACK, 38, STACK
        ARGFRAME IOVERLAY, 0, STATIC
        ARGFRAME DOVERLAY, 0, STATIC
        FUNCALL AXD_Init, ZDO_RegisterForZDOMsg
        LOCFRAME ISTACK, 0, STACK
        LOCFRAME PSTACK, 0, STACK
        LOCFRAME XSTACK, 38, STACK
        LOCFRAME IOVERLAY, 0, STATIC
        LOCFRAME DOVERLAY, 0, STATIC
        ARGFRAME ISTACK, 0, STACK
        ARGFRAME PSTACK, 0, STACK
        ARGFRAME XSTACK, 38, STACK
        ARGFRAME IOVERLAY, 0, STATIC
        ARGFRAME DOVERLAY, 0, STATIC
        FUNCALL AXD_Init, ZDO_RegisterForZDOMsg
        LOCFRAME ISTACK, 0, STACK
        LOCFRAME PSTACK, 0, STACK
        LOCFRAME XSTACK, 38, STACK
        LOCFRAME IOVERLAY, 0, STATIC
        LOCFRAME DOVERLAY, 0, STATIC
        ARGFRAME ISTACK, 0, STACK
        ARGFRAME PSTACK, 0, STACK
        ARGFRAME XSTACK, 38, STACK
        ARGFRAME IOVERLAY, 0, STATIC
        ARGFRAME DOVERLAY, 0, STATIC
        FUNCALL AXD_Init, aps_AddGroup
        LOCFRAME ISTACK, 0, STACK
        LOCFRAME PSTACK, 0, STACK
        LOCFRAME XSTACK, 38, STACK
        LOCFRAME IOVERLAY, 0, STATIC
        LOCFRAME DOVERLAY, 0, STATIC
        ARGFRAME ISTACK, 0, STACK
        ARGFRAME PSTACK, 0, STACK
        ARGFRAME XSTACK, 38, STACK
        ARGFRAME IOVERLAY, 0, STATIC
        ARGFRAME DOVERLAY, 0, STATIC
        MOV     A,#-0x9
        LCALL   ?BANKED_ENTER_XDATA
        CFI DPH0 load(1, XDATA, add(CFA_XSP16, literal(-1)))
        CFI DPL0 load(1, XDATA, add(CFA_XSP16, literal(-2)))
        CFI ?BRET_EXT load(1, XDATA, add(CFA_XSP16, literal(-3)))
        CFI ?RET_HIGH load(1, XDATA, add(CFA_XSP16, literal(-4)))
        CFI ?RET_LOW load(1, XDATA, add(CFA_XSP16, literal(-5)))
        CFI R7 load(1, XDATA, add(CFA_XSP16, literal(-6)))
        CFI V0 load(1, XDATA, add(CFA_XSP16, literal(-7)))
        CFI VB load(1, XDATA, add(CFA_XSP16, literal(-8)))
        CFI R6 load(1, XDATA, add(CFA_XSP16, literal(-9)))
        CFI CFA_SP SP+0
        CFI CFA_XSP16 add(XSP16, 9)
        ; Saved register size: 9
        ; Auto size: 29
        MOV     A,#-0x1d
        LCALL   ?ALLOC_XSTACK8
        CFI CFA_XSP16 add(XSP16, 38)
        MOV     A,R1
//  289   halUARTCfg_t uartConfig;
//  290   AXD_TaskID = task_id;
        MOV     DPTR,#AXD_TaskID
        MOVX    @DPTR,A
//  291   AXD_NwkState = DEV_INIT;
        MOV     A,#0x1
        MOV     DPTR,#AXD_NwkState
        MOVX    @DPTR,A
//  292   AXD_TransID = 0;
        MOV     A,#0x0
        MOV     DPTR,#AXD_TransID
        MOVX    @DPTR,A
//  293 //  AXD_TransID2 = 1;
//  294 
//  295   // Device hardware initialization can be added here or in main() (Zmain.c).
//  296   // If the hardware is application specific - add it here.
//  297   // If the hardware is other parts of the device add it in main().
//  298 
//  299   AXD_DstAddr.addrMode = (afAddrMode_t)AddrNotPresent;
        MOV     A,#0x0
        MOV     DPTR,#(AXD_DstAddr + 2)
        MOVX    @DPTR,A
//  300   AXD_DstAddr.endPoint = 0;
        MOV     A,#0x0
        MOV     DPTR,#(AXD_DstAddr + 3)
        MOVX    @DPTR,A
//  301   AXD_DstAddr.addr.shortAddr = 0;
        MOV     DPTR,#AXD_DstAddr
        MOV     A,#0x0
        MOVX    @DPTR,A
        INC     DPTR
        MOV     A,#0x0
        MOVX    @DPTR,A
//  302 
//  303   // Fill out the endpoint description.
//  304   AXD_epDesc.endPoint = AXD_ENDPOINT;
        MOV     A,#0xa
        MOV     DPTR,#AXD_epDesc
        MOVX    @DPTR,A
//  305   AXD_epDesc.task_id = &AXD_TaskID;
        MOV     DPTR,#(AXD_epDesc + 1)
        MOV     A,#(AXD_TaskID & 0xff)
        MOVX    @DPTR,A
        INC     DPTR
        MOV     A,#((AXD_TaskID >> 8) & 0xff)
        MOVX    @DPTR,A
//  306   AXD_epDesc.simpleDesc
//  307             = (SimpleDescriptionFormat_t *)&AXD_SimpleDesc;
        MOV     DPTR,#(AXD_epDesc + 3)
        MOV     A,#(AXD_SimpleDesc & 0xff)
        MOVX    @DPTR,A
        INC     DPTR
        MOV     A,#((AXD_SimpleDesc >> 8) & 0xff)
        MOVX    @DPTR,A
//  308   AXD_epDesc.latencyReq = noLatencyReqs;
        MOV     A,#0x0
        MOV     DPTR,#(AXD_epDesc + 5)
        MOVX    @DPTR,A
//  309 
//  310   // Register the endpoint description with the AF
//  311   afRegister( &AXD_epDesc );
        ; Setup parameters for call to function afRegister
        MOV     R2,#(AXD_epDesc & 0xff)
        MOV     R3,#((AXD_epDesc >> 8) & 0xff)
        LCALL   ??afRegister?relay
//  312 
//  313   // Register for all key events - This app will handle all key events
//  314   RegisterForKeys( AXD_TaskID );
        ; Setup parameters for call to function RegisterForKeys
        MOV     DPTR,#AXD_TaskID
        MOVX    A,@DPTR
        MOV     R1,A
        LCALL   ??RegisterForKeys?relay
//  315   uartConfig.configured           = TRUE;              // 2430 don't care.
        MOV     A,#0x1
        MOV     DPL,?XSP + 0
        MOV     DPH,?XSP + 1
        MOVX    @DPTR,A
//  316   uartConfig.baudRate             = SERIAL_APP_BAUD;
        MOV     A,#0x8
        PUSH    A
        CFI CFA_SP SP+-1
        MOV     A,#0x1
        LCALL   ?XSTACK_DISP0_8
        POP     A
        CFI CFA_SP SP+0
        MOVX    @DPTR,A
//  317   uartConfig.flowControl          = TRUE;
        MOV     A,#0x1
        PUSH    A
        CFI CFA_SP SP+-1
        MOV     A,#0x2
        LCALL   ?XSTACK_DISP0_8
        POP     A
        CFI CFA_SP SP+0
        MOVX    @DPTR,A
//  318   uartConfig.flowControlThreshold = SERIAL_APP_THRESH;
        MOV     A,#0x3
        LCALL   ?XSTACK_DISP0_8
        MOV     A,#0x30
        MOVX    @DPTR,A
        INC     DPTR
        MOV     A,#0x0
        MOVX    @DPTR,A
//  319   uartConfig.rx.maxBufSize        = SERIAL_APP_RX_MAX;
        MOV     A,#0xa
        LCALL   ?XSTACK_DISP0_8
        MOV     A,#0x40
        MOVX    @DPTR,A
        INC     DPTR
        MOV     A,#0x0
        MOVX    @DPTR,A
//  320   uartConfig.tx.maxBufSize        = SERIAL_APP_TX_MAX;
        MOV     A,#0x12
        LCALL   ?XSTACK_DISP0_8
        MOV     A,#0x40
        MOVX    @DPTR,A
        INC     DPTR
        MOV     A,#0x0
        MOVX    @DPTR,A
//  321   uartConfig.idleTimeout          = SERIAL_APP_IDLE;   // 2430 don't care.
        MOV     A,#0x6
        PUSH    A
        CFI CFA_SP SP+-1
        MOV     A,#0x5
        LCALL   ?XSTACK_DISP0_8
        POP     A
        CFI CFA_SP SP+0
        MOVX    @DPTR,A
//  322   uartConfig.intEnable            = TRUE;              // 2430 don't care.
        MOV     A,#0x1
        PUSH    A
        CFI CFA_SP SP+-1
        MOV     A,#0x16
        LCALL   ?XSTACK_DISP0_8
        POP     A
        CFI CFA_SP SP+0
        MOVX    @DPTR,A
//  323 #if SERIAL_APP_LOOPBACK
//  324   uartConfig.callBackFunc         = rxCB_Loopback;
        MOV     A,#0x1b
        LCALL   ?XSTACK_DISP0_8
        MOV     A,#(??rxCB_Loopback?relay & 0xff)
        MOVX    @DPTR,A
        INC     DPTR
        MOV     A,#((??rxCB_Loopback?relay >> 8) & 0xff)
        MOVX    @DPTR,A
//  325 #else
//  326   uartConfig.callBackFunc         = rxCB;
//  327 #endif
//  328   HalUARTOpen (SERIAL_APP_PORT, &uartConfig);
        ; Setup parameters for call to function HalUARTOpen
        MOV     DPL,?XSP + 0
        MOV     DPH,?XSP + 1
        MOV     R2,DPL
        MOV     R3,DPH
        MOV     R1,#0x0
        LCALL   ??HalUARTOpen?relay
//  329 
//  330   // Update the display
//  331 #if defined ( LCD_SUPPORTED )
//  332     HalLcdWriteString( "AXD", HAL_LCD_LINE_1 );
//  333 #endif
//  334 
//  335   ZDO_RegisterForZDOMsg( AXD_TaskID, End_Device_Bind_rsp );
        ; Setup parameters for call to function ZDO_RegisterForZDOMsg
        MOV     R2,#0x20
        MOV     R3,#-0x80
        MOV     DPTR,#AXD_TaskID
        MOVX    A,@DPTR
        MOV     R1,A
        LCALL   ??ZDO_RegisterForZDOMsg?relay
//  336   ZDO_RegisterForZDOMsg( AXD_TaskID, Match_Desc_rsp );
        ; Setup parameters for call to function ZDO_RegisterForZDOMsg
        MOV     R2,#0x6
        MOV     R3,#-0x80
        MOV     DPTR,#AXD_TaskID
        MOVX    A,@DPTR
        MOV     R1,A
        LCALL   ??ZDO_RegisterForZDOMsg?relay
//  337   
//  338   AXD_Group.ID = AXD_GROUP;
        MOV     DPTR,#AXD_Group
        MOV     A,#0x1
        MOVX    @DPTR,A
        INC     DPTR
        MOV     A,#0x0
        MOVX    @DPTR,A
//  339   aps_AddGroup(AXD_ENDPOINT,&AXD_Group);
        ; Setup parameters for call to function aps_AddGroup
        MOV     R2,#(AXD_Group & 0xff)
        MOV     R3,#((AXD_Group >> 8) & 0xff)
        MOV     R1,#0xa
        LCALL   ??aps_AddGroup?relay
//  340   //下面是用户自定义的初始化
//  341 #ifdef AXD_END || AXD_END2 || AXD_END3
//  342   Init_ADXL345();
//  343   HalAdcInit();
//  344 #endif
//  345 }
        MOV     A,#0x1d
        LCALL   ?DEALLOC_XSTACK8
        CFI CFA_XSP16 add(XSP16, 9)
        MOV     R7,#0x1
        LJMP    ?BANKED_LEAVE_XDATA
        CFI EndBlock cfiBlock0
//  346 
//  347 /*********************************************************************
//  348  * @fn      AXD_ProcessEvent
//  349  *
//  350  * @brief   Generic Application Task event processor.  This function
//  351  *          is called to process all events for the task.  Events
//  352  *          include timers, messages and any other user defined events.
//  353  *
//  354  * @param   task_id  - The OSAL assigned task ID.
//  355  * @param   events - events to process.  This is a bit map and can
//  356  *                   contain more than one event.
//  357  *
//  358  * @return  none
//  359  */

        RSEG BANKED_CODE:CODE:NOROOT(0)
//  360 UINT16 AXD_ProcessEvent( byte task_id, UINT16 events )
AXD_ProcessEvent:
        CFI Block cfiBlock1 Using cfiCommon0
        CFI Function AXD_ProcessEvent
//  361 {
        FUNCALL AXD_ProcessEvent, osal_msg_receive
        LOCFRAME ISTACK, 0, STACK
        LOCFRAME PSTACK, 0, STACK
        LOCFRAME XSTACK, 18, STACK
        LOCFRAME IOVERLAY, 0, STATIC
        LOCFRAME DOVERLAY, 0, STATIC
        ARGFRAME ISTACK, 0, STACK
        ARGFRAME PSTACK, 0, STACK
        ARGFRAME XSTACK, 18, STACK
        ARGFRAME IOVERLAY, 0, STATIC
        ARGFRAME DOVERLAY, 0, STATIC
        FUNCALL AXD_ProcessEvent, AXD_ProcessZDOMsgs
        LOCFRAME ISTACK, 0, STACK
        LOCFRAME PSTACK, 0, STACK
        LOCFRAME XSTACK, 18, STACK
        LOCFRAME IOVERLAY, 0, STATIC
        LOCFRAME DOVERLAY, 0, STATIC
        ARGFRAME ISTACK, 0, STACK
        ARGFRAME PSTACK, 0, STACK
        ARGFRAME XSTACK, 18, STACK
        ARGFRAME IOVERLAY, 0, STATIC
        ARGFRAME DOVERLAY, 0, STATIC
        FUNCALL AXD_ProcessEvent, AXD_HandleKeys
        LOCFRAME ISTACK, 0, STACK
        LOCFRAME PSTACK, 0, STACK
        LOCFRAME XSTACK, 18, STACK
        LOCFRAME IOVERLAY, 0, STATIC
        LOCFRAME DOVERLAY, 0, STATIC
        ARGFRAME ISTACK, 0, STACK
        ARGFRAME PSTACK, 0, STACK
        ARGFRAME XSTACK, 18, STACK
        ARGFRAME IOVERLAY, 0, STATIC
        ARGFRAME DOVERLAY, 0, STATIC
        FUNCALL AXD_ProcessEvent, osal_start_timerEx
        LOCFRAME ISTACK, 0, STACK
        LOCFRAME PSTACK, 0, STACK
        LOCFRAME XSTACK, 18, STACK
        LOCFRAME IOVERLAY, 0, STATIC
        LOCFRAME DOVERLAY, 0, STATIC
        ARGFRAME ISTACK, 0, STACK
        ARGFRAME PSTACK, 0, STACK
        ARGFRAME XSTACK, 18, STACK
        ARGFRAME IOVERLAY, 0, STATIC
        ARGFRAME DOVERLAY, 0, STATIC
        FUNCALL AXD_ProcessEvent, osal_msg_deallocate
        LOCFRAME ISTACK, 0, STACK
        LOCFRAME PSTACK, 0, STACK
        LOCFRAME XSTACK, 18, STACK
        LOCFRAME IOVERLAY, 0, STATIC
        LOCFRAME DOVERLAY, 0, STATIC
        ARGFRAME ISTACK, 0, STACK
        ARGFRAME PSTACK, 0, STACK
        ARGFRAME XSTACK, 18, STACK
        ARGFRAME IOVERLAY, 0, STATIC
        ARGFRAME DOVERLAY, 0, STATIC
        FUNCALL AXD_ProcessEvent, osal_msg_receive
        LOCFRAME ISTACK, 0, STACK
        LOCFRAME PSTACK, 0, STACK
        LOCFRAME XSTACK, 18, STACK
        LOCFRAME IOVERLAY, 0, STATIC
        LOCFRAME DOVERLAY, 0, STATIC
        ARGFRAME ISTACK, 0, STACK
        ARGFRAME PSTACK, 0, STACK
        ARGFRAME XSTACK, 18, STACK
        ARGFRAME IOVERLAY, 0, STATIC
        ARGFRAME DOVERLAY, 0, STATIC
        FUNCALL AXD_ProcessEvent, AXD_SendTheMessage
        LOCFRAME ISTACK, 0, STACK
        LOCFRAME PSTACK, 0, STACK
        LOCFRAME XSTACK, 18, STACK
        LOCFRAME IOVERLAY, 0, STATIC
        LOCFRAME DOVERLAY, 0, STATIC
        ARGFRAME ISTACK, 0, STACK
        ARGFRAME PSTACK, 0, STACK
        ARGFRAME XSTACK, 18, STACK
        ARGFRAME IOVERLAY, 0, STATIC
        ARGFRAME DOVERLAY, 0, STATIC
        FUNCALL AXD_ProcessEvent, osal_start_timerEx
        LOCFRAME ISTACK, 0, STACK
        LOCFRAME PSTACK, 0, STACK
        LOCFRAME XSTACK, 18, STACK
        LOCFRAME IOVERLAY, 0, STATIC
        LOCFRAME DOVERLAY, 0, STATIC
        ARGFRAME ISTACK, 0, STACK
        ARGFRAME PSTACK, 0, STACK
        ARGFRAME XSTACK, 18, STACK
        ARGFRAME IOVERLAY, 0, STATIC
        ARGFRAME DOVERLAY, 0, STATIC
        FUNCALL AXD_ProcessEvent, zb_HandleOsalEvent
        LOCFRAME ISTACK, 0, STACK
        LOCFRAME PSTACK, 0, STACK
        LOCFRAME XSTACK, 18, STACK
        LOCFRAME IOVERLAY, 0, STATIC
        LOCFRAME DOVERLAY, 0, STATIC
        ARGFRAME ISTACK, 0, STACK
        ARGFRAME PSTACK, 0, STACK
        ARGFRAME XSTACK, 18, STACK
        ARGFRAME IOVERLAY, 0, STATIC
        ARGFRAME DOVERLAY, 0, STATIC
        MOV     A,#-0x10
        LCALL   ?BANKED_ENTER_XDATA
        CFI DPH0 load(1, XDATA, add(CFA_XSP16, literal(-1)))
        CFI DPL0 load(1, XDATA, add(CFA_XSP16, literal(-2)))
        CFI ?BRET_EXT load(1, XDATA, add(CFA_XSP16, literal(-3)))
        CFI ?RET_HIGH load(1, XDATA, add(CFA_XSP16, literal(-4)))
        CFI ?RET_LOW load(1, XDATA, add(CFA_XSP16, literal(-5)))
        CFI R7 load(1, XDATA, add(CFA_XSP16, literal(-6)))
        CFI V7 load(1, XDATA, add(CFA_XSP16, literal(-7)))
        CFI V6 load(1, XDATA, add(CFA_XSP16, literal(-8)))
        CFI V5 load(1, XDATA, add(CFA_XSP16, literal(-9)))
        CFI V4 load(1, XDATA, add(CFA_XSP16, literal(-10)))
        CFI V3 load(1, XDATA, add(CFA_XSP16, literal(-11)))
        CFI V2 load(1, XDATA, add(CFA_XSP16, literal(-12)))
        CFI V1 load(1, XDATA, add(CFA_XSP16, literal(-13)))
        CFI V0 load(1, XDATA, add(CFA_XSP16, literal(-14)))
        CFI VB load(1, XDATA, add(CFA_XSP16, literal(-15)))
        CFI R6 load(1, XDATA, add(CFA_XSP16, literal(-16)))
        CFI CFA_SP SP+0
        CFI CFA_XSP16 add(XSP16, 16)
        ; Saved register size: 16
        ; Auto size: 2
        MOV     A,#-0x2
        LCALL   ?ALLOC_XSTACK8
        CFI CFA_XSP16 add(XSP16, 18)
        MOV     A,R1
        PUSH    A
        CFI CFA_SP SP+-1
        MOV     A,#0x1
        LCALL   ?XSTACK_DISP0_8
        POP     A
        CFI CFA_SP SP+0
        MOVX    @DPTR,A
        MOV     A,R2
        MOV     R6,A
        MOV     A,R3
        MOV     R7,A
//  362   
//  363   afIncomingMSGPacket_t *MSGpkt;
//  364 //  osal_event_hdr_t *pMsg;
//  365   afDataConfirm_t *afDataConfirm;
//  366 
//  367   // Data Confirmation message fields
//  368   byte sentEP;
//  369   ZStatus_t sentStatus;
//  370   byte sentTransID;       // This should match the value sent
//  371   BUFFER[0] = 0;
        MOV     A,#0x0
        MOV     DPTR,#BUFFER
        MOVX    @DPTR,A
//  372 #ifdef AXD_END
//  373   BUFFER[1] = DEVICE_A;
//  374 #endif
//  375 #ifdef AXD_END2
//  376   BUFFER[1] = DEVICE_B;
//  377 #endif
//  378 #ifdef AXD_END3
//  379   BUFFER[1] =DEVICE_C;
        MOV     A,#0x3
        MOV     DPTR,#(BUFFER + 1)
        MOVX    @DPTR,A
//  380 #endif
//  381   if ( events & SYS_EVENT_MSG )
        MOV     A,#0x0
        ANL     A,R6
        MOV     R0,A
        MOV     A,#-0x80
        ANL     A,R7
        MOV     R1,A
        MOV     A,#0x0
        XRL     A,R0
        JNZ     ??AXD_ProcessEvent_0
        MOV     A,#0x0
        XRL     A,R1
??AXD_ProcessEvent_0:
        JNZ     $+5
        LJMP    ??AXD_ProcessEvent_1 & 0xFFFF
//  382   {
//  383     MSGpkt = (afIncomingMSGPacket_t *)osal_msg_receive( AXD_TaskID );
        ; Setup parameters for call to function osal_msg_receive
        MOV     DPTR,#AXD_TaskID
        MOVX    A,@DPTR
        MOV     R1,A
        LCALL   ??osal_msg_receive?relay
        MOV     ?V0 + 4,R2
        MOV     ?V0 + 5,R3
        MOV     ?V0 + 0,?V0 + 4
        MOV     ?V0 + 1,?V0 + 5
//  384     while ( MSGpkt )
??AXD_ProcessEvent_2:
        MOV     A,?V0 + 0
        XRL     A,#0x0
        JNZ     ??AXD_ProcessEvent_3
        MOV     A,?V0 + 1
        XRL     A,#0x0
??AXD_ProcessEvent_3:
        JNZ     $+5
        LJMP    ??AXD_ProcessEvent_4 & 0xFFFF
//  385     {
//  386       switch ( MSGpkt->hdr.event )
        MOV     DPL,?V0 + 0
        MOV     DPH,?V0 + 1
        MOVX    A,@DPTR
        LCALL   ?UC_SWITCH_SPARSE
`?<Jumptable for AXD_ProcessEvent>_0`:
        DATA
        DB        0
        DB        4
        DB        192
        DW        ??AXD_ProcessEvent_5
        DB        209
        DW        ??AXD_ProcessEvent_6
        DB        211
        DW        ??AXD_ProcessEvent_7
        DB        253
        DW        ??AXD_ProcessEvent_8
        DW        ??AXD_ProcessEvent_9
        CODE
//  387       {
//  388         case ZDO_CB_MSG:
//  389           AXD_ProcessZDOMsgs( (zdoIncomingMsg_t *)MSGpkt );
??AXD_ProcessEvent_7:
        ; Setup parameters for call to function AXD_ProcessZDOMsgs
        MOV     R2,?V0 + 0
        MOV     R3,?V0 + 1
        LCALL   ??AXD_ProcessZDOMsgs?relay
        SJMP    ??AXD_ProcessEvent_9
//  390           break;
//  391 
//  392         case KEY_CHANGE:
//  393           AXD_HandleKeys( ((keyChange_t *)MSGpkt)->state, ((keyChange_t *)MSGpkt)->keys );
??AXD_ProcessEvent_5:
        ; Setup parameters for call to function AXD_HandleKeys
        MOV     DPL,?V0 + 0
        MOV     DPH,?V0 + 1
        INC     DPTR
        INC     DPTR
        INC     DPTR
        MOVX    A,@DPTR
        MOV     R2,A
        MOV     DPL,?V0 + 0
        MOV     DPH,?V0 + 1
        INC     DPTR
        INC     DPTR
        MOVX    A,@DPTR
        MOV     R1,A
        LCALL   ??AXD_HandleKeys?relay
        SJMP    ??AXD_ProcessEvent_9
//  394           break;
//  395 
//  396         case AF_DATA_CONFIRM_CMD:
//  397           // This message is received as a confirmation of a data packet sent.
//  398           // The status is of ZStatus_t type [defined in ZComDef.h]
//  399           // The message fields are defined in AF.h
//  400           afDataConfirm = (afDataConfirm_t *)MSGpkt;
??AXD_ProcessEvent_8:
        MOV     ?V0 + 2,?V0 + 0
        MOV     ?V0 + 3,?V0 + 1
//  401           sentEP = afDataConfirm->endpoint;
        MOV     DPL,?V0 + 2
        MOV     DPH,?V0 + 3
        INC     DPTR
        INC     DPTR
        MOVX    A,@DPTR
        MOV     DPL,?XSP + 0
        MOV     DPH,?XSP + 1
        MOVX    @DPTR,A
//  402           sentStatus = afDataConfirm->hdr.status;
//  403           sentTransID = afDataConfirm->transID;
//  404           (void)sentEP;
//  405           (void)sentTransID;
//  406 
//  407           // Action taken when confirmation is received.
//  408           if ( sentStatus != ZSuccess )
        SJMP    ??AXD_ProcessEvent_9
//  409           {
//  410             // The data wasn't delivered -- Do something
//  411           }
//  412           break;
//  413 
//  414         case AF_INCOMING_MSG_CMD:
//  415     //      MSGpkt = (afIncomingMSGPacket_t *) pMsg;
//  416 #ifdef AXD_COR
//  417           //AXD_ReceiveDataIndication( MSGpkt->srcAddr.addr.shortAddr, MSGpkt->clusterId,
//  418           //                          MSGpkt->cmd.DataLength, MSGpkt->cmd.Data);
//  419           AXD_MessageMSGCB( MSGpkt );
//  420 #endif
//  421           break;
//  422 
//  423         case ZDO_STATE_CHANGE:
//  424           AXD_NwkState = (devStates_t)(MSGpkt->hdr.status);
??AXD_ProcessEvent_6:
        MOV     DPL,?V0 + 0
        MOV     DPH,?V0 + 1
        INC     DPTR
        MOVX    A,@DPTR
        MOV     DPTR,#AXD_NwkState
        MOVX    @DPTR,A
//  425           if ( (AXD_NwkState == DEV_ZB_COORD)
//  426               || (AXD_NwkState == DEV_ROUTER)
//  427               || (AXD_NwkState == DEV_END_DEVICE) )
        MOV     DPTR,#AXD_NwkState
        MOVX    A,@DPTR
        XRL     A,#0x9
        JZ      ??AXD_ProcessEvent_10
        MOV     DPTR,#AXD_NwkState
        MOVX    A,@DPTR
        XRL     A,#0x7
        JZ      ??AXD_ProcessEvent_10
        MOV     DPTR,#AXD_NwkState
        MOVX    A,@DPTR
        XRL     A,#0x6
        JNZ     ??AXD_ProcessEvent_9
//  428           {
//  429             // Start sending "the" message in a regular interval.
//  430             osal_start_timerEx( AXD_TaskID,
//  431                                 AXD_SEND_MSG_EVT,
//  432                                 AXD_SEND_MSG_TIMEOUT );
??AXD_ProcessEvent_10:
        ; Setup parameters for call to function osal_start_timerEx
        MOV     R4,#-0x78
        MOV     R5,#0x13
        MOV     R2,#0x1
        MOV     R3,#0x0
        MOV     DPTR,#AXD_TaskID
        MOVX    A,@DPTR
        MOV     R1,A
        LCALL   ??osal_start_timerEx?relay
//  433           }
//  434           break;
//  435 
//  436         default:
//  437           break;
//  438       }
//  439 
//  440       // Release the memory
//  441       osal_msg_deallocate( (uint8 *)MSGpkt );
??AXD_ProcessEvent_9:
        ; Setup parameters for call to function osal_msg_deallocate
        MOV     R2,?V0 + 0
        MOV     R3,?V0 + 1
        LCALL   ??osal_msg_deallocate?relay
//  442 
//  443       // Next
//  444       MSGpkt = (afIncomingMSGPacket_t *)osal_msg_receive( AXD_TaskID );
        ; Setup parameters for call to function osal_msg_receive
        MOV     DPTR,#AXD_TaskID
        MOVX    A,@DPTR
        MOV     R1,A
        LCALL   ??osal_msg_receive?relay
        MOV     ?V0 + 4,R2
        MOV     ?V0 + 5,R3
        MOV     ?V0 + 0,?V0 + 4
        MOV     ?V0 + 1,?V0 + 5
        LJMP    ??AXD_ProcessEvent_2 & 0xFFFF
//  445     }
//  446 
//  447     // return unprocessed events
//  448     return (events ^ SYS_EVENT_MSG);
??AXD_ProcessEvent_4:
        MOV     A,#0x0
        XRL     A,R6
        MOV     R2,A
        MOV     A,#-0x80
        XRL     A,R7
        MOV     R3,A
        SJMP    ??AXD_ProcessEvent_11
//  449   }
//  450 
//  451   // Send a message out - This event is generated by a timer
//  452   //  (setup in AXD_Init()).
//  453   if ( events & AXD_SEND_MSG_EVT )
??AXD_ProcessEvent_1:
        MOV     A,R6
        MOV     C,0xE0 /* A   */.0
        JNC     ??AXD_ProcessEvent_12
//  454   {
//  455     //zb_HandleOsalEvent(events);
//  456     AXD_SendTheMessage();
        ; Setup parameters for call to function AXD_SendTheMessage
        LCALL   ??AXD_SendTheMessage?relay
//  457     // Setup to send message again
//  458     osal_start_timerEx( AXD_TaskID,
//  459                         AXD_SEND_MSG_EVT,
//  460                         (AXD_SEND_MSG_TIMEOUT/100) );
        ; Setup parameters for call to function osal_start_timerEx
        MOV     R4,#0x32
        MOV     R5,#0x0
        MOV     R2,#0x1
        MOV     R3,#0x0
        MOV     DPTR,#AXD_TaskID
        MOVX    A,@DPTR
        MOV     R1,A
        LCALL   ??osal_start_timerEx?relay
//  461 
//  462     // return unprocessed events
//  463     return (events ^ AXD_SEND_MSG_EVT);
        MOV     A,#0x1
        XRL     A,R6
        MOV     R2,A
        MOV     A,#0x0
        XRL     A,R7
        MOV     R3,A
        SJMP    ??AXD_ProcessEvent_11
//  464   }
//  465     if ( events & ( ZB_USER_EVENTS ) )
??AXD_ProcessEvent_12:
        MOV     A,R6
        ANL     A,#0xff
        JZ      ??AXD_ProcessEvent_13
//  466   {
//  467     // User events are passed to the application
//  468     zb_HandleOsalEvent( events );
        ; Setup parameters for call to function zb_HandleOsalEvent
        MOV     A,R6
        MOV     R2,A
        MOV     A,R7
        MOV     R3,A
        LCALL   ??zb_HandleOsalEvent?relay
//  469 
//  470     // Do not return here, return 0 later
//  471   }
//  472 
//  473   // Discard unknown events
//  474   return 0;
??AXD_ProcessEvent_13:
        MOV     R2,#0x0
        MOV     R3,#0x0
??AXD_ProcessEvent_11:
        MOV     A,#0x2
        LCALL   ?DEALLOC_XSTACK8
        CFI CFA_XSP16 add(XSP16, 16)
        MOV     R7,#0x8
        LJMP    ?BANKED_LEAVE_XDATA
        CFI EndBlock cfiBlock1
//  475 }
//  476 
//  477 /*********************************************************************
//  478  * Event Generation Functions
//  479  */
//  480 /*********************************************************************
//  481  * @fn      AXD_ProcessZDOMsgs()
//  482  *
//  483  * @brief   Process response messages
//  484  *
//  485  * @param   none
//  486  *
//  487  * @return  none
//  488  */

        RSEG BANKED_CODE:CODE:NOROOT(0)
//  489 void AXD_ProcessZDOMsgs( zdoIncomingMsg_t *inMsg )
AXD_ProcessZDOMsgs:
        CFI Block cfiBlock2 Using cfiCommon0
        CFI Function AXD_ProcessZDOMsgs
//  490 {
        FUNCALL AXD_ProcessZDOMsgs, HalLedSet
        LOCFRAME ISTACK, 0, STACK
        LOCFRAME PSTACK, 0, STACK
        LOCFRAME XSTACK, 12, STACK
        LOCFRAME IOVERLAY, 0, STATIC
        LOCFRAME DOVERLAY, 0, STATIC
        ARGFRAME ISTACK, 0, STACK
        ARGFRAME PSTACK, 0, STACK
        ARGFRAME XSTACK, 12, STACK
        ARGFRAME IOVERLAY, 0, STATIC
        ARGFRAME DOVERLAY, 0, STATIC
        FUNCALL AXD_ProcessZDOMsgs, HalLedSet
        LOCFRAME ISTACK, 0, STACK
        LOCFRAME PSTACK, 0, STACK
        LOCFRAME XSTACK, 12, STACK
        LOCFRAME IOVERLAY, 0, STATIC
        LOCFRAME DOVERLAY, 0, STATIC
        ARGFRAME ISTACK, 0, STACK
        ARGFRAME PSTACK, 0, STACK
        ARGFRAME XSTACK, 12, STACK
        ARGFRAME IOVERLAY, 0, STATIC
        ARGFRAME DOVERLAY, 0, STATIC
        FUNCALL AXD_ProcessZDOMsgs, ZDO_ParseEPListRsp
        LOCFRAME ISTACK, 0, STACK
        LOCFRAME PSTACK, 0, STACK
        LOCFRAME XSTACK, 12, STACK
        LOCFRAME IOVERLAY, 0, STATIC
        LOCFRAME DOVERLAY, 0, STATIC
        ARGFRAME ISTACK, 0, STACK
        ARGFRAME PSTACK, 0, STACK
        ARGFRAME XSTACK, 12, STACK
        ARGFRAME IOVERLAY, 0, STATIC
        ARGFRAME DOVERLAY, 0, STATIC
        FUNCALL AXD_ProcessZDOMsgs, HalLedSet
        LOCFRAME ISTACK, 0, STACK
        LOCFRAME PSTACK, 0, STACK
        LOCFRAME XSTACK, 12, STACK
        LOCFRAME IOVERLAY, 0, STATIC
        LOCFRAME DOVERLAY, 0, STATIC
        ARGFRAME ISTACK, 0, STACK
        ARGFRAME PSTACK, 0, STACK
        ARGFRAME XSTACK, 12, STACK
        ARGFRAME IOVERLAY, 0, STATIC
        ARGFRAME DOVERLAY, 0, STATIC
        FUNCALL AXD_ProcessZDOMsgs, osal_mem_free
        LOCFRAME ISTACK, 0, STACK
        LOCFRAME PSTACK, 0, STACK
        LOCFRAME XSTACK, 12, STACK
        LOCFRAME IOVERLAY, 0, STATIC
        LOCFRAME DOVERLAY, 0, STATIC
        ARGFRAME ISTACK, 0, STACK
        ARGFRAME PSTACK, 0, STACK
        ARGFRAME XSTACK, 12, STACK
        ARGFRAME IOVERLAY, 0, STATIC
        ARGFRAME DOVERLAY, 0, STATIC
        MOV     A,#-0xc
        LCALL   ?BANKED_ENTER_XDATA
        CFI DPH0 load(1, XDATA, add(CFA_XSP16, literal(-1)))
        CFI DPL0 load(1, XDATA, add(CFA_XSP16, literal(-2)))
        CFI ?BRET_EXT load(1, XDATA, add(CFA_XSP16, literal(-3)))
        CFI ?RET_HIGH load(1, XDATA, add(CFA_XSP16, literal(-4)))
        CFI ?RET_LOW load(1, XDATA, add(CFA_XSP16, literal(-5)))
        CFI R7 load(1, XDATA, add(CFA_XSP16, literal(-6)))
        CFI V3 load(1, XDATA, add(CFA_XSP16, literal(-7)))
        CFI V2 load(1, XDATA, add(CFA_XSP16, literal(-8)))
        CFI V1 load(1, XDATA, add(CFA_XSP16, literal(-9)))
        CFI V0 load(1, XDATA, add(CFA_XSP16, literal(-10)))
        CFI VB load(1, XDATA, add(CFA_XSP16, literal(-11)))
        CFI R6 load(1, XDATA, add(CFA_XSP16, literal(-12)))
        CFI CFA_SP SP+0
        CFI CFA_XSP16 add(XSP16, 12)
        ; Saved register size: 12
        ; Auto size: 0
        MOV     ?V0 + 0,R2
        MOV     ?V0 + 1,R3
//  491   switch ( inMsg->clusterID )
        MOV     A,?V0 + 0
        ADD     A,#0xc
        MOV     DPL,A
        MOV     A,?V0 + 1
        ADDC    A,#0x0
        MOV     DPH,A
        MOVX    A,@DPTR
        MOV     ?V0 + 2,A
        INC     DPTR
        MOVX    A,@DPTR
        MOV     ?V0 + 3,A
        MOV     R0,#?V0 + 2
        LCALL   ?US_SWITCH_SPARSE
`?<Jumptable for AXD_ProcessZDOMsgs>_0`:
        DATA
        DW        0
        DW        2
        DW        32774
        DW        ??AXD_ProcessZDOMsgs_0
        DW        32800
        DW        ??AXD_ProcessZDOMsgs_1
        DW        ??AXD_ProcessZDOMsgs_2
        CODE
//  492   {
//  493     case End_Device_Bind_rsp:
//  494       if ( ZDO_ParseBindRsp( inMsg ) == ZSuccess )
??AXD_ProcessZDOMsgs_1:
        MOV     A,?V0 + 0
        ADD     A,#0x11
        MOV     DPL,A
        MOV     A,?V0 + 1
        ADDC    A,#0x0
        MOV     DPH,A
        MOVX    A,@DPTR
        MOV     R0,A
        INC     DPTR
        MOVX    A,@DPTR
        MOV     DPH,A
        MOV     DPL,R0
        MOVX    A,@DPTR
        JNZ     ??AXD_ProcessZDOMsgs_3
//  495       {
//  496         // Light LED
//  497         HalLedSet( HAL_LED_4, HAL_LED_MODE_ON );
        ; Setup parameters for call to function HalLedSet
        MOV     R2,#0x1
        MOV     R1,#0x8
        LCALL   ??HalLedSet?relay
        SJMP    ??AXD_ProcessZDOMsgs_2
//  498       }
//  499 #if defined(BLINK_LEDS)
//  500       else
//  501       {
//  502         // Flash LED to show failure
//  503         HalLedSet ( HAL_LED_4, HAL_LED_MODE_FLASH );
??AXD_ProcessZDOMsgs_3:
        ; Setup parameters for call to function HalLedSet
        MOV     R2,#0x4
        MOV     R1,#0x8
        LCALL   ??HalLedSet?relay
        SJMP    ??AXD_ProcessZDOMsgs_2
//  504       }
//  505 #endif
//  506       break;
//  507 
//  508     case Match_Desc_rsp:
//  509       {
//  510         ZDO_ActiveEndpointRsp_t *pRsp = ZDO_ParseEPListRsp( inMsg );
??AXD_ProcessZDOMsgs_0:
        ; Setup parameters for call to function ZDO_ParseEPListRsp
        MOV     R2,?V0 + 0
        MOV     R3,?V0 + 1
        LCALL   ??ZDO_ParseEPListRsp?relay
        MOV     ?V0 + 2,R2
        MOV     ?V0 + 3,R3
        MOV     R6,?V0 + 2
        MOV     R7,?V0 + 3
//  511         if ( pRsp )
        MOV     A,R6
        XRL     A,#0x0
        JNZ     ??AXD_ProcessZDOMsgs_4
        MOV     A,R7
        XRL     A,#0x0
??AXD_ProcessZDOMsgs_4:
        JZ      ??AXD_ProcessZDOMsgs_2
//  512         {
//  513           if ( pRsp->status == ZSuccess && pRsp->cnt )
        MOV     DPL,R6
        MOV     DPH,R7
        MOVX    A,@DPTR
        JNZ     ??AXD_ProcessZDOMsgs_5
        MOV     DPL,R6
        MOV     DPH,R7
        INC     DPTR
        INC     DPTR
        INC     DPTR
        MOVX    A,@DPTR
        JZ      ??AXD_ProcessZDOMsgs_5
//  514           {
//  515             AXD_DstAddr.addrMode = (afAddrMode_t)Addr16Bit;
        MOV     A,#0x2
        MOV     DPTR,#(AXD_DstAddr + 2)
        MOVX    @DPTR,A
//  516             AXD_DstAddr.addr.shortAddr = pRsp->nwkAddr;
        MOV     DPL,R6
        MOV     DPH,R7
        INC     DPTR
        MOVX    A,@DPTR
        MOV     R0,A
        INC     DPTR
        MOVX    A,@DPTR
        MOV     R1,A
        MOV     DPTR,#AXD_DstAddr
        MOV     A,R0
        MOVX    @DPTR,A
        INC     DPTR
        MOV     A,R1
        MOVX    @DPTR,A
//  517             // Take the first endpoint, Can be changed to search through endpoints
//  518             AXD_DstAddr.endPoint = pRsp->epList[0];
        MOV     DPL,R6
        MOV     DPH,R7
        INC     DPTR
        INC     DPTR
        INC     DPTR
        INC     DPTR
        MOVX    A,@DPTR
        MOV     DPTR,#(AXD_DstAddr + 3)
        MOVX    @DPTR,A
//  519 
//  520             // Light LED
//  521             HalLedSet( HAL_LED_4, HAL_LED_MODE_ON );
        ; Setup parameters for call to function HalLedSet
        MOV     R2,#0x1
        MOV     R1,#0x8
        LCALL   ??HalLedSet?relay
//  522           }
//  523           osal_mem_free( pRsp );
??AXD_ProcessZDOMsgs_5:
        ; Setup parameters for call to function osal_mem_free
        MOV     A,R6
        MOV     R2,A
        MOV     A,R7
        MOV     R3,A
        LCALL   ??osal_mem_free?relay
//  524         }
//  525       }
//  526       break;
//  527   }
//  528 }
??AXD_ProcessZDOMsgs_2:
        MOV     R7,#0x4
        LJMP    ?BANKED_LEAVE_XDATA
        CFI EndBlock cfiBlock2
//  529 
//  530 /*********************************************************************
//  531  * @fn      AXD_HandleKeys
//  532  *
//  533  * @brief   Handles all key events for this device.
//  534  *
//  535  * @param   shift - true if in shift/alt.
//  536  * @param   keys - bit field for key events. Valid entries:
//  537  *                 HAL_KEY_SW_4
//  538  *                 HAL_KEY_SW_3
//  539  *                 HAL_KEY_SW_2
//  540  *                 HAL_KEY_SW_1
//  541  *
//  542  * @return  none
//  543  */

        RSEG BANKED_CODE:CODE:NOROOT(0)
//  544 void AXD_HandleKeys( byte shift, byte keys )
AXD_HandleKeys:
        CFI Block cfiBlock3 Using cfiCommon0
        CFI Function AXD_HandleKeys
//  545 {
        FUNCALL AXD_HandleKeys, HalLedSet
        LOCFRAME ISTACK, 0, STACK
        LOCFRAME PSTACK, 0, STACK
        LOCFRAME XSTACK, 19, STACK
        LOCFRAME IOVERLAY, 0, STATIC
        LOCFRAME DOVERLAY, 0, STATIC
        ARGFRAME ISTACK, 0, STACK
        ARGFRAME PSTACK, 0, STACK
        ARGFRAME XSTACK, 19, STACK
        ARGFRAME IOVERLAY, 0, STATIC
        ARGFRAME DOVERLAY, 0, STATIC
        FUNCALL AXD_HandleKeys, NLME_GetShortAddr
        LOCFRAME ISTACK, 0, STACK
        LOCFRAME PSTACK, 0, STACK
        LOCFRAME XSTACK, 19, STACK
        LOCFRAME IOVERLAY, 0, STATIC
        LOCFRAME DOVERLAY, 0, STATIC
        ARGFRAME ISTACK, 0, STACK
        ARGFRAME PSTACK, 0, STACK
        ARGFRAME XSTACK, 19, STACK
        ARGFRAME IOVERLAY, 0, STATIC
        ARGFRAME DOVERLAY, 0, STATIC
        FUNCALL AXD_HandleKeys, ZDP_EndDeviceBindReq
        LOCFRAME ISTACK, 0, STACK
        LOCFRAME PSTACK, 0, STACK
        LOCFRAME XSTACK, 28, STACK
        LOCFRAME IOVERLAY, 0, STATIC
        LOCFRAME DOVERLAY, 0, STATIC
        ARGFRAME ISTACK, 0, STACK
        ARGFRAME PSTACK, 0, STACK
        ARGFRAME XSTACK, 28, STACK
        ARGFRAME IOVERLAY, 0, STATIC
        ARGFRAME DOVERLAY, 0, STATIC
        FUNCALL AXD_HandleKeys, HalLedSet
        LOCFRAME ISTACK, 0, STACK
        LOCFRAME PSTACK, 0, STACK
        LOCFRAME XSTACK, 19, STACK
        LOCFRAME IOVERLAY, 0, STATIC
        LOCFRAME DOVERLAY, 0, STATIC
        ARGFRAME ISTACK, 0, STACK
        ARGFRAME PSTACK, 0, STACK
        ARGFRAME XSTACK, 19, STACK
        ARGFRAME IOVERLAY, 0, STATIC
        ARGFRAME DOVERLAY, 0, STATIC
        FUNCALL AXD_HandleKeys, ZDP_MatchDescReq
        LOCFRAME ISTACK, 0, STACK
        LOCFRAME PSTACK, 0, STACK
        LOCFRAME XSTACK, 27, STACK
        LOCFRAME IOVERLAY, 0, STATIC
        LOCFRAME DOVERLAY, 0, STATIC
        ARGFRAME ISTACK, 0, STACK
        ARGFRAME PSTACK, 0, STACK
        ARGFRAME XSTACK, 27, STACK
        ARGFRAME IOVERLAY, 0, STATIC
        ARGFRAME DOVERLAY, 0, STATIC
        MOV     A,#-0xa
        LCALL   ?BANKED_ENTER_XDATA
        CFI DPH0 load(1, XDATA, add(CFA_XSP16, literal(-1)))
        CFI DPL0 load(1, XDATA, add(CFA_XSP16, literal(-2)))
        CFI ?BRET_EXT load(1, XDATA, add(CFA_XSP16, literal(-3)))
        CFI ?RET_HIGH load(1, XDATA, add(CFA_XSP16, literal(-4)))
        CFI ?RET_LOW load(1, XDATA, add(CFA_XSP16, literal(-5)))
        CFI R7 load(1, XDATA, add(CFA_XSP16, literal(-6)))
        CFI V1 load(1, XDATA, add(CFA_XSP16, literal(-7)))
        CFI V0 load(1, XDATA, add(CFA_XSP16, literal(-8)))
        CFI VB load(1, XDATA, add(CFA_XSP16, literal(-9)))
        CFI R6 load(1, XDATA, add(CFA_XSP16, literal(-10)))
        CFI CFA_SP SP+0
        CFI CFA_XSP16 add(XSP16, 10)
        ; Saved register size: 10
        ; Auto size: 9
        MOV     A,#-0x9
        LCALL   ?ALLOC_XSTACK8
        CFI CFA_XSP16 add(XSP16, 19)
        MOV     A,R1
        MOV     R6,A
        MOV     A,R2
        MOV     R7,A
//  546   zAddrType_t dstAddr;
//  547 
//  548   // Shift is used to make each button/switch dual purpose.
//  549   if ( shift )
        MOV     A,R6
        JZ      $+5
        LJMP    ??AXD_HandleKeys_0 & 0xFFFF
//  550   {
//  551     if ( keys & HAL_KEY_SW_1 )
//  552     {
//  553     }
//  554     if ( keys & HAL_KEY_SW_2 )
//  555     {
//  556     }
//  557     if ( keys & HAL_KEY_SW_3 )
//  558     {
//  559     }
//  560     if ( keys & HAL_KEY_SW_4 )
//  561     {
//  562     }
//  563   }
//  564   else
//  565   {
//  566     if ( keys & HAL_KEY_SW_1 )
//  567     {
//  568     }
//  569 
//  570     if ( keys & HAL_KEY_SW_2 )
        MOV     A,R7
        MOV     C,0xE0 /* A   */.1
        JNC     ??AXD_HandleKeys_1
//  571     {
//  572       HalLedSet ( HAL_LED_4, HAL_LED_MODE_OFF );
        ; Setup parameters for call to function HalLedSet
        MOV     R2,#0x0
        MOV     R1,#0x8
        LCALL   ??HalLedSet?relay
//  573 
//  574       // Initiate an End Device Bind Request for the mandatory endpoint
//  575       dstAddr.addrMode = Addr16Bit;
        MOV     A,#0x2
        PUSH    A
        CFI CFA_SP SP+-1
        MOV     A,#0x8
        LCALL   ?XSTACK_DISP0_8
        POP     A
        CFI CFA_SP SP+0
        MOVX    @DPTR,A
//  576       dstAddr.addr.shortAddr = 0x0000; // Coordinator
        MOV     DPL,?XSP + 0
        MOV     DPH,?XSP + 1
        MOV     A,#0x0
        MOVX    @DPTR,A
        INC     DPTR
        MOV     A,#0x0
        MOVX    @DPTR,A
//  577       ZDP_EndDeviceBindReq( &dstAddr, NLME_GetShortAddr(),
//  578                             AXD_epDesc.endPoint,
//  579                             AXD_PROFID,
//  580                             AXD_MAX_CLUSTERS, (cId_t *)AXD_ClusterList,
//  581                             AXD_MAX_CLUSTERS, (cId_t *)AXD_ClusterList,
//  582                             FALSE );
        ; Setup parameters for call to function NLME_GetShortAddr
        LCALL   ??NLME_GetShortAddr?relay
        MOV     ?V0 + 0,R2
        MOV     ?V0 + 1,R3
        MOV     R4,?V0 + 0
        MOV     R5,?V0 + 1
        ; Setup parameters for call to function ZDP_EndDeviceBindReq
        MOV     ?V0 + 0,#0x0
        MOV     R0,#?V0 + 0
        LCALL   ?PUSH_XSTACK_I_ONE
        CFI CFA_XSP16 add(XSP16, 20)
        MOV     ?V0 + 0,#(AXD_ClusterList & 0xff)
        MOV     ?V0 + 1,#((AXD_ClusterList >> 8) & 0xff)
        MOV     R0,#?V0 + 0
        LCALL   ?PUSH_XSTACK_I_TWO
        CFI CFA_XSP16 add(XSP16, 22)
        MOV     ?V0 + 0,#0x3
        MOV     R0,#?V0 + 0
        LCALL   ?PUSH_XSTACK_I_ONE
        CFI CFA_XSP16 add(XSP16, 23)
        MOV     ?V0 + 0,#(AXD_ClusterList & 0xff)
        MOV     ?V0 + 1,#((AXD_ClusterList >> 8) & 0xff)
        MOV     R0,#?V0 + 0
        LCALL   ?PUSH_XSTACK_I_TWO
        CFI CFA_XSP16 add(XSP16, 25)
        MOV     ?V0 + 0,#0x3
        MOV     R0,#?V0 + 0
        LCALL   ?PUSH_XSTACK_I_ONE
        CFI CFA_XSP16 add(XSP16, 26)
        MOV     ?V0 + 0,#0x4
        MOV     ?V0 + 1,#0xf
        MOV     R0,#?V0 + 0
        LCALL   ?PUSH_XSTACK_I_TWO
        CFI CFA_XSP16 add(XSP16, 28)
        MOV     DPTR,#AXD_epDesc
        MOVX    A,@DPTR
        MOV     R1,A
        MOV     A,#0x9
        LCALL   ?XSTACK_DISP0_8
        MOV     R2,DPL
        MOV     R3,DPH
        LCALL   ??ZDP_EndDeviceBindReq?relay
        MOV     A,#0x9
        LCALL   ?DEALLOC_XSTACK8
        CFI CFA_XSP16 add(XSP16, 19)
//  583     }
//  584 
//  585     if ( keys & HAL_KEY_SW_3 )
//  586     {
//  587     }
//  588 
//  589     if ( keys & HAL_KEY_SW_4 )
??AXD_HandleKeys_1:
        MOV     A,R7
        MOV     C,0xE0 /* A   */.3
        JNC     ??AXD_HandleKeys_0
//  590     {
//  591       HalLedSet ( HAL_LED_4, HAL_LED_MODE_OFF );
        ; Setup parameters for call to function HalLedSet
        MOV     R2,#0x0
        MOV     R1,#0x8
        LCALL   ??HalLedSet?relay
//  592 
//  593       // Initiate a Match Description Request (Service Discovery)
//  594 #ifdef AXD_COR
//  595       dstAddr.addrMode = AddrBroadcast;
//  596       dstAddr.addr.shortAddr = NWK_BROADCAST_SHORTADDR;
//  597       ZDP_MatchDescReq( &dstAddr, NWK_BROADCAST_SHORTADDR,
//  598                         AXD_PROFID,
//  599                         AXD_MAX_CLUSTERS, (cId_t *)AXD_ClusterList,
//  600                         AXD_MAX_CLUSTERS, (cId_t *)AXD_ClusterList,
//  601                         FALSE );
//  602 #else
//  603       dstAddr.addrMode = Addr16Bit;
        MOV     A,#0x2
        PUSH    A
        CFI CFA_SP SP+-1
        MOV     A,#0x8
        LCALL   ?XSTACK_DISP0_8
        POP     A
        CFI CFA_SP SP+0
        MOVX    @DPTR,A
//  604       dstAddr.addr.shortAddr = 0x0000;
        MOV     DPL,?XSP + 0
        MOV     DPH,?XSP + 1
        MOV     A,#0x0
        MOVX    @DPTR,A
        INC     DPTR
        MOV     A,#0x0
        MOVX    @DPTR,A
//  605       ZDP_MatchDescReq( &dstAddr, NWK_BROADCAST_SHORTADDR,
//  606                         AXD_PROFID,
//  607                         AXD_MAX_CLUSTERS, (cId_t *)AXD_ClusterList,
//  608                         AXD_MAX_CLUSTERS, (cId_t *)AXD_ClusterList,
//  609                         FALSE );
        ; Setup parameters for call to function ZDP_MatchDescReq
        MOV     ?V0 + 0,#0x0
        MOV     R0,#?V0 + 0
        LCALL   ?PUSH_XSTACK_I_ONE
        CFI CFA_XSP16 add(XSP16, 20)
        MOV     ?V0 + 0,#(AXD_ClusterList & 0xff)
        MOV     ?V0 + 1,#((AXD_ClusterList >> 8) & 0xff)
        MOV     R0,#?V0 + 0
        LCALL   ?PUSH_XSTACK_I_TWO
        CFI CFA_XSP16 add(XSP16, 22)
        MOV     ?V0 + 0,#0x3
        MOV     R0,#?V0 + 0
        LCALL   ?PUSH_XSTACK_I_ONE
        CFI CFA_XSP16 add(XSP16, 23)
        MOV     ?V0 + 0,#(AXD_ClusterList & 0xff)
        MOV     ?V0 + 1,#((AXD_ClusterList >> 8) & 0xff)
        MOV     R0,#?V0 + 0
        LCALL   ?PUSH_XSTACK_I_TWO
        CFI CFA_XSP16 add(XSP16, 25)
        MOV     ?V0 + 0,#0x4
        MOV     ?V0 + 1,#0xf
        MOV     R0,#?V0 + 0
        LCALL   ?PUSH_XSTACK_I_TWO
        CFI CFA_XSP16 add(XSP16, 27)
        MOV     R1,#0x3
        MOV     R4,#-0x1
        MOV     R5,#-0x1
        MOV     A,#0x8
        LCALL   ?XSTACK_DISP0_8
        MOV     R2,DPL
        MOV     R3,DPH
        LCALL   ??ZDP_MatchDescReq?relay
        MOV     A,#0x8
        LCALL   ?DEALLOC_XSTACK8
        CFI CFA_XSP16 add(XSP16, 19)
//  610 #endif
//  611     }
//  612   }
//  613 }
??AXD_HandleKeys_0:
        MOV     A,#0x9
        LCALL   ?DEALLOC_XSTACK8
        CFI CFA_XSP16 add(XSP16, 10)
        MOV     R7,#0x2
        LJMP    ?BANKED_LEAVE_XDATA
        CFI EndBlock cfiBlock3
//  614 
//  615 /*********************************************************************
//  616  * LOCAL FUNCTIONS
//  617  */
//  618 
//  619 /*********************************************************************
//  620  * @fn      AXD_MessageMSGCB
//  621  *
//  622  * @brief   Data message processor callback.  This function processes
//  623  *          any incoming data - probably from other devices.  So, based
//  624  *          on cluster ID, perform the intended action.
//  625  *
//  626  * @param   none
//  627  *
//  628  * @return  none
//  629  */

        RSEG BANKED_CODE:CODE:NOROOT(0)
//  630 void AXD_MessageMSGCB( afIncomingMSGPacket_t *pkt )
AXD_MessageMSGCB:
        CFI Block cfiBlock4 Using cfiCommon0
        CFI Function AXD_MessageMSGCB
//  631 {
        FUNCALL AXD_MessageMSGCB, displayXYZ
        LOCFRAME ISTACK, 0, STACK
        LOCFRAME PSTACK, 0, STACK
        LOCFRAME XSTACK, 10, STACK
        LOCFRAME IOVERLAY, 0, STATIC
        LOCFRAME DOVERLAY, 0, STATIC
        ARGFRAME ISTACK, 0, STACK
        ARGFRAME PSTACK, 0, STACK
        ARGFRAME XSTACK, 10, STACK
        ARGFRAME IOVERLAY, 0, STATIC
        ARGFRAME DOVERLAY, 0, STATIC
        FUNCALL AXD_MessageMSGCB, HalUARTWrite
        LOCFRAME ISTACK, 0, STACK
        LOCFRAME PSTACK, 0, STACK
        LOCFRAME XSTACK, 10, STACK
        LOCFRAME IOVERLAY, 0, STATIC
        LOCFRAME DOVERLAY, 0, STATIC
        ARGFRAME ISTACK, 0, STACK
        ARGFRAME PSTACK, 0, STACK
        ARGFRAME XSTACK, 10, STACK
        ARGFRAME IOVERLAY, 0, STATIC
        ARGFRAME DOVERLAY, 0, STATIC
        MOV     A,#-0xa
        LCALL   ?BANKED_ENTER_XDATA
        CFI DPH0 load(1, XDATA, add(CFA_XSP16, literal(-1)))
        CFI DPL0 load(1, XDATA, add(CFA_XSP16, literal(-2)))
        CFI ?BRET_EXT load(1, XDATA, add(CFA_XSP16, literal(-3)))
        CFI ?RET_HIGH load(1, XDATA, add(CFA_XSP16, literal(-4)))
        CFI ?RET_LOW load(1, XDATA, add(CFA_XSP16, literal(-5)))
        CFI R7 load(1, XDATA, add(CFA_XSP16, literal(-6)))
        CFI V1 load(1, XDATA, add(CFA_XSP16, literal(-7)))
        CFI V0 load(1, XDATA, add(CFA_XSP16, literal(-8)))
        CFI VB load(1, XDATA, add(CFA_XSP16, literal(-9)))
        CFI R6 load(1, XDATA, add(CFA_XSP16, literal(-10)))
        CFI CFA_SP SP+0
        CFI CFA_XSP16 add(XSP16, 10)
        ; Saved register size: 10
        ; Auto size: 0
        MOV     A,R2
        MOV     R6,A
        MOV     A,R3
        MOV     R7,A
//  632   
//  633   switch ( pkt->clusterId )
        MOV     DPL,R6
        MOV     DPH,R7
        INC     DPTR
        INC     DPTR
        INC     DPTR
        INC     DPTR
        MOVX    A,@DPTR
        MOV     ?V0 + 0,A
        INC     DPTR
        MOVX    A,@DPTR
        MOV     ?V0 + 1,A
        MOV     R0,#?V0 + 0
        LCALL   ?US_SWITCH_DENSE
`?<Jumptable for AXD_MessageMSGCB>_0`:
        DATA
        DW        1
        DB        0
        DW        ??AXD_MessageMSGCB_0
        DW        ??AXD_MessageMSGCB_1
        CODE
//  634   {
//  635     case AXD_CMD_ID:
//  636       displayXYZ(pkt->cmd.Data);
??AXD_MessageMSGCB_1:
        ; Setup parameters for call to function displayXYZ
        MOV     A,R6
        ADD     A,#0x15
        MOV     DPL,A
        MOV     A,R7
        ADDC    A,#0x0
        MOV     DPH,A
        MOVX    A,@DPTR
        MOV     R2,A
        INC     DPTR
        MOVX    A,@DPTR
        MOV     R3,A
        LCALL   ??displayXYZ?relay
//  637       //HalLcdWriteStringValue("R: ",source,10,3);
//  638       HalUARTWrite( SERIAL_APP_PORT, pkt->cmd.Data,pkt->cmd.DataLength);
        ; Setup parameters for call to function HalUARTWrite
        MOV     A,R6
        ADD     A,#0x13
        MOV     DPL,A
        MOV     A,R7
        ADDC    A,#0x0
        MOV     DPH,A
        MOVX    A,@DPTR
        MOV     R4,A
        INC     DPTR
        MOVX    A,@DPTR
        MOV     R5,A
        MOV     A,R6
        ADD     A,#0x15
        MOV     DPL,A
        MOV     A,R7
        ADDC    A,#0x0
        MOV     DPH,A
        MOVX    A,@DPTR
        MOV     R2,A
        INC     DPTR
        MOVX    A,@DPTR
        MOV     R3,A
        MOV     R1,#0x0
        LCALL   ??HalUARTWrite?relay
//  639     break;
//  640   case AXD_TEST_CMD_ID:
//  641 //    HalLcdWriteStringValue("R: ",*(pkt->cmd.Data),10,4);
//  642     break;
//  643   case AXD_TEST2_CMD_ID:
//  644 //    HalLcdWriteStringValue("Q: ",*(pkt->cmd.Data),10,3);
//  645     break;
//  646   default: break;
//  647   } 
//  648   
//  649 }
??AXD_MessageMSGCB_0:
        MOV     R7,#0x2
        LJMP    ?BANKED_LEAVE_XDATA
        CFI EndBlock cfiBlock4
//  650 
//  651 /*********************************************************************
//  652  * @fn      AXD_SendTheMessage
//  653  *
//  654  * @brief   Send "the" message.
//  655  *
//  656  * @param   none
//  657  *
//  658  * @return  none
//  659  */

        RSEG BANKED_CODE:CODE:NOROOT(0)
//  660 void AXD_SendTheMessage( void )
AXD_SendTheMessage:
        CFI Block cfiBlock5 Using cfiCommon0
        CFI Function AXD_SendTheMessage
//  661 {
        ; Saved register size: 0
        ; Auto size: 0
//  662   //zAddrType_t dstAddr;
//  663 #ifdef AXD_END || AXD_END2 || AXD_END3
//  664 
//  665   Multiple_Read_ADXL345();
//  666   conversion();
//  667   ReadAdcValue(ADC_TEMP);
//  668   ReadAdcValue(ADC_PULSE);
//  669 //  displayXYZ((uint8 *)BUFFER);
//  670 //  BUFFER[3] = myApp_ReadTemperature();
//  671 //  BUFFER[2] = BUFFER[3] % 10 + '0';
//  672 //  BUFFER[3] = BUFFER[3] / 10 + '0';
//  673 //  BUFFER[5] = myApp_ReadTemperature();
//  674 //  BUFFER[4] = BUFFER[5] % 10 + '0';
//  675 //  BUFFER[5] = BUFFER[5] / 10 + '0';
//  676   
//  677   if ( AF_DataRequest( &AXD_DstAddr, &AXD_epDesc,
//  678                        AXD_CMD_ID,
//  679                        (byte)(sizeof(BUFFER)),
//  680                        (byte *)(BUFFER),
//  681                        &AXD_TransID,
//  682                        AF_DISCV_ROUTE, AF_DEFAULT_RADIUS ) == afStatus_SUCCESS )
//  683   {
//  684     aps_RemoveGroup(AXD_ENDPOINT,AXD_GROUP);
//  685     // Successfully requested to be sent.
//  686     
//  687   }
//  688   else
//  689   {
//  690     // Error occurred in request to send.
//  691   }
//  692 #endif
//  693 #ifdef AXD_ROUTER
//  694   if ( AF_DataRequest( &AXD_DstAddr, &AXD_epDesc,
//  695                        AXD_TEST_CMD_ID,
//  696                        (byte)(sizeof(test2)),
//  697                        (byte *)(&test2),
//  698                        &AXD_TransID,
//  699                        AF_SKIP_ROUTING, AF_DEFAULT_RADIUS ) == afStatus_SUCCESS )
//  700   {
//  701     // Successfully requested to be sent.
//  702 
//  703   }
//  704   else
//  705   {
//  706     // Error occurred in request to send.
//  707   }
//  708   
//  709 #endif
//  710 }
        LJMP    ?BRET
        CFI EndBlock cfiBlock5
//  711 
//  712 /*********************************************************************
//  713 *********************************************************************/

        RSEG BANKED_CODE:CODE:NOROOT(0)
//  714 void AXD_ReceiveDataIndication( uint16 source, uint16 command, uint16 len, uint8 *pData  )
AXD_ReceiveDataIndication:
        CFI Block cfiBlock6 Using cfiCommon0
        CFI Function AXD_ReceiveDataIndication
//  715 {
        FUNCALL AXD_ReceiveDataIndication, zb_ReceiveDataIndication
        LOCFRAME ISTACK, 0, STACK
        LOCFRAME PSTACK, 0, STACK
        LOCFRAME XSTACK, 18, STACK
        LOCFRAME IOVERLAY, 0, STATIC
        LOCFRAME DOVERLAY, 0, STATIC
        ARGFRAME ISTACK, 0, STACK
        ARGFRAME PSTACK, 0, STACK
        ARGFRAME XSTACK, 18, STACK
        ARGFRAME IOVERLAY, 0, STATIC
        ARGFRAME DOVERLAY, 0, STATIC
        MOV     A,#-0xe
        LCALL   ?BANKED_ENTER_XDATA
        CFI DPH0 load(1, XDATA, add(CFA_XSP16, literal(-1)))
        CFI DPL0 load(1, XDATA, add(CFA_XSP16, literal(-2)))
        CFI ?BRET_EXT load(1, XDATA, add(CFA_XSP16, literal(-3)))
        CFI ?RET_HIGH load(1, XDATA, add(CFA_XSP16, literal(-4)))
        CFI ?RET_LOW load(1, XDATA, add(CFA_XSP16, literal(-5)))
        CFI R7 load(1, XDATA, add(CFA_XSP16, literal(-6)))
        CFI V5 load(1, XDATA, add(CFA_XSP16, literal(-7)))
        CFI V4 load(1, XDATA, add(CFA_XSP16, literal(-8)))
        CFI V3 load(1, XDATA, add(CFA_XSP16, literal(-9)))
        CFI V2 load(1, XDATA, add(CFA_XSP16, literal(-10)))
        CFI V1 load(1, XDATA, add(CFA_XSP16, literal(-11)))
        CFI V0 load(1, XDATA, add(CFA_XSP16, literal(-12)))
        CFI VB load(1, XDATA, add(CFA_XSP16, literal(-13)))
        CFI R6 load(1, XDATA, add(CFA_XSP16, literal(-14)))
        CFI CFA_SP SP+0
        CFI CFA_XSP16 add(XSP16, 14)
        ; Saved register size: 14
        ; Auto size: 0
        MOV     ?V0 + 0,R2
        MOV     ?V0 + 1,R3
        MOV     A,R4
        MOV     R6,A
        MOV     A,R5
        MOV     R7,A
        MOV     A,#0xe
        LCALL   ?XSTACK_DISP0_8
        MOVX    A,@DPTR
        MOV     ?V0 + 2,A
        INC     DPTR
        MOVX    A,@DPTR
        MOV     ?V0 + 3,A
        MOV     A,#0x10
        LCALL   ?XSTACK_DISP0_8
        MOVX    A,@DPTR
        MOV     ?V0 + 4,A
        INC     DPTR
        MOVX    A,@DPTR
        MOV     ?V0 + 5,A
//  716 #if defined ( MT_SAPI_CB_FUNC )
//  717   /* First check if MT has subscribed for this callback. If so , pass it as
//  718   a event to MonitorTest and return control to calling function after that */
//  719   if ( SAPICB_CHECK( SPI_CB_SAPI_RCV_DATA_IND ) )
//  720   {
//  721     zb_MTCallbackReceiveDataIndication( source, command, len, pData  );
//  722   }
//  723   else
//  724 #endif  //MT_SAPI_CB_FUNC
//  725   {
//  726     zb_ReceiveDataIndication( source, command, len, pData  );
        ; Setup parameters for call to function zb_ReceiveDataIndication
        MOV     R0,#?V0 + 4
        LCALL   ?PUSH_XSTACK_I_TWO
        CFI CFA_XSP16 add(XSP16, 16)
        MOV     R0,#?V0 + 2
        LCALL   ?PUSH_XSTACK_I_TWO
        CFI CFA_XSP16 add(XSP16, 18)
        MOV     A,R6
        MOV     R4,A
        MOV     A,R7
        MOV     R5,A
        MOV     R2,?V0 + 0
        MOV     R3,?V0 + 1
        LCALL   ??zb_ReceiveDataIndication?relay
        MOV     A,#0x4
        LCALL   ?DEALLOC_XSTACK8
        CFI CFA_XSP16 add(XSP16, 14)
//  727   }
//  728 }
        MOV     R7,#0x6
        LJMP    ?BANKED_LEAVE_XDATA
        CFI EndBlock cfiBlock6
//  729 
//  730 #if SERIAL_APP_LOOPBACK
//  731 /*********************************************************************
//  732  * @fn      rxCB_Loopback
//  733  *
//  734  * @brief   Process UART Rx event handling.
//  735  *          May be triggered by an Rx timer expiration - less than max
//  736  *          Rx bytes have arrived within the Rx max age time.
//  737  *          May be set by failure to alloc max Rx byte-buffer for the DMA Rx -
//  738  *          system resources are too low, so set flow control?
//  739  *
//  740  * @param   none
//  741  *
//  742  * @return  none
//  743  */

        RSEG BANKED_CODE:CODE:NOROOT(0)
//  744 static void rxCB_Loopback( uint8 port, uint8 event )
rxCB_Loopback:
        CFI Block cfiBlock7 Using cfiCommon0
        CFI Function rxCB_Loopback
//  745 {
        FUNCALL rxCB_Loopback, HalUARTWrite
        LOCFRAME ISTACK, 0, STACK
        LOCFRAME PSTACK, 0, STACK
        LOCFRAME XSTACK, 10, STACK
        LOCFRAME IOVERLAY, 0, STATIC
        LOCFRAME DOVERLAY, 0, STATIC
        ARGFRAME ISTACK, 0, STACK
        ARGFRAME PSTACK, 0, STACK
        ARGFRAME XSTACK, 10, STACK
        ARGFRAME IOVERLAY, 0, STATIC
        ARGFRAME DOVERLAY, 0, STATIC
        FUNCALL rxCB_Loopback, osal_start_timerEx
        LOCFRAME ISTACK, 0, STACK
        LOCFRAME PSTACK, 0, STACK
        LOCFRAME XSTACK, 10, STACK
        LOCFRAME IOVERLAY, 0, STATIC
        LOCFRAME DOVERLAY, 0, STATIC
        ARGFRAME ISTACK, 0, STACK
        ARGFRAME PSTACK, 0, STACK
        ARGFRAME XSTACK, 10, STACK
        ARGFRAME IOVERLAY, 0, STATIC
        ARGFRAME DOVERLAY, 0, STATIC
        FUNCALL rxCB_Loopback, osal_stop_timerEx
        LOCFRAME ISTACK, 0, STACK
        LOCFRAME PSTACK, 0, STACK
        LOCFRAME XSTACK, 10, STACK
        LOCFRAME IOVERLAY, 0, STATIC
        LOCFRAME DOVERLAY, 0, STATIC
        ARGFRAME ISTACK, 0, STACK
        ARGFRAME PSTACK, 0, STACK
        ARGFRAME XSTACK, 10, STACK
        ARGFRAME IOVERLAY, 0, STATIC
        ARGFRAME DOVERLAY, 0, STATIC
        FUNCALL rxCB_Loopback, HalUARTRead
        LOCFRAME ISTACK, 0, STACK
        LOCFRAME PSTACK, 0, STACK
        LOCFRAME XSTACK, 10, STACK
        LOCFRAME IOVERLAY, 0, STATIC
        LOCFRAME DOVERLAY, 0, STATIC
        ARGFRAME ISTACK, 0, STACK
        ARGFRAME PSTACK, 0, STACK
        ARGFRAME XSTACK, 10, STACK
        ARGFRAME IOVERLAY, 0, STATIC
        ARGFRAME DOVERLAY, 0, STATIC
        FUNCALL rxCB_Loopback, HalUARTWrite
        LOCFRAME ISTACK, 0, STACK
        LOCFRAME PSTACK, 0, STACK
        LOCFRAME XSTACK, 10, STACK
        LOCFRAME IOVERLAY, 0, STATIC
        LOCFRAME DOVERLAY, 0, STATIC
        ARGFRAME ISTACK, 0, STACK
        ARGFRAME PSTACK, 0, STACK
        ARGFRAME XSTACK, 10, STACK
        ARGFRAME IOVERLAY, 0, STATIC
        ARGFRAME DOVERLAY, 0, STATIC
        FUNCALL rxCB_Loopback, osal_start_timerEx
        LOCFRAME ISTACK, 0, STACK
        LOCFRAME PSTACK, 0, STACK
        LOCFRAME XSTACK, 10, STACK
        LOCFRAME IOVERLAY, 0, STATIC
        LOCFRAME DOVERLAY, 0, STATIC
        ARGFRAME ISTACK, 0, STACK
        ARGFRAME PSTACK, 0, STACK
        ARGFRAME XSTACK, 10, STACK
        ARGFRAME IOVERLAY, 0, STATIC
        ARGFRAME DOVERLAY, 0, STATIC
        MOV     A,#-0xa
        LCALL   ?BANKED_ENTER_XDATA
        CFI DPH0 load(1, XDATA, add(CFA_XSP16, literal(-1)))
        CFI DPL0 load(1, XDATA, add(CFA_XSP16, literal(-2)))
        CFI ?BRET_EXT load(1, XDATA, add(CFA_XSP16, literal(-3)))
        CFI ?RET_HIGH load(1, XDATA, add(CFA_XSP16, literal(-4)))
        CFI ?RET_LOW load(1, XDATA, add(CFA_XSP16, literal(-5)))
        CFI R7 load(1, XDATA, add(CFA_XSP16, literal(-6)))
        CFI V1 load(1, XDATA, add(CFA_XSP16, literal(-7)))
        CFI V0 load(1, XDATA, add(CFA_XSP16, literal(-8)))
        CFI VB load(1, XDATA, add(CFA_XSP16, literal(-9)))
        CFI R6 load(1, XDATA, add(CFA_XSP16, literal(-10)))
        CFI CFA_SP SP+0
        CFI CFA_XSP16 add(XSP16, 10)
        ; Saved register size: 10
        ; Auto size: 0
        MOV     A,R1
        MOV     R7,A
//  746 
//  747   if ( rxLen )
        MOV     DPTR,#rxLen
        MOVX    A,@DPTR
        JZ      ??rxCB_Loopback_0
//  748   {
//  749     if ( !HalUARTWrite( SERIAL_APP_PORT, rxBuf, rxLen ) )
        ; Setup parameters for call to function HalUARTWrite
        MOV     DPTR,#rxLen
        MOVX    A,@DPTR
        MOV     ?V0 + 0,A
        MOV     R4,?V0 + 0
        MOV     R5,#0x0
        MOV     R2,#(rxBuf & 0xff)
        MOV     R3,#((rxBuf >> 8) & 0xff)
        MOV     R1,#0x0
        LCALL   ??HalUARTWrite?relay
        MOV     ?V0 + 0,R2
        MOV     ?V0 + 1,R3
        MOV     A,#0x0
        XRL     A,?V0 + 0
        JNZ     ??rxCB_Loopback_1
        MOV     A,#0x0
        XRL     A,?V0 + 1
??rxCB_Loopback_1:
        JNZ     ??rxCB_Loopback_2
//  750     {
//  751       osal_start_timerEx( AXD_TaskID, SERIALAPP_TX_RTRY_EVT,
//  752                                             SERIALAPP_TX_RTRY_TIMEOUT );
        ; Setup parameters for call to function osal_start_timerEx
        MOV     R4,#-0x6
        MOV     R5,#0x0
        MOV     R2,#0x10
        MOV     R3,#0x0
        MOV     DPTR,#AXD_TaskID
        MOVX    A,@DPTR
        MOV     R1,A
        LCALL   ??osal_start_timerEx?relay
//  753       return;
        SJMP    ??rxCB_Loopback_3
//  754     }
//  755     else
//  756     {
//  757       osal_stop_timerEx( AXD_TaskID, SERIALAPP_TX_RTRY_EVT );
??rxCB_Loopback_2:
        ; Setup parameters for call to function osal_stop_timerEx
        MOV     R2,#0x10
        MOV     R3,#0x0
        MOV     DPTR,#AXD_TaskID
        MOVX    A,@DPTR
        MOV     R1,A
        LCALL   ??osal_stop_timerEx?relay
//  758     }
//  759   }
//  760 
//  761   // HAL UART Manager will turn flow control back on if it can after read.
//  762   if ( !(rxLen = HalUARTRead( port, rxBuf, SERIAL_APP_RX_CNT )) )
??rxCB_Loopback_0:
        ; Setup parameters for call to function HalUARTRead
        MOV     R4,#0x6
        MOV     R5,#0x0
        MOV     R2,#(rxBuf & 0xff)
        MOV     R3,#((rxBuf >> 8) & 0xff)
        MOV     A,R7
        MOV     R1,A
        LCALL   ??HalUARTRead?relay
        MOV     A,R2
        MOV     R2,A
        MOV     A,R2
        MOV     DPTR,#rxLen
        MOVX    @DPTR,A
        MOV     A,R2
        JZ      ??rxCB_Loopback_3
//  763   {
//  764     return;
//  765   }
//  766 
//  767   if ( HalUARTWrite( SERIAL_APP_PORT, rxBuf, rxLen ) )
        ; Setup parameters for call to function HalUARTWrite
        MOV     DPTR,#rxLen
        MOVX    A,@DPTR
        MOV     ?V0 + 0,A
        MOV     R4,?V0 + 0
        MOV     R5,#0x0
        MOV     R2,#(rxBuf & 0xff)
        MOV     R3,#((rxBuf >> 8) & 0xff)
        MOV     R1,#0x0
        LCALL   ??HalUARTWrite?relay
        MOV     ?V0 + 0,R2
        MOV     ?V0 + 1,R3
        MOV     A,#0x0
        XRL     A,?V0 + 0
        JNZ     ??rxCB_Loopback_4
        MOV     A,#0x0
        XRL     A,?V0 + 1
??rxCB_Loopback_4:
        JZ      ??rxCB_Loopback_5
//  768   {
//  769     rxLen = 0;
        MOV     A,#0x0
        MOV     DPTR,#rxLen
        MOVX    @DPTR,A
        SJMP    ??rxCB_Loopback_3
//  770   }
//  771   else
//  772   {
//  773     osal_start_timerEx( AXD_TaskID, SERIALAPP_TX_RTRY_EVT,
//  774                                           SERIALAPP_TX_RTRY_TIMEOUT );
??rxCB_Loopback_5:
        ; Setup parameters for call to function osal_start_timerEx
        MOV     R4,#-0x6
        MOV     R5,#0x0
        MOV     R2,#0x10
        MOV     R3,#0x0
        MOV     DPTR,#AXD_TaskID
        MOVX    A,@DPTR
        MOV     R1,A
        LCALL   ??osal_start_timerEx?relay
??rxCB_Loopback_3:
        MOV     R7,#0x2
        LJMP    ?BANKED_LEAVE_XDATA
        CFI EndBlock cfiBlock7
//  775   }
//  776 }
//  777 
//  778 #else
//  779 
//  780 /*********************************************************************
//  781  * @fn      rxCB
//  782  *
//  783  * @brief   Process UART Rx event handling.
//  784  *          May be triggered by an Rx timer expiration - less than max
//  785  *          Rx bytes have arrived within the Rx max age time.
//  786  *          May be set by failure to alloc max Rx byte-buffer for the DMA Rx -
//  787  *          system resources are too low, so set flow control?
//  788  *
//  789  * @param   none
//  790  *
//  791  * @return  none
//  792  */
//  793 static void rxCB( uint8 port, uint8 event )
//  794 {
//  795   uint8 *buf, len;
//  796 
//  797   /* While awaiting retries/response, only buffer 1 next buffer: otaBuf2.
//  798    * If allow the DMA Rx to continue to run, allocating Rx buffers, the heap
//  799    * will become so depleted that an incoming OTA response cannot be received.
//  800    * When the Rx data available is not read, the DMA Rx Machine automatically
//  801    * sets flow control off - it is automatically re-enabled upon Rx data read.
//  802    * When the back-logged otaBuf2 is sent OTA, an Rx data read is scheduled.
//  803    */
//  804   if ( otaBuf2 )
//  805   {
//  806     return;
//  807   }
//  808 
//  809   if ( !(buf = osal_mem_alloc( SERIAL_APP_RX_CNT )) )
//  810   {
//  811     return;
//  812   }
//  813 
//  814   /* HAL UART Manager will turn flow control back on if it can after read.
//  815    * Reserve 1 byte for the 'sequence number'.
//  816    */
//  817   len = HalUARTRead( port, buf+1, SERIAL_APP_RX_CNT-1 );
//  818 
//  819   if ( !len )  // Length is not expected to ever be zero.
//  820   {
//  821     osal_mem_free( buf );
//  822     return;
//  823   }
//  824 
//  825   /* If the local global otaBuf is in use, then either the response handshake
//  826    * is being awaited or retries are being attempted. When the wait/retries
//  827    * process has been exhausted, the next OTA msg will be attempted from
//  828    * otaBuf2, if it is not NULL.
//  829    */
//  830   if ( otaBuf )
//  831   {
//  832     otaBuf2 = buf;
//  833     otaLen2 = len;
//  834   }
//  835   else
//  836   {
//  837     otaBuf = buf;
//  838     otaLen = len;
//  839     /* Don't call SerialApp_SendData() from here in the callback function.
//  840      * Set the event so SerialApp_SendData() runs during this task's time slot.
//  841      */
//  842     osal_set_event( SerialApp_TaskID, SERIALAPP_MSG_SEND_EVT );
//  843   }
//  844 }
//  845 #endif
//  846 
//  847 /*********************************************************************
//  848 *********************************************************************/

        RSEG BANKED_CODE:CODE:NOROOT(0)
//  849 uint8 myApp_ReadTemperature( void )
myApp_ReadTemperature:
        CFI Block cfiBlock8 Using cfiCommon0
        CFI Function myApp_ReadTemperature
//  850 {
        MOV     A,#-0x10
        LCALL   ?BANKED_ENTER_XDATA
        CFI DPH0 load(1, XDATA, add(CFA_XSP16, literal(-1)))
        CFI DPL0 load(1, XDATA, add(CFA_XSP16, literal(-2)))
        CFI ?BRET_EXT load(1, XDATA, add(CFA_XSP16, literal(-3)))
        CFI ?RET_HIGH load(1, XDATA, add(CFA_XSP16, literal(-4)))
        CFI ?RET_LOW load(1, XDATA, add(CFA_XSP16, literal(-5)))
        CFI R7 load(1, XDATA, add(CFA_XSP16, literal(-6)))
        CFI V7 load(1, XDATA, add(CFA_XSP16, literal(-7)))
        CFI V6 load(1, XDATA, add(CFA_XSP16, literal(-8)))
        CFI V5 load(1, XDATA, add(CFA_XSP16, literal(-9)))
        CFI V4 load(1, XDATA, add(CFA_XSP16, literal(-10)))
        CFI V3 load(1, XDATA, add(CFA_XSP16, literal(-11)))
        CFI V2 load(1, XDATA, add(CFA_XSP16, literal(-12)))
        CFI V1 load(1, XDATA, add(CFA_XSP16, literal(-13)))
        CFI V0 load(1, XDATA, add(CFA_XSP16, literal(-14)))
        CFI VB load(1, XDATA, add(CFA_XSP16, literal(-15)))
        CFI R6 load(1, XDATA, add(CFA_XSP16, literal(-16)))
        CFI CFA_SP SP+0
        CFI CFA_XSP16 add(XSP16, 16)
        ; Saved register size: 16
        ; Auto size: 0
//  851 
//  852   uint16 value;
//  853 
//  854   /* Clear ADC interrupt flag */
//  855   ADCIF = 0;
        CLR     0x88.5
//  856 
//  857   ADCCON3 = (HAL_ADC_REF_125V | HAL_ADC_DEC_512 | HAL_ADC_CHN_TEMP);
        MOV     0xb6,#0x3e
//  858 
//  859   /* Wait for the conversion to finish */
//  860   while ( !ADCIF );
??myApp_ReadTemperature_0:
        MOV     C,0x88.5
        JNC     ??myApp_ReadTemperature_0
//  861 
//  862   /* Get the result */
//  863   value = ADCL;
        MOV     R2,0xba
        MOV     DPL,R2
        MOV     DPH,#0x0
        MOV     R0,DPL
        MOV     R1,DPH
//  864   value |= ((uint16) ADCH) << 8;
        MOV     A,0xbb
        MOV     R2,A
        CLR     A
        XCH     A,R2
        MOV     R3,A
        MOV     A,R2
        ORL     A,R0
        MOV     R0,A
        MOV     A,R3
        ORL     A,R1
        MOV     R1,A
//  865 
//  866   /*
//  867    * value ranges from 0 to 0x8000 indicating 0V and 1.25V
//  868    * VOLTAGE_AT_TEMP_ZERO = 0.743 V = 19477
//  869    * TEMP_COEFFICIENT = 0.0024 V/C = 62.9 /C
//  870    * These parameters are typical values and need to be calibrated
//  871    * See the datasheet for the appropriate chip for more details
//  872    * also, the math below may not be very accurate
//  873    */
//  874 #define VOLTAGE_AT_TEMP_ZERO      19477   // 0.743 V
//  875 #define TEMP_COEFFICIENT          62.9    // 0.0024 V/C
//  876 
//  877   // limit min temp to 0 C
//  878   if ( value < VOLTAGE_AT_TEMP_ZERO )
        CLR     C
        MOV     A,R0
        SUBB    A,#0x15
        MOV     A,R1
        SUBB    A,#0x4c
        JNC     ??myApp_ReadTemperature_1
//  879     value = VOLTAGE_AT_TEMP_ZERO;
        MOV     R0,#0x15
        MOV     R1,#0x4c
//  880 
//  881   value = value - VOLTAGE_AT_TEMP_ZERO;
??myApp_ReadTemperature_1:
        MOV     A,R0
        ADD     A,#-0x15
        MOV     R0,A
        MOV     A,R1
        ADDC    A,#-0x4d
        MOV     R1,A
//  882 
//  883   // limit max temp to 99 C
//  884   if ( value > TEMP_COEFFICIENT * 99 )
        CLR     C
        MOV     A,R0
        SUBB    A,#0x54
        MOV     A,R1
        SUBB    A,#0x18
        JC      ??myApp_ReadTemperature_2
//  885     value = TEMP_COEFFICIENT * 99;
        MOV     R0,#0x53
        MOV     R1,#0x18
//  886 
//  887   return ( (uint8)(value/TEMP_COEFFICIENT) );
??myApp_ReadTemperature_2:
        MOV     ?V0 + 0,R0
        MOV     ?V0 + 1,R1
        CLR     A
        MOV     ?V0 + 2,A
        MOV     ?V0 + 3,A
        MOV     R0,#?V0 + 0
        LCALL   ?UL_TO_FLT
        MOV     DPTR,#__Constant_427b999a
        MOV     R0,#?V0 + 4
        LCALL   ?L_MOV_X
        MOV     R0,#?V0 + 0
        MOV     R1,#?V0 + 4
        LCALL   ?FLT_DIV
        MOV     R0,#?V0 + 0
        LCALL   ?FLT_TO_L
        MOV     R1,?V0 + 0
        MOV     R7,#0x8
        LJMP    ?BANKED_LEAVE_XDATA
        CFI EndBlock cfiBlock8
        REQUIRE _A_TCON
        REQUIRE ADCCON3
        REQUIRE ADCL
        REQUIRE ADCH
//  888 }

        RSEG BANKED_CODE:CODE:NOROOT(0)
//  889 void ReadAdcValue( uint8 flag )
ReadAdcValue:
        CFI Block cfiBlock9 Using cfiCommon0
        CFI Function ReadAdcValue
//  890 {
        MOV     A,#-0x10
        LCALL   ?BANKED_ENTER_XDATA
        CFI DPH0 load(1, XDATA, add(CFA_XSP16, literal(-1)))
        CFI DPL0 load(1, XDATA, add(CFA_XSP16, literal(-2)))
        CFI ?BRET_EXT load(1, XDATA, add(CFA_XSP16, literal(-3)))
        CFI ?RET_HIGH load(1, XDATA, add(CFA_XSP16, literal(-4)))
        CFI ?RET_LOW load(1, XDATA, add(CFA_XSP16, literal(-5)))
        CFI R7 load(1, XDATA, add(CFA_XSP16, literal(-6)))
        CFI V7 load(1, XDATA, add(CFA_XSP16, literal(-7)))
        CFI V6 load(1, XDATA, add(CFA_XSP16, literal(-8)))
        CFI V5 load(1, XDATA, add(CFA_XSP16, literal(-9)))
        CFI V4 load(1, XDATA, add(CFA_XSP16, literal(-10)))
        CFI V3 load(1, XDATA, add(CFA_XSP16, literal(-11)))
        CFI V2 load(1, XDATA, add(CFA_XSP16, literal(-12)))
        CFI V1 load(1, XDATA, add(CFA_XSP16, literal(-13)))
        CFI V0 load(1, XDATA, add(CFA_XSP16, literal(-14)))
        CFI VB load(1, XDATA, add(CFA_XSP16, literal(-15)))
        CFI R6 load(1, XDATA, add(CFA_XSP16, literal(-16)))
        CFI CFA_SP SP+0
        CFI CFA_XSP16 add(XSP16, 16)
        ; Saved register size: 16
        ; Auto size: 0
        MOV     A,R1
        MOV     R4,A
//  891   uint16 value;
//  892   ADCIF = 0;
        CLR     0x88.5
//  893   if (flag == ADC_TEMP)
        MOV     A,R4
        JNZ     ??ReadAdcValue_0
//  894   {
//  895     ADCCON3 = (HAL_ADC_REF_AIN7 | HAL_ADC_DEC_512 | HAL_ADC_CHN_AIN4);
        MOV     0xb6,#0x74
        SJMP    ??ReadAdcValue_1
//  896     
//  897   }
//  898   else
//  899   {
//  900     ADCCON3 = (HAL_ADC_REF_AIN7 | HAL_ADC_DEC_512 | HAL_ADC_CHN_AIN5);
??ReadAdcValue_0:
        MOV     0xb6,#0x75
//  901   }
//  902     while ( !ADCIF );
??ReadAdcValue_1:
        MOV     C,0x88.5
        JNC     ??ReadAdcValue_1
//  903     value = ADCL ;
        MOV     R2,0xba
        MOV     DPL,R2
        MOV     DPH,#0x0
        MOV     R6,DPL
        MOV     R7,DPH
//  904     value |= ((uint16) ADCH) << 8;
        MOV     A,0xbb
        MOV     R0,A
        CLR     A
        XCH     A,R0
        MOV     R1,A
        MOV     A,R0
        ORL     A,R6
        MOV     R6,A
        MOV     A,R1
        ORL     A,R7
        MOV     R7,A
//  905     value = value >> 2;
        MOV     ?V0 + 0,R6
        MOV     ?V0 + 1,R7
        MOV     A,#0x2
        MOV     R0,#?V0 + 0
        LCALL   ?US_SHR
        MOV     R6,?V0 + 0
        MOV     R7,?V0 + 1
//  906     value = (INT16U)(330.0 * (float)value / 8192.0);
        MOV     ?V0 + 0,R6
        MOV     ?V0 + 1,R7
        CLR     A
        MOV     ?V0 + 2,A
        MOV     ?V0 + 3,A
        MOV     R0,#?V0 + 0
        LCALL   ?UL_TO_FLT
        MOV     DPTR,#__Constant_43a50000
        MOV     R0,#?V0 + 4
        LCALL   ?L_MOV_X
        MOV     R0,#?V0 + 0
        MOV     R1,#?V0 + 4
        LCALL   ?FLT_MUL
        MOV     DPTR,#__Constant_46000000
        MOV     R0,#?V0 + 4
        LCALL   ?L_MOV_X
        MOV     R0,#?V0 + 0
        MOV     R1,#?V0 + 4
        LCALL   ?FLT_DIV
        MOV     R0,#?V0 + 0
        LCALL   ?FLT_TO_L
        MOV     R6,?V0 + 0
        MOV     R7,?V0 + 1
//  907     if (flag == ADC_TEMP)
        MOV     A,R4
        JNZ     ??ReadAdcValue_2
//  908   {
//  909     BUFFER[2] = (INT8U)(value % 100 % 10 + '0');
        MOV     A,R6
        MOV     R0,A
        MOV     A,R7
        MOV     R1,A
        MOV     R2,#0x64
        MOV     R3,#0x0
        LCALL   ?US_DIV_MOD
        MOV     A,R2
        MOV     R0,A
        MOV     A,R3
        MOV     R1,A
        MOV     R2,#0xa
        MOV     R3,#0x0
        LCALL   ?US_DIV_MOD
        MOV     A,R2
        ADD     A,#0x30
        MOV     DPTR,#(BUFFER + 2)
        MOVX    @DPTR,A
//  910     BUFFER[3] = (INT8U)(value % 100 / 10 + '0');
        MOV     A,R6
        MOV     R0,A
        MOV     A,R7
        MOV     R1,A
        MOV     R2,#0x64
        MOV     R3,#0x0
        LCALL   ?US_DIV_MOD
        MOV     A,R2
        MOV     R0,A
        MOV     A,R3
        MOV     R1,A
        MOV     R2,#0xa
        MOV     R3,#0x0
        LCALL   ?US_DIV_MOD
        MOV     A,R0
        ADD     A,#0x30
        MOV     DPTR,#(BUFFER + 3)
        MOVX    @DPTR,A
//  911     BUFFER[4] = (INT8U)(value / 100  + '0');
        MOV     A,R6
        MOV     R0,A
        MOV     A,R7
        MOV     R1,A
        MOV     R2,#0x64
        MOV     R3,#0x0
        LCALL   ?US_DIV_MOD
        MOV     A,R0
        ADD     A,#0x30
        MOV     DPTR,#(BUFFER + 4)
        MOVX    @DPTR,A
        SJMP    ??ReadAdcValue_3
//  912   }
//  913   else
//  914   {
//  915     BUFFER[5] = (INT8U)(value % 100 / 10 + '0');
??ReadAdcValue_2:
        MOV     A,R6
        MOV     R0,A
        MOV     A,R7
        MOV     R1,A
        MOV     R2,#0x64
        MOV     R3,#0x0
        LCALL   ?US_DIV_MOD
        MOV     A,R2
        MOV     R0,A
        MOV     A,R3
        MOV     R1,A
        MOV     R2,#0xa
        MOV     R3,#0x0
        LCALL   ?US_DIV_MOD
        MOV     A,R0
        ADD     A,#0x30
        MOV     DPTR,#(BUFFER + 5)
        MOVX    @DPTR,A
//  916     BUFFER[6] = (INT8U)(value / 100 + '0');
        MOV     A,R6
        MOV     R0,A
        MOV     A,R7
        MOV     R1,A
        MOV     R2,#0x64
        MOV     R3,#0x0
        LCALL   ?US_DIV_MOD
        MOV     A,R0
        ADD     A,#0x30
        MOV     DPTR,#(BUFFER + 6)
        MOVX    @DPTR,A
//  917   }
//  918 }
??ReadAdcValue_3:
        MOV     R7,#0x8
        LJMP    ?BANKED_LEAVE_XDATA
        CFI EndBlock cfiBlock9
        REQUIRE _A_TCON
        REQUIRE ADCCON3
        REQUIRE ADCL
        REQUIRE ADCH

        RSEG XDATA_ID:CODE:NOROOT(0)
        DATA
`?<Initializer for AXD_ClusterList>`:
        DW 1, 2
        DB 0, 0

        RSEG XDATA_ID:CODE:NOROOT(0)
        DATA
`?<Initializer for AXD_SimpleDesc>`:
        DB 10
        DW 3844, 1
        DB 0, 3
        DW AXD_ClusterList
        DB 3
        DW AXD_ClusterList

        RSEG XDATA_ID:CODE:NOROOT(0)
        DATA
`?<Initializer for __Constant_427b999a>`:
        DD 427B999AH

        RSEG XDATA_ID:CODE:NOROOT(0)
        DATA
`?<Initializer for __Constant_43a50000>`:
        DD 43A50000H

        RSEG XDATA_ID:CODE:NOROOT(0)
        DATA
`?<Initializer for __Constant_46000000>`:
        DD 46000000H

        RSEG BANK_RELAYS:CODE:REORDER:NOROOT(0)
??AXD_Init?relay:
        LCALL   ?BDISPATCH
        DATA
        DC24    AXD_Init

        RSEG BANK_RELAYS:CODE:REORDER:NOROOT(0)
??AXD_ProcessEvent?relay:
        LCALL   ?BDISPATCH
        DATA
        DC24    AXD_ProcessEvent

        RSEG BANK_RELAYS:CODE:REORDER:NOROOT(0)
??AXD_ProcessZDOMsgs?relay:
        LCALL   ?BDISPATCH
        DATA
        DC24    AXD_ProcessZDOMsgs

        RSEG BANK_RELAYS:CODE:REORDER:NOROOT(0)
??AXD_HandleKeys?relay:
        LCALL   ?BDISPATCH
        DATA
        DC24    AXD_HandleKeys

        RSEG BANK_RELAYS:CODE:REORDER:NOROOT(0)
??AXD_MessageMSGCB?relay:
        LCALL   ?BDISPATCH
        DATA
        DC24    AXD_MessageMSGCB

        RSEG BANK_RELAYS:CODE:REORDER:NOROOT(0)
??AXD_SendTheMessage?relay:
        LCALL   ?BDISPATCH
        DATA
        DC24    AXD_SendTheMessage

        RSEG BANK_RELAYS:CODE:REORDER:NOROOT(0)
??AXD_ReceiveDataIndication?relay:
        LCALL   ?BDISPATCH
        DATA
        DC24    AXD_ReceiveDataIndication

        RSEG BANK_RELAYS:CODE:REORDER:NOROOT(0)
??rxCB_Loopback?relay:
        LCALL   ?BDISPATCH
        DATA
        DC24    rxCB_Loopback

        RSEG BANK_RELAYS:CODE:REORDER:NOROOT(0)
??myApp_ReadTemperature?relay:
        LCALL   ?BDISPATCH
        DATA
        DC24    myApp_ReadTemperature

        RSEG BANK_RELAYS:CODE:REORDER:NOROOT(0)
??ReadAdcValue?relay:
        LCALL   ?BDISPATCH
        DATA
        DC24    ReadAdcValue

        END
// 
// 1 737 bytes in segment BANKED_CODE
//    60 bytes in segment BANK_RELAYS
//     4 bytes in segment SFR_AN
//    30 bytes in segment XDATA_I
//    30 bytes in segment XDATA_ID
//    40 bytes in segment XDATA_Z
// 
// 1 815 bytes of CODE  memory (+ 12 bytes shared)
//     0 bytes of DATA  memory (+  4 bytes shared)
//    58 bytes of XDATA memory (+ 12 bytes shared)
//
//Errors: none
//Warnings: 2
