///////////////////////////////////////////////////////////////////////////////
//                                                                            /
// IAR 8051 C/C++ Compiler V7.30B/W32                   18/Mar/2013  18:21:47 /
// Copyright 2004-2007 IAR Systems. All rights reserved.                      /
//                                                                            /
//    Core               =  plain                                             /
//    Code model         =  banked                                            /
//    Data model         =  large                                             /
//    Calling convention =  xdata reentrant                                   /
//    Constant location  =  data                                              /
//    Dptr setup         =  1,16                                              /
//    Source file        =  C:\Texas Instruments\ZStack-1.4.3-1.2.1\Component /
//                          s\osal\common\OSAL_Timers.c                       /
//    Command line       =  -f "C:\Texas Instruments\ZStack-1.4.3-1.2.1\Proje /
//                          cts\zstack\Samples\cc2430-zstack-adxl345\CC2430DB /
//                          \..\..\..\Tools\CC2430DB\f8wEndev.cfg"            /
//                          (-DCPU32MHZ -DFORCE_MAC_NEAR -DROOT=__near_func   /
//                          -DMAC_OPT_FFD=0 -DBLINK_LEDS "-DCONST=const       /
//                          __code" -DGENERIC=__generic) -f "C:\Texas         /
//                          Instruments\ZStack-1.4.3-1.2.1\Projects\zstack\Sa /
//                          mples\cc2430-zstack-adxl345\CC2430DB\..\..\..\Too /
//                          ls\CC2430DB\f8wConfig.cfg" (-DSECURE=0            /
//                          -DDEFAULT_CHANLIST=0x00000800                     /
//                          -DZDAPP_CONFIG_PAN_ID=0xFFFF                      /
//                          -DNWK_START_DELAY=100 -DEXTENDED_JOINING_RANDOM_M /
//                          ASK=0x007F -DBEACON_REQUEST_DELAY=100             /
//                          -DBEACON_REQ_DELAY_MASK=0x00FF                    /
//                          -DROUTE_EXPIRY_TIME=30 -DAPSC_ACK_WAIT_DURATION_P /
//                          OLLED=3000 -DNWK_INDIRECT_MSG_TIMEOUT=7           /
//                          -DMAX_RREQ_ENTRIES=10 -DAPSC_MAX_FRAME_RETRIES=3  /
//                          -DNWK_MAX_DATA_RETRIES=2                          /
//                          -DMAX_POLL_FAILURE_RETRIES=2 -DMAX_BCAST=9        /
//                          -DAPS_MAX_GROUPS=16 -DMAX_RTG_ENTRIES=20          /
//                          -DNWK_MAX_BINDING_ENTRIES=10                      /
//                          -DMAX_BINDING_CLUSTER_IDS=5                       /
//                          "-DDEFAULT_KEY={0x01, 0x03, 0x05, 0x07, 0x09,     /
//                          0x0B, 0x0D, 0x0F, 0x00, 0x02, 0x04, 0x06, 0x08,   /
//                          0x0A, 0x0C, 0x0D}" -DRFD_RCVC_ALWAYS_ON=FALSE     /
//                          -DPOLL_RATE=1000 -DQUEUED_POLL_RATE=100           /
//                          -DRESPONSE_POLL_RATE=100) -DREJOIN_POLL_RATE=440  /
//                          "C:\Texas Instruments\ZStack-1.4.3-1.2.1\Componen /
//                          ts\osal\common\OSAL_Timers.c" -D CC2430EB -D      /
//                          AXD_END3 -D NWK_AUTO_POLL -D REFLECTOR -D         /
//                          xZTOOL_P1 -D xMT_TASK -D xMT_ZDO_FUNC -D          /
//                          xLCD_SUPPORTED=DEBUG -D xPOWER_SAVING -lC         /
//                          "C:\Texas Instruments\ZStack-1.4.3-1.2.1\Projects /
//                          \zstack\Samples\cc2430-zstack-adxl345\CC2430DB\En /
//                          dDeviceEB3\List\" -lA "C:\Texas                   /
//                          Instruments\ZStack-1.4.3-1.2.1\Projects\zstack\Sa /
//                          mples\cc2430-zstack-adxl345\CC2430DB\EndDeviceEB3 /
//                          \List\" --diag_suppress Pe001,Pa010               /
//                          --diag_remark pe550 -o "C:\Texas                  /
//                          Instruments\ZStack-1.4.3-1.2.1\Projects\zstack\Sa /
//                          mples\cc2430-zstack-adxl345\CC2430DB\EndDeviceEB3 /
//                          \Obj\" -e --require_prototypes -z2 --no_cse       /
//                          --no_unroll --no_inline --no_code_motion          /
//                          --no_tbaa --debug --core=plain --dptr=16,1        /
//                          --data_model=large --code_model=banked            /
//                          --calling_convention=xdata_reentrant              /
//                          --place_constants=data --nr_virtual_regs 8 -I     /
//                          "C:\Texas Instruments\ZStack-1.4.3-1.2.1\Projects /
//                          \zstack\Samples\cc2430-zstack-adxl345\CC2430DB\"  /
//                          -I "C:\Texas Instruments\ZStack-1.4.3-1.2.1\Proje /
//                          cts\zstack\Samples\cc2430-zstack-adxl345\CC2430DB /
//                          \..\SOURCE\" -I "C:\Texas                         /
//                          Instruments\ZStack-1.4.3-1.2.1\Projects\zstack\Sa /
//                          mples\cc2430-zstack-adxl345\CC2430DB\..\Drivers\" /
//                           -I "C:\Texas Instruments\ZStack-1.4.3-1.2.1\Proj /
//                          ects\zstack\Samples\cc2430-zstack-adxl345\CC2430D /
//                          B\..\..\..\ZMAIN\TI2430DB\" -I "C:\Texas          /
//                          Instruments\ZStack-1.4.3-1.2.1\Projects\zstack\Sa /
//                          mples\cc2430-zstack-adxl345\CC2430DB\..\..\..\..\ /
//                          ..\COMPONENTS\MT\" -I "C:\Texas                   /
//                          Instruments\ZStack-1.4.3-1.2.1\Projects\zstack\Sa /
//                          mples\cc2430-zstack-adxl345\CC2430DB\..\..\..\..\ /
//                          ..\COMPONENTS\HAL\INCLUDE\" -I "C:\Texas          /
//                          Instruments\ZStack-1.4.3-1.2.1\Projects\zstack\Sa /
//                          mples\cc2430-zstack-adxl345\CC2430DB\..\..\..\..\ /
//                          ..\COMPONENTS\HAL\TARGET\CC2430EB\" -I "C:\Texas  /
//                          Instruments\ZStack-1.4.3-1.2.1\Projects\zstack\Sa /
//                          mples\cc2430-zstack-adxl345\CC2430DB\..\..\..\..\ /
//                          ..\COMPONENTS\OSAL\MCU\CCSOC\" -I "C:\Texas       /
//                          Instruments\ZStack-1.4.3-1.2.1\Projects\zstack\Sa /
//                          mples\cc2430-zstack-adxl345\CC2430DB\..\..\..\..\ /
//                          ..\COMPONENTS\OSAL\INCLUDE\" -I "C:\Texas         /
//                          Instruments\ZStack-1.4.3-1.2.1\Projects\zstack\Sa /
//                          mples\cc2430-zstack-adxl345\CC2430DB\..\..\..\..\ /
//                          ..\COMPONENTS\STACK\AF\" -I "C:\Texas             /
//                          Instruments\ZStack-1.4.3-1.2.1\Projects\zstack\Sa /
//                          mples\cc2430-zstack-adxl345\CC2430DB\..\..\..\..\ /
//                          ..\COMPONENTS\STACK\NWK\" -I "C:\Texas            /
//                          Instruments\ZStack-1.4.3-1.2.1\Projects\zstack\Sa /
//                          mples\cc2430-zstack-adxl345\CC2430DB\..\..\..\..\ /
//                          ..\COMPONENTS\STACK\SEC\" -I "C:\Texas            /
//                          Instruments\ZStack-1.4.3-1.2.1\Projects\zstack\Sa /
//                          mples\cc2430-zstack-adxl345\CC2430DB\..\..\..\..\ /
//                          ..\COMPONENTS\STACK\SYS\" -I "C:\Texas            /
//                          Instruments\ZStack-1.4.3-1.2.1\Projects\zstack\Sa /
//                          mples\cc2430-zstack-adxl345\CC2430DB\..\..\..\..\ /
//                          ..\COMPONENTS\STACK\ZDO\" -I "C:\Texas            /
//                          Instruments\ZStack-1.4.3-1.2.1\Projects\zstack\Sa /
//                          mples\cc2430-zstack-adxl345\CC2430DB\..\..\..\..\ /
//                          ..\COMPONENTS\ZMAC\F8W\" -I "C:\Texas             /
//                          Instruments\ZStack-1.4.3-1.2.1\Projects\zstack\Sa /
//                          mples\cc2430-zstack-adxl345\CC2430DB\..\..\..\..\ /
//                          ..\COMPONENTS\ZMAC\" -I "C:\Texas                 /
//                          Instruments\ZStack-1.4.3-1.2.1\Projects\zstack\Sa /
//                          mples\cc2430-zstack-adxl345\CC2430DB\..\..\..\..\ /
//                          ..\COMPONENTS\SERVICES\SADDR\" -I "C:\Texas       /
//                          Instruments\ZStack-1.4.3-1.2.1\Projects\zstack\Sa /
//                          mples\cc2430-zstack-adxl345\CC2430DB\..\..\..\..\ /
//                          ..\COMPONENTS\SERVICES\SDATA\" -I "C:\Texas       /
//                          Instruments\ZStack-1.4.3-1.2.1\Projects\zstack\Sa /
//                          mples\cc2430-zstack-adxl345\CC2430DB\..\..\..\..\ /
//                          ..\COMPONENTS\MAC\INCLUDE\" -I "C:\Texas          /
//                          Instruments\ZStack-1.4.3-1.2.1\Projects\zstack\Sa /
//                          mples\cc2430-zstack-adxl345\CC2430DB\..\..\..\..\ /
//                          ..\COMPONENTS\MAC\HIGH_LEVEL\" -I "C:\Texas       /
//                          Instruments\ZStack-1.4.3-1.2.1\Projects\zstack\Sa /
//                          mples\cc2430-zstack-adxl345\CC2430DB\..\..\..\..\ /
//                          ..\COMPONENTS\MAC\LOW_LEVEL\SRF03\" -I "C:\Texas  /
//                          Instruments\ZStack-1.4.3-1.2.1\Projects\zstack\Sa /
//                          mples\cc2430-zstack-adxl345\CC2430DB\..\..\..\..\ /
//                          ..\COMPONENTS\MAC\LOW_LEVEL\SRF03\SINGLE_CHIP\"   /
//                          -I "C:\Program Files\IAR Systems\Embedded         /
//                          Workbench 4.0 Evaluation version\8051\INC\" -I    /
//                          "C:\Program Files\IAR Systems\Embedded Workbench  /
//                          4.0 Evaluation version\8051\INC\CLIB\"            /
//    List file          =  C:\Texas Instruments\ZStack-1.4.3-1.2.1\Projects\ /
//                          zstack\Samples\cc2430-zstack-adxl345\CC2430DB\End /
//                          DeviceEB3\List\OSAL_Timers.s51                    /
//                                                                            /
//                                                                            /
///////////////////////////////////////////////////////////////////////////////

        NAME OSAL_Timers

        RTMODEL "__calling_convention", "xdata_reentrant"
        RTMODEL "__code_model", "banked"
        RTMODEL "__core", "plain"
        RTMODEL "__data_model", "large"
        RTMODEL "__dptr_size", "16"
        RTMODEL "__extended_stack", "disabled"
        RTMODEL "__location_for_constants", "data"
        RTMODEL "__number_of_dptrs", "1"
        RTMODEL "__rt_version", "1"

        RSEG DOVERLAY:DATA:NOROOT(0)
        RSEG IOVERLAY:IDATA:NOROOT(0)
        RSEG ISTACK:IDATA:NOROOT(0)
        RSEG PSTACK:XDATA:NOROOT(0)
        RSEG XSTACK:XDATA:NOROOT(0)

        EXTERN ??osalAddTimer?relay
        EXTERN ??osalDeleteTimer?relay
        EXTERN ??osalFindTimer?relay
        EXTERN ??osalTimerUpdate?relay
        EXTERN ??osal_timer_activate?relay
        EXTERN ??osal_timer_hw_setup?relay
        EXTERN ?ALLOC_XSTACK8
        EXTERN ?BANKED_ENTER_XDATA
        EXTERN ?BANKED_LEAVE_XDATA
        EXTERN ?BDISPATCH
        EXTERN ?BRET
        EXTERN ?DEALLOC_XSTACK8
        EXTERN ?L_ADD_TO_X
        EXTERN ?L_MOV_TO_X
        EXTERN ?L_MOV_X
        EXTERN ?V0
        EXTERN ?XSP
        EXTERN ?XSTACK_DISP0_8
        EXTERN __INIT_XDATA_I
        EXTERN __INIT_XDATA_Z

        PUBLIC ??osalAddTimer?relay
        FUNCTION ??osalAddTimer?relay,0203H
        PUBLIC ??osalDeleteTimer?relay
        FUNCTION ??osalDeleteTimer?relay,0203H
        PUBLIC ??osalFindTimer?relay
        FUNCTION ??osalFindTimer?relay,0203H
        PUBLIC ??osalTimerInit?relay
        FUNCTION ??osalTimerInit?relay,0203H
        FUNCTION ??osalTimerUpdate?relay,0203H
        PUBLIC ??osal_GetSystemClock?relay
        FUNCTION ??osal_GetSystemClock?relay,0203H
        PUBLIC ??osal_get_timeoutEx?relay
        FUNCTION ??osal_get_timeoutEx?relay,0203H
        PUBLIC ??osal_set_timer_interrupt?relay
        FUNCTION ??osal_set_timer_interrupt?relay,0203H
        PUBLIC ??osal_start_timerEx?relay
        FUNCTION ??osal_start_timerEx?relay,0203H
        PUBLIC ??osal_stop_timerEx?relay
        FUNCTION ??osal_stop_timerEx?relay,0203H
        PUBLIC ??osal_timer_activate?relay
        FUNCTION ??osal_timer_activate?relay,0203H
        PUBLIC ??osal_timer_hw_setup?relay
        FUNCTION ??osal_timer_hw_setup?relay,0203H
        PUBLIC ??osal_timer_num_active?relay
        FUNCTION ??osal_timer_num_active?relay,0203H
        PUBLIC ??osal_update_timers?relay
        FUNCTION ??osal_update_timers?relay,0203H
        PUBWEAK _A_IEN0
        PUBWEAK __Constant_0
        PUBWEAK __Constant_3e8
        PUBLIC osalAddTimer
        FUNCTION osalAddTimer,021203H
        ARGFRAME XSTACK, 16, STACK
        ARGFRAME IOVERLAY, 0, STATIC
        ARGFRAME DOVERLAY, 0, STATIC
        LOCFRAME ISTACK, 1, STACK
        LOCFRAME XSTACK, 18, STACK
        PUBLIC osalDeleteTimer
        FUNCTION osalDeleteTimer,021203H
        ARGFRAME XSTACK, 14, STACK
        ARGFRAME IOVERLAY, 0, STATIC
        ARGFRAME DOVERLAY, 0, STATIC
        LOCFRAME XSTACK, 10, STACK
        PUBLIC osalFindTimer
        FUNCTION osalFindTimer,0203H
        ARGFRAME XSTACK, 18, STACK
        ARGFRAME IOVERLAY, 0, STATIC
        ARGFRAME DOVERLAY, 0, STATIC
        LOCFRAME XSTACK, 9, STACK
        PUBLIC osalTimerInit
        FUNCTION osalTimerInit,021203H
        ARGFRAME XSTACK, 0, STACK
        LOCFRAME XSTACK, 12, STACK
        FUNCTION osalTimerUpdate,021203H
        ARGFRAME XSTACK, 0, STACK
        ARGFRAME IOVERLAY, 0, STATIC
        ARGFRAME DOVERLAY, 0, STATIC
        LOCFRAME ISTACK, 1, STACK
        LOCFRAME XSTACK, 19, STACK
        PUBLIC osal_GetSystemClock
        FUNCTION osal_GetSystemClock,0203H
        ARGFRAME XSTACK, 0, STACK
        LOCFRAME XSTACK, 12, STACK
        PUBLIC osal_get_timeoutEx
        FUNCTION osal_get_timeoutEx,021203H
        ARGFRAME XSTACK, 0, STACK
        LOCFRAME XSTACK, 16, STACK
        PUBLIC osal_set_timer_interrupt
        FUNCTION osal_set_timer_interrupt,021203H
        ARGFRAME XSTACK, 0, STACK
        LOCFRAME XSTACK, 9, STACK
        PUBLIC osal_start_timerEx
        FUNCTION osal_start_timerEx,021203H
        ARGFRAME XSTACK, 0, STACK
        LOCFRAME XSTACK, 16, STACK
        PUBLIC osal_stop_timerEx
        FUNCTION osal_stop_timerEx,021203H
        ARGFRAME XSTACK, 0, STACK
        LOCFRAME XSTACK, 14, STACK
        PUBLIC osal_timer_activate
        FUNCTION osal_timer_activate,021203H
        ARGFRAME XSTACK, 16, STACK
        ARGFRAME IOVERLAY, 0, STATIC
        ARGFRAME DOVERLAY, 0, STATIC
        LOCFRAME XSTACK, 9, STACK
        PUBLIC osal_timer_hw_setup
        FUNCTION osal_timer_hw_setup,021203H
        ARGFRAME XSTACK, 9, STACK
        ARGFRAME IOVERLAY, 0, STATIC
        ARGFRAME DOVERLAY, 0, STATIC
        LOCFRAME XSTACK, 12, STACK
        PUBLIC osal_timer_num_active
        FUNCTION osal_timer_num_active,0203H
        ARGFRAME XSTACK, 0, STACK
        LOCFRAME XSTACK, 9, STACK
        PUBLIC osal_update_timers
        FUNCTION osal_update_timers,021203H
        ARGFRAME XSTACK, 0, STACK
        LOCFRAME ISTACK, 2, STACK
        PUBLIC timerActive
        PUBLIC timerHead
        PUBLIC tmr_count
        PUBLIC tmr_decr_time
        
        CFI Names cfiNames0
        CFI StackFrame CFA_SP SP DATA
        CFI StackFrame CFA_PSP16 PSP16 XDATA
        CFI StackFrame CFA_XSP16 XSP16 XDATA
        CFI StaticOverlayFrame CFA_IOVERLAY IOVERLAY
        CFI StaticOverlayFrame CFA_DOVERLAY DOVERLAY
        CFI Resource `PSW.CY`:1, `B.BR0`:1, `B.BR1`:1, `B.BR2`:1, `B.BR3`:1
        CFI Resource `B.BR4`:1, `B.BR5`:1, `B.BR6`:1, `B.BR7`:1, `VB.BR8`:1
        CFI Resource `VB.BR9`:1, `VB.BR10`:1, `VB.BR11`:1, `VB.BR12`:1
        CFI Resource `VB.BR13`:1, `VB.BR14`:1, `VB.BR15`:1, VB:8, B:8, A:8
        CFI Resource PSW:8, DPL0:8, DPH0:8, R0:8, R1:8, R2:8, R3:8, R4:8, R5:8
        CFI Resource R6:8, R7:8, V0:8, V1:8, V2:8, V3:8, V4:8, V5:8, V6:8, V7:8
        CFI Resource SP:8, PSPH:8, PSPL:8, PSP16:16, XSPH:8, XSPL:8, XSP16:16
        CFI VirtualResource ?RET:24
        CFI Resource ?BRET_EXT:8
        CFI VirtualResource ?RET_HIGH:8, ?RET_LOW:8
        CFI ResourceParts PSP16 PSPH, PSPL
        CFI ResourceParts XSP16 XSPH, XSPL
        CFI ResourceParts ?RET ?BRET_EXT, ?RET_HIGH, ?RET_LOW
        CFI EndNames cfiNames0
        
        CFI Common cfiCommon0 Using cfiNames0
        CFI CodeAlign 1
        CFI DataAlign -1
        CFI ReturnAddress ?RET CODE
        CFI CFA_DOVERLAY Used
        CFI CFA_IOVERLAY Used
        CFI CFA_SP SP+-3
        CFI CFA_PSP16 PSP16+0
        CFI CFA_XSP16 XSP16+0
        CFI `PSW.CY` SameValue
        CFI `B.BR0` SameValue
        CFI `B.BR1` SameValue
        CFI `B.BR2` SameValue
        CFI `B.BR3` SameValue
        CFI `B.BR4` SameValue
        CFI `B.BR5` SameValue
        CFI `B.BR6` SameValue
        CFI `B.BR7` SameValue
        CFI `VB.BR8` SameValue
        CFI `VB.BR9` SameValue
        CFI `VB.BR10` SameValue
        CFI `VB.BR11` SameValue
        CFI `VB.BR12` SameValue
        CFI `VB.BR13` SameValue
        CFI `VB.BR14` SameValue
        CFI `VB.BR15` SameValue
        CFI VB SameValue
        CFI B Undefined
        CFI A Undefined
        CFI PSW SameValue
        CFI DPL0 SameValue
        CFI DPH0 SameValue
        CFI R0 Undefined
        CFI R1 Undefined
        CFI R2 Undefined
        CFI R3 Undefined
        CFI R4 Undefined
        CFI R5 Undefined
        CFI R6 SameValue
        CFI R7 SameValue
        CFI V0 SameValue
        CFI V1 SameValue
        CFI V2 SameValue
        CFI V3 SameValue
        CFI V4 SameValue
        CFI V5 SameValue
        CFI V6 SameValue
        CFI V7 SameValue
        CFI PSPH Undefined
        CFI PSPL Undefined
        CFI XSPH Undefined
        CFI XSPL Undefined
        CFI ?RET Concat
        CFI ?BRET_EXT Frame(CFA_SP, 3)
        CFI ?RET_HIGH Frame(CFA_SP, 2)
        CFI ?RET_LOW Frame(CFA_SP, 1)
        CFI EndCommon cfiCommon0
        
osal_mem_alloc      SYMBOL "osal_mem_alloc"
osal_mem_free       SYMBOL "osal_mem_free"
HalTimerStart       SYMBOL "HalTimerStart"
HalTimerStop        SYMBOL "HalTimerStop"
HalTimerInterruptEnable SYMBOL "HalTimerInterruptEnable"
osal_set_event      SYMBOL "osal_set_event"
??HalTimerInterruptEnable?relay SYMBOL "?relay", HalTimerInterruptEnable
??HalTimerStart?relay SYMBOL "?relay", HalTimerStart
??HalTimerStop?relay SYMBOL "?relay", HalTimerStop
??osal_mem_alloc?relay SYMBOL "?relay", osal_mem_alloc
??osal_mem_free?relay SYMBOL "?relay", osal_mem_free
??osal_set_event?relay SYMBOL "?relay", osal_set_event
osalAddTimer        SYMBOL "osalAddTimer"
??osalAddTimer?relay SYMBOL "?relay", osalAddTimer
osalDeleteTimer     SYMBOL "osalDeleteTimer"
??osalDeleteTimer?relay SYMBOL "?relay", osalDeleteTimer
osalFindTimer       SYMBOL "osalFindTimer"
??osalFindTimer?relay SYMBOL "?relay", osalFindTimer
osalTimerInit       SYMBOL "osalTimerInit"
??osalTimerInit?relay SYMBOL "?relay", osalTimerInit
osal_GetSystemClock SYMBOL "osal_GetSystemClock"
??osal_GetSystemClock?relay SYMBOL "?relay", osal_GetSystemClock
osal_get_timeoutEx  SYMBOL "osal_get_timeoutEx"
??osal_get_timeoutEx?relay SYMBOL "?relay", osal_get_timeoutEx
osal_set_timer_interrupt SYMBOL "osal_set_timer_interrupt"
??osal_set_timer_interrupt?relay SYMBOL "?relay", osal_set_timer_interrupt
osal_start_timerEx  SYMBOL "osal_start_timerEx"
??osal_start_timerEx?relay SYMBOL "?relay", osal_start_timerEx
osal_stop_timerEx   SYMBOL "osal_stop_timerEx"
??osal_stop_timerEx?relay SYMBOL "?relay", osal_stop_timerEx
osal_timer_activate SYMBOL "osal_timer_activate"
??osal_timer_activate?relay SYMBOL "?relay", osal_timer_activate
osal_timer_hw_setup SYMBOL "osal_timer_hw_setup"
??osal_timer_hw_setup?relay SYMBOL "?relay", osal_timer_hw_setup
osal_timer_num_active SYMBOL "osal_timer_num_active"
??osal_timer_num_active?relay SYMBOL "?relay", osal_timer_num_active
osal_update_timers  SYMBOL "osal_update_timers"
??osal_update_timers?relay SYMBOL "?relay", osal_update_timers

        EXTERN osal_mem_alloc
        FUNCTION osal_mem_alloc,0202H
        ARGFRAME ISTACK, 0, STACK
        ARGFRAME PSTACK, 0, STACK
        ARGFRAME XSTACK, 18, STACK
        ARGFRAME IOVERLAY, 0, STATIC
        ARGFRAME DOVERLAY, 0, STATIC
        EXTERN osal_mem_free
        FUNCTION osal_mem_free,0202H
        ARGFRAME ISTACK, 0, STACK
        ARGFRAME PSTACK, 0, STACK
        ARGFRAME XSTACK, 19, STACK
        ARGFRAME IOVERLAY, 0, STATIC
        ARGFRAME DOVERLAY, 0, STATIC
        EXTERN HalTimerStart
        FUNCTION HalTimerStart,0202H
        ARGFRAME ISTACK, 0, STACK
        ARGFRAME PSTACK, 0, STACK
        ARGFRAME XSTACK, 12, STACK
        ARGFRAME IOVERLAY, 0, STATIC
        ARGFRAME DOVERLAY, 0, STATIC
        EXTERN HalTimerStop
        FUNCTION HalTimerStop,0202H
        ARGFRAME ISTACK, 0, STACK
        ARGFRAME PSTACK, 0, STACK
        ARGFRAME XSTACK, 12, STACK
        ARGFRAME IOVERLAY, 0, STATIC
        ARGFRAME DOVERLAY, 0, STATIC
        EXTERN HalTimerInterruptEnable
        FUNCTION HalTimerInterruptEnable,0202H
        ARGFRAME ISTACK, 0, STACK
        ARGFRAME PSTACK, 0, STACK
        ARGFRAME XSTACK, 9, STACK
        ARGFRAME IOVERLAY, 0, STATIC
        ARGFRAME DOVERLAY, 0, STATIC
        EXTERN osal_set_event
        FUNCTION osal_set_event,0202H
        ARGFRAME ISTACK, 0, STACK
        ARGFRAME PSTACK, 0, STACK
        ARGFRAME XSTACK, 19, STACK
        ARGFRAME IOVERLAY, 0, STATIC
        ARGFRAME DOVERLAY, 0, STATIC
        EXTERN ??HalTimerInterruptEnable?relay
        FUNCTION ??HalTimerInterruptEnable?relay,00H
        EXTERN ??HalTimerStart?relay
        FUNCTION ??HalTimerStart?relay,00H
        EXTERN ??HalTimerStop?relay
        FUNCTION ??HalTimerStop?relay,00H
        EXTERN ??osal_mem_alloc?relay
        FUNCTION ??osal_mem_alloc?relay,00H
        EXTERN ??osal_mem_free?relay
        FUNCTION ??osal_mem_free?relay,00H
        EXTERN ??osal_set_event?relay
        FUNCTION ??osal_set_event?relay,00H

// C:\Texas Instruments\ZStack-1.4.3-1.2.1\Components\osal\common\OSAL_Timers.c
//    1 /**************************************************************************************************
//    2   Filename:       OSAL_Timers.c
//    3   Revised:        $Date: 2007-10-28 18:43:04 -0700 (Sun, 28 Oct 2007) $
//    4   Revision:       $Revision: 15800 $
//    5 
//    6   Description:    OSAL Timer definition and manipulation functions.
//    7 
//    8 
//    9   Copyright 2004-2007 Texas Instruments Incorporated. All rights reserved.
//   10 
//   11   IMPORTANT: Your use of this Software is limited to those specific rights
//   12   granted under the terms of a software license agreement between the user
//   13   who downloaded the software, his/her employer (which must be your employer)
//   14   and Texas Instruments Incorporated (the "License").  You may not use this
//   15   Software unless you agree to abide by the terms of the License. The License
//   16   limits your use, and you acknowledge, that the Software may not be modified,
//   17   copied or distributed unless embedded on a Texas Instruments microcontroller
//   18   or used solely and exclusively in conjunction with a Texas Instruments radio
//   19   frequency transceiver, which is integrated into your product.  Other than for
//   20   the foregoing purpose, you may not use, reproduce, copy, prepare derivative
//   21   works of, modify, distribute, perform, display or sell this Software and/or
//   22   its documentation for any purpose.
//   23 
//   24   YOU FURTHER ACKNOWLEDGE AND AGREE THAT THE SOFTWARE AND DOCUMENTATION ARE
//   25   PROVIDED “AS IS” WITHOUT WARRANTY OF ANY KIND, EITHER EXPRESS OR IMPLIED, 
//   26   INCLUDING WITHOUT LIMITATION, ANY WARRANTY OF MERCHANTABILITY, TITLE, 
//   27   NON-INFRINGEMENT AND FITNESS FOR A PARTICULAR PURPOSE. IN NO EVENT SHALL
//   28   TEXAS INSTRUMENTS OR ITS LICENSORS BE LIABLE OR OBLIGATED UNDER CONTRACT,
//   29   NEGLIGENCE, STRICT LIABILITY, CONTRIBUTION, BREACH OF WARRANTY, OR OTHER
//   30   LEGAL EQUITABLE THEORY ANY DIRECT OR INDIRECT DAMAGES OR EXPENSES
//   31   INCLUDING BUT NOT LIMITED TO ANY INCIDENTAL, SPECIAL, INDIRECT, PUNITIVE
//   32   OR CONSEQUENTIAL DAMAGES, LOST PROFITS OR LOST DATA, COST OF PROCUREMENT
//   33   OF SUBSTITUTE GOODS, TECHNOLOGY, SERVICES, OR ANY CLAIMS BY THIRD PARTIES
//   34   (INCLUDING BUT NOT LIMITED TO ANY DEFENSE THEREOF), OR OTHER SIMILAR COSTS.
//   35 
//   36   Should you have any questions regarding your right to use this Software,
//   37   contact Texas Instruments Incorporated at www.TI.com. 
//   38 **************************************************************************************************/
//   39 
//   40 /*********************************************************************
//   41  * INCLUDES
//   42  */
//   43 
//   44 #include "ZComDef.h"
//   45 #include "OnBoard.h"

        ASEGN SFR_AN:DATA:NOROOT,0a8H
// union <unnamed> volatile __sfr _A_IEN0
_A_IEN0:
        DS 1
//   46 #include "OSAL.h"
//   47 #include "OSAL_Timers.h"
//   48 #include "hal_timer.h"
//   49 
//   50 /*********************************************************************
//   51  * MACROS
//   52  */
//   53 
//   54 /*********************************************************************
//   55  * CONSTANTS
//   56  */
//   57 
//   58 /*********************************************************************
//   59  * TYPEDEFS
//   60  */
//   61 
//   62 typedef struct
//   63 {
//   64   void *next;
//   65   UINT16 timeout;
//   66   UINT16 event_flag;
//   67   byte task_id;
//   68 } osalTimerRec_t;
//   69 
//   70 /*********************************************************************
//   71  * GLOBAL VARIABLES
//   72  */
//   73 

        RSEG XDATA_Z:XDATA:NOROOT(0)
//   74 osalTimerRec_t *timerHead;
timerHead:
        DS 2
        REQUIRE __INIT_XDATA_Z

        RSEG XDATA_Z:XDATA:NOROOT(0)
//   75 uint32 tmr_count;          // Amount of time per tick - in micro-sec
tmr_count:
        DS 4
        REQUIRE __INIT_XDATA_Z

        RSEG XDATA_Z:XDATA:NOROOT(0)
//   76 uint16 tmr_decr_time;      // Decr_Time for system timer
tmr_decr_time:
        DS 2
        REQUIRE __INIT_XDATA_Z

        RSEG XDATA_Z:XDATA:NOROOT(0)
//   77 byte timerActive;          // Flag if hw timer active
timerActive:
        DS 1
        REQUIRE __INIT_XDATA_Z
//   78 
//   79 /*********************************************************************
//   80  * EXTERNAL VARIABLES
//   81  */
//   82 
//   83 /*********************************************************************
//   84  * EXTERNAL FUNCTIONS
//   85  */
//   86 
//   87 /*********************************************************************
//   88  * LOCAL VARIABLES
//   89  */
//   90 // Milliseconds since last reboot

        RSEG XDATA_Z:XDATA:NOROOT(0)
//   91 static uint32 osal_systemClock;
osal_systemClock:
        DS 4
        REQUIRE __INIT_XDATA_Z
//   92 
//   93 /*********************************************************************
//   94  * LOCAL FUNCTION PROTOTYPES
//   95  */
//   96 osalTimerRec_t  *osalAddTimer( byte task_id, UINT16 event_flag, UINT16 timeout );
//   97 osalTimerRec_t *osalFindTimer( byte task_id, uint16 event_flag );
//   98 void osalDeleteTimer( osalTimerRec_t *rmTimer );
//   99 static void osalTimerUpdate( uint16 time );
//  100 
//  101 void osal_timer_activate( byte turn_on );
//  102 void osal_timer_hw_setup( byte turn_on );
//  103 void osal_set_timer_interrupt( byte turn_on );
//  104 void osal_retune_timers( void );
//  105 
//  106 /*********************************************************************
//  107  * FUNCTIONS
//  108  *********************************************************************/
//  109 
//  110 /*********************************************************************
//  111  * @fn      osalTimerInit
//  112  *
//  113  * @brief   Initialization for the OSAL Timer System.
//  114  *
//  115  * @param   none
//  116  *
//  117  * @return
//  118  */

        RSEG BANKED_CODE:CODE:NOROOT(0)
//  119 void osalTimerInit( void )
osalTimerInit:
        CFI Block cfiBlock0 Using cfiCommon0
        CFI Function osalTimerInit
//  120 {
        FUNCALL osalTimerInit, osal_timer_activate
        LOCFRAME ISTACK, 0, STACK
        LOCFRAME PSTACK, 0, STACK
        LOCFRAME XSTACK, 12, STACK
        LOCFRAME IOVERLAY, 0, STATIC
        LOCFRAME DOVERLAY, 0, STATIC
        ARGFRAME ISTACK, 0, STACK
        ARGFRAME PSTACK, 0, STACK
        ARGFRAME XSTACK, 12, STACK
        ARGFRAME IOVERLAY, 0, STATIC
        ARGFRAME DOVERLAY, 0, STATIC
        MOV     A,#-0xc
        LCALL   ?BANKED_ENTER_XDATA
        CFI DPH0 load(1, XDATA, add(CFA_XSP16, literal(-1)))
        CFI DPL0 load(1, XDATA, add(CFA_XSP16, literal(-2)))
        CFI ?BRET_EXT load(1, XDATA, add(CFA_XSP16, literal(-3)))
        CFI ?RET_HIGH load(1, XDATA, add(CFA_XSP16, literal(-4)))
        CFI ?RET_LOW load(1, XDATA, add(CFA_XSP16, literal(-5)))
        CFI R7 load(1, XDATA, add(CFA_XSP16, literal(-6)))
        CFI V3 load(1, XDATA, add(CFA_XSP16, literal(-7)))
        CFI V2 load(1, XDATA, add(CFA_XSP16, literal(-8)))
        CFI V1 load(1, XDATA, add(CFA_XSP16, literal(-9)))
        CFI V0 load(1, XDATA, add(CFA_XSP16, literal(-10)))
        CFI VB load(1, XDATA, add(CFA_XSP16, literal(-11)))
        CFI R6 load(1, XDATA, add(CFA_XSP16, literal(-12)))
        CFI CFA_SP SP+0
        CFI CFA_XSP16 add(XSP16, 12)
        ; Saved register size: 12
        ; Auto size: 0
//  121   // Initialize the rollover modulo
//  122   tmr_count = TICK_TIME;
        MOV     DPTR,#__Constant_3e8
        MOV     R0,#?V0 + 0
        LCALL   ?L_MOV_X
        MOV     DPTR,#tmr_count
        MOV     R0,#?V0 + 0
        LCALL   ?L_MOV_TO_X
//  123   tmr_decr_time = TIMER_DECR_TIME;
        MOV     DPTR,#tmr_decr_time
        MOV     A,#0x1
        MOVX    @DPTR,A
        INC     DPTR
        MOV     A,#0x0
        MOVX    @DPTR,A
//  124 
//  125   // Initialize the system timer
//  126   osal_timer_activate( false );
        ; Setup parameters for call to function osal_timer_activate
        MOV     R1,#0x0
        LCALL   ??osal_timer_activate?relay
//  127   timerActive = false;
        MOV     A,#0x0
        MOV     DPTR,#timerActive
        MOVX    @DPTR,A
//  128 
//  129   osal_systemClock = 0;
        MOV     DPTR,#__Constant_0
        MOV     R0,#?V0 + 0
        LCALL   ?L_MOV_X
        MOV     DPTR,#osal_systemClock
        MOV     R0,#?V0 + 0
        LCALL   ?L_MOV_TO_X
//  130 }
        MOV     R7,#0x4
        LJMP    ?BANKED_LEAVE_XDATA
        CFI EndBlock cfiBlock0
//  131 
//  132 /*********************************************************************
//  133  * @fn      osalAddTimer
//  134  *
//  135  * @brief   Add a timer to the timer list.
//  136  *          Ints must be disabled.
//  137  *
//  138  * @param   task_id
//  139  * @param   event_flag
//  140  * @param   timeout
//  141  *
//  142  * @return  osalTimerRec_t * - pointer to newly created timer
//  143  */

        RSEG BANKED_CODE:CODE:NOROOT(0)
//  144 osalTimerRec_t * osalAddTimer( byte task_id, UINT16 event_flag, UINT16 timeout )
osalAddTimer:
        CFI Block cfiBlock1 Using cfiCommon0
        CFI Function osalAddTimer
//  145 {
        FUNCALL osalAddTimer, osalFindTimer
        LOCFRAME ISTACK, 0, STACK
        LOCFRAME PSTACK, 0, STACK
        LOCFRAME XSTACK, 18, STACK
        LOCFRAME IOVERLAY, 0, STATIC
        LOCFRAME DOVERLAY, 0, STATIC
        ARGFRAME ISTACK, 0, STACK
        ARGFRAME PSTACK, 0, STACK
        ARGFRAME XSTACK, 18, STACK
        ARGFRAME IOVERLAY, 0, STATIC
        ARGFRAME DOVERLAY, 0, STATIC
        FUNCALL osalAddTimer, osal_mem_alloc
        LOCFRAME ISTACK, 0, STACK
        LOCFRAME PSTACK, 0, STACK
        LOCFRAME XSTACK, 18, STACK
        LOCFRAME IOVERLAY, 0, STATIC
        LOCFRAME DOVERLAY, 0, STATIC
        ARGFRAME ISTACK, 0, STACK
        ARGFRAME PSTACK, 0, STACK
        ARGFRAME XSTACK, 18, STACK
        ARGFRAME IOVERLAY, 0, STATIC
        ARGFRAME DOVERLAY, 0, STATIC
        MOV     A,#-0x10
        LCALL   ?BANKED_ENTER_XDATA
        CFI DPH0 load(1, XDATA, add(CFA_XSP16, literal(-1)))
        CFI DPL0 load(1, XDATA, add(CFA_XSP16, literal(-2)))
        CFI ?BRET_EXT load(1, XDATA, add(CFA_XSP16, literal(-3)))
        CFI ?RET_HIGH load(1, XDATA, add(CFA_XSP16, literal(-4)))
        CFI ?RET_LOW load(1, XDATA, add(CFA_XSP16, literal(-5)))
        CFI R7 load(1, XDATA, add(CFA_XSP16, literal(-6)))
        CFI V7 load(1, XDATA, add(CFA_XSP16, literal(-7)))
        CFI V6 load(1, XDATA, add(CFA_XSP16, literal(-8)))
        CFI V5 load(1, XDATA, add(CFA_XSP16, literal(-9)))
        CFI V4 load(1, XDATA, add(CFA_XSP16, literal(-10)))
        CFI V3 load(1, XDATA, add(CFA_XSP16, literal(-11)))
        CFI V2 load(1, XDATA, add(CFA_XSP16, literal(-12)))
        CFI V1 load(1, XDATA, add(CFA_XSP16, literal(-13)))
        CFI V0 load(1, XDATA, add(CFA_XSP16, literal(-14)))
        CFI VB load(1, XDATA, add(CFA_XSP16, literal(-15)))
        CFI R6 load(1, XDATA, add(CFA_XSP16, literal(-16)))
        CFI CFA_SP SP+0
        CFI CFA_XSP16 add(XSP16, 16)
        ; Saved register size: 16
        ; Auto size: 2
        MOV     A,#-0x2
        LCALL   ?ALLOC_XSTACK8
        CFI CFA_XSP16 add(XSP16, 18)
        MOV     DPL,?XSP + 0
        MOV     DPH,?XSP + 1
        MOV     A,R2
        MOVX    @DPTR,A
        INC     DPTR
        MOV     A,R3
        MOVX    @DPTR,A
        MOV     ?V0 + 2,R1
        MOV     ?V0 + 6,R4
        MOV     ?V0 + 7,R5
//  146   osalTimerRec_t *newTimer;
//  147   osalTimerRec_t *srchTimer;
//  148 
//  149   // Look for an existing timer first
//  150   newTimer = osalFindTimer( task_id, event_flag );
        ; Setup parameters for call to function osalFindTimer
        MOV     DPL,?XSP + 0
        MOV     DPH,?XSP + 1
        MOVX    A,@DPTR
        MOV     R2,A
        INC     DPTR
        MOVX    A,@DPTR
        MOV     R3,A
        MOV     R1,?V0 + 2
        LCALL   ??osalFindTimer?relay
        MOV     ?V0 + 4,R2
        MOV     ?V0 + 5,R3
        MOV     R6,?V0 + 4
        MOV     R7,?V0 + 5
//  151   if ( newTimer )
        MOV     A,R6
        XRL     A,#0x0
        JNZ     ??osalAddTimer_0
        MOV     A,R7
        XRL     A,#0x0
??osalAddTimer_0:
        JZ      ??osalAddTimer_1
//  152   {
//  153     // Timer is found - update it.
//  154     newTimer->timeout = timeout;
        MOV     DPL,R6
        MOV     DPH,R7
        INC     DPTR
        INC     DPTR
        MOV     A,?V0 + 6
        MOVX    @DPTR,A
        INC     DPTR
        MOV     A,?V0 + 7
        MOVX    @DPTR,A
//  155 
//  156     return ( newTimer );
        MOV     A,R6
        MOV     R2,A
        MOV     A,R7
        MOV     R3,A
        LJMP    ??osalAddTimer_2 & 0xFFFF
//  157   }
//  158   else
//  159   {
//  160     // New Timer
//  161     newTimer = osal_mem_alloc( sizeof( osalTimerRec_t ) );
??osalAddTimer_1:
        ; Setup parameters for call to function osal_mem_alloc
        MOV     R2,#0x7
        MOV     R3,#0x0
        LCALL   ??osal_mem_alloc?relay
        MOV     ?V0 + 4,R2
        MOV     ?V0 + 5,R3
        MOV     R6,?V0 + 4
        MOV     R7,?V0 + 5
//  162 
//  163     if ( newTimer )
        MOV     A,R6
        XRL     A,#0x0
        JNZ     ??osalAddTimer_3
        MOV     A,R7
        XRL     A,#0x0
??osalAddTimer_3:
        JNZ     $+5
        LJMP    ??osalAddTimer_4 & 0xFFFF
//  164     {
//  165       // Fill in new timer
//  166       newTimer->task_id = task_id;
        MOV     DPL,R6
        MOV     DPH,R7
        INC     DPTR
        INC     DPTR
        INC     DPTR
        INC     DPTR
        INC     DPTR
        INC     DPTR
        MOV     A,?V0 + 2
        MOVX    @DPTR,A
//  167       newTimer->event_flag = event_flag;
        MOV     DPL,?XSP + 0
        MOV     DPH,?XSP + 1
        MOVX    A,@DPTR
        MOV     R0,A
        INC     DPTR
        MOVX    A,@DPTR
        MOV     R1,A
        MOV     DPL,R6
        MOV     DPH,R7
        INC     DPTR
        INC     DPTR
        INC     DPTR
        INC     DPTR
        MOV     A,R0
        MOVX    @DPTR,A
        INC     DPTR
        MOV     A,R1
        MOVX    @DPTR,A
//  168       newTimer->timeout = timeout;
        MOV     DPL,R6
        MOV     DPH,R7
        INC     DPTR
        INC     DPTR
        MOV     A,?V0 + 6
        MOVX    @DPTR,A
        INC     DPTR
        MOV     A,?V0 + 7
        MOVX    @DPTR,A
//  169       newTimer->next = (void *)NULL;
        MOV     DPL,R6
        MOV     DPH,R7
        MOV     A,#0x0
        MOVX    @DPTR,A
        INC     DPTR
        MOV     A,#0x0
        MOVX    @DPTR,A
//  170 
//  171       // Does the timer list already exist
//  172       if ( timerHead == NULL )
        MOV     DPTR,#timerHead
        MOVX    A,@DPTR
        XRL     A,#0x0
        JNZ     ??osalAddTimer_5
        INC     DPTR
        MOVX    A,@DPTR
        XRL     A,#0x0
??osalAddTimer_5:
        JNZ     ??osalAddTimer_6
//  173       {
//  174         // Start task list
//  175         timerHead = newTimer;
        MOV     DPTR,#timerHead
        MOV     A,R6
        MOVX    @DPTR,A
        INC     DPTR
        MOV     A,R7
        MOVX    @DPTR,A
        SJMP    ??osalAddTimer_7
//  176       }
//  177       else
//  178       {
//  179         // Add it to the end of the timer list
//  180         srchTimer = timerHead;
??osalAddTimer_6:
        MOV     DPTR,#timerHead
        MOVX    A,@DPTR
        MOV     R0,A
        INC     DPTR
        MOVX    A,@DPTR
        MOV     R1,A
        MOV     ?V0 + 0,R0
        MOV     ?V0 + 1,R1
//  181 
//  182         // Stop at the last record
//  183         while ( srchTimer->next )
??osalAddTimer_8:
        MOV     DPL,?V0 + 0
        MOV     DPH,?V0 + 1
        MOVX    A,@DPTR
        XRL     A,#0x0
        JNZ     ??osalAddTimer_9
        INC     DPTR
        MOVX    A,@DPTR
        XRL     A,#0x0
??osalAddTimer_9:
        JZ      ??osalAddTimer_10
//  184           srchTimer = srchTimer->next;
        MOV     DPL,?V0 + 0
        MOV     DPH,?V0 + 1
        MOVX    A,@DPTR
        MOV     ?V0 + 0,A
        INC     DPTR
        MOVX    A,@DPTR
        MOV     ?V0 + 1,A
        SJMP    ??osalAddTimer_8
//  185 
//  186         // Add to the list
//  187         srchTimer->next = newTimer;
??osalAddTimer_10:
        MOV     DPL,?V0 + 0
        MOV     DPH,?V0 + 1
        MOV     A,R6
        MOVX    @DPTR,A
        INC     DPTR
        MOV     A,R7
        MOVX    @DPTR,A
//  188       }
//  189 
//  190       return ( newTimer );
??osalAddTimer_7:
        MOV     A,R6
        MOV     R2,A
        MOV     A,R7
        MOV     R3,A
        SJMP    ??osalAddTimer_2
//  191     }
//  192     else
//  193       return ( (osalTimerRec_t *)NULL );
??osalAddTimer_4:
        MOV     R2,#0x0
        MOV     R3,#0x0
??osalAddTimer_2:
        MOV     A,#0x2
        LCALL   ?DEALLOC_XSTACK8
        CFI CFA_XSP16 add(XSP16, 16)
        MOV     R7,#0x8
        LJMP    ?BANKED_LEAVE_XDATA
        CFI EndBlock cfiBlock1
//  194   }
//  195 }
//  196 
//  197 /*********************************************************************
//  198  * @fn      osalFindTimer
//  199  *
//  200  * @brief   Find a timer in a timer list.
//  201  *          Ints must be disabled.
//  202  *
//  203  * @param   task_id
//  204  * @param   event_flag
//  205  *
//  206  * @return  osalTimerRec_t *
//  207  */

        RSEG BANKED_CODE:CODE:NOROOT(0)
//  208 osalTimerRec_t *osalFindTimer( byte task_id, uint16 event_flag )
osalFindTimer:
        CFI Block cfiBlock2 Using cfiCommon0
        CFI Function osalFindTimer
//  209 {
        MOV     A,#-0x9
        LCALL   ?BANKED_ENTER_XDATA
        CFI DPH0 load(1, XDATA, add(CFA_XSP16, literal(-1)))
        CFI DPL0 load(1, XDATA, add(CFA_XSP16, literal(-2)))
        CFI ?BRET_EXT load(1, XDATA, add(CFA_XSP16, literal(-3)))
        CFI ?RET_HIGH load(1, XDATA, add(CFA_XSP16, literal(-4)))
        CFI ?RET_LOW load(1, XDATA, add(CFA_XSP16, literal(-5)))
        CFI R7 load(1, XDATA, add(CFA_XSP16, literal(-6)))
        CFI V0 load(1, XDATA, add(CFA_XSP16, literal(-7)))
        CFI VB load(1, XDATA, add(CFA_XSP16, literal(-8)))
        CFI R6 load(1, XDATA, add(CFA_XSP16, literal(-9)))
        CFI CFA_SP SP+0
        CFI CFA_XSP16 add(XSP16, 9)
        ; Saved register size: 9
        ; Auto size: 0
        MOV     A,R1
        MOV     R4,A
        MOV     A,R2
        MOV     R6,A
        MOV     A,R3
        MOV     R7,A
//  210   osalTimerRec_t *srchTimer;
//  211 
//  212   // Head of the timer list
//  213   srchTimer = timerHead;
        MOV     DPTR,#timerHead
        MOVX    A,@DPTR
        MOV     R0,A
        INC     DPTR
        MOVX    A,@DPTR
        MOV     R1,A
        MOV     A,R0
        MOV     R2,A
        MOV     A,R1
        MOV     R3,A
//  214 
//  215   // Stop when found or at the end
//  216   while ( srchTimer )
??osalFindTimer_0:
        MOV     A,R2
        XRL     A,#0x0
        JNZ     ??osalFindTimer_1
        MOV     A,R3
        XRL     A,#0x0
??osalFindTimer_1:
        JZ      ??osalFindTimer_2
//  217   {
//  218     if ( srchTimer->event_flag == event_flag &&
//  219          srchTimer->task_id == task_id )
        MOV     DPL,R2
        MOV     DPH,R3
        INC     DPTR
        INC     DPTR
        INC     DPTR
        INC     DPTR
        MOVX    A,@DPTR
        XRL     A,R6
        JNZ     ??osalFindTimer_3
        INC     DPTR
        MOVX    A,@DPTR
        XRL     A,R7
??osalFindTimer_3:
        JNZ     ??osalFindTimer_4
        MOV     DPL,R2
        MOV     DPH,R3
        INC     DPTR
        INC     DPTR
        INC     DPTR
        INC     DPTR
        INC     DPTR
        INC     DPTR
        MOVX    A,@DPTR
        XRL     A,R4
        JZ      ??osalFindTimer_2
//  220       break;
//  221 
//  222     // Not this one, check another
//  223     srchTimer = srchTimer->next;
??osalFindTimer_4:
        MOV     DPL,R2
        MOV     DPH,R3
        MOVX    A,@DPTR
        MOV     R2,A
        INC     DPTR
        MOVX    A,@DPTR
        MOV     R3,A
        SJMP    ??osalFindTimer_0
//  224   }
//  225 
//  226   return ( srchTimer );
??osalFindTimer_2:
        MOV     R7,#0x1
        LJMP    ?BANKED_LEAVE_XDATA
        CFI EndBlock cfiBlock2
//  227 }
//  228 
//  229 /*********************************************************************
//  230  * @fn      osalDeleteTimer
//  231  *
//  232  * @brief   Delete a timer from a timer list.
//  233  *          Ints must be disabled.
//  234  *
//  235  * @param   table
//  236  * @param   rmTimer
//  237  *
//  238  * @return  none
//  239  */

        RSEG BANKED_CODE:CODE:NOROOT(0)
//  240 void osalDeleteTimer( osalTimerRec_t *rmTimer )
osalDeleteTimer:
        CFI Block cfiBlock3 Using cfiCommon0
        CFI Function osalDeleteTimer
//  241 {
        FUNCALL osalDeleteTimer, osal_mem_free
        LOCFRAME ISTACK, 0, STACK
        LOCFRAME PSTACK, 0, STACK
        LOCFRAME XSTACK, 10, STACK
        LOCFRAME IOVERLAY, 0, STATIC
        LOCFRAME DOVERLAY, 0, STATIC
        ARGFRAME ISTACK, 0, STACK
        ARGFRAME PSTACK, 0, STACK
        ARGFRAME XSTACK, 10, STACK
        ARGFRAME IOVERLAY, 0, STATIC
        ARGFRAME DOVERLAY, 0, STATIC
        FUNCALL osalDeleteTimer, osal_mem_free
        LOCFRAME ISTACK, 0, STACK
        LOCFRAME PSTACK, 0, STACK
        LOCFRAME XSTACK, 10, STACK
        LOCFRAME IOVERLAY, 0, STATIC
        LOCFRAME DOVERLAY, 0, STATIC
        ARGFRAME ISTACK, 0, STACK
        ARGFRAME PSTACK, 0, STACK
        ARGFRAME XSTACK, 10, STACK
        ARGFRAME IOVERLAY, 0, STATIC
        ARGFRAME DOVERLAY, 0, STATIC
        MOV     A,#-0xa
        LCALL   ?BANKED_ENTER_XDATA
        CFI DPH0 load(1, XDATA, add(CFA_XSP16, literal(-1)))
        CFI DPL0 load(1, XDATA, add(CFA_XSP16, literal(-2)))
        CFI ?BRET_EXT load(1, XDATA, add(CFA_XSP16, literal(-3)))
        CFI ?RET_HIGH load(1, XDATA, add(CFA_XSP16, literal(-4)))
        CFI ?RET_LOW load(1, XDATA, add(CFA_XSP16, literal(-5)))
        CFI R7 load(1, XDATA, add(CFA_XSP16, literal(-6)))
        CFI V1 load(1, XDATA, add(CFA_XSP16, literal(-7)))
        CFI V0 load(1, XDATA, add(CFA_XSP16, literal(-8)))
        CFI VB load(1, XDATA, add(CFA_XSP16, literal(-9)))
        CFI R6 load(1, XDATA, add(CFA_XSP16, literal(-10)))
        CFI CFA_SP SP+0
        CFI CFA_XSP16 add(XSP16, 10)
        ; Saved register size: 10
        ; Auto size: 0
        MOV     A,R2
        MOV     R6,A
        MOV     A,R3
        MOV     R7,A
//  242   osalTimerRec_t *srchTimer;
//  243 
//  244   // Does the timer list really exist
//  245   if ( (timerHead != NULL) && rmTimer )
        MOV     DPTR,#timerHead
        MOVX    A,@DPTR
        XRL     A,#0x0
        JNZ     ??osalDeleteTimer_0
        INC     DPTR
        MOVX    A,@DPTR
        XRL     A,#0x0
??osalDeleteTimer_0:
        JNZ     $+5
        LJMP    ??osalDeleteTimer_1 & 0xFFFF
        MOV     A,R6
        XRL     A,#0x0
        JNZ     ??osalDeleteTimer_2
        MOV     A,R7
        XRL     A,#0x0
??osalDeleteTimer_2:
        JNZ     $+5
        LJMP    ??osalDeleteTimer_1 & 0xFFFF
//  246   {
//  247     // Add it to the end of the timer list
//  248     srchTimer = timerHead;
        MOV     DPTR,#timerHead
        MOVX    A,@DPTR
        MOV     R0,A
        INC     DPTR
        MOVX    A,@DPTR
        MOV     R1,A
        MOV     ?V0 + 0,R0
        MOV     ?V0 + 1,R1
//  249 
//  250     // First element?
//  251     if ( srchTimer == rmTimer )
        MOV     A,R6
        XRL     A,?V0 + 0
        JNZ     ??osalDeleteTimer_3
        MOV     A,R7
        XRL     A,?V0 + 1
??osalDeleteTimer_3:
        JNZ     ??osalDeleteTimer_4
//  252     {
//  253       timerHead = rmTimer->next;
        MOV     DPL,R6
        MOV     DPH,R7
        MOVX    A,@DPTR
        MOV     R0,A
        INC     DPTR
        MOVX    A,@DPTR
        MOV     R1,A
        MOV     DPTR,#timerHead
        MOV     A,R0
        MOVX    @DPTR,A
        INC     DPTR
        MOV     A,R1
        MOVX    @DPTR,A
//  254       osal_mem_free( rmTimer );
        ; Setup parameters for call to function osal_mem_free
        MOV     A,R6
        MOV     R2,A
        MOV     A,R7
        MOV     R3,A
        LCALL   ??osal_mem_free?relay
        SJMP    ??osalDeleteTimer_1
//  255     }
//  256     else
//  257     {
//  258       // Stop when found or at the end
//  259       while ( srchTimer->next && srchTimer->next != rmTimer )
??osalDeleteTimer_4:
        MOV     DPL,?V0 + 0
        MOV     DPH,?V0 + 1
        MOVX    A,@DPTR
        XRL     A,#0x0
        JNZ     ??osalDeleteTimer_5
        INC     DPTR
        MOVX    A,@DPTR
        XRL     A,#0x0
??osalDeleteTimer_5:
        JZ      ??osalDeleteTimer_6
        MOV     DPL,?V0 + 0
        MOV     DPH,?V0 + 1
        MOVX    A,@DPTR
        MOV     R0,A
        INC     DPTR
        MOVX    A,@DPTR
        MOV     R1,A
        MOV     A,R6
        XRL     A,R0
        JNZ     ??osalDeleteTimer_7
        MOV     A,R7
        XRL     A,R1
??osalDeleteTimer_7:
        JZ      ??osalDeleteTimer_6
//  260         srchTimer = srchTimer->next;
        MOV     DPL,?V0 + 0
        MOV     DPH,?V0 + 1
        MOVX    A,@DPTR
        MOV     ?V0 + 0,A
        INC     DPTR
        MOVX    A,@DPTR
        MOV     ?V0 + 1,A
        SJMP    ??osalDeleteTimer_4
//  261 
//  262       // Found?
//  263       if ( srchTimer->next == rmTimer )
??osalDeleteTimer_6:
        MOV     DPL,?V0 + 0
        MOV     DPH,?V0 + 1
        MOVX    A,@DPTR
        MOV     R0,A
        INC     DPTR
        MOVX    A,@DPTR
        MOV     R1,A
        MOV     A,R6
        XRL     A,R0
        JNZ     ??osalDeleteTimer_8
        MOV     A,R7
        XRL     A,R1
??osalDeleteTimer_8:
        JNZ     ??osalDeleteTimer_1
//  264       {
//  265         // Fix pointers
//  266         srchTimer->next = rmTimer->next;
        MOV     DPL,R6
        MOV     DPH,R7
        MOVX    A,@DPTR
        MOV     R0,A
        INC     DPTR
        MOVX    A,@DPTR
        MOV     R1,A
        MOV     DPL,?V0 + 0
        MOV     DPH,?V0 + 1
        MOV     A,R0
        MOVX    @DPTR,A
        INC     DPTR
        MOV     A,R1
        MOVX    @DPTR,A
//  267 
//  268         // Deallocate the timer struct memory
//  269         osal_mem_free( rmTimer );
        ; Setup parameters for call to function osal_mem_free
        MOV     A,R6
        MOV     R2,A
        MOV     A,R7
        MOV     R3,A
        LCALL   ??osal_mem_free?relay
//  270       }
//  271     }
//  272   }
//  273 }
??osalDeleteTimer_1:
        MOV     R7,#0x2
        LJMP    ?BANKED_LEAVE_XDATA
        CFI EndBlock cfiBlock3
//  274 
//  275 /*********************************************************************
//  276  * @fn      osal_start_timerEx
//  277  *
//  278  * @brief
//  279  *
//  280  *   This function is called to start a timer to expire in n mSecs.
//  281  *   When the timer expires, the calling task will get the specified event.
//  282  *
//  283  * @param   byte taskID - task id to set timer for
//  284  * @param   UINT16 event_id - event to be notified with
//  285  * @param   UNINT16 timeout_value - in milliseconds.
//  286  *
//  287  * @return  ZSUCCESS, or NO_TIMER_AVAIL.
//  288  */

        RSEG BANKED_CODE:CODE:NOROOT(0)
//  289 byte osal_start_timerEx( byte taskID, UINT16 event_id, UINT16 timeout_value )
osal_start_timerEx:
        CFI Block cfiBlock4 Using cfiCommon0
        CFI Function osal_start_timerEx
//  290 {
        FUNCALL osal_start_timerEx, osalAddTimer
        LOCFRAME ISTACK, 0, STACK
        LOCFRAME PSTACK, 0, STACK
        LOCFRAME XSTACK, 16, STACK
        LOCFRAME IOVERLAY, 0, STATIC
        LOCFRAME DOVERLAY, 0, STATIC
        ARGFRAME ISTACK, 0, STACK
        ARGFRAME PSTACK, 0, STACK
        ARGFRAME XSTACK, 16, STACK
        ARGFRAME IOVERLAY, 0, STATIC
        ARGFRAME DOVERLAY, 0, STATIC
        FUNCALL osal_start_timerEx, osal_timer_activate
        LOCFRAME ISTACK, 0, STACK
        LOCFRAME PSTACK, 0, STACK
        LOCFRAME XSTACK, 16, STACK
        LOCFRAME IOVERLAY, 0, STATIC
        LOCFRAME DOVERLAY, 0, STATIC
        ARGFRAME ISTACK, 0, STACK
        ARGFRAME PSTACK, 0, STACK
        ARGFRAME XSTACK, 16, STACK
        ARGFRAME IOVERLAY, 0, STATIC
        ARGFRAME DOVERLAY, 0, STATIC
        MOV     A,#-0x10
        LCALL   ?BANKED_ENTER_XDATA
        CFI DPH0 load(1, XDATA, add(CFA_XSP16, literal(-1)))
        CFI DPL0 load(1, XDATA, add(CFA_XSP16, literal(-2)))
        CFI ?BRET_EXT load(1, XDATA, add(CFA_XSP16, literal(-3)))
        CFI ?RET_HIGH load(1, XDATA, add(CFA_XSP16, literal(-4)))
        CFI ?RET_LOW load(1, XDATA, add(CFA_XSP16, literal(-5)))
        CFI R7 load(1, XDATA, add(CFA_XSP16, literal(-6)))
        CFI V7 load(1, XDATA, add(CFA_XSP16, literal(-7)))
        CFI V6 load(1, XDATA, add(CFA_XSP16, literal(-8)))
        CFI V5 load(1, XDATA, add(CFA_XSP16, literal(-9)))
        CFI V4 load(1, XDATA, add(CFA_XSP16, literal(-10)))
        CFI V3 load(1, XDATA, add(CFA_XSP16, literal(-11)))
        CFI V2 load(1, XDATA, add(CFA_XSP16, literal(-12)))
        CFI V1 load(1, XDATA, add(CFA_XSP16, literal(-13)))
        CFI V0 load(1, XDATA, add(CFA_XSP16, literal(-14)))
        CFI VB load(1, XDATA, add(CFA_XSP16, literal(-15)))
        CFI R6 load(1, XDATA, add(CFA_XSP16, literal(-16)))
        CFI CFA_SP SP+0
        CFI CFA_XSP16 add(XSP16, 16)
        ; Saved register size: 16
        ; Auto size: 0
        MOV     A,R1
        MOV     R7,A
        MOV     ?V0 + 4,R2
        MOV     ?V0 + 5,R3
        MOV     ?V0 + 6,R4
        MOV     ?V0 + 7,R5
//  291   halIntState_t intState;
//  292   osalTimerRec_t *newTimer;
//  293 
//  294   HAL_ENTER_CRITICAL_SECTION( intState );  // Hold off interrupts.
        MOV     C,0xa8.7
        CLR     A
        MOV     0xE0 /* A   */.0,C
        MOV     R6,A
        CLR     0xa8.7
//  295 
//  296   // Add timer
//  297   newTimer = osalAddTimer( taskID, event_id, timeout_value );
        ; Setup parameters for call to function osalAddTimer
        MOV     R4,?V0 + 6
        MOV     R5,?V0 + 7
        MOV     R2,?V0 + 4
        MOV     R3,?V0 + 5
        MOV     A,R7
        MOV     R1,A
        LCALL   ??osalAddTimer?relay
        MOV     ?V0 + 2,R2
        MOV     ?V0 + 3,R3
        MOV     ?V0 + 0,?V0 + 2
        MOV     ?V0 + 1,?V0 + 3
//  298   if ( newTimer )
        MOV     A,?V0 + 0
        XRL     A,#0x0
        JNZ     ??osal_start_timerEx_0
        MOV     A,?V0 + 1
        XRL     A,#0x0
??osal_start_timerEx_0:
        JZ      ??osal_start_timerEx_1
//  299   {
//  300 #ifdef POWER_SAVING
//  301     // Update timer registers
//  302     osal_retune_timers();
//  303     (void)timerActive;
//  304 #endif
//  305     // Does the timer need to be started?
//  306     if ( timerActive == FALSE )
        MOV     DPTR,#timerActive
        MOVX    A,@DPTR
        JNZ     ??osal_start_timerEx_1
//  307     {
//  308       osal_timer_activate( TRUE );
        ; Setup parameters for call to function osal_timer_activate
        MOV     R1,#0x1
        LCALL   ??osal_timer_activate?relay
//  309     }
//  310   }
//  311 
//  312   HAL_EXIT_CRITICAL_SECTION( intState );   // Re-enable interrupts.
??osal_start_timerEx_1:
        MOV     A,R6
        MOV     C,0xE0 /* A   */.0
        MOV     0xa8.7,C
//  313 
//  314   return ( (newTimer != NULL) ? ZSUCCESS : NO_TIMER_AVAIL );
        MOV     A,?V0 + 0
        XRL     A,#0x0
        JNZ     ??osal_start_timerEx_2
        MOV     A,?V0 + 1
        XRL     A,#0x0
??osal_start_timerEx_2:
        JZ      ??osal_start_timerEx_3
        MOV     R1,#0x0
        SJMP    ??osal_start_timerEx_4
??osal_start_timerEx_3:
        MOV     R1,#0xc
??osal_start_timerEx_4:
        MOV     R7,#0x8
        LJMP    ?BANKED_LEAVE_XDATA
        CFI EndBlock cfiBlock4
        REQUIRE _A_IEN0
//  315 }
//  316 
//  317 /*********************************************************************
//  318  * @fn      osal_stop_timerEx
//  319  *
//  320  * @brief
//  321  *
//  322  *   This function is called to stop a timer that has already been started.
//  323  *   If ZSUCCESS, the function will cancel the timer and prevent the event
//  324  *   associated with the timer from being set for the calling task.
//  325  *
//  326  * @param   byte task_id - task id of timer to stop
//  327  * @param   UINT16 event_id - identifier of the timer that is to be stopped
//  328  *
//  329  * @return  ZSUCCESS or INVALID_EVENT_ID
//  330  */

        RSEG BANKED_CODE:CODE:NOROOT(0)
//  331 byte osal_stop_timerEx( byte task_id, UINT16 event_id )
osal_stop_timerEx:
        CFI Block cfiBlock5 Using cfiCommon0
        CFI Function osal_stop_timerEx
//  332 {
        FUNCALL osal_stop_timerEx, osalFindTimer
        LOCFRAME ISTACK, 0, STACK
        LOCFRAME PSTACK, 0, STACK
        LOCFRAME XSTACK, 14, STACK
        LOCFRAME IOVERLAY, 0, STATIC
        LOCFRAME DOVERLAY, 0, STATIC
        ARGFRAME ISTACK, 0, STACK
        ARGFRAME PSTACK, 0, STACK
        ARGFRAME XSTACK, 14, STACK
        ARGFRAME IOVERLAY, 0, STATIC
        ARGFRAME DOVERLAY, 0, STATIC
        FUNCALL osal_stop_timerEx, osalDeleteTimer
        LOCFRAME ISTACK, 0, STACK
        LOCFRAME PSTACK, 0, STACK
        LOCFRAME XSTACK, 14, STACK
        LOCFRAME IOVERLAY, 0, STATIC
        LOCFRAME DOVERLAY, 0, STATIC
        ARGFRAME ISTACK, 0, STACK
        ARGFRAME PSTACK, 0, STACK
        ARGFRAME XSTACK, 14, STACK
        ARGFRAME IOVERLAY, 0, STATIC
        ARGFRAME DOVERLAY, 0, STATIC
        MOV     A,#-0xe
        LCALL   ?BANKED_ENTER_XDATA
        CFI DPH0 load(1, XDATA, add(CFA_XSP16, literal(-1)))
        CFI DPL0 load(1, XDATA, add(CFA_XSP16, literal(-2)))
        CFI ?BRET_EXT load(1, XDATA, add(CFA_XSP16, literal(-3)))
        CFI ?RET_HIGH load(1, XDATA, add(CFA_XSP16, literal(-4)))
        CFI ?RET_LOW load(1, XDATA, add(CFA_XSP16, literal(-5)))
        CFI R7 load(1, XDATA, add(CFA_XSP16, literal(-6)))
        CFI V5 load(1, XDATA, add(CFA_XSP16, literal(-7)))
        CFI V4 load(1, XDATA, add(CFA_XSP16, literal(-8)))
        CFI V3 load(1, XDATA, add(CFA_XSP16, literal(-9)))
        CFI V2 load(1, XDATA, add(CFA_XSP16, literal(-10)))
        CFI V1 load(1, XDATA, add(CFA_XSP16, literal(-11)))
        CFI V0 load(1, XDATA, add(CFA_XSP16, literal(-12)))
        CFI VB load(1, XDATA, add(CFA_XSP16, literal(-13)))
        CFI R6 load(1, XDATA, add(CFA_XSP16, literal(-14)))
        CFI CFA_SP SP+0
        CFI CFA_XSP16 add(XSP16, 14)
        ; Saved register size: 14
        ; Auto size: 0
        MOV     ?V0 + 3,R1
        MOV     ?V0 + 0,R2
        MOV     ?V0 + 1,R3
//  333   halIntState_t intState;
//  334   osalTimerRec_t *foundTimer;
//  335 
//  336   HAL_ENTER_CRITICAL_SECTION( intState );  // Hold off interrupts.
        MOV     C,0xa8.7
        CLR     A
        MOV     0xE0 /* A   */.0,C
        MOV     ?V0 + 2,A
        CLR     0xa8.7
//  337 
//  338   // Find the timer to stop
//  339   foundTimer = osalFindTimer( task_id, event_id );
        ; Setup parameters for call to function osalFindTimer
        MOV     R2,?V0 + 0
        MOV     R3,?V0 + 1
        MOV     R1,?V0 + 3
        LCALL   ??osalFindTimer?relay
        MOV     ?V0 + 4,R2
        MOV     ?V0 + 5,R3
        MOV     R6,?V0 + 4
        MOV     R7,?V0 + 5
//  340   if ( foundTimer )
        MOV     A,R6
        XRL     A,#0x0
        JNZ     ??osal_stop_timerEx_0
        MOV     A,R7
        XRL     A,#0x0
??osal_stop_timerEx_0:
        JZ      ??osal_stop_timerEx_1
//  341   {
//  342     osalDeleteTimer( foundTimer );
        ; Setup parameters for call to function osalDeleteTimer
        MOV     A,R6
        MOV     R2,A
        MOV     A,R7
        MOV     R3,A
        LCALL   ??osalDeleteTimer?relay
//  343 
//  344 #ifdef POWER_SAVING
//  345     osal_retune_timers();
//  346 #endif
//  347   }
//  348 
//  349   HAL_EXIT_CRITICAL_SECTION( intState );   // Re-enable interrupts.
??osal_stop_timerEx_1:
        MOV     A,?V0 + 2
        MOV     C,0xE0 /* A   */.0
        MOV     0xa8.7,C
//  350 
//  351   return ( (foundTimer != NULL) ? ZSUCCESS : INVALID_EVENT_ID );
        MOV     A,R6
        XRL     A,#0x0
        JNZ     ??osal_stop_timerEx_2
        MOV     A,R7
        XRL     A,#0x0
??osal_stop_timerEx_2:
        JZ      ??osal_stop_timerEx_3
        MOV     R1,#0x0
        SJMP    ??osal_stop_timerEx_4
??osal_stop_timerEx_3:
        MOV     R1,#0x7
??osal_stop_timerEx_4:
        MOV     R7,#0x6
        LJMP    ?BANKED_LEAVE_XDATA
        CFI EndBlock cfiBlock5
        REQUIRE _A_IEN0
//  352 }
//  353 
//  354 /*********************************************************************
//  355  * @fn      osal_get_timeoutEx
//  356  *
//  357  * @brief
//  358  *
//  359  * @param   byte task_id - task id of timer to check
//  360  * @param   UINT16 event_id - identifier of timer to be checked
//  361  *
//  362  * @return  Return the timer's tick count if found, zero otherwise.
//  363  */

        RSEG BANKED_CODE:CODE:NOROOT(0)
//  364 UINT16 osal_get_timeoutEx( byte task_id, UINT16 event_id )
osal_get_timeoutEx:
        CFI Block cfiBlock6 Using cfiCommon0
        CFI Function osal_get_timeoutEx
//  365 {
        FUNCALL osal_get_timeoutEx, osalFindTimer
        LOCFRAME ISTACK, 0, STACK
        LOCFRAME PSTACK, 0, STACK
        LOCFRAME XSTACK, 16, STACK
        LOCFRAME IOVERLAY, 0, STATIC
        LOCFRAME DOVERLAY, 0, STATIC
        ARGFRAME ISTACK, 0, STACK
        ARGFRAME PSTACK, 0, STACK
        ARGFRAME XSTACK, 16, STACK
        ARGFRAME IOVERLAY, 0, STATIC
        ARGFRAME DOVERLAY, 0, STATIC
        MOV     A,#-0x10
        LCALL   ?BANKED_ENTER_XDATA
        CFI DPH0 load(1, XDATA, add(CFA_XSP16, literal(-1)))
        CFI DPL0 load(1, XDATA, add(CFA_XSP16, literal(-2)))
        CFI ?BRET_EXT load(1, XDATA, add(CFA_XSP16, literal(-3)))
        CFI ?RET_HIGH load(1, XDATA, add(CFA_XSP16, literal(-4)))
        CFI ?RET_LOW load(1, XDATA, add(CFA_XSP16, literal(-5)))
        CFI R7 load(1, XDATA, add(CFA_XSP16, literal(-6)))
        CFI V7 load(1, XDATA, add(CFA_XSP16, literal(-7)))
        CFI V6 load(1, XDATA, add(CFA_XSP16, literal(-8)))
        CFI V5 load(1, XDATA, add(CFA_XSP16, literal(-9)))
        CFI V4 load(1, XDATA, add(CFA_XSP16, literal(-10)))
        CFI V3 load(1, XDATA, add(CFA_XSP16, literal(-11)))
        CFI V2 load(1, XDATA, add(CFA_XSP16, literal(-12)))
        CFI V1 load(1, XDATA, add(CFA_XSP16, literal(-13)))
        CFI V0 load(1, XDATA, add(CFA_XSP16, literal(-14)))
        CFI VB load(1, XDATA, add(CFA_XSP16, literal(-15)))
        CFI R6 load(1, XDATA, add(CFA_XSP16, literal(-16)))
        CFI CFA_SP SP+0
        CFI CFA_XSP16 add(XSP16, 16)
        ; Saved register size: 16
        ; Auto size: 0
        MOV     ?V0 + 3,R1
        MOV     ?V0 + 6,R2
        MOV     ?V0 + 7,R3
//  366   halIntState_t intState;
//  367   uint16 rtrn = 0;
        MOV     R6,#0x0
        MOV     R7,#0x0
//  368   osalTimerRec_t *tmr;
//  369 
//  370   HAL_ENTER_CRITICAL_SECTION( intState );  // Hold off interrupts.
        MOV     C,0xa8.7
        CLR     A
        MOV     0xE0 /* A   */.0,C
        MOV     ?V0 + 2,A
        CLR     0xa8.7
//  371 
//  372   tmr = osalFindTimer( task_id, event_id );
        ; Setup parameters for call to function osalFindTimer
        MOV     R2,?V0 + 6
        MOV     R3,?V0 + 7
        MOV     R1,?V0 + 3
        LCALL   ??osalFindTimer?relay
        MOV     ?V0 + 4,R2
        MOV     ?V0 + 5,R3
        MOV     ?V0 + 0,?V0 + 4
        MOV     ?V0 + 1,?V0 + 5
//  373 
//  374   if ( tmr )
        MOV     A,?V0 + 0
        XRL     A,#0x0
        JNZ     ??osal_get_timeoutEx_0
        MOV     A,?V0 + 1
        XRL     A,#0x0
??osal_get_timeoutEx_0:
        JZ      ??osal_get_timeoutEx_1
//  375   {
//  376     rtrn = tmr->timeout;
        MOV     DPL,?V0 + 0
        MOV     DPH,?V0 + 1
        INC     DPTR
        INC     DPTR
        MOVX    A,@DPTR
        MOV     R6,A
        INC     DPTR
        MOVX    A,@DPTR
        MOV     R7,A
//  377   }
//  378 
//  379   HAL_EXIT_CRITICAL_SECTION( intState );   // Re-enable interrupts.
??osal_get_timeoutEx_1:
        MOV     A,?V0 + 2
        MOV     C,0xE0 /* A   */.0
        MOV     0xa8.7,C
//  380 
//  381   return rtrn;
        MOV     A,R6
        MOV     R2,A
        MOV     A,R7
        MOV     R3,A
        MOV     R7,#0x8
        LJMP    ?BANKED_LEAVE_XDATA
        CFI EndBlock cfiBlock6
        REQUIRE _A_IEN0
//  382 }
//  383 
//  384 /*********************************************************************
//  385  * @fn      osal_timer_activate
//  386  *
//  387  * @brief
//  388  *
//  389  *   Turns the hardware timer on or off
//  390  *
//  391  * @param  byte turn_on - false - turn off, true - turn on
//  392  *
//  393  * @return  none
//  394  */

        RSEG BANKED_CODE:CODE:NOROOT(0)
//  395 void osal_timer_activate( byte turn_on )
osal_timer_activate:
        CFI Block cfiBlock7 Using cfiCommon0
        CFI Function osal_timer_activate
//  396 {
        FUNCALL osal_timer_activate, osal_timer_hw_setup
        LOCFRAME ISTACK, 0, STACK
        LOCFRAME PSTACK, 0, STACK
        LOCFRAME XSTACK, 9, STACK
        LOCFRAME IOVERLAY, 0, STATIC
        LOCFRAME DOVERLAY, 0, STATIC
        ARGFRAME ISTACK, 0, STACK
        ARGFRAME PSTACK, 0, STACK
        ARGFRAME XSTACK, 9, STACK
        ARGFRAME IOVERLAY, 0, STATIC
        ARGFRAME DOVERLAY, 0, STATIC
        MOV     A,#-0x9
        LCALL   ?BANKED_ENTER_XDATA
        CFI DPH0 load(1, XDATA, add(CFA_XSP16, literal(-1)))
        CFI DPL0 load(1, XDATA, add(CFA_XSP16, literal(-2)))
        CFI ?BRET_EXT load(1, XDATA, add(CFA_XSP16, literal(-3)))
        CFI ?RET_HIGH load(1, XDATA, add(CFA_XSP16, literal(-4)))
        CFI ?RET_LOW load(1, XDATA, add(CFA_XSP16, literal(-5)))
        CFI R7 load(1, XDATA, add(CFA_XSP16, literal(-6)))
        CFI V0 load(1, XDATA, add(CFA_XSP16, literal(-7)))
        CFI VB load(1, XDATA, add(CFA_XSP16, literal(-8)))
        CFI R6 load(1, XDATA, add(CFA_XSP16, literal(-9)))
        CFI CFA_SP SP+0
        CFI CFA_XSP16 add(XSP16, 9)
        ; Saved register size: 9
        ; Auto size: 0
        MOV     A,R1
        MOV     R6,A
//  397   osal_timer_hw_setup( turn_on );
        ; Setup parameters for call to function osal_timer_hw_setup
        MOV     A,R6
        MOV     R1,A
        LCALL   ??osal_timer_hw_setup?relay
//  398   timerActive = turn_on;
        MOV     A,R6
        MOV     DPTR,#timerActive
        MOVX    @DPTR,A
//  399 }
        MOV     R7,#0x1
        LJMP    ?BANKED_LEAVE_XDATA
        CFI EndBlock cfiBlock7
//  400 
//  401 /*********************************************************************
//  402  * @fn      osal_timer_num_active
//  403  *
//  404  * @brief
//  405  *
//  406  *   This function counts the number of active timers.
//  407  *
//  408  * @return  byte - number of timers
//  409  */

        RSEG BANKED_CODE:CODE:NOROOT(0)
//  410 byte osal_timer_num_active( void )
osal_timer_num_active:
        CFI Block cfiBlock8 Using cfiCommon0
        CFI Function osal_timer_num_active
//  411 {
        MOV     A,#-0x9
        LCALL   ?BANKED_ENTER_XDATA
        CFI DPH0 load(1, XDATA, add(CFA_XSP16, literal(-1)))
        CFI DPL0 load(1, XDATA, add(CFA_XSP16, literal(-2)))
        CFI ?BRET_EXT load(1, XDATA, add(CFA_XSP16, literal(-3)))
        CFI ?RET_HIGH load(1, XDATA, add(CFA_XSP16, literal(-4)))
        CFI ?RET_LOW load(1, XDATA, add(CFA_XSP16, literal(-5)))
        CFI R7 load(1, XDATA, add(CFA_XSP16, literal(-6)))
        CFI V0 load(1, XDATA, add(CFA_XSP16, literal(-7)))
        CFI VB load(1, XDATA, add(CFA_XSP16, literal(-8)))
        CFI R6 load(1, XDATA, add(CFA_XSP16, literal(-9)))
        CFI CFA_SP SP+0
        CFI CFA_XSP16 add(XSP16, 9)
        ; Saved register size: 9
        ; Auto size: 0
//  412   halIntState_t intState;
//  413   byte num_timers = 0;
        MOV     R1,#0x0
//  414   osalTimerRec_t *srchTimer;
//  415 
//  416   HAL_ENTER_CRITICAL_SECTION( intState );  // Hold off interrupts.
        MOV     C,0xa8.7
        CLR     A
        MOV     0xE0 /* A   */.0,C
        MOV     R6,A
        CLR     0xa8.7
//  417 
//  418   // Head of the timer list
//  419   srchTimer = timerHead;
        MOV     DPTR,#timerHead
        MOVX    A,@DPTR
        MOV     R4,A
        INC     DPTR
        MOVX    A,@DPTR
        MOV     R5,A
        MOV     A,R4
        MOV     R2,A
        MOV     A,R5
        MOV     R3,A
//  420 
//  421   // Count timers in the list
//  422   while ( srchTimer != NULL )
??osal_timer_num_active_0:
        MOV     A,R2
        XRL     A,#0x0
        JNZ     ??osal_timer_num_active_1
        MOV     A,R3
        XRL     A,#0x0
??osal_timer_num_active_1:
        JZ      ??osal_timer_num_active_2
//  423   {
//  424     num_timers++;
        INC     R1
//  425     srchTimer = srchTimer->next;
        MOV     DPL,R2
        MOV     DPH,R3
        MOVX    A,@DPTR
        MOV     R2,A
        INC     DPTR
        MOVX    A,@DPTR
        MOV     R3,A
        SJMP    ??osal_timer_num_active_0
//  426   }
//  427 
//  428   HAL_EXIT_CRITICAL_SECTION( intState );   // Re-enable interrupts.
??osal_timer_num_active_2:
        MOV     A,R6
        MOV     C,0xE0 /* A   */.0
        MOV     0xa8.7,C
//  429 
//  430   return num_timers;
        MOV     R7,#0x1
        LJMP    ?BANKED_LEAVE_XDATA
        CFI EndBlock cfiBlock8
        REQUIRE _A_IEN0
//  431 }
//  432 
//  433 /*********************************************************************
//  434  * @fn      osal_timer_hw_setup
//  435  *
//  436  * @brief
//  437  *
//  438  *   Setup the timer hardware.
//  439  *
//  440  * @param  byte turn_on
//  441  *
//  442  * @return  void
//  443  */

        RSEG BANKED_CODE:CODE:NOROOT(0)
//  444 void osal_timer_hw_setup( byte turn_on )
osal_timer_hw_setup:
        CFI Block cfiBlock9 Using cfiCommon0
        CFI Function osal_timer_hw_setup
//  445 {
        FUNCALL osal_timer_hw_setup, HalTimerStart
        LOCFRAME ISTACK, 0, STACK
        LOCFRAME PSTACK, 0, STACK
        LOCFRAME XSTACK, 12, STACK
        LOCFRAME IOVERLAY, 0, STATIC
        LOCFRAME DOVERLAY, 0, STATIC
        ARGFRAME ISTACK, 0, STACK
        ARGFRAME PSTACK, 0, STACK
        ARGFRAME XSTACK, 12, STACK
        ARGFRAME IOVERLAY, 0, STATIC
        ARGFRAME DOVERLAY, 0, STATIC
        FUNCALL osal_timer_hw_setup, HalTimerStop
        LOCFRAME ISTACK, 0, STACK
        LOCFRAME PSTACK, 0, STACK
        LOCFRAME XSTACK, 12, STACK
        LOCFRAME IOVERLAY, 0, STATIC
        LOCFRAME DOVERLAY, 0, STATIC
        ARGFRAME ISTACK, 0, STACK
        ARGFRAME PSTACK, 0, STACK
        ARGFRAME XSTACK, 12, STACK
        ARGFRAME IOVERLAY, 0, STATIC
        ARGFRAME DOVERLAY, 0, STATIC
        MOV     A,#-0xc
        LCALL   ?BANKED_ENTER_XDATA
        CFI DPH0 load(1, XDATA, add(CFA_XSP16, literal(-1)))
        CFI DPL0 load(1, XDATA, add(CFA_XSP16, literal(-2)))
        CFI ?BRET_EXT load(1, XDATA, add(CFA_XSP16, literal(-3)))
        CFI ?RET_HIGH load(1, XDATA, add(CFA_XSP16, literal(-4)))
        CFI ?RET_LOW load(1, XDATA, add(CFA_XSP16, literal(-5)))
        CFI R7 load(1, XDATA, add(CFA_XSP16, literal(-6)))
        CFI V3 load(1, XDATA, add(CFA_XSP16, literal(-7)))
        CFI V2 load(1, XDATA, add(CFA_XSP16, literal(-8)))
        CFI V1 load(1, XDATA, add(CFA_XSP16, literal(-9)))
        CFI V0 load(1, XDATA, add(CFA_XSP16, literal(-10)))
        CFI VB load(1, XDATA, add(CFA_XSP16, literal(-11)))
        CFI R6 load(1, XDATA, add(CFA_XSP16, literal(-12)))
        CFI CFA_SP SP+0
        CFI CFA_XSP16 add(XSP16, 12)
        ; Saved register size: 12
        ; Auto size: 0
        MOV     A,R1
//  446   if (turn_on)
        JZ      ??osal_timer_hw_setup_0
//  447   {
//  448     HalTimerStart (OSAL_TIMER, tmr_count );
        ; Setup parameters for call to function HalTimerStart
        MOV     DPTR,#tmr_count
        MOV     R0,#?V0 + 0
        LCALL   ?L_MOV_X
        MOV     R2,?V0 + 0
        MOV     R3,?V0 + 1
        MOV     R4,?V0 + 2
        MOV     R5,?V0 + 3
        MOV     R1,#0x2
        LCALL   ??HalTimerStart?relay
        SJMP    ??osal_timer_hw_setup_1
//  449   }
//  450   else
//  451   {
//  452     HalTimerStop (OSAL_TIMER);
??osal_timer_hw_setup_0:
        ; Setup parameters for call to function HalTimerStop
        MOV     R1,#0x2
        LCALL   ??HalTimerStop?relay
//  453   }
//  454 }
??osal_timer_hw_setup_1:
        MOV     R7,#0x4
        LJMP    ?BANKED_LEAVE_XDATA
        CFI EndBlock cfiBlock9
//  455 
//  456 #if defined( POWER_SAVING )
//  457 /*********************************************************************
//  458  * @fn      osal_sleep_timers
//  459  *
//  460  * @brief
//  461  *
//  462  *   This function will enable interrupts if timers are running.
//  463  *
//  464  * @param  none
//  465  *
//  466  * @return  none
//  467  */
//  468 void osal_sleep_timers( void )
//  469 {
//  470 #ifndef TIMER_INT
//  471   if ( osal_timer_num_active() )
//  472     osal_set_timer_interrupt( TRUE );
//  473 #endif
//  474 }
//  475 
//  476 /*********************************************************************
//  477  * @fn      osal_unsleep_timers
//  478  *
//  479  * @brief
//  480  *
//  481  *   This function will disable interrupts if timers are running.
//  482  *
//  483  * @param  none
//  484  *
//  485  * @return  none
//  486  */
//  487 void osal_unsleep_timers( void )
//  488 {
//  489 #ifndef TIMER_INT
//  490   osal_set_timer_interrupt( FALSE );
//  491 #endif
//  492 }
//  493 #endif
//  494 
//  495 /*********************************************************************
//  496  * @fn      osal_set_timer_interrupt
//  497  *
//  498  * @brief
//  499  *
//  500  *   Setup the timer hardware interrupt.
//  501  *
//  502  * @param  byte turn_on
//  503  *
//  504  * @return  void
//  505  *********************************************************************/

        RSEG BANKED_CODE:CODE:NOROOT(0)
//  506 void osal_set_timer_interrupt( byte turn_on )
osal_set_timer_interrupt:
        CFI Block cfiBlock10 Using cfiCommon0
        CFI Function osal_set_timer_interrupt
//  507 {
        FUNCALL osal_set_timer_interrupt, HalTimerInterruptEnable
        LOCFRAME ISTACK, 0, STACK
        LOCFRAME PSTACK, 0, STACK
        LOCFRAME XSTACK, 9, STACK
        LOCFRAME IOVERLAY, 0, STATIC
        LOCFRAME DOVERLAY, 0, STATIC
        ARGFRAME ISTACK, 0, STACK
        ARGFRAME PSTACK, 0, STACK
        ARGFRAME XSTACK, 9, STACK
        ARGFRAME IOVERLAY, 0, STATIC
        ARGFRAME DOVERLAY, 0, STATIC
        MOV     A,#-0x9
        LCALL   ?BANKED_ENTER_XDATA
        CFI DPH0 load(1, XDATA, add(CFA_XSP16, literal(-1)))
        CFI DPL0 load(1, XDATA, add(CFA_XSP16, literal(-2)))
        CFI ?BRET_EXT load(1, XDATA, add(CFA_XSP16, literal(-3)))
        CFI ?RET_HIGH load(1, XDATA, add(CFA_XSP16, literal(-4)))
        CFI ?RET_LOW load(1, XDATA, add(CFA_XSP16, literal(-5)))
        CFI R7 load(1, XDATA, add(CFA_XSP16, literal(-6)))
        CFI V0 load(1, XDATA, add(CFA_XSP16, literal(-7)))
        CFI VB load(1, XDATA, add(CFA_XSP16, literal(-8)))
        CFI R6 load(1, XDATA, add(CFA_XSP16, literal(-9)))
        CFI CFA_SP SP+0
        CFI CFA_XSP16 add(XSP16, 9)
        ; Saved register size: 9
        ; Auto size: 0
        MOV     A,R1
//  508   // Enable or disable timer interrupts
//  509   HalTimerInterruptEnable ( OSAL_TIMER, HAL_TIMER_CH_MODE_OUTPUT_COMPARE, turn_on);
        ; Setup parameters for call to function HalTimerInterruptEnable
        MOV     R3,A
        MOV     R2,#0x2
        MOV     R1,#0x2
        LCALL   ??HalTimerInterruptEnable?relay
//  510 }
        MOV     R7,#0x1
        LJMP    ?BANKED_LEAVE_XDATA
        CFI EndBlock cfiBlock10
//  511 
//  512 /*********************************************************************
//  513  * @fn      osalTimerUpdate
//  514  *
//  515  * @brief   Update the timer structures for a timer tick.
//  516  *
//  517  * @param   none
//  518  *
//  519  * @return  none
//  520  *********************************************************************/

        RSEG BANKED_CODE:CODE:NOROOT(0)
//  521 static void osalTimerUpdate( uint16 updateTime )
osalTimerUpdate:
        CFI Block cfiBlock11 Using cfiCommon0
        CFI Function osalTimerUpdate
//  522 {
        FUNCALL osalTimerUpdate, osal_set_event
        LOCFRAME ISTACK, 0, STACK
        LOCFRAME PSTACK, 0, STACK
        LOCFRAME XSTACK, 19, STACK
        LOCFRAME IOVERLAY, 0, STATIC
        LOCFRAME DOVERLAY, 0, STATIC
        ARGFRAME ISTACK, 0, STACK
        ARGFRAME PSTACK, 0, STACK
        ARGFRAME XSTACK, 19, STACK
        ARGFRAME IOVERLAY, 0, STATIC
        ARGFRAME DOVERLAY, 0, STATIC
        FUNCALL osalTimerUpdate, osal_mem_free
        LOCFRAME ISTACK, 0, STACK
        LOCFRAME PSTACK, 0, STACK
        LOCFRAME XSTACK, 19, STACK
        LOCFRAME IOVERLAY, 0, STATIC
        LOCFRAME DOVERLAY, 0, STATIC
        ARGFRAME ISTACK, 0, STACK
        ARGFRAME PSTACK, 0, STACK
        ARGFRAME XSTACK, 19, STACK
        ARGFRAME IOVERLAY, 0, STATIC
        ARGFRAME DOVERLAY, 0, STATIC
        MOV     A,#-0x10
        LCALL   ?BANKED_ENTER_XDATA
        CFI DPH0 load(1, XDATA, add(CFA_XSP16, literal(-1)))
        CFI DPL0 load(1, XDATA, add(CFA_XSP16, literal(-2)))
        CFI ?BRET_EXT load(1, XDATA, add(CFA_XSP16, literal(-3)))
        CFI ?RET_HIGH load(1, XDATA, add(CFA_XSP16, literal(-4)))
        CFI ?RET_LOW load(1, XDATA, add(CFA_XSP16, literal(-5)))
        CFI R7 load(1, XDATA, add(CFA_XSP16, literal(-6)))
        CFI V7 load(1, XDATA, add(CFA_XSP16, literal(-7)))
        CFI V6 load(1, XDATA, add(CFA_XSP16, literal(-8)))
        CFI V5 load(1, XDATA, add(CFA_XSP16, literal(-9)))
        CFI V4 load(1, XDATA, add(CFA_XSP16, literal(-10)))
        CFI V3 load(1, XDATA, add(CFA_XSP16, literal(-11)))
        CFI V2 load(1, XDATA, add(CFA_XSP16, literal(-12)))
        CFI V1 load(1, XDATA, add(CFA_XSP16, literal(-13)))
        CFI V0 load(1, XDATA, add(CFA_XSP16, literal(-14)))
        CFI VB load(1, XDATA, add(CFA_XSP16, literal(-15)))
        CFI R6 load(1, XDATA, add(CFA_XSP16, literal(-16)))
        CFI CFA_SP SP+0
        CFI CFA_XSP16 add(XSP16, 16)
        ; Saved register size: 16
        ; Auto size: 3
        MOV     A,#-0x3
        LCALL   ?ALLOC_XSTACK8
        CFI CFA_XSP16 add(XSP16, 19)
        MOV     ?V0 + 4,R2
        MOV     ?V0 + 5,R3
//  523   halIntState_t intState;
//  524   osalTimerRec_t *srchTimer;
//  525   osalTimerRec_t *prevTimer;
//  526   osalTimerRec_t *saveTimer;
//  527 
//  528   HAL_ENTER_CRITICAL_SECTION( intState );  // Hold off interrupts.
        MOV     C,0xa8.7
        CLR     A
        MOV     0xE0 /* A   */.0,C
        MOV     DPL,?XSP + 0
        MOV     DPH,?XSP + 1
        MOVX    @DPTR,A
        CLR     0xa8.7
//  529 
//  530   // Update the system time
//  531   osal_systemClock += updateTime;
        MOV     ?V0 + 0,?V0 + 4
        MOV     ?V0 + 1,?V0 + 5
        CLR     A
        MOV     ?V0 + 2,A
        MOV     ?V0 + 3,A
        MOV     DPTR,#osal_systemClock
        MOV     R0,#?V0 + 0
        LCALL   ?L_ADD_TO_X
//  532 
//  533   // Look for open timer slot
//  534   if ( timerHead != NULL )
        MOV     DPTR,#timerHead
        MOVX    A,@DPTR
        XRL     A,#0x0
        JNZ     ??osalTimerUpdate_0
        INC     DPTR
        MOVX    A,@DPTR
        XRL     A,#0x0
??osalTimerUpdate_0:
        JNZ     $+5
        LJMP    ??osalTimerUpdate_1 & 0xFFFF
//  535   {
//  536     // Add it to the end of the timer list
//  537     srchTimer = timerHead;
        MOV     DPTR,#timerHead
        MOVX    A,@DPTR
        MOV     R0,A
        INC     DPTR
        MOVX    A,@DPTR
        MOV     R1,A
        MOV     A,R0
        MOV     R6,A
        MOV     A,R1
        MOV     R7,A
//  538     prevTimer = (void *)NULL;
        MOV     ?V0 + 6,#0x0
        MOV     ?V0 + 7,#0x0
//  539 
//  540     // Look for open timer slot
//  541     while ( srchTimer )
??osalTimerUpdate_2:
        MOV     A,R6
        XRL     A,#0x0
        JNZ     ??osalTimerUpdate_3
        MOV     A,R7
        XRL     A,#0x0
??osalTimerUpdate_3:
        JNZ     $+5
        LJMP    ??osalTimerUpdate_1 & 0xFFFF
//  542     {
//  543       // Decrease the correct amount of time
//  544       if (srchTimer->timeout <= updateTime)
        MOV     DPL,R6
        MOV     DPH,R7
        INC     DPTR
        INC     DPTR
        MOVX    A,@DPTR
        MOV     R0,A
        INC     DPTR
        MOVX    A,@DPTR
        MOV     R1,A
        CLR     C
        MOV     A,?V0 + 4
        SUBB    A,R0
        MOV     A,?V0 + 5
        SUBB    A,R1
        JC      ??osalTimerUpdate_4
//  545         srchTimer->timeout = 0;
        MOV     DPL,R6
        MOV     DPH,R7
        INC     DPTR
        INC     DPTR
        MOV     A,#0x0
        MOVX    @DPTR,A
        INC     DPTR
        MOV     A,#0x0
        MOVX    @DPTR,A
        SJMP    ??osalTimerUpdate_5
//  546       else
//  547         srchTimer->timeout = srchTimer->timeout - updateTime;
??osalTimerUpdate_4:
        MOV     DPL,R6
        MOV     DPH,R7
        INC     DPTR
        INC     DPTR
        CLR     C
        MOVX    A,@DPTR
        SUBB    A,?V0 + 4
        MOVX    @DPTR,A
        INC     DPTR
        MOVX    A,@DPTR
        SUBB    A,?V0 + 5
        MOVX    @DPTR,A
//  548 
//  549       // When timeout, execute the task
//  550       if ( srchTimer->timeout == 0 )
??osalTimerUpdate_5:
        MOV     DPL,R6
        MOV     DPH,R7
        INC     DPTR
        INC     DPTR
        MOVX    A,@DPTR
        XRL     A,#0x0
        JNZ     ??osalTimerUpdate_6
        INC     DPTR
        MOVX    A,@DPTR
        XRL     A,#0x0
??osalTimerUpdate_6:
        JNZ     ??osalTimerUpdate_7
//  551       {
//  552         osal_set_event( srchTimer->task_id, srchTimer->event_flag );
        ; Setup parameters for call to function osal_set_event
        MOV     DPL,R6
        MOV     DPH,R7
        INC     DPTR
        INC     DPTR
        INC     DPTR
        INC     DPTR
        MOVX    A,@DPTR
        MOV     R2,A
        INC     DPTR
        MOVX    A,@DPTR
        MOV     R3,A
        MOV     DPL,R6
        MOV     DPH,R7
        INC     DPTR
        INC     DPTR
        INC     DPTR
        INC     DPTR
        INC     DPTR
        INC     DPTR
        MOVX    A,@DPTR
        MOV     R1,A
        LCALL   ??osal_set_event?relay
//  553 
//  554         // Take out of list
//  555         if ( prevTimer == NULL )
        MOV     A,?V0 + 6
        XRL     A,#0x0
        JNZ     ??osalTimerUpdate_8
        MOV     A,?V0 + 7
        XRL     A,#0x0
??osalTimerUpdate_8:
        JNZ     ??osalTimerUpdate_9
//  556           timerHead = srchTimer->next;
        MOV     DPL,R6
        MOV     DPH,R7
        MOVX    A,@DPTR
        MOV     R0,A
        INC     DPTR
        MOVX    A,@DPTR
        MOV     R1,A
        MOV     DPTR,#timerHead
        MOV     A,R0
        MOVX    @DPTR,A
        INC     DPTR
        MOV     A,R1
        MOVX    @DPTR,A
        SJMP    ??osalTimerUpdate_10
//  557         else
//  558           prevTimer->next = srchTimer->next;
??osalTimerUpdate_9:
        MOV     DPL,R6
        MOV     DPH,R7
        MOVX    A,@DPTR
        MOV     R0,A
        INC     DPTR
        MOVX    A,@DPTR
        MOV     R1,A
        MOV     DPL,?V0 + 6
        MOV     DPH,?V0 + 7
        MOV     A,R0
        MOVX    @DPTR,A
        INC     DPTR
        MOV     A,R1
        MOVX    @DPTR,A
//  559 
//  560         // Next
//  561         saveTimer = srchTimer->next;
??osalTimerUpdate_10:
        MOV     DPL,R6
        MOV     DPH,R7
        MOVX    A,@DPTR
        MOV     R0,A
        INC     DPTR
        MOVX    A,@DPTR
        MOV     R1,A
        MOV     A,#0x1
        LCALL   ?XSTACK_DISP0_8
        MOV     A,R0
        MOVX    @DPTR,A
        INC     DPTR
        MOV     A,R1
        MOVX    @DPTR,A
//  562 
//  563         // Free memory
//  564         osal_mem_free( srchTimer );
        ; Setup parameters for call to function osal_mem_free
        MOV     A,R6
        MOV     R2,A
        MOV     A,R7
        MOV     R3,A
        LCALL   ??osal_mem_free?relay
//  565 
//  566         srchTimer = saveTimer;
        MOV     A,#0x1
        LCALL   ?XSTACK_DISP0_8
        MOVX    A,@DPTR
        MOV     R0,A
        INC     DPTR
        MOVX    A,@DPTR
        MOV     R1,A
        MOV     A,R0
        MOV     R6,A
        MOV     A,R1
        MOV     R7,A
        LJMP    ??osalTimerUpdate_2 & 0xFFFF
//  567       }
//  568       else
//  569       {
//  570         // Get next
//  571         prevTimer = srchTimer;
??osalTimerUpdate_7:
        MOV     ?V0 + 6,R6
        MOV     ?V0 + 7,R7
//  572         srchTimer = srchTimer->next;
        MOV     DPL,R6
        MOV     DPH,R7
        MOVX    A,@DPTR
        MOV     R6,A
        INC     DPTR
        MOVX    A,@DPTR
        MOV     R7,A
        LJMP    ??osalTimerUpdate_2 & 0xFFFF
//  573       }
//  574     }
//  575 
//  576 #ifdef POWER_SAVING
//  577     osal_retune_timers();
//  578 #endif
//  579   }
//  580 
//  581   HAL_EXIT_CRITICAL_SECTION( intState );   // Re-enable interrupts.
??osalTimerUpdate_1:
        MOV     DPL,?XSP + 0
        MOV     DPH,?XSP + 1
        MOVX    A,@DPTR
        MOV     C,0xE0 /* A   */.0
        MOV     0xa8.7,C
//  582 }
        MOV     A,#0x3
        LCALL   ?DEALLOC_XSTACK8
        CFI CFA_XSP16 add(XSP16, 16)
        MOV     R7,#0x8
        LJMP    ?BANKED_LEAVE_XDATA
        CFI EndBlock cfiBlock11
        REQUIRE _A_IEN0
//  583 
//  584 /*********************************************************************
//  585  * @fn      osal_update_timers
//  586  *
//  587  * @brief   Update the timer structures for timer ticks.
//  588  *
//  589  * @param   none
//  590  *
//  591  * @return  none
//  592  */

        RSEG BANKED_CODE:CODE:NOROOT(0)
//  593 void osal_update_timers( void )
osal_update_timers:
        CFI Block cfiBlock12 Using cfiCommon0
        CFI Function osal_update_timers
//  594 {
        FUNCALL osal_update_timers, osalTimerUpdate
        LOCFRAME ISTACK, 2, STACK
        LOCFRAME PSTACK, 0, STACK
        LOCFRAME XSTACK, 0, STACK
        LOCFRAME IOVERLAY, 0, STATIC
        LOCFRAME DOVERLAY, 0, STATIC
        ARGFRAME ISTACK, 2, STACK
        ARGFRAME PSTACK, 0, STACK
        ARGFRAME XSTACK, 0, STACK
        ARGFRAME IOVERLAY, 0, STATIC
        ARGFRAME DOVERLAY, 0, STATIC
        PUSH    DPL
        CFI DPL0 Frame(CFA_SP, 4)
        CFI CFA_SP SP+-4
        PUSH    DPH
        CFI DPH0 Frame(CFA_SP, 5)
        CFI CFA_SP SP+-5
        ; Saved register size: 2
        ; Auto size: 0
//  595   osalTimerUpdate( tmr_decr_time );
        ; Setup parameters for call to function osalTimerUpdate
        MOV     DPTR,#tmr_decr_time
        MOVX    A,@DPTR
        MOV     R2,A
        INC     DPTR
        MOVX    A,@DPTR
        MOV     R3,A
        LCALL   ??osalTimerUpdate?relay
//  596 }
        POP     DPH
        CFI DPH0 SameValue
        CFI CFA_SP SP+-4
        POP     DPL
        CFI DPL0 SameValue
        CFI CFA_SP SP+-3
        LJMP    ?BRET
        CFI EndBlock cfiBlock12
//  597 
//  598 #ifdef POWER_SAVING
//  599 /*********************************************************************
//  600  * @fn      osal_adjust_timers
//  601  *
//  602  * @brief   Update the timer structures for elapsed ticks.
//  603  *
//  604  * @param   none
//  605  *
//  606  * @return  none
//  607  *********************************************************************/
//  608 void osal_adjust_timers( void )
//  609 {
//  610   uint16 eTime;
//  611 
//  612   if ( timerHead != NULL )
//  613   {
//  614     // Compute elapsed time (msec)
//  615     eTime = TimerElapsed() /  TICK_COUNT;
//  616 
//  617     if ( eTime )
//  618       osalTimerUpdate( eTime );
//  619   }
//  620 }
//  621 #endif
//  622 
//  623 #ifdef POWER_SAVING
//  624 /*********************************************************************
//  625  * @fn      osal_retune_timers
//  626  *
//  627  * @brief
//  628  *
//  629  *   Adjust CPU sleep time to the lowest timeout value. If the timeout
//  630  *   value is more then RETUNE_THRESHOLD, then the sleep time will be
//  631  *   RETUNE_THRESHOLD.
//  632  *
//  633  * @param   none
//  634  *
//  635  * @return  none
//  636  *********************************************************************/
//  637 void osal_retune_timers( void )
//  638 {
//  639   halIntState_t intState;
//  640   uint16 nextTimeout;
//  641 
//  642   HAL_ENTER_CRITICAL_SECTION( intState );  // Hold off interrupts.
//  643 
//  644   // Next occuring timeout
//  645   nextTimeout = osal_next_timeout();
//  646 
//  647   // Make sure timer counter can handle it
//  648   if ( !nextTimeout || (nextTimeout > RETUNE_THRESHOLD) )
//  649     nextTimeout = RETUNE_THRESHOLD;
//  650 
//  651   if (nextTimeout != tmr_decr_time)
//  652   {
//  653     // Stop the clock
//  654     osal_timer_activate( FALSE );
//  655 
//  656     // Alter the rolling time
//  657     tmr_decr_time = nextTimeout;
//  658     tmr_count = (uint32)nextTimeout * TICK_TIME;
//  659 
//  660     // Restart the clock
//  661     osal_timer_activate( TRUE );
//  662   }
//  663 
//  664   HAL_EXIT_CRITICAL_SECTION( intState );   // Re-enable interrupts.
//  665 }
//  666 
//  667 /*********************************************************************
//  668  * @fn      osal_next_timeout
//  669  *
//  670  * @brief
//  671  *
//  672  *   Search timer table to return the lowest timeout value. If the
//  673  *   timer list is empty, then the returned timeout will be zero.
//  674  *
//  675  * @param   none
//  676  *
//  677  * @return  none
//  678  *********************************************************************/
//  679 uint16 osal_next_timeout( void )
//  680 {
//  681   uint16 nextTimeout;
//  682   osalTimerRec_t *srchTimer;
//  683 
//  684   if ( timerHead != NULL )
//  685   {
//  686     // Head of the timer list
//  687     srchTimer = timerHead;
//  688     nextTimeout = OSAL_TIMERS_MAX_TIMEOUT;
//  689 
//  690     // Look for the next timeout timer
//  691     while ( srchTimer != NULL )
//  692     {
//  693       if (srchTimer->timeout < nextTimeout)
//  694       {
//  695         nextTimeout = srchTimer->timeout;
//  696       }
//  697       // Check next timer
//  698       srchTimer = srchTimer->next;
//  699     }
//  700   }
//  701   else
//  702   {
//  703     // No timers
//  704     nextTimeout = 0;
//  705   }
//  706 
//  707   return ( nextTimeout );
//  708 }
//  709 #endif // POWER_SAVING
//  710 
//  711 /*********************************************************************
//  712  * @fn      osal_GetSystemClock()
//  713  *
//  714  * @brief   Read the local system clock.
//  715  *
//  716  * @param   none
//  717  *
//  718  * @return  local clock in milliseconds
//  719  */

        RSEG BANKED_CODE:CODE:NOROOT(0)
//  720 uint32 osal_GetSystemClock( void )
osal_GetSystemClock:
        CFI Block cfiBlock13 Using cfiCommon0
        CFI Function osal_GetSystemClock
//  721 {
        MOV     A,#-0xc
        LCALL   ?BANKED_ENTER_XDATA
        CFI DPH0 load(1, XDATA, add(CFA_XSP16, literal(-1)))
        CFI DPL0 load(1, XDATA, add(CFA_XSP16, literal(-2)))
        CFI ?BRET_EXT load(1, XDATA, add(CFA_XSP16, literal(-3)))
        CFI ?RET_HIGH load(1, XDATA, add(CFA_XSP16, literal(-4)))
        CFI ?RET_LOW load(1, XDATA, add(CFA_XSP16, literal(-5)))
        CFI R7 load(1, XDATA, add(CFA_XSP16, literal(-6)))
        CFI V3 load(1, XDATA, add(CFA_XSP16, literal(-7)))
        CFI V2 load(1, XDATA, add(CFA_XSP16, literal(-8)))
        CFI V1 load(1, XDATA, add(CFA_XSP16, literal(-9)))
        CFI V0 load(1, XDATA, add(CFA_XSP16, literal(-10)))
        CFI VB load(1, XDATA, add(CFA_XSP16, literal(-11)))
        CFI R6 load(1, XDATA, add(CFA_XSP16, literal(-12)))
        CFI CFA_SP SP+0
        CFI CFA_XSP16 add(XSP16, 12)
        ; Saved register size: 12
        ; Auto size: 0
//  722   return ( osal_systemClock );
        MOV     DPTR,#osal_systemClock
        MOV     R0,#?V0 + 0
        LCALL   ?L_MOV_X
        MOV     R2,?V0 + 0
        MOV     R3,?V0 + 1
        MOV     R4,?V0 + 2
        MOV     R5,?V0 + 3
        MOV     R7,#0x4
        LJMP    ?BANKED_LEAVE_XDATA
        CFI EndBlock cfiBlock13
//  723 }

        RSEG XDATA_I:XDATA:NOROOT(0)
        DATA
__Constant_3e8:
        DS 4
        REQUIRE `?<Initializer for __Constant_3e8>`
        REQUIRE __INIT_XDATA_I

        RSEG XDATA_ID:CODE:NOROOT(0)
        DATA
`?<Initializer for __Constant_3e8>`:
        DD 1000

        RSEG XDATA_I:XDATA:NOROOT(0)
        DATA
__Constant_0:
        DS 4
        REQUIRE `?<Initializer for __Constant_0>`
        REQUIRE __INIT_XDATA_I

        RSEG XDATA_ID:CODE:NOROOT(0)
        DATA
`?<Initializer for __Constant_0>`:
        DD 0

        RSEG BANK_RELAYS:CODE:REORDER:NOROOT(0)
??osalTimerInit?relay:
        LCALL   ?BDISPATCH
        DATA
        DC24    osalTimerInit

        RSEG BANK_RELAYS:CODE:REORDER:NOROOT(0)
??osalAddTimer?relay:
        LCALL   ?BDISPATCH
        DATA
        DC24    osalAddTimer

        RSEG BANK_RELAYS:CODE:REORDER:NOROOT(0)
??osalFindTimer?relay:
        LCALL   ?BDISPATCH
        DATA
        DC24    osalFindTimer

        RSEG BANK_RELAYS:CODE:REORDER:NOROOT(0)
??osalDeleteTimer?relay:
        LCALL   ?BDISPATCH
        DATA
        DC24    osalDeleteTimer

        RSEG BANK_RELAYS:CODE:REORDER:NOROOT(0)
??osal_start_timerEx?relay:
        LCALL   ?BDISPATCH
        DATA
        DC24    osal_start_timerEx

        RSEG BANK_RELAYS:CODE:REORDER:NOROOT(0)
??osal_stop_timerEx?relay:
        LCALL   ?BDISPATCH
        DATA
        DC24    osal_stop_timerEx

        RSEG BANK_RELAYS:CODE:REORDER:NOROOT(0)
??osal_get_timeoutEx?relay:
        LCALL   ?BDISPATCH
        DATA
        DC24    osal_get_timeoutEx

        RSEG BANK_RELAYS:CODE:REORDER:NOROOT(0)
??osal_timer_activate?relay:
        LCALL   ?BDISPATCH
        DATA
        DC24    osal_timer_activate

        RSEG BANK_RELAYS:CODE:REORDER:NOROOT(0)
??osal_timer_num_active?relay:
        LCALL   ?BDISPATCH
        DATA
        DC24    osal_timer_num_active

        RSEG BANK_RELAYS:CODE:REORDER:NOROOT(0)
??osal_timer_hw_setup?relay:
        LCALL   ?BDISPATCH
        DATA
        DC24    osal_timer_hw_setup

        RSEG BANK_RELAYS:CODE:REORDER:NOROOT(0)
??osal_set_timer_interrupt?relay:
        LCALL   ?BDISPATCH
        DATA
        DC24    osal_set_timer_interrupt

        RSEG BANK_RELAYS:CODE:REORDER:NOROOT(0)
??osalTimerUpdate?relay:
        LCALL   ?BDISPATCH
        DATA
        DC24    osalTimerUpdate

        RSEG BANK_RELAYS:CODE:REORDER:NOROOT(0)
??osal_update_timers?relay:
        LCALL   ?BDISPATCH
        DATA
        DC24    osal_update_timers

        RSEG BANK_RELAYS:CODE:REORDER:NOROOT(0)
??osal_GetSystemClock?relay:
        LCALL   ?BDISPATCH
        DATA
        DC24    osal_GetSystemClock

        END
//  724 
//  725 /*********************************************************************
//  726 *********************************************************************/
// 
// 1 373 bytes in segment BANKED_CODE
//    84 bytes in segment BANK_RELAYS
//     1 byte  in segment SFR_AN
//     8 bytes in segment XDATA_I
//     8 bytes in segment XDATA_ID
//    13 bytes in segment XDATA_Z
// 
// 1 457 bytes of CODE  memory (+ 8 bytes shared)
//     0 bytes of DATA  memory (+ 1 byte  shared)
//    13 bytes of XDATA memory (+ 8 bytes shared)
//
//Errors: none
//Warnings: none
