###############################################################################
#                                                                             #
# IAR 8051 C/C++ Compiler V7.30B/W32                    03/Apr/2013  14:45:09 #
# Copyright 2004-2007 IAR Systems. All rights reserved.                       #
#                                                                             #
#    Core               =  plain                                              #
#    Code model         =  banked                                             #
#    Data model         =  large                                              #
#    Calling convention =  xdata reentrant                                    #
#    Constant location  =  data                                               #
#    Dptr setup         =  1,16                                               #
#    Source file        =  C:\Texas Instruments\ZStack-1.4.3-1.2.1\Projects\z #
#                          stack\Samples\cc2430-zstack-adxl345 -              #
#                          2\Drivers\adxl345.c                                #
#    Command line       =  -f "C:\Texas Instruments\ZStack-1.4.3-1.2.1\Projec #
#                          ts\zstack\Samples\cc2430-zstack-adxl345 -          #
#                          2\CC2430DB\..\..\..\Tools\CC2430DB\f8wEndev.cfg"   #
#                          (-DCPU32MHZ -DFORCE_MAC_NEAR -DROOT=__near_func    #
#                          -DMAC_OPT_FFD=0 -DBLINK_LEDS "-DCONST=const        #
#                          __code" -DGENERIC=__generic) -f "C:\Texas          #
#                          Instruments\ZStack-1.4.3-1.2.1\Projects\zstack\Sam #
#                          ples\cc2430-zstack-adxl345 -                       #
#                          2\CC2430DB\..\..\..\Tools\CC2430DB\f8wConfig.cfg"  #
#                          (-DSECURE=0 -DDEFAULT_CHANLIST=0x00000800          #
#                          -DZDAPP_CONFIG_PAN_ID=0xFFFF                       #
#                          -DNWK_START_DELAY=100 -DEXTENDED_JOINING_RANDOM_MA #
#                          SK=0x007F -DBEACON_REQUEST_DELAY=100               #
#                          -DBEACON_REQ_DELAY_MASK=0x00FF                     #
#                          -DROUTE_EXPIRY_TIME=30 -DAPSC_ACK_WAIT_DURATION_PO #
#                          LLED=3000 -DNWK_INDIRECT_MSG_TIMEOUT=7             #
#                          -DMAX_RREQ_ENTRIES=10 -DAPSC_MAX_FRAME_RETRIES=3   #
#                          -DNWK_MAX_DATA_RETRIES=2                           #
#                          -DMAX_POLL_FAILURE_RETRIES=2 -DMAX_BCAST=9         #
#                          -DAPS_MAX_GROUPS=16 -DMAX_RTG_ENTRIES=20           #
#                          -DNWK_MAX_BINDING_ENTRIES=10                       #
#                          -DMAX_BINDING_CLUSTER_IDS=5 "-DDEFAULT_KEY={0x01,  #
#                          0x03, 0x05, 0x07, 0x09, 0x0B, 0x0D, 0x0F, 0x00,    #
#                          0x02, 0x04, 0x06, 0x08, 0x0A, 0x0C, 0x0D}"         #
#                          -DRFD_RCVC_ALWAYS_ON=FALSE -DPOLL_RATE=1000        #
#                          -DQUEUED_POLL_RATE=100 -DRESPONSE_POLL_RATE=100)   #
#                          -DREJOIN_POLL_RATE=440 "C:\Texas                   #
#                          Instruments\ZStack-1.4.3-1.2.1\Projects\zstack\Sam #
#                          ples\cc2430-zstack-adxl345 - 2\Drivers\adxl345.c"  #
#                          -D CC2430EB -D AXD_END -D AXD_END_C -D             #
#                          NWK_AUTO_POLL -D REFLECTOR -D xZTOOL_P1 -D         #
#                          xMT_TASK -D xMT_ZDO_FUNC -D xLCD_SUPPORTED=DEBUG   #
#                          -D xPOWER_SAVING -lC "C:\Texas                     #
#                          Instruments\ZStack-1.4.3-1.2.1\Projects\zstack\Sam #
#                          ples\cc2430-zstack-adxl345 -                       #
#                          2\CC2430DB\EndDevice3EB\List\" -lA "C:\Texas       #
#                          Instruments\ZStack-1.4.3-1.2.1\Projects\zstack\Sam #
#                          ples\cc2430-zstack-adxl345 -                       #
#                          2\CC2430DB\EndDevice3EB\List\" --diag_suppress     #
#                          Pe001,Pa010 --diag_remark pe550 -o "C:\Texas       #
#                          Instruments\ZStack-1.4.3-1.2.1\Projects\zstack\Sam #
#                          ples\cc2430-zstack-adxl345 -                       #
#                          2\CC2430DB\EndDevice3EB\Obj\" -e                   #
#                          --require_prototypes -z2 --no_cse --no_unroll      #
#                          --no_inline --no_code_motion --no_tbaa --debug     #
#                          --core=plain --dptr=16,1 --data_model=large        #
#                          --code_model=banked --calling_convention=xdata_ree #
#                          ntrant --place_constants=data --nr_virtual_regs 8  #
#                          -I "C:\Texas Instruments\ZStack-1.4.3-1.2.1\Projec #
#                          ts\zstack\Samples\cc2430-zstack-adxl345 -          #
#                          2\CC2430DB\" -I "C:\Texas                          #
#                          Instruments\ZStack-1.4.3-1.2.1\Projects\zstack\Sam #
#                          ples\cc2430-zstack-adxl345 -                       #
#                          2\CC2430DB\..\SOURCE\" -I "C:\Texas                #
#                          Instruments\ZStack-1.4.3-1.2.1\Projects\zstack\Sam #
#                          ples\cc2430-zstack-adxl345 -                       #
#                          2\CC2430DB\..\Drivers\" -I "C:\Texas               #
#                          Instruments\ZStack-1.4.3-1.2.1\Projects\zstack\Sam #
#                          ples\cc2430-zstack-adxl345 -                       #
#                          2\CC2430DB\..\..\..\ZMAIN\TI2430DB\" -I "C:\Texas  #
#                          Instruments\ZStack-1.4.3-1.2.1\Projects\zstack\Sam #
#                          ples\cc2430-zstack-adxl345 -                       #
#                          2\CC2430DB\..\..\..\..\..\COMPONENTS\MT\" -I       #
#                          "C:\Texas Instruments\ZStack-1.4.3-1.2.1\Projects\ #
#                          zstack\Samples\cc2430-zstack-adxl345 -             #
#                          2\CC2430DB\..\..\..\..\..\COMPONENTS\HAL\INCLUDE\" #
#                           -I "C:\Texas Instruments\ZStack-1.4.3-1.2.1\Proje #
#                          cts\zstack\Samples\cc2430-zstack-adxl345 -         #
#                          2\CC2430DB\..\..\..\..\..\COMPONENTS\HAL\TARGET\CC #
#                          2430EB\" -I "C:\Texas Instruments\ZStack-1.4.3-1.2 #
#                          .1\Projects\zstack\Samples\cc2430-zstack-adxl345   #
#                          - 2\CC2430DB\..\..\..\..\..\COMPONENTS\OSAL\MCU\CC #
#                          SOC\" -I "C:\Texas Instruments\ZStack-1.4.3-1.2.1\ #
#                          Projects\zstack\Samples\cc2430-zstack-adxl345 -    #
#                          2\CC2430DB\..\..\..\..\..\COMPONENTS\OSAL\INCLUDE\ #
#                          " -I "C:\Texas Instruments\ZStack-1.4.3-1.2.1\Proj #
#                          ects\zstack\Samples\cc2430-zstack-adxl345 -        #
#                          2\CC2430DB\..\..\..\..\..\COMPONENTS\STACK\AF\"    #
#                          -I "C:\Texas Instruments\ZStack-1.4.3-1.2.1\Projec #
#                          ts\zstack\Samples\cc2430-zstack-adxl345 -          #
#                          2\CC2430DB\..\..\..\..\..\COMPONENTS\STACK\NWK\"   #
#                          -I "C:\Texas Instruments\ZStack-1.4.3-1.2.1\Projec #
#                          ts\zstack\Samples\cc2430-zstack-adxl345 -          #
#                          2\CC2430DB\..\..\..\..\..\COMPONENTS\STACK\SEC\"   #
#                          -I "C:\Texas Instruments\ZStack-1.4.3-1.2.1\Projec #
#                          ts\zstack\Samples\cc2430-zstack-adxl345 -          #
#                          2\CC2430DB\..\..\..\..\..\COMPONENTS\STACK\SYS\"   #
#                          -I "C:\Texas Instruments\ZStack-1.4.3-1.2.1\Projec #
#                          ts\zstack\Samples\cc2430-zstack-adxl345 -          #
#                          2\CC2430DB\..\..\..\..\..\COMPONENTS\STACK\ZDO\"   #
#                          -I "C:\Texas Instruments\ZStack-1.4.3-1.2.1\Projec #
#                          ts\zstack\Samples\cc2430-zstack-adxl345 -          #
#                          2\CC2430DB\..\..\..\..\..\COMPONENTS\ZMAC\F8W\"    #
#                          -I "C:\Texas Instruments\ZStack-1.4.3-1.2.1\Projec #
#                          ts\zstack\Samples\cc2430-zstack-adxl345 -          #
#                          2\CC2430DB\..\..\..\..\..\COMPONENTS\ZMAC\" -I     #
#                          "C:\Texas Instruments\ZStack-1.4.3-1.2.1\Projects\ #
#                          zstack\Samples\cc2430-zstack-adxl345 -             #
#                          2\CC2430DB\..\..\..\..\..\COMPONENTS\SERVICES\SADD #
#                          R\" -I "C:\Texas Instruments\ZStack-1.4.3-1.2.1\Pr #
#                          ojects\zstack\Samples\cc2430-zstack-adxl345 -      #
#                          2\CC2430DB\..\..\..\..\..\COMPONENTS\SERVICES\SDAT #
#                          A\" -I "C:\Texas Instruments\ZStack-1.4.3-1.2.1\Pr #
#                          ojects\zstack\Samples\cc2430-zstack-adxl345 -      #
#                          2\CC2430DB\..\..\..\..\..\COMPONENTS\MAC\INCLUDE\" #
#                           -I "C:\Texas Instruments\ZStack-1.4.3-1.2.1\Proje #
#                          cts\zstack\Samples\cc2430-zstack-adxl345 -         #
#                          2\CC2430DB\..\..\..\..\..\COMPONENTS\MAC\HIGH_LEVE #
#                          L\" -I "C:\Texas Instruments\ZStack-1.4.3-1.2.1\Pr #
#                          ojects\zstack\Samples\cc2430-zstack-adxl345 -      #
#                          2\CC2430DB\..\..\..\..\..\COMPONENTS\MAC\LOW_LEVEL #
#                          \SRF03\" -I "C:\Texas Instruments\ZStack-1.4.3-1.2 #
#                          .1\Projects\zstack\Samples\cc2430-zstack-adxl345   #
#                          - 2\CC2430DB\..\..\..\..\..\COMPONENTS\MAC\LOW_LEV #
#                          EL\SRF03\SINGLE_CHIP\" -I "C:\Program Files\IAR    #
#                          Systems\Embedded Workbench 4.0 Evaluation          #
#                          version\8051\INC\" -I "C:\Program Files\IAR        #
#                          Systems\Embedded Workbench 4.0 Evaluation          #
#                          version\8051\INC\CLIB\"                            #
#    List file          =  C:\Texas Instruments\ZStack-1.4.3-1.2.1\Projects\z #
#                          stack\Samples\cc2430-zstack-adxl345 -              #
#                          2\CC2430DB\EndDevice3EB\List\adxl345.lst           #
#    Object file        =  C:\Texas Instruments\ZStack-1.4.3-1.2.1\Projects\z #
#                          stack\Samples\cc2430-zstack-adxl345 -              #
#                          2\CC2430DB\EndDevice3EB\Obj\adxl345.r51            #
#                                                                             #
#                                                                             #
###############################################################################

C:\Texas Instruments\ZStack-1.4.3-1.2.1\Projects\zstack\Samples\cc2430-zstack-adxl345 - 2\Drivers\adxl345.c
      1          #include <ioCC2430.h>

   \                                 In  segment SFR_AN, at 0x90
   \   union <unnamed> volatile __sfr _A_P1
   \                     _A_P1:
   \   000000                DS 1

   \                                 In  segment SFR_AN, at 0xfe
   \   unsigned char volatile __sfr P1DIR
   \                     P1DIR:
   \   000000                DS 1
      2          #include <string.h>
      3          #include <math.h>
      4          #include <stdio.h>
      5          #include <math.h>
      6          #include "adxl345.h"
      7          //#include "LCD3310.h"
      8          #define SCL     P1_2
      9          #define SDA     P1_3
     10          
     11          #define SDADirOut P1DIR|=0x08;      //xxxx1M01
     12          #define SDADirIn  P1DIR&=~0x08;
     13          
     14          #define TRUE 1
     15          #define FALSE 0
     16          #define	SlaveAddress 0xA6 //定义器件在IIC总线中的从地址,根据ALT  ADDRESS地址引脚不同修改
     17          

   \                                 In  segment XDATA_Z, align 1, keep-with-next
     18          INT8U POS_TEMP[6];
   \                     POS_TEMP:
   \   000000                DS 6
   \   000006                REQUIRE __INIT_XDATA_Z

   \                                 In  segment XDATA_Z, align 1, keep-with-next
     19          int  dis_data;
   \                     dis_data:
   \   000000                DS 2
   \   000002                REQUIRE __INIT_XDATA_Z
     20          

   \                                 In  segment XDATA_Z, align 1, keep-with-next
     21          char wan,qian,bai,shi,ge;
   \                     wan:
   \   000000                DS 1
   \   000001                REQUIRE __INIT_XDATA_Z

   \                                 In  segment XDATA_Z, align 1, keep-with-next
   \                     qian:
   \   000000                DS 1
   \   000001                REQUIRE __INIT_XDATA_Z

   \                                 In  segment XDATA_Z, align 1, keep-with-next
   \                     bai:
   \   000000                DS 1
   \   000001                REQUIRE __INIT_XDATA_Z

   \                                 In  segment XDATA_Z, align 1, keep-with-next
   \                     shi:
   \   000000                DS 1
   \   000001                REQUIRE __INIT_XDATA_Z

   \                                 In  segment XDATA_Z, align 1, keep-with-next
   \                     `ge`:
   \   000000                DS 1
   \   000001                REQUIRE __INIT_XDATA_Z
     22          
     23          void initUARTtest(void);
     24          void UartTX_Send_String(char *Data,int len);
     25          
     26          void Sendack(unsigned char h);
     27          unsigned char I2C_Check_ack();
     28          
     29          void I2C_Start_1(void);
     30          void I2C_Stop_1(void);
     31          
     32          void WriteI2CByte_1(INT8U b);
     33          unsigned char ReadI2CByte_1(void);
     34          
     35          unsigned char Single_Read_ADXL345(INT8U REG_Address);
     36          void Single_Write_ADXL345(INT8U REG_Address,INT8U REG_data);
     37          
     38          void Init_ADXL345();
     39          
     40          void Delay_1u(unsigned int microSecs);
     41          void Delay(INT16U n);
     42          
     43          INT8U I2C_Check_ack(void);
     44          
     45          
     46          void Multiple_Read_ADXL345(void);
     47          

   \                                 In  segment BANKED_CODE, align 1, keep-with-next
     48          void Delay(INT16U n)      //(5/32)*n   us
   \                     Delay:
     49          {
   \   000000                ; Saved register size: 0
   \   000000                ; Auto size: 0
     50              INT16U d;
     51              for(d=0;d<n;d++);
   \   000000   7800         MOV     R0,#0x0
   \   000002   7900         MOV     R1,#0x0
   \                     ??Delay_0:
   \   000004   C3           CLR     C
   \   000005   E8           MOV     A,R0
   \   000006   9A           SUBB    A,R2
   \   000007   E9           MOV     A,R1
   \   000008   9B           SUBB    A,R3
   \   000009   500A         JNC     ??Delay_1
   \   00000B   E8           MOV     A,R0
   \   00000C   2401         ADD     A,#0x1
   \   00000E   F8           MOV     R0,A
   \   00000F   E9           MOV     A,R1
   \   000010   3400         ADDC    A,#0x0
   \   000012   F9           MOV     R1,A
   \   000013   80EF         SJMP    ??Delay_0
     52              for(d=0;d<n;d++);
   \                     ??Delay_1:
   \   000015   7800         MOV     R0,#0x0
   \   000017   7900         MOV     R1,#0x0
   \                     ??Delay_2:
   \   000019   C3           CLR     C
   \   00001A   E8           MOV     A,R0
   \   00001B   9A           SUBB    A,R2
   \   00001C   E9           MOV     A,R1
   \   00001D   9B           SUBB    A,R3
   \   00001E   500A         JNC     ??Delay_3
   \   000020   E8           MOV     A,R0
   \   000021   2401         ADD     A,#0x1
   \   000023   F8           MOV     R0,A
   \   000024   E9           MOV     A,R1
   \   000025   3400         ADDC    A,#0x0
   \   000027   F9           MOV     R1,A
   \   000028   80EF         SJMP    ??Delay_2
     53              for(d=0;d<n;d++);
   \                     ??Delay_3:
   \   00002A   7800         MOV     R0,#0x0
   \   00002C   7900         MOV     R1,#0x0
   \                     ??Delay_4:
   \   00002E   C3           CLR     C
   \   00002F   E8           MOV     A,R0
   \   000030   9A           SUBB    A,R2
   \   000031   E9           MOV     A,R1
   \   000032   9B           SUBB    A,R3
   \   000033   500A         JNC     ??Delay_5
   \   000035   E8           MOV     A,R0
   \   000036   2401         ADD     A,#0x1
   \   000038   F8           MOV     R0,A
   \   000039   E9           MOV     A,R1
   \   00003A   3400         ADDC    A,#0x0
   \   00003C   F9           MOV     R1,A
   \   00003D   80EF         SJMP    ??Delay_4
     54              for(d=0;d<n;d++);
   \                     ??Delay_5:
   \   00003F   7800         MOV     R0,#0x0
   \   000041   7900         MOV     R1,#0x0
   \                     ??Delay_6:
   \   000043   C3           CLR     C
   \   000044   E8           MOV     A,R0
   \   000045   9A           SUBB    A,R2
   \   000046   E9           MOV     A,R1
   \   000047   9B           SUBB    A,R3
   \   000048   500A         JNC     ??Delay_7
   \   00004A   E8           MOV     A,R0
   \   00004B   2401         ADD     A,#0x1
   \   00004D   F8           MOV     R0,A
   \   00004E   E9           MOV     A,R1
   \   00004F   3400         ADDC    A,#0x0
   \   000051   F9           MOV     R1,A
   \   000052   80EF         SJMP    ??Delay_6
     55              for(d=0;d<n;d++);
   \                     ??Delay_7:
   \   000054   7800         MOV     R0,#0x0
   \   000056   7900         MOV     R1,#0x0
   \                     ??Delay_8:
   \   000058   C3           CLR     C
   \   000059   E8           MOV     A,R0
   \   00005A   9A           SUBB    A,R2
   \   00005B   E9           MOV     A,R1
   \   00005C   9B           SUBB    A,R3
   \   00005D   500A         JNC     ??Delay_9
   \   00005F   E8           MOV     A,R0
   \   000060   2401         ADD     A,#0x1
   \   000062   F8           MOV     R0,A
   \   000063   E9           MOV     A,R1
   \   000064   3400         ADDC    A,#0x0
   \   000066   F9           MOV     R1,A
   \   000067   80EF         SJMP    ??Delay_8
     56          }
   \                     ??Delay_9:
   \   000069   02....       LJMP    ?BRET
     57          

   \                                 In  segment BANKED_CODE, align 1, keep-with-next
     58          void Delay_1u(unsigned int microSecs) {
   \                     Delay_1u:
   \   000000                ; Saved register size: 0
   \   000000                ; Auto size: 0
     59              while(microSecs--)
   \                     ??Delay_1u_0:
   \   000000   EA           MOV     A,R2
   \   000001   F8           MOV     R0,A
   \   000002   EB           MOV     A,R3
   \   000003   F9           MOV     R1,A
   \   000004   74FF         MOV     A,#-0x1
   \   000006   28           ADD     A,R0
   \   000007   FA           MOV     R2,A
   \   000008   74FF         MOV     A,#-0x1
   \   00000A   39           ADDC    A,R1
   \   00000B   FB           MOV     R3,A
   \   00000C   7400         MOV     A,#0x0
   \   00000E   68           XRL     A,R0
   \   00000F   7003         JNZ     ??Delay_1u_1
   \   000011   7400         MOV     A,#0x0
   \   000013   69           XRL     A,R1
   \                     ??Delay_1u_1:
   \   000014   6022         JZ      ??Delay_1u_2
     60              {
     61                  /* 32 NOPs == 1 usecs */
     62                  asm("nop"); asm("nop"); asm("nop"); asm("nop"); asm("nop");
   \   000016   00           nop
   \   000017   00           nop
   \   000018   00           nop
   \   000019   00           nop
   \   00001A   00           nop
     63                  asm("nop"); asm("nop"); asm("nop"); asm("nop"); asm("nop");
   \   00001B   00           nop
   \   00001C   00           nop
   \   00001D   00           nop
   \   00001E   00           nop
   \   00001F   00           nop
     64                  asm("nop"); asm("nop"); asm("nop"); asm("nop"); asm("nop");
   \   000020   00           nop
   \   000021   00           nop
   \   000022   00           nop
   \   000023   00           nop
   \   000024   00           nop
     65                  asm("nop"); asm("nop"); asm("nop"); asm("nop"); asm("nop");
   \   000025   00           nop
   \   000026   00           nop
   \   000027   00           nop
   \   000028   00           nop
   \   000029   00           nop
     66                  asm("nop"); asm("nop"); asm("nop"); asm("nop"); asm("nop");
   \   00002A   00           nop
   \   00002B   00           nop
   \   00002C   00           nop
   \   00002D   00           nop
   \   00002E   00           nop
     67                  asm("nop"); asm("nop"); asm("nop"); asm("nop"); asm("nop");
   \   00002F   00           nop
   \   000030   00           nop
   \   000031   00           nop
   \   000032   00           nop
   \   000033   00           nop
     68                  asm("nop"); asm("nop");
   \   000034   00           nop
   \   000035   00           nop
   \   000036   80C8         SJMP    ??Delay_1u_0
     69              }
     70          }
   \                     ??Delay_1u_2:
   \   000038   02....       LJMP    ?BRET
     71          

   \                                 In  segment BANKED_CODE, align 1, keep-with-next
     72          void conversion(SEND_DATA *da, SPEED *speed, ACCELERATION * ac)
   \                     conversion:
     73          {
   \   000000   74F0         MOV     A,#-0x10
   \   000002   12....       LCALL   ?BANKED_ENTER_XDATA
   \   000005                ; Saved register size: 16
   \   000005                ; Auto size: 20
   \   000005   74EC         MOV     A,#-0x14
   \   000007   12....       LCALL   ?ALLOC_XSTACK8
   \   00000A   7402         MOV     A,#0x2
   \   00000C   12....       LCALL   ?XSTACK_DISP0_8
   \   00000F   EA           MOV     A,R2
   \   000010   F0           MOVX    @DPTR,A
   \   000011   A3           INC     DPTR
   \   000012   EB           MOV     A,R3
   \   000013   F0           MOVX    @DPTR,A
   \   000014   85..82       MOV     DPL,?XSP + 0
   \   000017   85..83       MOV     DPH,?XSP + 1
   \   00001A   EC           MOV     A,R4
   \   00001B   F0           MOVX    @DPTR,A
   \   00001C   A3           INC     DPTR
   \   00001D   ED           MOV     A,R5
   \   00001E   F0           MOVX    @DPTR,A
   \   00001F   7424         MOV     A,#0x24
   \   000021   12....       LCALL   ?XSTACK_DISP0_8
   \   000024   E0           MOVX    A,@DPTR
   \   000025   FE           MOV     R6,A
   \   000026   A3           INC     DPTR
   \   000027   E0           MOVX    A,@DPTR
   \   000028   FF           MOV     R7,A
     74              float acc_total,angel[3];
     75              ac->acc_x = (POS_TEMP[1] << 8) + POS_TEMP[0];
   \   000029   90....       MOV     DPTR,#(POS_TEMP + 1)
   \   00002C   E0           MOVX    A,@DPTR
   \   00002D   F8           MOV     R0,A
   \   00002E   E4           CLR     A
   \   00002F   C8           XCH     A,R0
   \   000030   F9           MOV     R1,A
   \   000031   90....       MOV     DPTR,#POS_TEMP
   \   000034   E0           MOVX    A,@DPTR
   \   000035   7B00         MOV     R3,#0x0
   \   000037   28           ADD     A,R0
   \   000038   F5..         MOV     ?V0 + 0,A
   \   00003A   EB           MOV     A,R3
   \   00003B   39           ADDC    A,R1
   \   00003C   F5..         MOV     ?V0 + 1,A
   \   00003E   E5..         MOV     A,?V0 + 1
   \   000040   33           RLC     A
   \   000041   95E0         SUBB    A,0xE0 /* A   */
   \   000043   F5..         MOV     ?V0 + 2,A
   \   000045   F5..         MOV     ?V0 + 3,A
   \   000047   78..         MOV     R0,#?V0 + 0
   \   000049   12....       LCALL   ?L_TO_FLT
   \   00004C   8E82         MOV     DPL,R6
   \   00004E   8F83         MOV     DPH,R7
   \   000050   78..         MOV     R0,#?V0 + 0
   \   000052   12....       LCALL   ?L_MOV_TO_X
     76              ac->acc_y = (POS_TEMP[3] << 8) + POS_TEMP[2];
   \   000055   90....       MOV     DPTR,#(POS_TEMP + 3)
   \   000058   E0           MOVX    A,@DPTR
   \   000059   F8           MOV     R0,A
   \   00005A   E4           CLR     A
   \   00005B   C8           XCH     A,R0
   \   00005C   F9           MOV     R1,A
   \   00005D   90....       MOV     DPTR,#(POS_TEMP + 2)
   \   000060   E0           MOVX    A,@DPTR
   \   000061   7B00         MOV     R3,#0x0
   \   000063   28           ADD     A,R0
   \   000064   F5..         MOV     ?V0 + 0,A
   \   000066   EB           MOV     A,R3
   \   000067   39           ADDC    A,R1
   \   000068   F5..         MOV     ?V0 + 1,A
   \   00006A   E5..         MOV     A,?V0 + 1
   \   00006C   33           RLC     A
   \   00006D   95E0         SUBB    A,0xE0 /* A   */
   \   00006F   F5..         MOV     ?V0 + 2,A
   \   000071   F5..         MOV     ?V0 + 3,A
   \   000073   78..         MOV     R0,#?V0 + 0
   \   000075   12....       LCALL   ?L_TO_FLT
   \   000078   8E82         MOV     DPL,R6
   \   00007A   8F83         MOV     DPH,R7
   \   00007C   A3           INC     DPTR
   \   00007D   A3           INC     DPTR
   \   00007E   A3           INC     DPTR
   \   00007F   A3           INC     DPTR
   \   000080   78..         MOV     R0,#?V0 + 0
   \   000082   12....       LCALL   ?L_MOV_TO_X
     77              ac->acc_z = (POS_TEMP[5] << 8) + POS_TEMP[4];
   \   000085   90....       MOV     DPTR,#(POS_TEMP + 5)
   \   000088   E0           MOVX    A,@DPTR
   \   000089   F8           MOV     R0,A
   \   00008A   E4           CLR     A
   \   00008B   C8           XCH     A,R0
   \   00008C   F9           MOV     R1,A
   \   00008D   90....       MOV     DPTR,#(POS_TEMP + 4)
   \   000090   E0           MOVX    A,@DPTR
   \   000091   7B00         MOV     R3,#0x0
   \   000093   28           ADD     A,R0
   \   000094   F5..         MOV     ?V0 + 0,A
   \   000096   EB           MOV     A,R3
   \   000097   39           ADDC    A,R1
   \   000098   F5..         MOV     ?V0 + 1,A
   \   00009A   E5..         MOV     A,?V0 + 1
   \   00009C   33           RLC     A
   \   00009D   95E0         SUBB    A,0xE0 /* A   */
   \   00009F   F5..         MOV     ?V0 + 2,A
   \   0000A1   F5..         MOV     ?V0 + 3,A
   \   0000A3   78..         MOV     R0,#?V0 + 0
   \   0000A5   12....       LCALL   ?L_TO_FLT
   \   0000A8   8E82         MOV     DPL,R6
   \   0000AA   8F83         MOV     DPH,R7
   \   0000AC   A3           INC     DPTR
   \   0000AD   A3           INC     DPTR
   \   0000AE   A3           INC     DPTR
   \   0000AF   A3           INC     DPTR
   \   0000B0   A3           INC     DPTR
   \   0000B1   A3           INC     DPTR
   \   0000B2   A3           INC     DPTR
   \   0000B3   A3           INC     DPTR
   \   0000B4   78..         MOV     R0,#?V0 + 0
   \   0000B6   12....       LCALL   ?L_MOV_TO_X
     78              ac->acc_x = (float)(ac->acc_x) * 3.9;
   \   0000B9   8E82         MOV     DPL,R6
   \   0000BB   8F83         MOV     DPH,R7
   \   0000BD   78..         MOV     R0,#?V0 + 4
   \   0000BF   12....       LCALL   ?L_MOV_X
   \   0000C2   90....       MOV     DPTR,#__Constant_4079999a
   \   0000C5   78..         MOV     R0,#?V0 + 0
   \   0000C7   12....       LCALL   ?L_MOV_X
   \   0000CA   78..         MOV     R0,#?V0 + 4
   \   0000CC   79..         MOV     R1,#?V0 + 0
   \   0000CE   12....       LCALL   ?FLT_MUL
   \   0000D1   8E82         MOV     DPL,R6
   \   0000D3   8F83         MOV     DPH,R7
   \   0000D5   78..         MOV     R0,#?V0 + 4
   \   0000D7   12....       LCALL   ?L_MOV_TO_X
     79              ac->acc_x = (float)(ac->acc_x / 100);
   \   0000DA   8E82         MOV     DPL,R6
   \   0000DC   8F83         MOV     DPH,R7
   \   0000DE   78..         MOV     R0,#?V0 + 4
   \   0000E0   12....       LCALL   ?L_MOV_X
   \   0000E3   90....       MOV     DPTR,#__Constant_42c80000
   \   0000E6   78..         MOV     R0,#?V0 + 0
   \   0000E8   12....       LCALL   ?L_MOV_X
   \   0000EB   78..         MOV     R0,#?V0 + 4
   \   0000ED   79..         MOV     R1,#?V0 + 0
   \   0000EF   12....       LCALL   ?FLT_DIV
   \   0000F2   8E82         MOV     DPL,R6
   \   0000F4   8F83         MOV     DPH,R7
   \   0000F6   78..         MOV     R0,#?V0 + 4
   \   0000F8   12....       LCALL   ?L_MOV_TO_X
     80              ac->acc_y = (float)(ac->acc_y) * 3.9;
   \   0000FB   8E82         MOV     DPL,R6
   \   0000FD   8F83         MOV     DPH,R7
   \   0000FF   A3           INC     DPTR
   \   000100   A3           INC     DPTR
   \   000101   A3           INC     DPTR
   \   000102   A3           INC     DPTR
   \   000103   78..         MOV     R0,#?V0 + 4
   \   000105   12....       LCALL   ?L_MOV_X
   \   000108   90....       MOV     DPTR,#__Constant_4079999a
   \   00010B   78..         MOV     R0,#?V0 + 0
   \   00010D   12....       LCALL   ?L_MOV_X
   \   000110   78..         MOV     R0,#?V0 + 4
   \   000112   79..         MOV     R1,#?V0 + 0
   \   000114   12....       LCALL   ?FLT_MUL
   \   000117   8E82         MOV     DPL,R6
   \   000119   8F83         MOV     DPH,R7
   \   00011B   A3           INC     DPTR
   \   00011C   A3           INC     DPTR
   \   00011D   A3           INC     DPTR
   \   00011E   A3           INC     DPTR
   \   00011F   78..         MOV     R0,#?V0 + 4
   \   000121   12....       LCALL   ?L_MOV_TO_X
     81              ac->acc_y = (float)(ac->acc_y / 100);
   \   000124   8E82         MOV     DPL,R6
   \   000126   8F83         MOV     DPH,R7
   \   000128   A3           INC     DPTR
   \   000129   A3           INC     DPTR
   \   00012A   A3           INC     DPTR
   \   00012B   A3           INC     DPTR
   \   00012C   78..         MOV     R0,#?V0 + 4
   \   00012E   12....       LCALL   ?L_MOV_X
   \   000131   90....       MOV     DPTR,#__Constant_42c80000
   \   000134   78..         MOV     R0,#?V0 + 0
   \   000136   12....       LCALL   ?L_MOV_X
   \   000139   78..         MOV     R0,#?V0 + 4
   \   00013B   79..         MOV     R1,#?V0 + 0
   \   00013D   12....       LCALL   ?FLT_DIV
   \   000140   8E82         MOV     DPL,R6
   \   000142   8F83         MOV     DPH,R7
   \   000144   A3           INC     DPTR
   \   000145   A3           INC     DPTR
   \   000146   A3           INC     DPTR
   \   000147   A3           INC     DPTR
   \   000148   78..         MOV     R0,#?V0 + 4
   \   00014A   12....       LCALL   ?L_MOV_TO_X
     82              ac->acc_z = (float)(ac->acc_z) * 3.9;
   \   00014D   8E82         MOV     DPL,R6
   \   00014F   8F83         MOV     DPH,R7
   \   000151   A3           INC     DPTR
   \   000152   A3           INC     DPTR
   \   000153   A3           INC     DPTR
   \   000154   A3           INC     DPTR
   \   000155   A3           INC     DPTR
   \   000156   A3           INC     DPTR
   \   000157   A3           INC     DPTR
   \   000158   A3           INC     DPTR
   \   000159   78..         MOV     R0,#?V0 + 4
   \   00015B   12....       LCALL   ?L_MOV_X
   \   00015E   90....       MOV     DPTR,#__Constant_4079999a
   \   000161   78..         MOV     R0,#?V0 + 0
   \   000163   12....       LCALL   ?L_MOV_X
   \   000166   78..         MOV     R0,#?V0 + 4
   \   000168   79..         MOV     R1,#?V0 + 0
   \   00016A   12....       LCALL   ?FLT_MUL
   \   00016D   8E82         MOV     DPL,R6
   \   00016F   8F83         MOV     DPH,R7
   \   000171   A3           INC     DPTR
   \   000172   A3           INC     DPTR
   \   000173   A3           INC     DPTR
   \   000174   A3           INC     DPTR
   \   000175   A3           INC     DPTR
   \   000176   A3           INC     DPTR
   \   000177   A3           INC     DPTR
   \   000178   A3           INC     DPTR
   \   000179   78..         MOV     R0,#?V0 + 4
   \   00017B   12....       LCALL   ?L_MOV_TO_X
     83              ac->acc_z = (float)(ac->acc_z / 100);
   \   00017E   8E82         MOV     DPL,R6
   \   000180   8F83         MOV     DPH,R7
   \   000182   A3           INC     DPTR
   \   000183   A3           INC     DPTR
   \   000184   A3           INC     DPTR
   \   000185   A3           INC     DPTR
   \   000186   A3           INC     DPTR
   \   000187   A3           INC     DPTR
   \   000188   A3           INC     DPTR
   \   000189   A3           INC     DPTR
   \   00018A   78..         MOV     R0,#?V0 + 4
   \   00018C   12....       LCALL   ?L_MOV_X
   \   00018F   90....       MOV     DPTR,#__Constant_42c80000
   \   000192   78..         MOV     R0,#?V0 + 0
   \   000194   12....       LCALL   ?L_MOV_X
   \   000197   78..         MOV     R0,#?V0 + 4
   \   000199   79..         MOV     R1,#?V0 + 0
   \   00019B   12....       LCALL   ?FLT_DIV
   \   00019E   8E82         MOV     DPL,R6
   \   0001A0   8F83         MOV     DPH,R7
   \   0001A2   A3           INC     DPTR
   \   0001A3   A3           INC     DPTR
   \   0001A4   A3           INC     DPTR
   \   0001A5   A3           INC     DPTR
   \   0001A6   A3           INC     DPTR
   \   0001A7   A3           INC     DPTR
   \   0001A8   A3           INC     DPTR
   \   0001A9   A3           INC     DPTR
   \   0001AA   78..         MOV     R0,#?V0 + 4
   \   0001AC   12....       LCALL   ?L_MOV_TO_X
     84          
     85              acc_total = sqrt(ac->acc_x * ac->acc_x + ac->acc_y * ac->acc_y + ac->acc_z * ac->acc_z);
   \   0001AF                ; Setup parameters for call to function sqrt
   \   0001AF   8E82         MOV     DPL,R6
   \   0001B1   8F83         MOV     DPH,R7
   \   0001B3   78..         MOV     R0,#?V0 + 0
   \   0001B5   12....       LCALL   ?L_MOV_X
   \   0001B8   8E82         MOV     DPL,R6
   \   0001BA   8F83         MOV     DPH,R7
   \   0001BC   78..         MOV     R0,#?V0 + 4
   \   0001BE   12....       LCALL   ?L_MOV_X
   \   0001C1   78..         MOV     R0,#?V0 + 0
   \   0001C3   79..         MOV     R1,#?V0 + 4
   \   0001C5   12....       LCALL   ?FLT_MUL
   \   0001C8   C0..         PUSH    ?V0 + 0
   \   0001CA   C0..         PUSH    ?V0 + 1
   \   0001CC   C0..         PUSH    ?V0 + 2
   \   0001CE   C0..         PUSH    ?V0 + 3
   \   0001D0   8E82         MOV     DPL,R6
   \   0001D2   8F83         MOV     DPH,R7
   \   0001D4   A3           INC     DPTR
   \   0001D5   A3           INC     DPTR
   \   0001D6   A3           INC     DPTR
   \   0001D7   A3           INC     DPTR
   \   0001D8   78..         MOV     R0,#?V0 + 4
   \   0001DA   12....       LCALL   ?L_MOV_X
   \   0001DD   8E82         MOV     DPL,R6
   \   0001DF   8F83         MOV     DPH,R7
   \   0001E1   A3           INC     DPTR
   \   0001E2   A3           INC     DPTR
   \   0001E3   A3           INC     DPTR
   \   0001E4   A3           INC     DPTR
   \   0001E5   78..         MOV     R0,#?V0 + 0
   \   0001E7   12....       LCALL   ?L_MOV_X
   \   0001EA   78..         MOV     R0,#?V0 + 4
   \   0001EC   79..         MOV     R1,#?V0 + 0
   \   0001EE   12....       LCALL   ?FLT_MUL
   \   0001F1   D0..         POP     ?V0 + 3
   \   0001F3   D0..         POP     ?V0 + 2
   \   0001F5   D0..         POP     ?V0 + 1
   \   0001F7   D0..         POP     ?V0 + 0
   \   0001F9   78..         MOV     R0,#?V0 + 0
   \   0001FB   79..         MOV     R1,#?V0 + 4
   \   0001FD   12....       LCALL   ?FLT_ADD
   \   000200   C0..         PUSH    ?V0 + 0
   \   000202   C0..         PUSH    ?V0 + 1
   \   000204   C0..         PUSH    ?V0 + 2
   \   000206   C0..         PUSH    ?V0 + 3
   \   000208   8E82         MOV     DPL,R6
   \   00020A   8F83         MOV     DPH,R7
   \   00020C   A3           INC     DPTR
   \   00020D   A3           INC     DPTR
   \   00020E   A3           INC     DPTR
   \   00020F   A3           INC     DPTR
   \   000210   A3           INC     DPTR
   \   000211   A3           INC     DPTR
   \   000212   A3           INC     DPTR
   \   000213   A3           INC     DPTR
   \   000214   78..         MOV     R0,#?V0 + 4
   \   000216   12....       LCALL   ?L_MOV_X
   \   000219   8E82         MOV     DPL,R6
   \   00021B   8F83         MOV     DPH,R7
   \   00021D   A3           INC     DPTR
   \   00021E   A3           INC     DPTR
   \   00021F   A3           INC     DPTR
   \   000220   A3           INC     DPTR
   \   000221   A3           INC     DPTR
   \   000222   A3           INC     DPTR
   \   000223   A3           INC     DPTR
   \   000224   A3           INC     DPTR
   \   000225   78..         MOV     R0,#?V0 + 0
   \   000227   12....       LCALL   ?L_MOV_X
   \   00022A   78..         MOV     R0,#?V0 + 4
   \   00022C   79..         MOV     R1,#?V0 + 0
   \   00022E   12....       LCALL   ?FLT_MUL
   \   000231   D0..         POP     ?V0 + 3
   \   000233   D0..         POP     ?V0 + 2
   \   000235   D0..         POP     ?V0 + 1
   \   000237   D0..         POP     ?V0 + 0
   \   000239   78..         MOV     R0,#?V0 + 0
   \   00023B   79..         MOV     R1,#?V0 + 4
   \   00023D   12....       LCALL   ?FLT_ADD
   \   000240   AA..         MOV     R2,?V0 + 0
   \   000242   AB..         MOV     R3,?V0 + 1
   \   000244   AC..         MOV     R4,?V0 + 2
   \   000246   AD..         MOV     R5,?V0 + 3
   \   000248   12....       LCALL   ??sqrt?relay
   \   00024B   8A..         MOV     ?V0 + 0,R2
   \   00024D   8B..         MOV     ?V0 + 1,R3
   \   00024F   8C..         MOV     ?V0 + 2,R4
   \   000251   8D..         MOV     ?V0 + 3,R5
   \   000253   7404         MOV     A,#0x4
   \   000255   12....       LCALL   ?XSTACK_DISP0_8
   \   000258   78..         MOV     R0,#?V0 + 0
   \   00025A   12....       LCALL   ?L_MOV_TO_X
     86              /* calculate the angle */
     87              angel[0] = acos(ac->acc_x / acc_total);
   \   00025D                ; Setup parameters for call to function acos
   \   00025D   8E82         MOV     DPL,R6
   \   00025F   8F83         MOV     DPH,R7
   \   000261   78..         MOV     R0,#?V0 + 4
   \   000263   12....       LCALL   ?L_MOV_X
   \   000266   7404         MOV     A,#0x4
   \   000268   12....       LCALL   ?XSTACK_DISP0_8
   \   00026B   78..         MOV     R0,#?V0 + 0
   \   00026D   12....       LCALL   ?L_MOV_X
   \   000270   78..         MOV     R0,#?V0 + 4
   \   000272   79..         MOV     R1,#?V0 + 0
   \   000274   12....       LCALL   ?FLT_DIV
   \   000277   AA..         MOV     R2,?V0 + 4
   \   000279   AB..         MOV     R3,?V0 + 5
   \   00027B   AC..         MOV     R4,?V0 + 6
   \   00027D   AD..         MOV     R5,?V0 + 7
   \   00027F   12....       LCALL   ??acos?relay
   \   000282   8A..         MOV     ?V0 + 0,R2
   \   000284   8B..         MOV     ?V0 + 1,R3
   \   000286   8C..         MOV     ?V0 + 2,R4
   \   000288   8D..         MOV     ?V0 + 3,R5
   \   00028A   7408         MOV     A,#0x8
   \   00028C   12....       LCALL   ?XSTACK_DISP0_8
   \   00028F   78..         MOV     R0,#?V0 + 0
   \   000291   12....       LCALL   ?L_MOV_TO_X
     88              angel[1] = acos(ac->acc_y / acc_total);
   \   000294                ; Setup parameters for call to function acos
   \   000294   8E82         MOV     DPL,R6
   \   000296   8F83         MOV     DPH,R7
   \   000298   A3           INC     DPTR
   \   000299   A3           INC     DPTR
   \   00029A   A3           INC     DPTR
   \   00029B   A3           INC     DPTR
   \   00029C   78..         MOV     R0,#?V0 + 4
   \   00029E   12....       LCALL   ?L_MOV_X
   \   0002A1   7404         MOV     A,#0x4
   \   0002A3   12....       LCALL   ?XSTACK_DISP0_8
   \   0002A6   78..         MOV     R0,#?V0 + 0
   \   0002A8   12....       LCALL   ?L_MOV_X
   \   0002AB   78..         MOV     R0,#?V0 + 4
   \   0002AD   79..         MOV     R1,#?V0 + 0
   \   0002AF   12....       LCALL   ?FLT_DIV
   \   0002B2   AA..         MOV     R2,?V0 + 4
   \   0002B4   AB..         MOV     R3,?V0 + 5
   \   0002B6   AC..         MOV     R4,?V0 + 6
   \   0002B8   AD..         MOV     R5,?V0 + 7
   \   0002BA   12....       LCALL   ??acos?relay
   \   0002BD   8A..         MOV     ?V0 + 0,R2
   \   0002BF   8B..         MOV     ?V0 + 1,R3
   \   0002C1   8C..         MOV     ?V0 + 2,R4
   \   0002C3   8D..         MOV     ?V0 + 3,R5
   \   0002C5   740C         MOV     A,#0xc
   \   0002C7   12....       LCALL   ?XSTACK_DISP0_8
   \   0002CA   78..         MOV     R0,#?V0 + 0
   \   0002CC   12....       LCALL   ?L_MOV_TO_X
     89              angel[2] = acos(ac->acc_z / acc_total);
   \   0002CF                ; Setup parameters for call to function acos
   \   0002CF   8E82         MOV     DPL,R6
   \   0002D1   8F83         MOV     DPH,R7
   \   0002D3   A3           INC     DPTR
   \   0002D4   A3           INC     DPTR
   \   0002D5   A3           INC     DPTR
   \   0002D6   A3           INC     DPTR
   \   0002D7   A3           INC     DPTR
   \   0002D8   A3           INC     DPTR
   \   0002D9   A3           INC     DPTR
   \   0002DA   A3           INC     DPTR
   \   0002DB   78..         MOV     R0,#?V0 + 4
   \   0002DD   12....       LCALL   ?L_MOV_X
   \   0002E0   7404         MOV     A,#0x4
   \   0002E2   12....       LCALL   ?XSTACK_DISP0_8
   \   0002E5   78..         MOV     R0,#?V0 + 0
   \   0002E7   12....       LCALL   ?L_MOV_X
   \   0002EA   78..         MOV     R0,#?V0 + 4
   \   0002EC   79..         MOV     R1,#?V0 + 0
   \   0002EE   12....       LCALL   ?FLT_DIV
   \   0002F1   AA..         MOV     R2,?V0 + 4
   \   0002F3   AB..         MOV     R3,?V0 + 5
   \   0002F5   AC..         MOV     R4,?V0 + 6
   \   0002F7   AD..         MOV     R5,?V0 + 7
   \   0002F9   12....       LCALL   ??acos?relay
   \   0002FC   8A..         MOV     ?V0 + 0,R2
   \   0002FE   8B..         MOV     ?V0 + 1,R3
   \   000300   8C..         MOV     ?V0 + 2,R4
   \   000302   8D..         MOV     ?V0 + 3,R5
   \   000304   7410         MOV     A,#0x10
   \   000306   12....       LCALL   ?XSTACK_DISP0_8
   \   000309   78..         MOV     R0,#?V0 + 0
   \   00030B   12....       LCALL   ?L_MOV_TO_X
     90              /* calculate the actual accelaration */
     91              ac->acc_x = ac->acc_x - (10.0 * cos(angel[0]));
   \   00030E   8E82         MOV     DPL,R6
   \   000310   8F83         MOV     DPH,R7
   \   000312   78..         MOV     R0,#?V0 + 0
   \   000314   12....       LCALL   ?L_MOV_X
   \   000317   C0..         PUSH    ?V0 + 0
   \   000319   C0..         PUSH    ?V0 + 1
   \   00031B   C0..         PUSH    ?V0 + 2
   \   00031D   C0..         PUSH    ?V0 + 3
   \   00031F                ; Setup parameters for call to function cos
   \   00031F   7408         MOV     A,#0x8
   \   000321   12....       LCALL   ?XSTACK_DISP0_8
   \   000324   78..         MOV     R0,#?V0 + 0
   \   000326   12....       LCALL   ?L_MOV_X
   \   000329   AA..         MOV     R2,?V0 + 0
   \   00032B   AB..         MOV     R3,?V0 + 1
   \   00032D   AC..         MOV     R4,?V0 + 2
   \   00032F   AD..         MOV     R5,?V0 + 3
   \   000331   12....       LCALL   ??cos?relay
   \   000334   8A..         MOV     ?V0 + 4,R2
   \   000336   8B..         MOV     ?V0 + 5,R3
   \   000338   8C..         MOV     ?V0 + 6,R4
   \   00033A   8D..         MOV     ?V0 + 7,R5
   \   00033C   90....       MOV     DPTR,#__Constant_41200000
   \   00033F   78..         MOV     R0,#?V0 + 0
   \   000341   12....       LCALL   ?L_MOV_X
   \   000344   78..         MOV     R0,#?V0 + 4
   \   000346   79..         MOV     R1,#?V0 + 0
   \   000348   12....       LCALL   ?FLT_MUL
   \   00034B   D0..         POP     ?V0 + 3
   \   00034D   D0..         POP     ?V0 + 2
   \   00034F   D0..         POP     ?V0 + 1
   \   000351   D0..         POP     ?V0 + 0
   \   000353   78..         MOV     R0,#?V0 + 0
   \   000355   79..         MOV     R1,#?V0 + 4
   \   000357   12....       LCALL   ?FLT_SUB
   \   00035A   8E82         MOV     DPL,R6
   \   00035C   8F83         MOV     DPH,R7
   \   00035E   78..         MOV     R0,#?V0 + 0
   \   000360   12....       LCALL   ?L_MOV_TO_X
     92              ac->acc_y = ac->acc_y - (10.0 * cos(angel[1]));
   \   000363   8E82         MOV     DPL,R6
   \   000365   8F83         MOV     DPH,R7
   \   000367   A3           INC     DPTR
   \   000368   A3           INC     DPTR
   \   000369   A3           INC     DPTR
   \   00036A   A3           INC     DPTR
   \   00036B   78..         MOV     R0,#?V0 + 0
   \   00036D   12....       LCALL   ?L_MOV_X
   \   000370   C0..         PUSH    ?V0 + 0
   \   000372   C0..         PUSH    ?V0 + 1
   \   000374   C0..         PUSH    ?V0 + 2
   \   000376   C0..         PUSH    ?V0 + 3
   \   000378                ; Setup parameters for call to function cos
   \   000378   740C         MOV     A,#0xc
   \   00037A   12....       LCALL   ?XSTACK_DISP0_8
   \   00037D   78..         MOV     R0,#?V0 + 0
   \   00037F   12....       LCALL   ?L_MOV_X
   \   000382   AA..         MOV     R2,?V0 + 0
   \   000384   AB..         MOV     R3,?V0 + 1
   \   000386   AC..         MOV     R4,?V0 + 2
   \   000388   AD..         MOV     R5,?V0 + 3
   \   00038A   12....       LCALL   ??cos?relay
   \   00038D   8A..         MOV     ?V0 + 4,R2
   \   00038F   8B..         MOV     ?V0 + 5,R3
   \   000391   8C..         MOV     ?V0 + 6,R4
   \   000393   8D..         MOV     ?V0 + 7,R5
   \   000395   90....       MOV     DPTR,#__Constant_41200000
   \   000398   78..         MOV     R0,#?V0 + 0
   \   00039A   12....       LCALL   ?L_MOV_X
   \   00039D   78..         MOV     R0,#?V0 + 4
   \   00039F   79..         MOV     R1,#?V0 + 0
   \   0003A1   12....       LCALL   ?FLT_MUL
   \   0003A4   D0..         POP     ?V0 + 3
   \   0003A6   D0..         POP     ?V0 + 2
   \   0003A8   D0..         POP     ?V0 + 1
   \   0003AA   D0..         POP     ?V0 + 0
   \   0003AC   78..         MOV     R0,#?V0 + 0
   \   0003AE   79..         MOV     R1,#?V0 + 4
   \   0003B0   12....       LCALL   ?FLT_SUB
   \   0003B3   8E82         MOV     DPL,R6
   \   0003B5   8F83         MOV     DPH,R7
   \   0003B7   A3           INC     DPTR
   \   0003B8   A3           INC     DPTR
   \   0003B9   A3           INC     DPTR
   \   0003BA   A3           INC     DPTR
   \   0003BB   78..         MOV     R0,#?V0 + 0
   \   0003BD   12....       LCALL   ?L_MOV_TO_X
     93              ac->acc_z = ac->acc_z - (10.0 * cos(angel[2]));
   \   0003C0   8E82         MOV     DPL,R6
   \   0003C2   8F83         MOV     DPH,R7
   \   0003C4   A3           INC     DPTR
   \   0003C5   A3           INC     DPTR
   \   0003C6   A3           INC     DPTR
   \   0003C7   A3           INC     DPTR
   \   0003C8   A3           INC     DPTR
   \   0003C9   A3           INC     DPTR
   \   0003CA   A3           INC     DPTR
   \   0003CB   A3           INC     DPTR
   \   0003CC   78..         MOV     R0,#?V0 + 0
   \   0003CE   12....       LCALL   ?L_MOV_X
   \   0003D1   C0..         PUSH    ?V0 + 0
   \   0003D3   C0..         PUSH    ?V0 + 1
   \   0003D5   C0..         PUSH    ?V0 + 2
   \   0003D7   C0..         PUSH    ?V0 + 3
   \   0003D9                ; Setup parameters for call to function cos
   \   0003D9   7410         MOV     A,#0x10
   \   0003DB   12....       LCALL   ?XSTACK_DISP0_8
   \   0003DE   78..         MOV     R0,#?V0 + 0
   \   0003E0   12....       LCALL   ?L_MOV_X
   \   0003E3   AA..         MOV     R2,?V0 + 0
   \   0003E5   AB..         MOV     R3,?V0 + 1
   \   0003E7   AC..         MOV     R4,?V0 + 2
   \   0003E9   AD..         MOV     R5,?V0 + 3
   \   0003EB   12....       LCALL   ??cos?relay
   \   0003EE   8A..         MOV     ?V0 + 4,R2
   \   0003F0   8B..         MOV     ?V0 + 5,R3
   \   0003F2   8C..         MOV     ?V0 + 6,R4
   \   0003F4   8D..         MOV     ?V0 + 7,R5
   \   0003F6   90....       MOV     DPTR,#__Constant_41200000
   \   0003F9   78..         MOV     R0,#?V0 + 0
   \   0003FB   12....       LCALL   ?L_MOV_X
   \   0003FE   78..         MOV     R0,#?V0 + 4
   \   000400   79..         MOV     R1,#?V0 + 0
   \   000402   12....       LCALL   ?FLT_MUL
   \   000405   D0..         POP     ?V0 + 3
   \   000407   D0..         POP     ?V0 + 2
   \   000409   D0..         POP     ?V0 + 1
   \   00040B   D0..         POP     ?V0 + 0
   \   00040D   78..         MOV     R0,#?V0 + 0
   \   00040F   79..         MOV     R1,#?V0 + 4
   \   000411   12....       LCALL   ?FLT_SUB
   \   000414   8E82         MOV     DPL,R6
   \   000416   8F83         MOV     DPH,R7
   \   000418   A3           INC     DPTR
   \   000419   A3           INC     DPTR
   \   00041A   A3           INC     DPTR
   \   00041B   A3           INC     DPTR
   \   00041C   A3           INC     DPTR
   \   00041D   A3           INC     DPTR
   \   00041E   A3           INC     DPTR
   \   00041F   A3           INC     DPTR
   \   000420   78..         MOV     R0,#?V0 + 0
   \   000422   12....       LCALL   ?L_MOV_TO_X
     94              da->x = (int)(speed->spd_x * 10 + ac->acc_x * 50);
   \   000425   85..82       MOV     DPL,?XSP + 0
   \   000428   85..83       MOV     DPH,?XSP + 1
   \   00042B   E0           MOVX    A,@DPTR
   \   00042C   F8           MOV     R0,A
   \   00042D   A3           INC     DPTR
   \   00042E   E0           MOVX    A,@DPTR
   \   00042F   F583         MOV     DPH,A
   \   000431   8882         MOV     DPL,R0
   \   000433   78..         MOV     R0,#?V0 + 0
   \   000435   12....       LCALL   ?L_MOV_X
   \   000438   90....       MOV     DPTR,#__Constant_41200000
   \   00043B   78..         MOV     R0,#?V0 + 4
   \   00043D   12....       LCALL   ?L_MOV_X
   \   000440   78..         MOV     R0,#?V0 + 0
   \   000442   79..         MOV     R1,#?V0 + 4
   \   000444   12....       LCALL   ?FLT_MUL
   \   000447   C0..         PUSH    ?V0 + 0
   \   000449   C0..         PUSH    ?V0 + 1
   \   00044B   C0..         PUSH    ?V0 + 2
   \   00044D   C0..         PUSH    ?V0 + 3
   \   00044F   8E82         MOV     DPL,R6
   \   000451   8F83         MOV     DPH,R7
   \   000453   78..         MOV     R0,#?V0 + 4
   \   000455   12....       LCALL   ?L_MOV_X
   \   000458   90....       MOV     DPTR,#__Constant_42480000
   \   00045B   78..         MOV     R0,#?V0 + 0
   \   00045D   12....       LCALL   ?L_MOV_X
   \   000460   78..         MOV     R0,#?V0 + 4
   \   000462   79..         MOV     R1,#?V0 + 0
   \   000464   12....       LCALL   ?FLT_MUL
   \   000467   D0..         POP     ?V0 + 3
   \   000469   D0..         POP     ?V0 + 2
   \   00046B   D0..         POP     ?V0 + 1
   \   00046D   D0..         POP     ?V0 + 0
   \   00046F   78..         MOV     R0,#?V0 + 0
   \   000471   79..         MOV     R1,#?V0 + 4
   \   000473   12....       LCALL   ?FLT_ADD
   \   000476   78..         MOV     R0,#?V0 + 0
   \   000478   12....       LCALL   ?FLT_TO_L
   \   00047B   7402         MOV     A,#0x2
   \   00047D   12....       LCALL   ?XSTACK_DISP0_8
   \   000480   E0           MOVX    A,@DPTR
   \   000481   F8           MOV     R0,A
   \   000482   A3           INC     DPTR
   \   000483   E0           MOVX    A,@DPTR
   \   000484   F583         MOV     DPH,A
   \   000486   8882         MOV     DPL,R0
   \   000488   A3           INC     DPTR
   \   000489   A3           INC     DPTR
   \   00048A   E5..         MOV     A,?V0 + 0
   \   00048C   F0           MOVX    @DPTR,A
   \   00048D   A3           INC     DPTR
   \   00048E   E5..         MOV     A,?V0 + 1
   \   000490   F0           MOVX    @DPTR,A
     95              da->y = (int)(speed->spd_y * 10 + ac->acc_y * 50);
   \   000491   85..82       MOV     DPL,?XSP + 0
   \   000494   85..83       MOV     DPH,?XSP + 1
   \   000497   E0           MOVX    A,@DPTR
   \   000498   F8           MOV     R0,A
   \   000499   A3           INC     DPTR
   \   00049A   E0           MOVX    A,@DPTR
   \   00049B   F583         MOV     DPH,A
   \   00049D   8882         MOV     DPL,R0
   \   00049F   A3           INC     DPTR
   \   0004A0   A3           INC     DPTR
   \   0004A1   A3           INC     DPTR
   \   0004A2   A3           INC     DPTR
   \   0004A3   78..         MOV     R0,#?V0 + 0
   \   0004A5   12....       LCALL   ?L_MOV_X
   \   0004A8   90....       MOV     DPTR,#__Constant_41200000
   \   0004AB   78..         MOV     R0,#?V0 + 4
   \   0004AD   12....       LCALL   ?L_MOV_X
   \   0004B0   78..         MOV     R0,#?V0 + 0
   \   0004B2   79..         MOV     R1,#?V0 + 4
   \   0004B4   12....       LCALL   ?FLT_MUL
   \   0004B7   C0..         PUSH    ?V0 + 0
   \   0004B9   C0..         PUSH    ?V0 + 1
   \   0004BB   C0..         PUSH    ?V0 + 2
   \   0004BD   C0..         PUSH    ?V0 + 3
   \   0004BF   8E82         MOV     DPL,R6
   \   0004C1   8F83         MOV     DPH,R7
   \   0004C3   A3           INC     DPTR
   \   0004C4   A3           INC     DPTR
   \   0004C5   A3           INC     DPTR
   \   0004C6   A3           INC     DPTR
   \   0004C7   78..         MOV     R0,#?V0 + 4
   \   0004C9   12....       LCALL   ?L_MOV_X
   \   0004CC   90....       MOV     DPTR,#__Constant_42480000
   \   0004CF   78..         MOV     R0,#?V0 + 0
   \   0004D1   12....       LCALL   ?L_MOV_X
   \   0004D4   78..         MOV     R0,#?V0 + 4
   \   0004D6   79..         MOV     R1,#?V0 + 0
   \   0004D8   12....       LCALL   ?FLT_MUL
   \   0004DB   D0..         POP     ?V0 + 3
   \   0004DD   D0..         POP     ?V0 + 2
   \   0004DF   D0..         POP     ?V0 + 1
   \   0004E1   D0..         POP     ?V0 + 0
   \   0004E3   78..         MOV     R0,#?V0 + 0
   \   0004E5   79..         MOV     R1,#?V0 + 4
   \   0004E7   12....       LCALL   ?FLT_ADD
   \   0004EA   78..         MOV     R0,#?V0 + 0
   \   0004EC   12....       LCALL   ?FLT_TO_L
   \   0004EF   7402         MOV     A,#0x2
   \   0004F1   12....       LCALL   ?XSTACK_DISP0_8
   \   0004F4   E0           MOVX    A,@DPTR
   \   0004F5   F8           MOV     R0,A
   \   0004F6   A3           INC     DPTR
   \   0004F7   E0           MOVX    A,@DPTR
   \   0004F8   F583         MOV     DPH,A
   \   0004FA   8882         MOV     DPL,R0
   \   0004FC   A3           INC     DPTR
   \   0004FD   A3           INC     DPTR
   \   0004FE   A3           INC     DPTR
   \   0004FF   A3           INC     DPTR
   \   000500   E5..         MOV     A,?V0 + 0
   \   000502   F0           MOVX    @DPTR,A
   \   000503   A3           INC     DPTR
   \   000504   E5..         MOV     A,?V0 + 1
   \   000506   F0           MOVX    @DPTR,A
     96              da->z = (int)(speed->spd_z * 10 + ac->acc_z * 50);
   \   000507   85..82       MOV     DPL,?XSP + 0
   \   00050A   85..83       MOV     DPH,?XSP + 1
   \   00050D   E0           MOVX    A,@DPTR
   \   00050E   F8           MOV     R0,A
   \   00050F   A3           INC     DPTR
   \   000510   E0           MOVX    A,@DPTR
   \   000511   F583         MOV     DPH,A
   \   000513   8882         MOV     DPL,R0
   \   000515   A3           INC     DPTR
   \   000516   A3           INC     DPTR
   \   000517   A3           INC     DPTR
   \   000518   A3           INC     DPTR
   \   000519   A3           INC     DPTR
   \   00051A   A3           INC     DPTR
   \   00051B   A3           INC     DPTR
   \   00051C   A3           INC     DPTR
   \   00051D   78..         MOV     R0,#?V0 + 0
   \   00051F   12....       LCALL   ?L_MOV_X
   \   000522   90....       MOV     DPTR,#__Constant_41200000
   \   000525   78..         MOV     R0,#?V0 + 4
   \   000527   12....       LCALL   ?L_MOV_X
   \   00052A   78..         MOV     R0,#?V0 + 0
   \   00052C   79..         MOV     R1,#?V0 + 4
   \   00052E   12....       LCALL   ?FLT_MUL
   \   000531   C0..         PUSH    ?V0 + 0
   \   000533   C0..         PUSH    ?V0 + 1
   \   000535   C0..         PUSH    ?V0 + 2
   \   000537   C0..         PUSH    ?V0 + 3
   \   000539   8E82         MOV     DPL,R6
   \   00053B   8F83         MOV     DPH,R7
   \   00053D   A3           INC     DPTR
   \   00053E   A3           INC     DPTR
   \   00053F   A3           INC     DPTR
   \   000540   A3           INC     DPTR
   \   000541   A3           INC     DPTR
   \   000542   A3           INC     DPTR
   \   000543   A3           INC     DPTR
   \   000544   A3           INC     DPTR
   \   000545   78..         MOV     R0,#?V0 + 4
   \   000547   12....       LCALL   ?L_MOV_X
   \   00054A   90....       MOV     DPTR,#__Constant_42480000
   \   00054D   78..         MOV     R0,#?V0 + 0
   \   00054F   12....       LCALL   ?L_MOV_X
   \   000552   78..         MOV     R0,#?V0 + 4
   \   000554   79..         MOV     R1,#?V0 + 0
   \   000556   12....       LCALL   ?FLT_MUL
   \   000559   D0..         POP     ?V0 + 3
   \   00055B   D0..         POP     ?V0 + 2
   \   00055D   D0..         POP     ?V0 + 1
   \   00055F   D0..         POP     ?V0 + 0
   \   000561   78..         MOV     R0,#?V0 + 0
   \   000563   79..         MOV     R1,#?V0 + 4
   \   000565   12....       LCALL   ?FLT_ADD
   \   000568   78..         MOV     R0,#?V0 + 0
   \   00056A   12....       LCALL   ?FLT_TO_L
   \   00056D   7402         MOV     A,#0x2
   \   00056F   12....       LCALL   ?XSTACK_DISP0_8
   \   000572   E0           MOVX    A,@DPTR
   \   000573   F8           MOV     R0,A
   \   000574   A3           INC     DPTR
   \   000575   E0           MOVX    A,@DPTR
   \   000576   F583         MOV     DPH,A
   \   000578   8882         MOV     DPL,R0
   \   00057A   A3           INC     DPTR
   \   00057B   A3           INC     DPTR
   \   00057C   A3           INC     DPTR
   \   00057D   A3           INC     DPTR
   \   00057E   A3           INC     DPTR
   \   00057F   A3           INC     DPTR
   \   000580   E5..         MOV     A,?V0 + 0
   \   000582   F0           MOVX    @DPTR,A
   \   000583   A3           INC     DPTR
   \   000584   E5..         MOV     A,?V0 + 1
   \   000586   F0           MOVX    @DPTR,A
     97              speed->spd_x = speed->spd_x + (ac->acc_x * 10);
   \   000587   85..82       MOV     DPL,?XSP + 0
   \   00058A   85..83       MOV     DPH,?XSP + 1
   \   00058D   E0           MOVX    A,@DPTR
   \   00058E   F8           MOV     R0,A
   \   00058F   A3           INC     DPTR
   \   000590   E0           MOVX    A,@DPTR
   \   000591   F583         MOV     DPH,A
   \   000593   8882         MOV     DPL,R0
   \   000595   78..         MOV     R0,#?V0 + 0
   \   000597   12....       LCALL   ?L_MOV_X
   \   00059A   C0..         PUSH    ?V0 + 0
   \   00059C   C0..         PUSH    ?V0 + 1
   \   00059E   C0..         PUSH    ?V0 + 2
   \   0005A0   C0..         PUSH    ?V0 + 3
   \   0005A2   8E82         MOV     DPL,R6
   \   0005A4   8F83         MOV     DPH,R7
   \   0005A6   78..         MOV     R0,#?V0 + 4
   \   0005A8   12....       LCALL   ?L_MOV_X
   \   0005AB   90....       MOV     DPTR,#__Constant_41200000
   \   0005AE   78..         MOV     R0,#?V0 + 0
   \   0005B0   12....       LCALL   ?L_MOV_X
   \   0005B3   78..         MOV     R0,#?V0 + 4
   \   0005B5   79..         MOV     R1,#?V0 + 0
   \   0005B7   12....       LCALL   ?FLT_MUL
   \   0005BA   D0..         POP     ?V0 + 3
   \   0005BC   D0..         POP     ?V0 + 2
   \   0005BE   D0..         POP     ?V0 + 1
   \   0005C0   D0..         POP     ?V0 + 0
   \   0005C2   78..         MOV     R0,#?V0 + 0
   \   0005C4   79..         MOV     R1,#?V0 + 4
   \   0005C6   12....       LCALL   ?FLT_ADD
   \   0005C9   85..82       MOV     DPL,?XSP + 0
   \   0005CC   85..83       MOV     DPH,?XSP + 1
   \   0005CF   E0           MOVX    A,@DPTR
   \   0005D0   F8           MOV     R0,A
   \   0005D1   A3           INC     DPTR
   \   0005D2   E0           MOVX    A,@DPTR
   \   0005D3   F583         MOV     DPH,A
   \   0005D5   8882         MOV     DPL,R0
   \   0005D7   78..         MOV     R0,#?V0 + 0
   \   0005D9   12....       LCALL   ?L_MOV_TO_X
     98              speed->spd_y = speed->spd_y + (ac->acc_y * 10);
   \   0005DC   85..82       MOV     DPL,?XSP + 0
   \   0005DF   85..83       MOV     DPH,?XSP + 1
   \   0005E2   E0           MOVX    A,@DPTR
   \   0005E3   F8           MOV     R0,A
   \   0005E4   A3           INC     DPTR
   \   0005E5   E0           MOVX    A,@DPTR
   \   0005E6   F583         MOV     DPH,A
   \   0005E8   8882         MOV     DPL,R0
   \   0005EA   A3           INC     DPTR
   \   0005EB   A3           INC     DPTR
   \   0005EC   A3           INC     DPTR
   \   0005ED   A3           INC     DPTR
   \   0005EE   78..         MOV     R0,#?V0 + 0
   \   0005F0   12....       LCALL   ?L_MOV_X
   \   0005F3   C0..         PUSH    ?V0 + 0
   \   0005F5   C0..         PUSH    ?V0 + 1
   \   0005F7   C0..         PUSH    ?V0 + 2
   \   0005F9   C0..         PUSH    ?V0 + 3
   \   0005FB   8E82         MOV     DPL,R6
   \   0005FD   8F83         MOV     DPH,R7
   \   0005FF   A3           INC     DPTR
   \   000600   A3           INC     DPTR
   \   000601   A3           INC     DPTR
   \   000602   A3           INC     DPTR
   \   000603   78..         MOV     R0,#?V0 + 4
   \   000605   12....       LCALL   ?L_MOV_X
   \   000608   90....       MOV     DPTR,#__Constant_41200000
   \   00060B   78..         MOV     R0,#?V0 + 0
   \   00060D   12....       LCALL   ?L_MOV_X
   \   000610   78..         MOV     R0,#?V0 + 4
   \   000612   79..         MOV     R1,#?V0 + 0
   \   000614   12....       LCALL   ?FLT_MUL
   \   000617   D0..         POP     ?V0 + 3
   \   000619   D0..         POP     ?V0 + 2
   \   00061B   D0..         POP     ?V0 + 1
   \   00061D   D0..         POP     ?V0 + 0
   \   00061F   78..         MOV     R0,#?V0 + 0
   \   000621   79..         MOV     R1,#?V0 + 4
   \   000623   12....       LCALL   ?FLT_ADD
   \   000626   85..82       MOV     DPL,?XSP + 0
   \   000629   85..83       MOV     DPH,?XSP + 1
   \   00062C   E0           MOVX    A,@DPTR
   \   00062D   F8           MOV     R0,A
   \   00062E   A3           INC     DPTR
   \   00062F   E0           MOVX    A,@DPTR
   \   000630   F583         MOV     DPH,A
   \   000632   8882         MOV     DPL,R0
   \   000634   A3           INC     DPTR
   \   000635   A3           INC     DPTR
   \   000636   A3           INC     DPTR
   \   000637   A3           INC     DPTR
   \   000638   78..         MOV     R0,#?V0 + 0
   \   00063A   12....       LCALL   ?L_MOV_TO_X
     99              speed->spd_z = speed->spd_z + (ac->acc_z * 10);
   \   00063D   85..82       MOV     DPL,?XSP + 0
   \   000640   85..83       MOV     DPH,?XSP + 1
   \   000643   E0           MOVX    A,@DPTR
   \   000644   F8           MOV     R0,A
   \   000645   A3           INC     DPTR
   \   000646   E0           MOVX    A,@DPTR
   \   000647   F583         MOV     DPH,A
   \   000649   8882         MOV     DPL,R0
   \   00064B   A3           INC     DPTR
   \   00064C   A3           INC     DPTR
   \   00064D   A3           INC     DPTR
   \   00064E   A3           INC     DPTR
   \   00064F   A3           INC     DPTR
   \   000650   A3           INC     DPTR
   \   000651   A3           INC     DPTR
   \   000652   A3           INC     DPTR
   \   000653   78..         MOV     R0,#?V0 + 0
   \   000655   12....       LCALL   ?L_MOV_X
   \   000658   C0..         PUSH    ?V0 + 0
   \   00065A   C0..         PUSH    ?V0 + 1
   \   00065C   C0..         PUSH    ?V0 + 2
   \   00065E   C0..         PUSH    ?V0 + 3
   \   000660   8E82         MOV     DPL,R6
   \   000662   8F83         MOV     DPH,R7
   \   000664   A3           INC     DPTR
   \   000665   A3           INC     DPTR
   \   000666   A3           INC     DPTR
   \   000667   A3           INC     DPTR
   \   000668   A3           INC     DPTR
   \   000669   A3           INC     DPTR
   \   00066A   A3           INC     DPTR
   \   00066B   A3           INC     DPTR
   \   00066C   78..         MOV     R0,#?V0 + 4
   \   00066E   12....       LCALL   ?L_MOV_X
   \   000671   90....       MOV     DPTR,#__Constant_41200000
   \   000674   78..         MOV     R0,#?V0 + 0
   \   000676   12....       LCALL   ?L_MOV_X
   \   000679   78..         MOV     R0,#?V0 + 4
   \   00067B   79..         MOV     R1,#?V0 + 0
   \   00067D   12....       LCALL   ?FLT_MUL
   \   000680   D0..         POP     ?V0 + 3
   \   000682   D0..         POP     ?V0 + 2
   \   000684   D0..         POP     ?V0 + 1
   \   000686   D0..         POP     ?V0 + 0
   \   000688   78..         MOV     R0,#?V0 + 0
   \   00068A   79..         MOV     R1,#?V0 + 4
   \   00068C   12....       LCALL   ?FLT_ADD
   \   00068F   85..82       MOV     DPL,?XSP + 0
   \   000692   85..83       MOV     DPH,?XSP + 1
   \   000695   E0           MOVX    A,@DPTR
   \   000696   F8           MOV     R0,A
   \   000697   A3           INC     DPTR
   \   000698   E0           MOVX    A,@DPTR
   \   000699   F583         MOV     DPH,A
   \   00069B   8882         MOV     DPL,R0
   \   00069D   A3           INC     DPTR
   \   00069E   A3           INC     DPTR
   \   00069F   A3           INC     DPTR
   \   0006A0   A3           INC     DPTR
   \   0006A1   A3           INC     DPTR
   \   0006A2   A3           INC     DPTR
   \   0006A3   A3           INC     DPTR
   \   0006A4   A3           INC     DPTR
   \   0006A5   78..         MOV     R0,#?V0 + 0
   \   0006A7   12....       LCALL   ?L_MOV_TO_X
    100          }
   \   0006AA   7414         MOV     A,#0x14
   \   0006AC   12....       LCALL   ?DEALLOC_XSTACK8
   \   0006AF   7F08         MOV     R7,#0x8
   \   0006B1   02....       LJMP    ?BANKED_LEAVE_XDATA
    101          

   \                                 In  segment BANKED_CODE, align 1, keep-with-next
    102          void I2C_Start_1(void)
   \                     I2C_Start_1:
    103          {
   \   000000   C082         PUSH    DPL
   \   000002   C083         PUSH    DPH
   \   000004                ; Saved register size: 2
   \   000004                ; Auto size: 0
    104              /*启动I2C总线的函数，当SCL为高电平时使SDA产生一个负跳变*/
    105              SDADirOut;
   \   000004   43FE08       ORL     0xfe,#0x8
    106              Delay_1u(1);
   \   000007                ; Setup parameters for call to function Delay_1u
   \   000007   7A01         MOV     R2,#0x1
   \   000009   7B00         MOV     R3,#0x0
   \   00000B   12....       LCALL   ??Delay_1u?relay
    107              SDA=1;
   \   00000E   D293         SETB    0x90.3
    108              SCL=1;
   \   000010   D292         SETB    0x90.2
    109              Delay_1u(5);
   \   000012                ; Setup parameters for call to function Delay_1u
   \   000012   7A05         MOV     R2,#0x5
   \   000014   7B00         MOV     R3,#0x0
   \   000016   12....       LCALL   ??Delay_1u?relay
    110              SDA=0;
   \   000019   C293         CLR     0x90.3
    111              Delay_1u(5);
   \   00001B                ; Setup parameters for call to function Delay_1u
   \   00001B   7A05         MOV     R2,#0x5
   \   00001D   7B00         MOV     R3,#0x0
   \   00001F   12....       LCALL   ??Delay_1u?relay
    112              SCL=0;
   \   000022   C292         CLR     0x90.2
    113              Delay_1u(5);
   \   000024                ; Setup parameters for call to function Delay_1u
   \   000024   7A05         MOV     R2,#0x5
   \   000026   7B00         MOV     R3,#0x0
   \   000028   12....       LCALL   ??Delay_1u?relay
    114          }
   \   00002B   D083         POP     DPH
   \   00002D   D082         POP     DPL
   \   00002F   02....       LJMP    ?BRET
   \   000032                REQUIRE _A_P1
   \   000032                REQUIRE P1DIR
    115          

   \                                 In  segment BANKED_CODE, align 1, keep-with-next
    116          void I2C_Stop_1(void)
   \                     I2C_Stop_1:
    117          {
   \   000000   C082         PUSH    DPL
   \   000002   C083         PUSH    DPH
   \   000004                ; Saved register size: 2
   \   000004                ; Auto size: 0
    118              /*终止I2C总线，当SCL为高电平时使SDA产生一个正跳变*/
    119              SCL=0;
   \   000004   C292         CLR     0x90.2
    120              Delay_1u(1);
   \   000006                ; Setup parameters for call to function Delay_1u
   \   000006   7A01         MOV     R2,#0x1
   \   000008   7B00         MOV     R3,#0x0
   \   00000A   12....       LCALL   ??Delay_1u?relay
    121              SDADirOut;
   \   00000D   43FE08       ORL     0xfe,#0x8
    122              Delay_1u(1);
   \   000010                ; Setup parameters for call to function Delay_1u
   \   000010   7A01         MOV     R2,#0x1
   \   000012   7B00         MOV     R3,#0x0
   \   000014   12....       LCALL   ??Delay_1u?relay
    123              SDA=0;
   \   000017   C293         CLR     0x90.3
    124              Delay_1u(5);
   \   000019                ; Setup parameters for call to function Delay_1u
   \   000019   7A05         MOV     R2,#0x5
   \   00001B   7B00         MOV     R3,#0x0
   \   00001D   12....       LCALL   ??Delay_1u?relay
    125              SCL=1;
   \   000020   D292         SETB    0x90.2
    126              Delay_1u(5);
   \   000022                ; Setup parameters for call to function Delay_1u
   \   000022   7A05         MOV     R2,#0x5
   \   000024   7B00         MOV     R3,#0x0
   \   000026   12....       LCALL   ??Delay_1u?relay
    127              SDA=1;
   \   000029   D293         SETB    0x90.3
    128              Delay_1u(5);
   \   00002B                ; Setup parameters for call to function Delay_1u
   \   00002B   7A05         MOV     R2,#0x5
   \   00002D   7B00         MOV     R3,#0x0
   \   00002F   12....       LCALL   ??Delay_1u?relay
    129          }
   \   000032   D083         POP     DPH
   \   000034   D082         POP     DPL
   \   000036   02....       LJMP    ?BRET
   \   000039                REQUIRE _A_P1
   \   000039                REQUIRE P1DIR
    130          

   \                                 In  segment BANKED_CODE, align 1, keep-with-next
    131          void Sendack(unsigned char h){
   \                     Sendack:
   \   000000   74F7         MOV     A,#-0x9
   \   000002   12....       LCALL   ?BANKED_ENTER_XDATA
   \   000005                ; Saved register size: 9
   \   000005                ; Auto size: 0
   \   000005   E9           MOV     A,R1
   \   000006   FE           MOV     R6,A
    132              SCL=0;
   \   000007   C292         CLR     0x90.2
    133              Delay_1u(5);
   \   000009                ; Setup parameters for call to function Delay_1u
   \   000009   7A05         MOV     R2,#0x5
   \   00000B   7B00         MOV     R3,#0x0
   \   00000D   12....       LCALL   ??Delay_1u?relay
    134              SDADirOut;
   \   000010   43FE08       ORL     0xfe,#0x8
    135              Delay(5);
   \   000013                ; Setup parameters for call to function Delay
   \   000013   7A05         MOV     R2,#0x5
   \   000015   7B00         MOV     R3,#0x0
   \   000017   12....       LCALL   ??Delay?relay
    136              SDA=h&0x01;
   \   00001A   EE           MOV     A,R6
   \   00001B   A2E0         MOV     C,0xE0 /* A   */.0
   \   00001D   9293         MOV     0x90.3,C
    137              Delay_1u(5);
   \   00001F                ; Setup parameters for call to function Delay_1u
   \   00001F   7A05         MOV     R2,#0x5
   \   000021   7B00         MOV     R3,#0x0
   \   000023   12....       LCALL   ??Delay_1u?relay
    138              SCL=1;
   \   000026   D292         SETB    0x90.2
    139              Delay_1u(5);
   \   000028                ; Setup parameters for call to function Delay_1u
   \   000028   7A05         MOV     R2,#0x5
   \   00002A   7B00         MOV     R3,#0x0
   \   00002C   12....       LCALL   ??Delay_1u?relay
    140              SCL=0;
   \   00002F   C292         CLR     0x90.2
    141              Delay_1u(5);
   \   000031                ; Setup parameters for call to function Delay_1u
   \   000031   7A05         MOV     R2,#0x5
   \   000033   7B00         MOV     R3,#0x0
   \   000035   12....       LCALL   ??Delay_1u?relay
    142          }
   \   000038   7F01         MOV     R7,#0x1
   \   00003A   02....       LJMP    ?BANKED_LEAVE_XDATA
   \   00003D                REQUIRE _A_P1
   \   00003D                REQUIRE P1DIR
    143          

   \                                 In  segment BANKED_CODE, align 1, keep-with-next
    144          INT8U I2C_Check_ack(void){
   \                     I2C_Check_ack:
   \   000000   C082         PUSH    DPL
   \   000002   C083         PUSH    DPH
   \   000004                ; Saved register size: 2
   \   000004                ; Auto size: 0
    145              SCL=0;
   \   000004   C292         CLR     0x90.2
    146              Delay_1u(5);
   \   000006                ; Setup parameters for call to function Delay_1u
   \   000006   7A05         MOV     R2,#0x5
   \   000008   7B00         MOV     R3,#0x0
   \   00000A   12....       LCALL   ??Delay_1u?relay
    147              SDADirOut;
   \   00000D   43FE08       ORL     0xfe,#0x8
    148              SDA=1;
   \   000010   D293         SETB    0x90.3
    149              SDADirIn;
   \   000012   53FEF7       ANL     0xfe,#0xf7
    150              Delay_1u(5);          //此处是否有必要使SDA先拉高？！？！
   \   000015                ; Setup parameters for call to function Delay_1u
   \   000015   7A05         MOV     R2,#0x5
   \   000017   7B00         MOV     R3,#0x0
   \   000019   12....       LCALL   ??Delay_1u?relay
    151              SCL=1;
   \   00001C   D292         SETB    0x90.2
    152              Delay_1u(5);
   \   00001E                ; Setup parameters for call to function Delay_1u
   \   00001E   7A05         MOV     R2,#0x5
   \   000020   7B00         MOV     R3,#0x0
   \   000022   12....       LCALL   ??Delay_1u?relay
    153              if(SDA==1)
   \   000025   A293         MOV     C,0x90.3
   \   000027   5006         JNC     ??I2C_Check_ack_0
    154              {
    155                  SCL=0;
   \   000029   C292         CLR     0x90.2
    156                  return 0;  //er
   \   00002B   7900         MOV     R1,#0x0
   \   00002D   8004         SJMP    ??I2C_Check_ack_1
    157              }
    158              SCL=0;
   \                     ??I2C_Check_ack_0:
   \   00002F   C292         CLR     0x90.2
    159              return 1;
   \   000031   7901         MOV     R1,#0x1
   \                     ??I2C_Check_ack_1:
   \   000033   D083         POP     DPH
   \   000035   D082         POP     DPL
   \   000037   02....       LJMP    ?BRET
   \   00003A                REQUIRE _A_P1
   \   00003A                REQUIRE P1DIR
    160          }
    161          
    162          
    163          
    164          

   \                                 In  segment BANKED_CODE, align 1, keep-with-next
    165          void WriteI2CByte_1(unsigned char b)
   \                     WriteI2CByte_1:
    166          {
   \   000000   74F7         MOV     A,#-0x9
   \   000002   12....       LCALL   ?BANKED_ENTER_XDATA
   \   000005                ; Saved register size: 9
   \   000005                ; Auto size: 0
   \   000005   E9           MOV     A,R1
   \   000006   FE           MOV     R6,A
    167              /*向I2C总线写一个字节*/
    168              unsigned char e=8;
   \   000007   7F08         MOV     R7,#0x8
    169              SDADirOut;
   \   000009   43FE08       ORL     0xfe,#0x8
    170              while(e--){
   \                     ??WriteI2CByte_1_0:
   \   00000C   EF           MOV     A,R7
   \   00000D   FA           MOV     R2,A
   \   00000E   74FF         MOV     A,#-0x1
   \   000010   2A           ADD     A,R2
   \   000011   FF           MOV     R7,A
   \   000012   EA           MOV     A,R2
   \   000013   602A         JZ      ??WriteI2CByte_1_1
    171                  SCL=0;
   \   000015   C292         CLR     0x90.2
    172                  Delay_1u(5);
   \   000017                ; Setup parameters for call to function Delay_1u
   \   000017   7A05         MOV     R2,#0x5
   \   000019   7B00         MOV     R3,#0x0
   \   00001B   12....       LCALL   ??Delay_1u?relay
    173                  if(b&0x80)SDA=1;
   \   00001E   EE           MOV     A,R6
   \   00001F   A2E7         MOV     C,0xE0 /* A   */.7
   \   000021   5004         JNC     ??WriteI2CByte_1_2
   \   000023   D293         SETB    0x90.3
   \   000025   8002         SJMP    ??WriteI2CByte_1_3
    174                  else SDA=0;
   \                     ??WriteI2CByte_1_2:
   \   000027   C293         CLR     0x90.3
    175                  b<<=1;
   \                     ??WriteI2CByte_1_3:
   \   000029   EE           MOV     A,R6
   \   00002A   C3           CLR     C
   \   00002B   33           RLC     A
   \   00002C   FE           MOV     R6,A
    176                  Delay_1u(3);
   \   00002D                ; Setup parameters for call to function Delay_1u
   \   00002D   7A03         MOV     R2,#0x3
   \   00002F   7B00         MOV     R3,#0x0
   \   000031   12....       LCALL   ??Delay_1u?relay
    177                  SCL=1;
   \   000034   D292         SETB    0x90.2
    178                  Delay_1u(5);
   \   000036                ; Setup parameters for call to function Delay_1u
   \   000036   7A05         MOV     R2,#0x5
   \   000038   7B00         MOV     R3,#0x0
   \   00003A   12....       LCALL   ??Delay_1u?relay
   \   00003D   80CD         SJMP    ??WriteI2CByte_1_0
    179              }
    180              SCL=0;
   \                     ??WriteI2CByte_1_1:
   \   00003F   C292         CLR     0x90.2
    181              I2C_Check_ack();
   \   000041                ; Setup parameters for call to function I2C_Check_ack
   \   000041   12....       LCALL   ??I2C_Check_ack?relay
    182          }
   \   000044   7F01         MOV     R7,#0x1
   \   000046   02....       LJMP    ?BANKED_LEAVE_XDATA
   \   000049                REQUIRE _A_P1
   \   000049                REQUIRE P1DIR
    183          

   \                                 In  segment BANKED_CODE, align 1, keep-with-next
    184          unsigned char ReadI2CByte_1(void)
   \                     ReadI2CByte_1:
    185          {
   \   000000   74F7         MOV     A,#-0x9
   \   000002   12....       LCALL   ?BANKED_ENTER_XDATA
   \   000005                ; Saved register size: 9
   \   000005                ; Auto size: 0
    186              /*从I2C总线读一个字节*/
    187              unsigned char i=8;
   \   000005   7E08         MOV     R6,#0x8
    188              unsigned char c=0;
   \   000007   7F00         MOV     R7,#0x0
    189              SCL=0;
   \   000009   C292         CLR     0x90.2
    190              SDADirOut;
   \   00000B   43FE08       ORL     0xfe,#0x8
    191              SDA=1;
   \   00000E   D293         SETB    0x90.3
    192              Delay_1u(3);
   \   000010                ; Setup parameters for call to function Delay_1u
   \   000010   7A03         MOV     R2,#0x3
   \   000012   7B00         MOV     R3,#0x0
   \   000014   12....       LCALL   ??Delay_1u?relay
    193              SDADirIn;
   \   000017   53FEF7       ANL     0xfe,#0xf7
    194              while(i--){
   \                     ??ReadI2CByte_1_0:
   \   00001A   EE           MOV     A,R6
   \   00001B   FA           MOV     R2,A
   \   00001C   74FF         MOV     A,#-0x1
   \   00001E   2A           ADD     A,R2
   \   00001F   FE           MOV     R6,A
   \   000020   EA           MOV     A,R2
   \   000021   6028         JZ      ??ReadI2CByte_1_1
    195                  c<<=1;
   \   000023   EF           MOV     A,R7
   \   000024   C3           CLR     C
   \   000025   33           RLC     A
   \   000026   FF           MOV     R7,A
    196                  SCL=0;
   \   000027   C292         CLR     0x90.2
    197                  Delay_1u(5);
   \   000029                ; Setup parameters for call to function Delay_1u
   \   000029   7A05         MOV     R2,#0x5
   \   00002B   7B00         MOV     R3,#0x0
   \   00002D   12....       LCALL   ??Delay_1u?relay
    198                  SCL=1;
   \   000030   D292         SETB    0x90.2
    199                  Delay_1u(5);
   \   000032                ; Setup parameters for call to function Delay_1u
   \   000032   7A05         MOV     R2,#0x5
   \   000034   7B00         MOV     R3,#0x0
   \   000036   12....       LCALL   ??Delay_1u?relay
    200                  if(SDA==1)c|=0x01;
   \   000039   A293         MOV     C,0x90.3
   \   00003B   5007         JNC     ??ReadI2CByte_1_2
   \   00003D   D3           SETB    C
   \   00003E   EF           MOV     A,R7
   \   00003F   92E0         MOV     0xE0 /* A   */.0,C
   \   000041   FF           MOV     R7,A
   \   000042   80D6         SJMP    ??ReadI2CByte_1_0
    201                  else c&=0xfe;
   \                     ??ReadI2CByte_1_2:
   \   000044   C3           CLR     C
   \   000045   EF           MOV     A,R7
   \   000046   92E0         MOV     0xE0 /* A   */.0,C
   \   000048   FF           MOV     R7,A
   \   000049   80CF         SJMP    ??ReadI2CByte_1_0
    202              }
    203              SCL=0;
   \                     ??ReadI2CByte_1_1:
   \   00004B   C292         CLR     0x90.2
    204              SDADirOut;
   \   00004D   43FE08       ORL     0xfe,#0x8
    205              return c;
   \   000050   EF           MOV     A,R7
   \   000051   F9           MOV     R1,A
   \   000052   7F01         MOV     R7,#0x1
   \   000054   02....       LJMP    ?BANKED_LEAVE_XDATA
   \   000057                REQUIRE _A_P1
   \   000057                REQUIRE P1DIR
    206          }
    207          //******单字节写入*******************************************
    208          

   \                                 In  segment BANKED_CODE, align 1, keep-with-next
    209          void Single_Write_ADXL345(INT8U REG_Address,INT8U REG_data)
   \                     Single_Write_ADXL345:
    210          {
   \   000000   74F7         MOV     A,#-0x9
   \   000002   12....       LCALL   ?BANKED_ENTER_XDATA
   \   000005                ; Saved register size: 9
   \   000005                ; Auto size: 0
   \   000005   E9           MOV     A,R1
   \   000006   FE           MOV     R6,A
   \   000007   EA           MOV     A,R2
   \   000008   FF           MOV     R7,A
    211              I2C_Start_1();                  //起始信号
   \   000009                ; Setup parameters for call to function I2C_Start_1
   \   000009   12....       LCALL   ??I2C_Start_1?relay
    212              WriteI2CByte_1(SlaveAddress);   //发送设备地址+写信号
   \   00000C                ; Setup parameters for call to function WriteI2CByte_1
   \   00000C   79A6         MOV     R1,#-0x5a
   \   00000E   12....       LCALL   ??WriteI2CByte_1?relay
    213              WriteI2CByte_1(REG_Address);    //内部寄存器地址，请参考中文pdf22页
   \   000011                ; Setup parameters for call to function WriteI2CByte_1
   \   000011   EE           MOV     A,R6
   \   000012   F9           MOV     R1,A
   \   000013   12....       LCALL   ??WriteI2CByte_1?relay
    214              WriteI2CByte_1(REG_data);       //内部寄存器数据，请参考中文pdf22页
   \   000016                ; Setup parameters for call to function WriteI2CByte_1
   \   000016   EF           MOV     A,R7
   \   000017   F9           MOV     R1,A
   \   000018   12....       LCALL   ??WriteI2CByte_1?relay
    215              I2C_Stop_1();                   //发送停止信号
   \   00001B                ; Setup parameters for call to function I2C_Stop_1
   \   00001B   12....       LCALL   ??I2C_Stop_1?relay
    216          }
   \   00001E   7F01         MOV     R7,#0x1
   \   000020   02....       LJMP    ?BANKED_LEAVE_XDATA
    217          
    218          //********单字节读取*****************************************

   \                                 In  segment BANKED_CODE, align 1, keep-with-next
    219          unsigned char Single_Read_ADXL345(INT8U REG_Address)
   \                     Single_Read_ADXL345:
    220          {  INT8U REG_data;
   \   000000   74F7         MOV     A,#-0x9
   \   000002   12....       LCALL   ?BANKED_ENTER_XDATA
   \   000005                ; Saved register size: 9
   \   000005                ; Auto size: 0
   \   000005   E9           MOV     A,R1
   \   000006   FE           MOV     R6,A
    221              I2C_Start_1();                          //起始信号
   \   000007                ; Setup parameters for call to function I2C_Start_1
   \   000007   12....       LCALL   ??I2C_Start_1?relay
    222              WriteI2CByte_1(SlaveAddress);           //发送设备地址+写信号
   \   00000A                ; Setup parameters for call to function WriteI2CByte_1
   \   00000A   79A6         MOV     R1,#-0x5a
   \   00000C   12....       LCALL   ??WriteI2CByte_1?relay
    223              WriteI2CByte_1(REG_Address);                   //发送存储单元地址，从0开始
   \   00000F                ; Setup parameters for call to function WriteI2CByte_1
   \   00000F   EE           MOV     A,R6
   \   000010   F9           MOV     R1,A
   \   000011   12....       LCALL   ??WriteI2CByte_1?relay
    224              I2C_Start_1();                          //起始信号
   \   000014                ; Setup parameters for call to function I2C_Start_1
   \   000014   12....       LCALL   ??I2C_Start_1?relay
    225              WriteI2CByte_1(SlaveAddress+1);         //发送设备地址+读信号
   \   000017                ; Setup parameters for call to function WriteI2CByte_1
   \   000017   79A7         MOV     R1,#-0x59
   \   000019   12....       LCALL   ??WriteI2CByte_1?relay
    226              REG_data=ReadI2CByte_1();              //读出寄存器数据
   \   00001C                ; Setup parameters for call to function ReadI2CByte_1
   \   00001C   12....       LCALL   ??ReadI2CByte_1?relay
   \   00001F   E9           MOV     A,R1
   \   000020   FF           MOV     R7,A
    227              Sendack(1);
   \   000021                ; Setup parameters for call to function Sendack
   \   000021   7901         MOV     R1,#0x1
   \   000023   12....       LCALL   ??Sendack?relay
    228              I2C_Stop_1();                           //停止信号
   \   000026                ; Setup parameters for call to function I2C_Stop_1
   \   000026   12....       LCALL   ??I2C_Stop_1?relay
    229              return REG_data;
   \   000029   EF           MOV     A,R7
   \   00002A   F9           MOV     R1,A
   \   00002B   7F01         MOV     R7,#0x1
   \   00002D   02....       LJMP    ?BANKED_LEAVE_XDATA
    230          }
    231          

   \                                 In  segment BANKED_CODE, align 1, keep-with-next
    232          void Init_ADXL345()
   \                     Init_ADXL345:
    233          {
   \   000000   C082         PUSH    DPL
   \   000002   C083         PUSH    DPH
   \   000004                ; Saved register size: 2
   \   000004                ; Auto size: 0
    234              P1DIR = 0x0C;
   \   000004   75FE0C       MOV     0xfe,#0xc
    235              Single_Write_ADXL345(0x31,0x0B);   //测量范围,正负16g，13位模式
   \   000007                ; Setup parameters for call to function Single_Write_ADXL345
   \   000007   7A0B         MOV     R2,#0xb
   \   000009   7931         MOV     R1,#0x31
   \   00000B   12....       LCALL   ??Single_Write_ADXL345?relay
    236              Single_Write_ADXL345(0x2C,0x0F);   //速率设定为12.5 参考pdf13页
   \   00000E                ; Setup parameters for call to function Single_Write_ADXL345
   \   00000E   7A0F         MOV     R2,#0xf
   \   000010   792C         MOV     R1,#0x2c
   \   000012   12....       LCALL   ??Single_Write_ADXL345?relay
    237              Single_Write_ADXL345(0x2D,0x08);   //选择电源模式   参考pdf24页
   \   000015                ; Setup parameters for call to function Single_Write_ADXL345
   \   000015   7A08         MOV     R2,#0x8
   \   000017   792D         MOV     R1,#0x2d
   \   000019   12....       LCALL   ??Single_Write_ADXL345?relay
    238              Single_Write_ADXL345(0x2E,0x80);   //使能 DATA_READY 中断
   \   00001C                ; Setup parameters for call to function Single_Write_ADXL345
   \   00001C   7A80         MOV     R2,#-0x80
   \   00001E   792E         MOV     R1,#0x2e
   \   000020   12....       LCALL   ??Single_Write_ADXL345?relay
    239              Single_Write_ADXL345(0x1E,0x00);   //X 偏移量 根据测试传感器的状态写入pdf29页
   \   000023                ; Setup parameters for call to function Single_Write_ADXL345
   \   000023   7A00         MOV     R2,#0x0
   \   000025   791E         MOV     R1,#0x1e
   \   000027   12....       LCALL   ??Single_Write_ADXL345?relay
    240              Single_Write_ADXL345(0x1F,0x00);   //Y 偏移量 根据测试传感器的状态写入pdf29页
   \   00002A                ; Setup parameters for call to function Single_Write_ADXL345
   \   00002A   7A00         MOV     R2,#0x0
   \   00002C   791F         MOV     R1,#0x1f
   \   00002E   12....       LCALL   ??Single_Write_ADXL345?relay
    241              Single_Write_ADXL345(0x20,0x05);   //Z 偏移量 根据测试传感器的状态写入pdf29页
   \   000031                ; Setup parameters for call to function Single_Write_ADXL345
   \   000031   7A05         MOV     R2,#0x5
   \   000033   7920         MOV     R1,#0x20
   \   000035   12....       LCALL   ??Single_Write_ADXL345?relay
    242          }
   \   000038   D083         POP     DPH
   \   00003A   D082         POP     DPL
   \   00003C   02....       LJMP    ?BRET
   \   00003F                REQUIRE P1DIR
    243          
    244          //*********************************************************
    245          //
    246          //连续读出ADXL345内部加速度数据，地址范围0x32~0x37
    247          //
    248          //*********************************************************

   \                                 In  segment BANKED_CODE, align 1, keep-with-next
    249          void Multiple_Read_ADXL345(void)
   \                     Multiple_Read_ADXL345:
    250          {   INT8U f;
   \   000000   74F6         MOV     A,#-0xa
   \   000002   12....       LCALL   ?BANKED_ENTER_XDATA
   \   000005                ; Saved register size: 10
   \   000005                ; Auto size: 0
    251              I2C_Start_1();                          //起始信号
   \   000005                ; Setup parameters for call to function I2C_Start_1
   \   000005   12....       LCALL   ??I2C_Start_1?relay
    252              WriteI2CByte_1(SlaveAddress);           //发送设备地址+写信号
   \   000008                ; Setup parameters for call to function WriteI2CByte_1
   \   000008   79A6         MOV     R1,#-0x5a
   \   00000A   12....       LCALL   ??WriteI2CByte_1?relay
    253              WriteI2CByte_1(0x32);                   //发送存储单元地址，从0x32开始
   \   00000D                ; Setup parameters for call to function WriteI2CByte_1
   \   00000D   7932         MOV     R1,#0x32
   \   00000F   12....       LCALL   ??WriteI2CByte_1?relay
    254              I2C_Start_1();                          //起始信号
   \   000012                ; Setup parameters for call to function I2C_Start_1
   \   000012   12....       LCALL   ??I2C_Start_1?relay
    255              WriteI2CByte_1(SlaveAddress+1);         //发送设备地址+读信号
   \   000015                ; Setup parameters for call to function WriteI2CByte_1
   \   000015   79A7         MOV     R1,#-0x59
   \   000017   12....       LCALL   ??WriteI2CByte_1?relay
    256              for (f=0; f<6; f++)                      //连续读取6个地址数据，存储中BUF
   \   00001A   7E00         MOV     R6,#0x0
   \                     ??Multiple_Read_ADXL345_0:
   \   00001C   EE           MOV     A,R6
   \   00001D   C3           CLR     C
   \   00001E   9406         SUBB    A,#0x6
   \   000020   502E         JNC     ??Multiple_Read_ADXL345_1
    257              {
    258                  POS_TEMP[f] = ReadI2CByte_1();          //BUF[0]存储0x32地址中的数据
   \   000022                ; Setup parameters for call to function ReadI2CByte_1
   \   000022   12....       LCALL   ??ReadI2CByte_1?relay
   \   000025   E9           MOV     A,R1
   \   000026   C0E0         PUSH    A
   \   000028   8E..         MOV     ?V0 + 0,R6
   \   00002A   75..00       MOV     ?V0 + 1,#0x0
   \   00002D   E5..         MOV     A,?V0 + 0
   \   00002F   24..         ADD     A,#(POS_TEMP & 0xff)
   \   000031   F582         MOV     DPL,A
   \   000033   E5..         MOV     A,?V0 + 1
   \   000035   34..         ADDC    A,#((POS_TEMP >> 8) & 0xff)
   \   000037   F583         MOV     DPH,A
   \   000039   D0E0         POP     A
   \   00003B   F0           MOVX    @DPTR,A
    259                  if (f == 5)
   \   00003C   7405         MOV     A,#0x5
   \   00003E   6E           XRL     A,R6
   \   00003F   7007         JNZ     ??Multiple_Read_ADXL345_2
    260                  {
    261                      Sendack(1);                //最后一个数据需要回NOACK
   \   000041                ; Setup parameters for call to function Sendack
   \   000041   7901         MOV     R1,#0x1
   \   000043   12....       LCALL   ??Sendack?relay
   \   000046   8005         SJMP    ??Multiple_Read_ADXL345_3
    262                  }
    263                  else
    264                  {
    265                      Sendack(0);                //回应ACK
   \                     ??Multiple_Read_ADXL345_2:
   \   000048                ; Setup parameters for call to function Sendack
   \   000048   7900         MOV     R1,#0x0
   \   00004A   12....       LCALL   ??Sendack?relay
    266                  }
    267              }
   \                     ??Multiple_Read_ADXL345_3:
   \   00004D   0E           INC     R6
   \   00004E   80CC         SJMP    ??Multiple_Read_ADXL345_0
    268              I2C_Stop_1();                          //停止信号
   \                     ??Multiple_Read_ADXL345_1:
   \   000050                ; Setup parameters for call to function I2C_Stop_1
   \   000050   12....       LCALL   ??I2C_Stop_1?relay
    269          }
   \   000053   7F02         MOV     R7,#0x2
   \   000055   02....       LJMP    ?BANKED_LEAVE_XDATA
    270          

   \                                 In  segment BANKED_CODE, align 1, keep-with-next
    271          void displayXYZ(INT8U *pData){
   \                     displayXYZ:
   \   000000   74F0         MOV     A,#-0x10
   \   000002   12....       LCALL   ?BANKED_ENTER_XDATA
   \   000005                ; Saved register size: 16
   \   000005                ; Auto size: 4
   \   000005   74FC         MOV     A,#-0x4
   \   000007   12....       LCALL   ?ALLOC_XSTACK8
   \   00000A   7402         MOV     A,#0x2
   \   00000C   12....       LCALL   ?XSTACK_DISP0_8
   \   00000F   EA           MOV     A,R2
   \   000010   F0           MOVX    @DPTR,A
   \   000011   A3           INC     DPTR
   \   000012   EB           MOV     A,R3
   \   000013   F0           MOVX    @DPTR,A
    272              int  dis_data;
    273              uint16 temp;
    274              dis_data=(pData[1]<<8)+pData[0];
   \   000014   7402         MOV     A,#0x2
   \   000016   12....       LCALL   ?XSTACK_DISP0_8
   \   000019   E0           MOVX    A,@DPTR
   \   00001A   F8           MOV     R0,A
   \   00001B   A3           INC     DPTR
   \   00001C   E0           MOVX    A,@DPTR
   \   00001D   F583         MOV     DPH,A
   \   00001F   8882         MOV     DPL,R0
   \   000021   A3           INC     DPTR
   \   000022   E0           MOVX    A,@DPTR
   \   000023   F8           MOV     R0,A
   \   000024   E4           CLR     A
   \   000025   C8           XCH     A,R0
   \   000026   F9           MOV     R1,A
   \   000027   7402         MOV     A,#0x2
   \   000029   12....       LCALL   ?XSTACK_DISP0_8
   \   00002C   E0           MOVX    A,@DPTR
   \   00002D   FA           MOV     R2,A
   \   00002E   A3           INC     DPTR
   \   00002F   E0           MOVX    A,@DPTR
   \   000030   F583         MOV     DPH,A
   \   000032   8A82         MOV     DPL,R2
   \   000034   E0           MOVX    A,@DPTR
   \   000035   7B00         MOV     R3,#0x0
   \   000037   28           ADD     A,R0
   \   000038   F8           MOV     R0,A
   \   000039   EB           MOV     A,R3
   \   00003A   39           ADDC    A,R1
   \   00003B   F9           MOV     R1,A
   \   00003C   85..82       MOV     DPL,?XSP + 0
   \   00003F   85..83       MOV     DPH,?XSP + 1
   \   000042   E8           MOV     A,R0
   \   000043   F0           MOVX    @DPTR,A
   \   000044   A3           INC     DPTR
   \   000045   E9           MOV     A,R1
   \   000046   F0           MOVX    @DPTR,A
    275              temp=(uint16)((float)dis_data*3.9);  //计算数据和显示,查考ADXL345快速入门第4页
   \   000047   85..82       MOV     DPL,?XSP + 0
   \   00004A   85..83       MOV     DPH,?XSP + 1
   \   00004D   E0           MOVX    A,@DPTR
   \   00004E   F5..         MOV     ?V0 + 4,A
   \   000050   A3           INC     DPTR
   \   000051   E0           MOVX    A,@DPTR
   \   000052   F5..         MOV     ?V0 + 5,A
   \   000054   E5..         MOV     A,?V0 + 5
   \   000056   33           RLC     A
   \   000057   95E0         SUBB    A,0xE0 /* A   */
   \   000059   F5..         MOV     ?V0 + 6,A
   \   00005B   F5..         MOV     ?V0 + 7,A
   \   00005D   78..         MOV     R0,#?V0 + 4
   \   00005F   12....       LCALL   ?L_TO_FLT
   \   000062   90....       MOV     DPTR,#__Constant_4079999a
   \   000065   78..         MOV     R0,#?V0 + 0
   \   000067   12....       LCALL   ?L_MOV_X
   \   00006A   78..         MOV     R0,#?V0 + 4
   \   00006C   79..         MOV     R1,#?V0 + 0
   \   00006E   12....       LCALL   ?FLT_MUL
   \   000071   78..         MOV     R0,#?V0 + 4
   \   000073   12....       LCALL   ?FLT_TO_L
   \   000076   AE..         MOV     R6,?V0 + 4
   \   000078   AF..         MOV     R7,?V0 + 5
    276              if(dis_data<0){
   \   00007A   85..82       MOV     DPL,?XSP + 0
   \   00007D   85..83       MOV     DPH,?XSP + 1
   \   000080   C3           CLR     C
   \   000081   E0           MOVX    A,@DPTR
   \   000082   9400         SUBB    A,#0x0
   \   000084   A3           INC     DPTR
   \   000085   E0           MOVX    A,@DPTR
   \   000086   9400         SUBB    A,#0x0
   \   000088   A2D2         MOV     C,0xD0 /* PSW */.2
   \   00008A   65D0         XRL     A,PSW
   \   00008C   33           RLC     A
   \   00008D   5039         JNC     ??displayXYZ_0
    277                  dis_data=-dis_data;
   \   00008F   85..82       MOV     DPL,?XSP + 0
   \   000092   85..83       MOV     DPH,?XSP + 1
   \   000095   E0           MOVX    A,@DPTR
   \   000096   F8           MOV     R0,A
   \   000097   A3           INC     DPTR
   \   000098   E0           MOVX    A,@DPTR
   \   000099   F9           MOV     R1,A
   \   00009A   C3           CLR     C
   \   00009B   E4           CLR     A
   \   00009C   98           SUBB    A,R0
   \   00009D   F8           MOV     R0,A
   \   00009E   E4           CLR     A
   \   00009F   99           SUBB    A,R1
   \   0000A0   F9           MOV     R1,A
   \   0000A1   85..82       MOV     DPL,?XSP + 0
   \   0000A4   85..83       MOV     DPH,?XSP + 1
   \   0000A7   E8           MOV     A,R0
   \   0000A8   F0           MOVX    @DPTR,A
   \   0000A9   A3           INC     DPTR
   \   0000AA   E9           MOV     A,R1
   \   0000AB   F0           MOVX    @DPTR,A
    278                  HalLcdWriteStringValue("X: -",temp,10,0);
   \   0000AC                ; Setup parameters for call to function HalLcdWriteStringValue
   \   0000AC   75..00       MOV     ?V0 + 0,#0x0
   \   0000AF   78..         MOV     R0,#?V0 + 0
   \   0000B1   12....       LCALL   ?PUSH_XSTACK_I_ONE
   \   0000B4   790A         MOV     R1,#0xa
   \   0000B6   EE           MOV     A,R6
   \   0000B7   FC           MOV     R4,A
   \   0000B8   EF           MOV     A,R7
   \   0000B9   FD           MOV     R5,A
   \   0000BA   7A..         MOV     R2,#(`?<Constant "X: -">` & 0xff)
   \   0000BC   7B..         MOV     R3,#((`?<Constant "X: -">` >> 8) & 0xff)
   \   0000BE   12....       LCALL   ??HalLcdWriteStringValue?relay
   \   0000C1   7401         MOV     A,#0x1
   \   0000C3   12....       LCALL   ?DEALLOC_XSTACK8
   \   0000C6   801A         SJMP    ??displayXYZ_1
    279              }
    280              else
    281              {
    282                  HalLcdWriteStringValue("X:  ",temp,10,0);
   \                     ??displayXYZ_0:
   \   0000C8                ; Setup parameters for call to function HalLcdWriteStringValue
   \   0000C8   75..00       MOV     ?V0 + 0,#0x0
   \   0000CB   78..         MOV     R0,#?V0 + 0
   \   0000CD   12....       LCALL   ?PUSH_XSTACK_I_ONE
   \   0000D0   790A         MOV     R1,#0xa
   \   0000D2   EE           MOV     A,R6
   \   0000D3   FC           MOV     R4,A
   \   0000D4   EF           MOV     A,R7
   \   0000D5   FD           MOV     R5,A
   \   0000D6   7A..         MOV     R2,#(`?<Constant "X:  ">` & 0xff)
   \   0000D8   7B..         MOV     R3,#((`?<Constant "X:  ">` >> 8) & 0xff)
   \   0000DA   12....       LCALL   ??HalLcdWriteStringValue?relay
   \   0000DD   7401         MOV     A,#0x1
   \   0000DF   12....       LCALL   ?DEALLOC_XSTACK8
    283              }
    284              dis_data=(pData[3]<<8)+pData[2];  //合成数据
   \                     ??displayXYZ_1:
   \   0000E2   7402         MOV     A,#0x2
   \   0000E4   12....       LCALL   ?XSTACK_DISP0_8
   \   0000E7   E0           MOVX    A,@DPTR
   \   0000E8   F8           MOV     R0,A
   \   0000E9   A3           INC     DPTR
   \   0000EA   E0           MOVX    A,@DPTR
   \   0000EB   F583         MOV     DPH,A
   \   0000ED   8882         MOV     DPL,R0
   \   0000EF   A3           INC     DPTR
   \   0000F0   A3           INC     DPTR
   \   0000F1   A3           INC     DPTR
   \   0000F2   E0           MOVX    A,@DPTR
   \   0000F3   F8           MOV     R0,A
   \   0000F4   E4           CLR     A
   \   0000F5   C8           XCH     A,R0
   \   0000F6   F9           MOV     R1,A
   \   0000F7   7402         MOV     A,#0x2
   \   0000F9   12....       LCALL   ?XSTACK_DISP0_8
   \   0000FC   E0           MOVX    A,@DPTR
   \   0000FD   FA           MOV     R2,A
   \   0000FE   A3           INC     DPTR
   \   0000FF   E0           MOVX    A,@DPTR
   \   000100   F583         MOV     DPH,A
   \   000102   8A82         MOV     DPL,R2
   \   000104   A3           INC     DPTR
   \   000105   A3           INC     DPTR
   \   000106   E0           MOVX    A,@DPTR
   \   000107   7B00         MOV     R3,#0x0
   \   000109   28           ADD     A,R0
   \   00010A   F8           MOV     R0,A
   \   00010B   EB           MOV     A,R3
   \   00010C   39           ADDC    A,R1
   \   00010D   F9           MOV     R1,A
   \   00010E   85..82       MOV     DPL,?XSP + 0
   \   000111   85..83       MOV     DPH,?XSP + 1
   \   000114   E8           MOV     A,R0
   \   000115   F0           MOVX    @DPTR,A
   \   000116   A3           INC     DPTR
   \   000117   E9           MOV     A,R1
   \   000118   F0           MOVX    @DPTR,A
    285              temp=(uint16)((float)dis_data*3.9);  //计算数据和显示,查考ADXL345快速入门第4页
   \   000119   85..82       MOV     DPL,?XSP + 0
   \   00011C   85..83       MOV     DPH,?XSP + 1
   \   00011F   E0           MOVX    A,@DPTR
   \   000120   F5..         MOV     ?V0 + 4,A
   \   000122   A3           INC     DPTR
   \   000123   E0           MOVX    A,@DPTR
   \   000124   F5..         MOV     ?V0 + 5,A
   \   000126   E5..         MOV     A,?V0 + 5
   \   000128   33           RLC     A
   \   000129   95E0         SUBB    A,0xE0 /* A   */
   \   00012B   F5..         MOV     ?V0 + 6,A
   \   00012D   F5..         MOV     ?V0 + 7,A
   \   00012F   78..         MOV     R0,#?V0 + 4
   \   000131   12....       LCALL   ?L_TO_FLT
   \   000134   90....       MOV     DPTR,#__Constant_4079999a
   \   000137   78..         MOV     R0,#?V0 + 0
   \   000139   12....       LCALL   ?L_MOV_X
   \   00013C   78..         MOV     R0,#?V0 + 4
   \   00013E   79..         MOV     R1,#?V0 + 0
   \   000140   12....       LCALL   ?FLT_MUL
   \   000143   78..         MOV     R0,#?V0 + 4
   \   000145   12....       LCALL   ?FLT_TO_L
   \   000148   AE..         MOV     R6,?V0 + 4
   \   00014A   AF..         MOV     R7,?V0 + 5
    286              if(dis_data<0){
   \   00014C   85..82       MOV     DPL,?XSP + 0
   \   00014F   85..83       MOV     DPH,?XSP + 1
   \   000152   C3           CLR     C
   \   000153   E0           MOVX    A,@DPTR
   \   000154   9400         SUBB    A,#0x0
   \   000156   A3           INC     DPTR
   \   000157   E0           MOVX    A,@DPTR
   \   000158   9400         SUBB    A,#0x0
   \   00015A   A2D2         MOV     C,0xD0 /* PSW */.2
   \   00015C   65D0         XRL     A,PSW
   \   00015E   33           RLC     A
   \   00015F   5039         JNC     ??displayXYZ_2
    287                  dis_data=-dis_data;
   \   000161   85..82       MOV     DPL,?XSP + 0
   \   000164   85..83       MOV     DPH,?XSP + 1
   \   000167   E0           MOVX    A,@DPTR
   \   000168   F8           MOV     R0,A
   \   000169   A3           INC     DPTR
   \   00016A   E0           MOVX    A,@DPTR
   \   00016B   F9           MOV     R1,A
   \   00016C   C3           CLR     C
   \   00016D   E4           CLR     A
   \   00016E   98           SUBB    A,R0
   \   00016F   F8           MOV     R0,A
   \   000170   E4           CLR     A
   \   000171   99           SUBB    A,R1
   \   000172   F9           MOV     R1,A
   \   000173   85..82       MOV     DPL,?XSP + 0
   \   000176   85..83       MOV     DPH,?XSP + 1
   \   000179   E8           MOV     A,R0
   \   00017A   F0           MOVX    @DPTR,A
   \   00017B   A3           INC     DPTR
   \   00017C   E9           MOV     A,R1
   \   00017D   F0           MOVX    @DPTR,A
    288                  HalLcdWriteStringValue("Y: -",temp,10,1);
   \   00017E                ; Setup parameters for call to function HalLcdWriteStringValue
   \   00017E   75..01       MOV     ?V0 + 0,#0x1
   \   000181   78..         MOV     R0,#?V0 + 0
   \   000183   12....       LCALL   ?PUSH_XSTACK_I_ONE
   \   000186   790A         MOV     R1,#0xa
   \   000188   EE           MOV     A,R6
   \   000189   FC           MOV     R4,A
   \   00018A   EF           MOV     A,R7
   \   00018B   FD           MOV     R5,A
   \   00018C   7A..         MOV     R2,#(`?<Constant "Y: -">` & 0xff)
   \   00018E   7B..         MOV     R3,#((`?<Constant "Y: -">` >> 8) & 0xff)
   \   000190   12....       LCALL   ??HalLcdWriteStringValue?relay
   \   000193   7401         MOV     A,#0x1
   \   000195   12....       LCALL   ?DEALLOC_XSTACK8
   \   000198   801A         SJMP    ??displayXYZ_3
    289              }
    290              else
    291              {
    292                  HalLcdWriteStringValue("Y:  ",temp,10,1);
   \                     ??displayXYZ_2:
   \   00019A                ; Setup parameters for call to function HalLcdWriteStringValue
   \   00019A   75..01       MOV     ?V0 + 0,#0x1
   \   00019D   78..         MOV     R0,#?V0 + 0
   \   00019F   12....       LCALL   ?PUSH_XSTACK_I_ONE
   \   0001A2   790A         MOV     R1,#0xa
   \   0001A4   EE           MOV     A,R6
   \   0001A5   FC           MOV     R4,A
   \   0001A6   EF           MOV     A,R7
   \   0001A7   FD           MOV     R5,A
   \   0001A8   7A..         MOV     R2,#(`?<Constant "Y:  ">` & 0xff)
   \   0001AA   7B..         MOV     R3,#((`?<Constant "Y:  ">` >> 8) & 0xff)
   \   0001AC   12....       LCALL   ??HalLcdWriteStringValue?relay
   \   0001AF   7401         MOV     A,#0x1
   \   0001B1   12....       LCALL   ?DEALLOC_XSTACK8
    293              }
    294              dis_data=(pData[5]<<8)+pData[4];    //合成数据
   \                     ??displayXYZ_3:
   \   0001B4   7402         MOV     A,#0x2
   \   0001B6   12....       LCALL   ?XSTACK_DISP0_8
   \   0001B9   E0           MOVX    A,@DPTR
   \   0001BA   F8           MOV     R0,A
   \   0001BB   A3           INC     DPTR
   \   0001BC   E0           MOVX    A,@DPTR
   \   0001BD   F583         MOV     DPH,A
   \   0001BF   8882         MOV     DPL,R0
   \   0001C1   A3           INC     DPTR
   \   0001C2   A3           INC     DPTR
   \   0001C3   A3           INC     DPTR
   \   0001C4   A3           INC     DPTR
   \   0001C5   A3           INC     DPTR
   \   0001C6   E0           MOVX    A,@DPTR
   \   0001C7   F8           MOV     R0,A
   \   0001C8   E4           CLR     A
   \   0001C9   C8           XCH     A,R0
   \   0001CA   F9           MOV     R1,A
   \   0001CB   7402         MOV     A,#0x2
   \   0001CD   12....       LCALL   ?XSTACK_DISP0_8
   \   0001D0   E0           MOVX    A,@DPTR
   \   0001D1   FA           MOV     R2,A
   \   0001D2   A3           INC     DPTR
   \   0001D3   E0           MOVX    A,@DPTR
   \   0001D4   F583         MOV     DPH,A
   \   0001D6   8A82         MOV     DPL,R2
   \   0001D8   A3           INC     DPTR
   \   0001D9   A3           INC     DPTR
   \   0001DA   A3           INC     DPTR
   \   0001DB   A3           INC     DPTR
   \   0001DC   E0           MOVX    A,@DPTR
   \   0001DD   7B00         MOV     R3,#0x0
   \   0001DF   28           ADD     A,R0
   \   0001E0   F8           MOV     R0,A
   \   0001E1   EB           MOV     A,R3
   \   0001E2   39           ADDC    A,R1
   \   0001E3   F9           MOV     R1,A
   \   0001E4   85..82       MOV     DPL,?XSP + 0
   \   0001E7   85..83       MOV     DPH,?XSP + 1
   \   0001EA   E8           MOV     A,R0
   \   0001EB   F0           MOVX    @DPTR,A
   \   0001EC   A3           INC     DPTR
   \   0001ED   E9           MOV     A,R1
   \   0001EE   F0           MOVX    @DPTR,A
    295              temp=(uint16)((float)dis_data*3.9);  //计算数据和显示,查考ADXL345快速入门第4页
   \   0001EF   85..82       MOV     DPL,?XSP + 0
   \   0001F2   85..83       MOV     DPH,?XSP + 1
   \   0001F5   E0           MOVX    A,@DPTR
   \   0001F6   F5..         MOV     ?V0 + 4,A
   \   0001F8   A3           INC     DPTR
   \   0001F9   E0           MOVX    A,@DPTR
   \   0001FA   F5..         MOV     ?V0 + 5,A
   \   0001FC   E5..         MOV     A,?V0 + 5
   \   0001FE   33           RLC     A
   \   0001FF   95E0         SUBB    A,0xE0 /* A   */
   \   000201   F5..         MOV     ?V0 + 6,A
   \   000203   F5..         MOV     ?V0 + 7,A
   \   000205   78..         MOV     R0,#?V0 + 4
   \   000207   12....       LCALL   ?L_TO_FLT
   \   00020A   90....       MOV     DPTR,#__Constant_4079999a
   \   00020D   78..         MOV     R0,#?V0 + 0
   \   00020F   12....       LCALL   ?L_MOV_X
   \   000212   78..         MOV     R0,#?V0 + 4
   \   000214   79..         MOV     R1,#?V0 + 0
   \   000216   12....       LCALL   ?FLT_MUL
   \   000219   78..         MOV     R0,#?V0 + 4
   \   00021B   12....       LCALL   ?FLT_TO_L
   \   00021E   AE..         MOV     R6,?V0 + 4
   \   000220   AF..         MOV     R7,?V0 + 5
    296              if(dis_data<0){
   \   000222   85..82       MOV     DPL,?XSP + 0
   \   000225   85..83       MOV     DPH,?XSP + 1
   \   000228   C3           CLR     C
   \   000229   E0           MOVX    A,@DPTR
   \   00022A   9400         SUBB    A,#0x0
   \   00022C   A3           INC     DPTR
   \   00022D   E0           MOVX    A,@DPTR
   \   00022E   9400         SUBB    A,#0x0
   \   000230   A2D2         MOV     C,0xD0 /* PSW */.2
   \   000232   65D0         XRL     A,PSW
   \   000234   33           RLC     A
   \   000235   5039         JNC     ??displayXYZ_4
    297                  dis_data=-dis_data;
   \   000237   85..82       MOV     DPL,?XSP + 0
   \   00023A   85..83       MOV     DPH,?XSP + 1
   \   00023D   E0           MOVX    A,@DPTR
   \   00023E   F8           MOV     R0,A
   \   00023F   A3           INC     DPTR
   \   000240   E0           MOVX    A,@DPTR
   \   000241   F9           MOV     R1,A
   \   000242   C3           CLR     C
   \   000243   E4           CLR     A
   \   000244   98           SUBB    A,R0
   \   000245   F8           MOV     R0,A
   \   000246   E4           CLR     A
   \   000247   99           SUBB    A,R1
   \   000248   F9           MOV     R1,A
   \   000249   85..82       MOV     DPL,?XSP + 0
   \   00024C   85..83       MOV     DPH,?XSP + 1
   \   00024F   E8           MOV     A,R0
   \   000250   F0           MOVX    @DPTR,A
   \   000251   A3           INC     DPTR
   \   000252   E9           MOV     A,R1
   \   000253   F0           MOVX    @DPTR,A
    298                  HalLcdWriteStringValue("Z: -",temp,10,2);
   \   000254                ; Setup parameters for call to function HalLcdWriteStringValue
   \   000254   75..02       MOV     ?V0 + 0,#0x2
   \   000257   78..         MOV     R0,#?V0 + 0
   \   000259   12....       LCALL   ?PUSH_XSTACK_I_ONE
   \   00025C   790A         MOV     R1,#0xa
   \   00025E   EE           MOV     A,R6
   \   00025F   FC           MOV     R4,A
   \   000260   EF           MOV     A,R7
   \   000261   FD           MOV     R5,A
   \   000262   7A..         MOV     R2,#(`?<Constant "Z: -">` & 0xff)
   \   000264   7B..         MOV     R3,#((`?<Constant "Z: -">` >> 8) & 0xff)
   \   000266   12....       LCALL   ??HalLcdWriteStringValue?relay
   \   000269   7401         MOV     A,#0x1
   \   00026B   12....       LCALL   ?DEALLOC_XSTACK8
   \   00026E   801A         SJMP    ??displayXYZ_5
    299              }
    300              else
    301              {
    302                  HalLcdWriteStringValue("Z:  ",temp,10,2);
   \                     ??displayXYZ_4:
   \   000270                ; Setup parameters for call to function HalLcdWriteStringValue
   \   000270   75..02       MOV     ?V0 + 0,#0x2
   \   000273   78..         MOV     R0,#?V0 + 0
   \   000275   12....       LCALL   ?PUSH_XSTACK_I_ONE
   \   000278   790A         MOV     R1,#0xa
   \   00027A   EE           MOV     A,R6
   \   00027B   FC           MOV     R4,A
   \   00027C   EF           MOV     A,R7
   \   00027D   FD           MOV     R5,A
   \   00027E   7A..         MOV     R2,#(`?<Constant "Z:  ">` & 0xff)
   \   000280   7B..         MOV     R3,#((`?<Constant "Z:  ">` >> 8) & 0xff)
   \   000282   12....       LCALL   ??HalLcdWriteStringValue?relay
   \   000285   7401         MOV     A,#0x1
   \   000287   12....       LCALL   ?DEALLOC_XSTACK8
    303              }
    304          }
   \                     ??displayXYZ_5:
   \   00028A   7404         MOV     A,#0x4
   \   00028C   12....       LCALL   ?DEALLOC_XSTACK8
   \   00028F   7F08         MOV     R7,#0x8
   \   000291   02....       LJMP    ?BANKED_LEAVE_XDATA

   \                                 In  segment XDATA_ID, align 1, keep-with-next
   \                     `?<Initializer for <Constant "X: -">>`:
   \   000000   583A202D     DB "X: -"
   \            00      

   \                                 In  segment XDATA_ID, align 1, keep-with-next
   \                     `?<Initializer for <Constant "X:  ">>`:
   \   000000   583A2020     DB "X:  "
   \            00      

   \                                 In  segment XDATA_ID, align 1, keep-with-next
   \                     `?<Initializer for <Constant "Y: -">>`:
   \   000000   593A202D     DB "Y: -"
   \            00      

   \                                 In  segment XDATA_ID, align 1, keep-with-next
   \                     `?<Initializer for <Constant "Y:  ">>`:
   \   000000   593A2020     DB "Y:  "
   \            00      

   \                                 In  segment XDATA_ID, align 1, keep-with-next
   \                     `?<Initializer for <Constant "Z: -">>`:
   \   000000   5A3A202D     DB "Z: -"
   \            00      

   \                                 In  segment XDATA_ID, align 1, keep-with-next
   \                     `?<Initializer for <Constant "Z:  ">>`:
   \   000000   5A3A2020     DB "Z:  "
   \            00      

   \                                 In  segment XDATA_ID, align 1, keep-with-next
   \                     `?<Initializer for __Constant_4079999a>`:
   \   000000   9A997940     DD 4079999AH

   \                                 In  segment XDATA_ID, align 1, keep-with-next
   \                     `?<Initializer for __Constant_42c80000>`:
   \   000000   0000C842     DD 42C80000H

   \                                 In  segment XDATA_ID, align 1, keep-with-next
   \                     `?<Initializer for __Constant_41200000>`:
   \   000000   00002041     DD 41200000H

   \                                 In  segment XDATA_ID, align 1, keep-with-next
   \                     `?<Initializer for __Constant_42480000>`:
   \   000000   00004842     DD 42480000H

   \                                 In  segment BANK_RELAYS, align 1
   \                     ??Delay?relay:
   \   000000   12....       LCALL   ?BDISPATCH
   \   000003   ......       DC24    Delay

   \                                 In  segment BANK_RELAYS, align 1
   \                     ??Delay_1u?relay:
   \   000000   12....       LCALL   ?BDISPATCH
   \   000003   ......       DC24    Delay_1u

   \                                 In  segment BANK_RELAYS, align 1
   \                     ??conversion?relay:
   \   000000   12....       LCALL   ?BDISPATCH
   \   000003   ......       DC24    conversion

   \                                 In  segment BANK_RELAYS, align 1
   \                     ??I2C_Start_1?relay:
   \   000000   12....       LCALL   ?BDISPATCH
   \   000003   ......       DC24    I2C_Start_1

   \                                 In  segment BANK_RELAYS, align 1
   \                     ??I2C_Stop_1?relay:
   \   000000   12....       LCALL   ?BDISPATCH
   \   000003   ......       DC24    I2C_Stop_1

   \                                 In  segment BANK_RELAYS, align 1
   \                     ??Sendack?relay:
   \   000000   12....       LCALL   ?BDISPATCH
   \   000003   ......       DC24    Sendack

   \                                 In  segment BANK_RELAYS, align 1
   \                     ??I2C_Check_ack?relay:
   \   000000   12....       LCALL   ?BDISPATCH
   \   000003   ......       DC24    I2C_Check_ack

   \                                 In  segment BANK_RELAYS, align 1
   \                     ??WriteI2CByte_1?relay:
   \   000000   12....       LCALL   ?BDISPATCH
   \   000003   ......       DC24    WriteI2CByte_1

   \                                 In  segment BANK_RELAYS, align 1
   \                     ??ReadI2CByte_1?relay:
   \   000000   12....       LCALL   ?BDISPATCH
   \   000003   ......       DC24    ReadI2CByte_1

   \                                 In  segment BANK_RELAYS, align 1
   \                     ??Single_Write_ADXL345?relay:
   \   000000   12....       LCALL   ?BDISPATCH
   \   000003   ......       DC24    Single_Write_ADXL345

   \                                 In  segment BANK_RELAYS, align 1
   \                     ??Single_Read_ADXL345?relay:
   \   000000   12....       LCALL   ?BDISPATCH
   \   000003   ......       DC24    Single_Read_ADXL345

   \                                 In  segment BANK_RELAYS, align 1
   \                     ??Init_ADXL345?relay:
   \   000000   12....       LCALL   ?BDISPATCH
   \   000003   ......       DC24    Init_ADXL345

   \                                 In  segment BANK_RELAYS, align 1
   \                     ??Multiple_Read_ADXL345?relay:
   \   000000   12....       LCALL   ?BDISPATCH
   \   000003   ......       DC24    Multiple_Read_ADXL345

   \                                 In  segment BANK_RELAYS, align 1
   \                     ??displayXYZ?relay:
   \   000000   12....       LCALL   ?BDISPATCH
   \   000003   ......       DC24    displayXYZ

   \                                 In  segment XDATA_I, align 1, keep-with-next
   \                     `?<Constant "X: -">`:
   \   000000                DS 5
   \   000005                REQUIRE `?<Initializer for <Constant "X: -">>`
   \   000005                REQUIRE __INIT_XDATA_I

   \                                 In  segment XDATA_I, align 1, keep-with-next
   \                     `?<Constant "X:  ">`:
   \   000000                DS 5
   \   000005                REQUIRE `?<Initializer for <Constant "X:  ">>`
   \   000005                REQUIRE __INIT_XDATA_I

   \                                 In  segment XDATA_I, align 1, keep-with-next
   \                     `?<Constant "Y: -">`:
   \   000000                DS 5
   \   000005                REQUIRE `?<Initializer for <Constant "Y: -">>`
   \   000005                REQUIRE __INIT_XDATA_I

   \                                 In  segment XDATA_I, align 1, keep-with-next
   \                     `?<Constant "Y:  ">`:
   \   000000                DS 5
   \   000005                REQUIRE `?<Initializer for <Constant "Y:  ">>`
   \   000005                REQUIRE __INIT_XDATA_I

   \                                 In  segment XDATA_I, align 1, keep-with-next
   \                     `?<Constant "Z: -">`:
   \   000000                DS 5
   \   000005                REQUIRE `?<Initializer for <Constant "Z: -">>`
   \   000005                REQUIRE __INIT_XDATA_I

   \                                 In  segment XDATA_I, align 1, keep-with-next
   \                     `?<Constant "Z:  ">`:
   \   000000                DS 5
   \   000005                REQUIRE `?<Initializer for <Constant "Z:  ">>`
   \   000005                REQUIRE __INIT_XDATA_I

   \                                 In  segment XDATA_I, align 1, keep-with-next
   \                     __Constant_4079999a:
   \   000000                DS 4
   \   000004                REQUIRE `?<Initializer for __Constant_4079999a>`
   \   000004                REQUIRE __INIT_XDATA_I

   \                                 In  segment XDATA_I, align 1, keep-with-next
   \                     __Constant_42c80000:
   \   000000                DS 4
   \   000004                REQUIRE `?<Initializer for __Constant_42c80000>`
   \   000004                REQUIRE __INIT_XDATA_I

   \                                 In  segment XDATA_I, align 1, keep-with-next
   \                     __Constant_41200000:
   \   000000                DS 4
   \   000004                REQUIRE `?<Initializer for __Constant_41200000>`
   \   000004                REQUIRE __INIT_XDATA_I

   \                                 In  segment XDATA_I, align 1, keep-with-next
   \                     __Constant_42480000:
   \   000000                DS 4
   \   000004                REQUIRE `?<Initializer for __Constant_42480000>`
   \   000004                REQUIRE __INIT_XDATA_I

   Maximum stack usage in bytes:

     Function                    ISTACK PSTACK XSTACK
     --------                    ------ ------ ------
     Delay                           0      0      9
     Delay_1u                        0      0      9
     I2C_Check_ack                   2      0      9
       -> Delay_1u                   4      0      0
       -> Delay_1u                   4      0      0
       -> Delay_1u                   4      0      0
     I2C_Start_1                     2      0     10
       -> Delay_1u                   4      0      0
       -> Delay_1u                   4      0      0
       -> Delay_1u                   4      0      0
       -> Delay_1u                   4      0      0
     I2C_Stop_1                      2      0     10
       -> Delay_1u                   4      0      0
       -> Delay_1u                   4      0      0
       -> Delay_1u                   4      0      0
       -> Delay_1u                   4      0      0
       -> Delay_1u                   4      0      0
     Init_ADXL345                    2      0      0
       -> Single_Write_ADXL345       4      0      0
       -> Single_Write_ADXL345       4      0      0
       -> Single_Write_ADXL345       4      0      0
       -> Single_Write_ADXL345       4      0      0
       -> Single_Write_ADXL345       4      0      0
       -> Single_Write_ADXL345       4      0      0
       -> Single_Write_ADXL345       4      0      0
     Multiple_Read_ADXL345           1      0     10
       -> I2C_Start_1                0      0     20
       -> WriteI2CByte_1             0      0     20
       -> WriteI2CByte_1             0      0     20
       -> I2C_Start_1                0      0     20
       -> WriteI2CByte_1             0      0     20
       -> ReadI2CByte_1              0      0     20
       -> Sendack                    0      0     20
       -> Sendack                    0      0     20
       -> I2C_Stop_1                 0      0     20
     ReadI2CByte_1                   0      0     19
       -> Delay_1u                   0      0     18
       -> Delay_1u                   0      0     18
       -> Delay_1u                   0      0     18
     Sendack                         0      0     19
       -> Delay_1u                   0      0     18
       -> Delay                      0      0     18
       -> Delay_1u                   0      0     18
       -> Delay_1u                   0      0     18
       -> Delay_1u                   0      0     18
     Single_Read_ADXL345             0      0      9
       -> I2C_Start_1                0      0     18
       -> WriteI2CByte_1             0      0     18
       -> WriteI2CByte_1             0      0     18
       -> I2C_Start_1                0      0     18
       -> WriteI2CByte_1             0      0     18
       -> ReadI2CByte_1              0      0     18
       -> Sendack                    0      0     18
       -> I2C_Stop_1                 0      0     18
     Single_Write_ADXL345            0      0      9
       -> I2C_Start_1                0      0     18
       -> WriteI2CByte_1             0      0     18
       -> WriteI2CByte_1             0      0     18
       -> WriteI2CByte_1             0      0     18
       -> I2C_Stop_1                 0      0     18
     WriteI2CByte_1                  0      0     19
       -> Delay_1u                   0      0     18
       -> Delay_1u                   0      0     18
       -> Delay_1u                   0      0     18
       -> I2C_Check_ack              0      0     18
     conversion                      4      0     38
       -> sqrt                       0      0     72
       -> acos                       0      0     72
       -> acos                       0      0     72
       -> acos                       0      0     72
       -> cos                        8      0     72
       -> cos                        8      0     72
       -> cos                        8      0     72
     displayXYZ                      0      0     21
       -> HalLcdWriteStringValue     0      0     42
       -> HalLcdWriteStringValue     0      0     42
       -> HalLcdWriteStringValue     0      0     42
       -> HalLcdWriteStringValue     0      0     42
       -> HalLcdWriteStringValue     0      0     42
       -> HalLcdWriteStringValue     0      0     42


   Segment part sizes:

     Function/Label                 Bytes
     --------------                 -----
     _A_P1                             1
     P1DIR                             1
     POS_TEMP                          6
     dis_data                          2
     wan                               1
     qian                              1
     bai                               1
     shi                               1
     ge                                1
     Delay                           108
     ??Delay_1u_0                     59
     conversion                     1716
     I2C_Start_1                      50
     I2C_Stop_1                       57
     Sendack                          61
     I2C_Check_ack                    58
     WriteI2CByte_1                   73
     ReadI2CByte_1                    87
     Single_Write_ADXL345             35
     Single_Read_ADXL345              48
     Init_ADXL345                     63
     Multiple_Read_ADXL345            88
     displayXYZ                      660
     ?<Initializer for <Constant "X: -">>
                                       5
     ?<Initializer for <Constant "X:  ">>
                                       5
     ?<Initializer for <Constant "Y: -">>
                                       5
     ?<Initializer for <Constant "Y:  ">>
                                       5
     ?<Initializer for <Constant "Z: -">>
                                       5
     ?<Initializer for <Constant "Z:  ">>
                                       5
     ?<Initializer for __Constant_4079999a>
                                       4
     ?<Initializer for __Constant_42c80000>
                                       4
     ?<Initializer for __Constant_41200000>
                                       4
     ?<Initializer for __Constant_42480000>
                                       4
     ??Delay?relay                     6
     ??Delay_1u?relay                  6
     ??conversion?relay                6
     ??I2C_Start_1?relay               6
     ??I2C_Stop_1?relay                6
     ??Sendack?relay                   6
     ??I2C_Check_ack?relay             6
     ??WriteI2CByte_1?relay            6
     ??ReadI2CByte_1?relay             6
     ??Single_Write_ADXL345?relay      6
     ??Single_Read_ADXL345?relay       6
     ??Init_ADXL345?relay              6
     ??Multiple_Read_ADXL345?relay     6
     ??displayXYZ?relay                6
     ?<Constant "X: -">                5
     ?<Constant "X:  ">                5
     ?<Constant "Y: -">                5
     ?<Constant "Y:  ">                5
     ?<Constant "Z: -">                5
     ?<Constant "Z:  ">                5
     __Constant_4079999a               4
     __Constant_42c80000               4
     __Constant_41200000               4
     __Constant_42480000               4

 
 3 163 bytes in segment BANKED_CODE
    84 bytes in segment BANK_RELAYS
     2 bytes in segment SFR_AN
    46 bytes in segment XDATA_I
    46 bytes in segment XDATA_ID
    13 bytes in segment XDATA_Z
 
 3 277 bytes of CODE  memory (+ 16 bytes shared)
     0 bytes of DATA  memory (+  2 bytes shared)
    43 bytes of XDATA memory (+ 16 bytes shared)

Errors: none
Warnings: none
