###############################################################################
#                                                                             #
# IAR 8051 C/C++ Compiler V7.30B/W32                    03/Apr/2013  14:45:14 #
# Copyright 2004-2007 IAR Systems. All rights reserved.                       #
#                                                                             #
#    Core               =  plain                                              #
#    Code model         =  banked                                             #
#    Data model         =  large                                              #
#    Calling convention =  xdata reentrant                                    #
#    Constant location  =  data                                               #
#    Dptr setup         =  1,16                                               #
#    Source file        =  C:\Texas Instruments\ZStack-1.4.3-1.2.1\Components #
#                          \mac\low_level\srf03\mac_rx.c                      #
#    Command line       =  -f "C:\Texas Instruments\ZStack-1.4.3-1.2.1\Projec #
#                          ts\zstack\Samples\cc2430-zstack-adxl345 -          #
#                          2\CC2430DB\..\..\..\Tools\CC2430DB\f8wEndev.cfg"   #
#                          (-DCPU32MHZ -DFORCE_MAC_NEAR -DROOT=__near_func    #
#                          -DMAC_OPT_FFD=0 -DBLINK_LEDS "-DCONST=const        #
#                          __code" -DGENERIC=__generic) -f "C:\Texas          #
#                          Instruments\ZStack-1.4.3-1.2.1\Projects\zstack\Sam #
#                          ples\cc2430-zstack-adxl345 -                       #
#                          2\CC2430DB\..\..\..\Tools\CC2430DB\f8wConfig.cfg"  #
#                          (-DSECURE=0 -DDEFAULT_CHANLIST=0x00000800          #
#                          -DZDAPP_CONFIG_PAN_ID=0xFFFF                       #
#                          -DNWK_START_DELAY=100 -DEXTENDED_JOINING_RANDOM_MA #
#                          SK=0x007F -DBEACON_REQUEST_DELAY=100               #
#                          -DBEACON_REQ_DELAY_MASK=0x00FF                     #
#                          -DROUTE_EXPIRY_TIME=30 -DAPSC_ACK_WAIT_DURATION_PO #
#                          LLED=3000 -DNWK_INDIRECT_MSG_TIMEOUT=7             #
#                          -DMAX_RREQ_ENTRIES=10 -DAPSC_MAX_FRAME_RETRIES=3   #
#                          -DNWK_MAX_DATA_RETRIES=2                           #
#                          -DMAX_POLL_FAILURE_RETRIES=2 -DMAX_BCAST=9         #
#                          -DAPS_MAX_GROUPS=16 -DMAX_RTG_ENTRIES=20           #
#                          -DNWK_MAX_BINDING_ENTRIES=10                       #
#                          -DMAX_BINDING_CLUSTER_IDS=5 "-DDEFAULT_KEY={0x01,  #
#                          0x03, 0x05, 0x07, 0x09, 0x0B, 0x0D, 0x0F, 0x00,    #
#                          0x02, 0x04, 0x06, 0x08, 0x0A, 0x0C, 0x0D}"         #
#                          -DRFD_RCVC_ALWAYS_ON=FALSE -DPOLL_RATE=1000        #
#                          -DQUEUED_POLL_RATE=100 -DRESPONSE_POLL_RATE=100)   #
#                          -DREJOIN_POLL_RATE=440 "C:\Texas                   #
#                          Instruments\ZStack-1.4.3-1.2.1\Components\mac\low_ #
#                          level\srf03\mac_rx.c" -D CC2430EB -D AXD_END -D    #
#                          AXD_END_C -D NWK_AUTO_POLL -D REFLECTOR -D         #
#                          xZTOOL_P1 -D xMT_TASK -D xMT_ZDO_FUNC -D           #
#                          xLCD_SUPPORTED=DEBUG -D xPOWER_SAVING -lC          #
#                          "C:\Texas Instruments\ZStack-1.4.3-1.2.1\Projects\ #
#                          zstack\Samples\cc2430-zstack-adxl345 -             #
#                          2\CC2430DB\EndDevice3EB\List\" -lA "C:\Texas       #
#                          Instruments\ZStack-1.4.3-1.2.1\Projects\zstack\Sam #
#                          ples\cc2430-zstack-adxl345 -                       #
#                          2\CC2430DB\EndDevice3EB\List\" --diag_suppress     #
#                          Pe001,Pa010 --diag_remark pe550 -o "C:\Texas       #
#                          Instruments\ZStack-1.4.3-1.2.1\Projects\zstack\Sam #
#                          ples\cc2430-zstack-adxl345 -                       #
#                          2\CC2430DB\EndDevice3EB\Obj\" -e                   #
#                          --require_prototypes -z2 --no_cse --no_unroll      #
#                          --no_inline --no_code_motion --no_tbaa --debug     #
#                          --core=plain --dptr=16,1 --data_model=large        #
#                          --code_model=banked --calling_convention=xdata_ree #
#                          ntrant --place_constants=data --nr_virtual_regs 8  #
#                          -I "C:\Texas Instruments\ZStack-1.4.3-1.2.1\Projec #
#                          ts\zstack\Samples\cc2430-zstack-adxl345 -          #
#                          2\CC2430DB\" -I "C:\Texas                          #
#                          Instruments\ZStack-1.4.3-1.2.1\Projects\zstack\Sam #
#                          ples\cc2430-zstack-adxl345 -                       #
#                          2\CC2430DB\..\SOURCE\" -I "C:\Texas                #
#                          Instruments\ZStack-1.4.3-1.2.1\Projects\zstack\Sam #
#                          ples\cc2430-zstack-adxl345 -                       #
#                          2\CC2430DB\..\Drivers\" -I "C:\Texas               #
#                          Instruments\ZStack-1.4.3-1.2.1\Projects\zstack\Sam #
#                          ples\cc2430-zstack-adxl345 -                       #
#                          2\CC2430DB\..\..\..\ZMAIN\TI2430DB\" -I "C:\Texas  #
#                          Instruments\ZStack-1.4.3-1.2.1\Projects\zstack\Sam #
#                          ples\cc2430-zstack-adxl345 -                       #
#                          2\CC2430DB\..\..\..\..\..\COMPONENTS\MT\" -I       #
#                          "C:\Texas Instruments\ZStack-1.4.3-1.2.1\Projects\ #
#                          zstack\Samples\cc2430-zstack-adxl345 -             #
#                          2\CC2430DB\..\..\..\..\..\COMPONENTS\HAL\INCLUDE\" #
#                           -I "C:\Texas Instruments\ZStack-1.4.3-1.2.1\Proje #
#                          cts\zstack\Samples\cc2430-zstack-adxl345 -         #
#                          2\CC2430DB\..\..\..\..\..\COMPONENTS\HAL\TARGET\CC #
#                          2430EB\" -I "C:\Texas Instruments\ZStack-1.4.3-1.2 #
#                          .1\Projects\zstack\Samples\cc2430-zstack-adxl345   #
#                          - 2\CC2430DB\..\..\..\..\..\COMPONENTS\OSAL\MCU\CC #
#                          SOC\" -I "C:\Texas Instruments\ZStack-1.4.3-1.2.1\ #
#                          Projects\zstack\Samples\cc2430-zstack-adxl345 -    #
#                          2\CC2430DB\..\..\..\..\..\COMPONENTS\OSAL\INCLUDE\ #
#                          " -I "C:\Texas Instruments\ZStack-1.4.3-1.2.1\Proj #
#                          ects\zstack\Samples\cc2430-zstack-adxl345 -        #
#                          2\CC2430DB\..\..\..\..\..\COMPONENTS\STACK\AF\"    #
#                          -I "C:\Texas Instruments\ZStack-1.4.3-1.2.1\Projec #
#                          ts\zstack\Samples\cc2430-zstack-adxl345 -          #
#                          2\CC2430DB\..\..\..\..\..\COMPONENTS\STACK\NWK\"   #
#                          -I "C:\Texas Instruments\ZStack-1.4.3-1.2.1\Projec #
#                          ts\zstack\Samples\cc2430-zstack-adxl345 -          #
#                          2\CC2430DB\..\..\..\..\..\COMPONENTS\STACK\SEC\"   #
#                          -I "C:\Texas Instruments\ZStack-1.4.3-1.2.1\Projec #
#                          ts\zstack\Samples\cc2430-zstack-adxl345 -          #
#                          2\CC2430DB\..\..\..\..\..\COMPONENTS\STACK\SYS\"   #
#                          -I "C:\Texas Instruments\ZStack-1.4.3-1.2.1\Projec #
#                          ts\zstack\Samples\cc2430-zstack-adxl345 -          #
#                          2\CC2430DB\..\..\..\..\..\COMPONENTS\STACK\ZDO\"   #
#                          -I "C:\Texas Instruments\ZStack-1.4.3-1.2.1\Projec #
#                          ts\zstack\Samples\cc2430-zstack-adxl345 -          #
#                          2\CC2430DB\..\..\..\..\..\COMPONENTS\ZMAC\F8W\"    #
#                          -I "C:\Texas Instruments\ZStack-1.4.3-1.2.1\Projec #
#                          ts\zstack\Samples\cc2430-zstack-adxl345 -          #
#                          2\CC2430DB\..\..\..\..\..\COMPONENTS\ZMAC\" -I     #
#                          "C:\Texas Instruments\ZStack-1.4.3-1.2.1\Projects\ #
#                          zstack\Samples\cc2430-zstack-adxl345 -             #
#                          2\CC2430DB\..\..\..\..\..\COMPONENTS\SERVICES\SADD #
#                          R\" -I "C:\Texas Instruments\ZStack-1.4.3-1.2.1\Pr #
#                          ojects\zstack\Samples\cc2430-zstack-adxl345 -      #
#                          2\CC2430DB\..\..\..\..\..\COMPONENTS\SERVICES\SDAT #
#                          A\" -I "C:\Texas Instruments\ZStack-1.4.3-1.2.1\Pr #
#                          ojects\zstack\Samples\cc2430-zstack-adxl345 -      #
#                          2\CC2430DB\..\..\..\..\..\COMPONENTS\MAC\INCLUDE\" #
#                           -I "C:\Texas Instruments\ZStack-1.4.3-1.2.1\Proje #
#                          cts\zstack\Samples\cc2430-zstack-adxl345 -         #
#                          2\CC2430DB\..\..\..\..\..\COMPONENTS\MAC\HIGH_LEVE #
#                          L\" -I "C:\Texas Instruments\ZStack-1.4.3-1.2.1\Pr #
#                          ojects\zstack\Samples\cc2430-zstack-adxl345 -      #
#                          2\CC2430DB\..\..\..\..\..\COMPONENTS\MAC\LOW_LEVEL #
#                          \SRF03\" -I "C:\Texas Instruments\ZStack-1.4.3-1.2 #
#                          .1\Projects\zstack\Samples\cc2430-zstack-adxl345   #
#                          - 2\CC2430DB\..\..\..\..\..\COMPONENTS\MAC\LOW_LEV #
#                          EL\SRF03\SINGLE_CHIP\" -I "C:\Program Files\IAR    #
#                          Systems\Embedded Workbench 4.0 Evaluation          #
#                          version\8051\INC\" -I "C:\Program Files\IAR        #
#                          Systems\Embedded Workbench 4.0 Evaluation          #
#                          version\8051\INC\CLIB\"                            #
#    List file          =  C:\Texas Instruments\ZStack-1.4.3-1.2.1\Projects\z #
#                          stack\Samples\cc2430-zstack-adxl345 -              #
#                          2\CC2430DB\EndDevice3EB\List\mac_rx.lst            #
#    Object file        =  C:\Texas Instruments\ZStack-1.4.3-1.2.1\Projects\z #
#                          stack\Samples\cc2430-zstack-adxl345 -              #
#                          2\CC2430DB\EndDevice3EB\Obj\mac_rx.r51             #
#                                                                             #
#                                                                             #
###############################################################################

C:\Texas Instruments\ZStack-1.4.3-1.2.1\Components\mac\low_level\srf03\mac_rx.c
      1          /**************************************************************************************************
      2            Filename:       mac_rx.c
      3            Revised:        $Date: 2007-10-29 22:38:47 -0700 (Mon, 29 Oct 2007) $
      4            Revision:       $Revision: 15812 $
      5          
      6            Description:    Describe the purpose and contents of the file.
      7          
      8          
      9            Copyright 2006-2007 Texas Instruments Incorporated. All rights reserved.
     10          
     11            IMPORTANT: Your use of this Software is limited to those specific rights
     12            granted under the terms of a software license agreement between the user
     13            who downloaded the software, his/her employer (which must be your employer)
     14            and Texas Instruments Incorporated (the "License").  You may not use this
     15            Software unless you agree to abide by the terms of the License. The License
     16            limits your use, and you acknowledge, that the Software may not be modified,
     17            copied or distributed unless embedded on a Texas Instruments microcontroller
     18            or used solely and exclusively in conjunction with a Texas Instruments radio
     19            frequency transceiver, which is integrated into your product.  Other than for
     20            the foregoing purpose, you may not use, reproduce, copy, prepare derivative
     21            works of, modify, distribute, perform, display or sell this Software and/or
     22            its documentation for any purpose.
     23          
     24            YOU FURTHER ACKNOWLEDGE AND AGREE THAT THE SOFTWARE AND DOCUMENTATION ARE
     25            PROVIDED “AS IS” WITHOUT WARRANTY OF ANY KIND, EITHER EXPRESS OR IMPLIED, 
     26            INCLUDING WITHOUT LIMITATION, ANY WARRANTY OF MERCHANTABILITY, TITLE, 
     27            NON-INFRINGEMENT AND FITNESS FOR A PARTICULAR PURPOSE. IN NO EVENT SHALL
     28            TEXAS INSTRUMENTS OR ITS LICENSORS BE LIABLE OR OBLIGATED UNDER CONTRACT,
     29            NEGLIGENCE, STRICT LIABILITY, CONTRIBUTION, BREACH OF WARRANTY, OR OTHER
     30            LEGAL EQUITABLE THEORY ANY DIRECT OR INDIRECT DAMAGES OR EXPENSES
     31            INCLUDING BUT NOT LIMITED TO ANY INCIDENTAL, SPECIAL, INDIRECT, PUNITIVE
     32            OR CONSEQUENTIAL DAMAGES, LOST PROFITS OR LOST DATA, COST OF PROCUREMENT
     33            OF SUBSTITUTE GOODS, TECHNOLOGY, SERVICES, OR ANY CLAIMS BY THIRD PARTIES
     34            (INCLUDING BUT NOT LIMITED TO ANY DEFENSE THEREOF), OR OTHER SIMILAR COSTS.
     35          
     36            Should you have any questions regarding your right to use this Software,
     37            contact Texas Instruments Incorporated at www.TI.com. 
     38          **************************************************************************************************/
     39          
     40          /* ------------------------------------------------------------------------------------------------
     41           *                                          Includes
     42           * ------------------------------------------------------------------------------------------------
     43           */
     44          
     45          /* hal */
     46          #include "hal_defs.h"
     47          #include "hal_types.h"
     48          
     49          /* high-level */
     50          #include "mac_high_level.h"
     51          #include "mac_spec.h"
     52          
     53          /* exported low-level */
     54          #include "mac_low_level.h"
     55          
     56          /* low-level specific */
     57          #include "mac_rx.h"
     58          #include "mac_tx.h"
     59          #include "mac_rx_onoff.h"
     60          #include "mac_radio.h"
     61          
     62          /* target specific */
     63          #include "mac_radio_defs.h"

   \                                 In  segment SFR_AN, at 0x91
   \   unsigned char volatile __sfr RFIM
   \                     RFIM:
   \   000000                DS 1

   \                                 In  segment SFR_AN, at 0x9b
   \   unsigned char volatile __sfr S1CON
   \                     S1CON:
   \   000000                DS 1

   \                                 In  segment SFR_AN, at 0xa8
   \   union <unnamed> volatile __sfr _A_IEN0
   \                     _A_IEN0:
   \   000000                DS 1

   \                                 In  segment SFR_AN, at 0xe1
   \   unsigned char volatile __sfr RFST
   \                     RFST:
   \   000000                DS 1

   \                                 In  segment SFR_AN, at 0xe9
   \   unsigned char volatile __sfr RFIF
   \                     RFIF:
   \   000000                DS 1
     64          
     65          /* debug */
     66          #include "mac_assert.h"
     67          
     68          
     69          /* ------------------------------------------------------------------------------------------------
     70           *                                            Defines
     71           * ------------------------------------------------------------------------------------------------
     72           */
     73          #define MAX_PAYLOAD_BYTES_READ_PER_INTERRUPT   16   /* adjustable to tune performance */
     74          
     75          /* receive FIFO bytes needed to start a valid receive (see function rxStartIsr for details) */
     76          #define RX_THRESHOLD_START_LEN    (MAC_PHY_PHR_LEN        +  \
     77                                             MAC_FCF_FIELD_LEN      +  \
     78                                             MAC_SEQ_NUM_FIELD_LEN  +  \
     79                                             MAC_FCS_FIELD_LEN)
     80          
     81          /* maximum size of addressing fields (note: command frame identifier processed as part of address) */
     82          #define MAX_ADDR_FIELDS_LEN  ((MAC_EXT_ADDR_FIELD_LEN + MAC_PAN_ID_FIELD_LEN) * 2)
     83          
     84          /* addressing mode reserved value */
     85          #define ADDR_MODE_RESERVERED  1
     86          
     87          /* length of command frame identifier */
     88          #define CMD_FRAME_ID_LEN      1
     89          
     90          /* packet size mask is equal to the maximum value */
     91          #define PHY_PACKET_SIZE_MASK  0x7F
     92          
     93          /* value for promiscuous off, must not conflict with other mode variants from separate include files */
     94          #define PROMISCUOUS_MODE_OFF  0x00
     95          
     96          /* bit of proprietary FCS format that indicates if the CRC is OK */
     97          #define PROPRIETARY_FCS_CRC_OK_BIT  0x80
     98          
     99          /* dummy length value for unused entry in lookup table */
    100          #define DUMMY_LEN   0xBE
    101          
    102          /* value for rxThresholdIntState */
    103          #define RX_THRESHOLD_INT_STATE_INACTIVE   0
    104          #define RX_THRESHOLD_INT_STATE_ACTIVE     1
    105          #define RX_THRESHOLD_INT_STATE_RESET      2
    106          
    107          
    108          /* ------------------------------------------------------------------------------------------------
    109           *                                             Macros
    110           * ------------------------------------------------------------------------------------------------
    111           */
    112          #define MEM_ALLOC(x)   macDataRxMemAlloc(x)
    113          #define MEM_FREE(x)    macDataRxMemFree((uint8 *)x)
    114          
    115          /*
    116           *  Macro for encoding frame control information into internal flags format.
    117           *  Parameter is pointer to the frame.  NOTE!  If either the internal frame
    118           *  format *or* the specification changes, this macro will need to be modified.
    119           */
    120          #define INTERNAL_FCF_FLAGS(p)  ((((p)[1] >> 4) & 0x03) | ((p)[0] & 0x78))
    121          
    122          /*
    123           *  The radio replaces the actual FCS with different information.  This proprietary FCS is
    124           *  the same length as the original and includes:
    125           *    1) the RSSI value
    126           *    2) the average correlation value (used for LQI)
    127           *    3) a CRC passed bit
    128           *
    129           *  These macros decode the proprietary FCS.  The macro parameter is a pointer to the two byte FCS.
    130           */
    131          #define PROPRIETARY_FCS_RSSI(p)                 ((int8)((p)[0]))
    132          #define PROPRIETARY_FCS_CRC_OK(p)               ((p)[1] & PROPRIETARY_FCS_CRC_OK_BIT)
    133          #define PROPRIETARY_FCS_CORRELATION_VALUE(p)    ((p)[1] & ~PROPRIETARY_FCS_CRC_OK_BIT)
    134          
    135          
    136          /* ------------------------------------------------------------------------------------------------
    137           *                                       Global Variables
    138           * ------------------------------------------------------------------------------------------------
    139           */

   \                                 In  segment XDATA_Z, align 1, keep-with-next
    140          uint8 macRxActive;
   \                     macRxActive:
   \   000000                DS 1
   \   000001                REQUIRE __INIT_XDATA_Z

   \                                 In  segment XDATA_Z, align 1, keep-with-next
    141          uint8 macRxFilter;
   \                     macRxFilter:
   \   000000                DS 1
   \   000001                REQUIRE __INIT_XDATA_Z

   \                                 In  segment XDATA_Z, align 1, keep-with-next
    142          uint8 macRxOutgoingAckFlag;
   \                     macRxOutgoingAckFlag:
   \   000000                DS 1
   \   000001                REQUIRE __INIT_XDATA_Z
    143          
    144          
    145          /* ------------------------------------------------------------------------------------------------
    146           *                                       Local Constants
    147           * ------------------------------------------------------------------------------------------------
    148           */

   \                                 In  segment CODE_C, align 1
    149          static const uint8 CODE macRxAddrLen[] =
   \                     macRxAddrLen:
   \   000000   00BE040A     DB 0, 190, 4, 10
    150          {
    151            0,                                                /* no address */
    152            DUMMY_LEN,                                        /* reserved */
    153            MAC_PAN_ID_FIELD_LEN + MAC_SHORT_ADDR_FIELD_LEN,  /* short address + pan id */
    154            MAC_PAN_ID_FIELD_LEN + MAC_EXT_ADDR_FIELD_LEN     /* extended address + pan id */
    155          };
    156          
    157          
    158          /* ------------------------------------------------------------------------------------------------
    159           *                                       Local Prototypes
    160           * ------------------------------------------------------------------------------------------------
    161           */
    162          static void rxHaltCleanupFinalStep(void);
    163          
    164          static void rxStartIsr(void);
    165          static void rxAddrIsr(void);
    166          static void rxPayloadIsr(void);
    167          static void rxDiscardIsr(void);
    168          static void rxFcsIsr(void);
    169          
    170          static void rxPrepPayload(void);
    171          static void rxDiscardFrame(void);
    172          static void rxDone(void);
    173          static void rxPostRxUpdates(void);
    174          
    175          
    176          /* ------------------------------------------------------------------------------------------------
    177           *                                         Local Variables
    178           * ------------------------------------------------------------------------------------------------
    179           */

   \                                 In  segment XDATA_Z, align 1, keep-with-next
    180          static void    (* pFuncRxState)(void);
   \                     pFuncRxState:
   \   000000                DS 2
   \   000002                REQUIRE __INIT_XDATA_Z

   \                                 In  segment XDATA_Z, align 1, keep-with-next
    181          static macRx_t  * pRxBuf;
   \                     pRxBuf:
   \   000000                DS 2
   \   000002                REQUIRE __INIT_XDATA_Z
    182          

   \                                 In  segment XDATA_Z, align 1, keep-with-next
    183          static uint8  rxBuf[MAC_PHY_PHR_LEN + MAC_FCF_FIELD_LEN + MAC_SEQ_NUM_FIELD_LEN];
   \                     rxBuf:
   \   000000                DS 4
   \   000004                REQUIRE __INIT_XDATA_Z

   \                                 In  segment XDATA_Z, align 1, keep-with-next
    184          static uint8  rxUnreadLen;
   \                     rxUnreadLen:
   \   000000                DS 1
   \   000001                REQUIRE __INIT_XDATA_Z

   \                                 In  segment XDATA_Z, align 1, keep-with-next
    185          static uint8  rxNextLen;
   \                     rxNextLen:
   \   000000                DS 1
   \   000001                REQUIRE __INIT_XDATA_Z

   \                                 In  segment XDATA_Z, align 1, keep-with-next
    186          static uint8  rxPayloadLen;
   \                     rxPayloadLen:
   \   000000                DS 1
   \   000001                REQUIRE __INIT_XDATA_Z

   \                                 In  segment XDATA_Z, align 1, keep-with-next
    187          static uint8  rxFilter;
   \                     rxFilter:
   \   000000                DS 1
   \   000001                REQUIRE __INIT_XDATA_Z

   \                                 In  segment XDATA_Z, align 1, keep-with-next
    188          static uint8  rxPromiscuousMode;
   \                     rxPromiscuousMode:
   \   000000                DS 1
   \   000001                REQUIRE __INIT_XDATA_Z

   \                                 In  segment XDATA_Z, align 1, keep-with-next
    189          static uint8  rxIsrActiveFlag;
   \                     rxIsrActiveFlag:
   \   000000                DS 1
   \   000001                REQUIRE __INIT_XDATA_Z

   \                                 In  segment XDATA_Z, align 1, keep-with-next
    190          static uint8  rxResetFlag;
   \                     rxResetFlag:
   \   000000                DS 1
   \   000001                REQUIRE __INIT_XDATA_Z
    191          
    192          
    193          /**************************************************************************************************
    194           * @fn          macRxInit
    195           *
    196           * @brief       Initialize receive variable states.
    197           *
    198           * @param       none
    199           *
    200           * @return      none
    201           **************************************************************************************************
    202           */

   \                                 In  segment BANKED_CODE, align 1, keep-with-next
    203          void macRxInit(void)
   \                     macRxInit:
    204          {
   \   000000   C082         PUSH    DPL
   \   000002   C083         PUSH    DPH
   \   000004                ; Saved register size: 2
   \   000004                ; Auto size: 0
    205            macRxFilter          = RX_FILTER_OFF;
   \   000004   7400         MOV     A,#0x0
   \   000006   90....       MOV     DPTR,#macRxFilter
   \   000009   F0           MOVX    @DPTR,A
    206            rxPromiscuousMode    = PROMISCUOUS_MODE_OFF;
   \   00000A   7400         MOV     A,#0x0
   \   00000C   90....       MOV     DPTR,#rxPromiscuousMode
   \   00000F   F0           MOVX    @DPTR,A
    207            pRxBuf               = NULL; /* required for macRxReset() to function correctly */
   \   000010   90....       MOV     DPTR,#pRxBuf
   \   000013   7400         MOV     A,#0x0
   \   000015   F0           MOVX    @DPTR,A
   \   000016   A3           INC     DPTR
   \   000017   7400         MOV     A,#0x0
   \   000019   F0           MOVX    @DPTR,A
    208            macRxActive          = MAC_RX_ACTIVE_NO_ACTIVITY;
   \   00001A   7400         MOV     A,#0x0
   \   00001C   90....       MOV     DPTR,#macRxActive
   \   00001F   F0           MOVX    @DPTR,A
    209            pFuncRxState         = &rxStartIsr;
   \   000020   90....       MOV     DPTR,#pFuncRxState
   \   000023   74..         MOV     A,#(??rxStartIsr?relay & 0xff)
   \   000025   F0           MOVX    @DPTR,A
   \   000026   A3           INC     DPTR
   \   000027   74..         MOV     A,#((??rxStartIsr?relay >> 8) & 0xff)
   \   000029   F0           MOVX    @DPTR,A
    210            macRxOutgoingAckFlag = 0;
   \   00002A   7400         MOV     A,#0x0
   \   00002C   90....       MOV     DPTR,#macRxOutgoingAckFlag
   \   00002F   F0           MOVX    @DPTR,A
    211            rxIsrActiveFlag      = 0;
   \   000030   7400         MOV     A,#0x0
   \   000032   90....       MOV     DPTR,#rxIsrActiveFlag
   \   000035   F0           MOVX    @DPTR,A
    212            rxResetFlag          = 0;
   \   000036   7400         MOV     A,#0x0
   \   000038   90....       MOV     DPTR,#rxResetFlag
   \   00003B   F0           MOVX    @DPTR,A
    213          }
   \   00003C   D083         POP     DPH
   \   00003E   D082         POP     DPL
   \   000040   02....       LJMP    ?BRET
    214          
    215          
    216          /**************************************************************************************************
    217           * @fn          macRxRadioPowerUpInit
    218           *
    219           * @brief       Initialization for after radio first powers up.
    220           *
    221           * @param       none
    222           *
    223           * @return      none
    224           **************************************************************************************************
    225           */

   \                                 In  segment BANKED_CODE, align 1, keep-with-next
    226          void macRxRadioPowerUpInit(void)
   \                     macRxRadioPowerUpInit:
    227          {
   \   000000   C082         PUSH    DPL
   \   000002   C083         PUSH    DPH
   \   000004                ; Saved register size: 2
   \   000004                ; Auto size: 0
    228            /* set threshold at initial value */
    229            MAC_RADIO_SET_RX_THRESHOLD(RX_THRESHOLD_START_LEN);
   \   000004   7405         MOV     A,#0x5
   \   000006   90DF4F       MOV     DPTR,#-0x20b1
   \   000009   F0           MOVX    @DPTR,A
    230          
    231            /* clear any accidental threshold interrupt that happened as part of power up sequence */
    232            MAC_RADIO_CLEAR_RX_THRESHOLD_INTERRUPT_FLAG();
   \   00000A   75E9DF       MOV     0xe9,#-0x21
    233          
    234            /* enable threshold interrupts */
    235            MAC_RADIO_ENABLE_RX_THRESHOLD_INTERRUPT();
   \   00000D   439120       ORL     0x91,#0x20
    236          }
   \   000010   D083         POP     DPH
   \   000012   D082         POP     DPL
   \   000014   02....       LJMP    ?BRET
   \   000017                REQUIRE RFIM
   \   000017                REQUIRE RFIF
    237          
    238          
    239          /**************************************************************************************************
    240           * @fn          macRxTxReset
    241           *
    242           * @brief       Reset the receive state.
    243           *
    244           * @param       none
    245           *
    246           * @return      none
    247           **************************************************************************************************
    248           */

   \                                 In  segment BANKED_CODE, align 1, keep-with-next
    249          void macRxTxReset(void)
   \                     macRxTxReset:
    250          {
   \   000000   C082         PUSH    DPL
   \   000002   C083         PUSH    DPH
   \   000004                ; Saved register size: 2
   \   000004                ; Auto size: 0
    251            /* forces receiver off, cleans up by calling macRxHaltCleanup() and macTxHaltCleanup() */
    252            macRxHardDisable();
   \   000004                ; Setup parameters for call to function macRxHardDisable
   \   000004   12....       LCALL   ??macRxHardDisable?relay
    253          
    254            /*
    255             *   Note : transmit does not require any reset logic
    256             *          beyond what macRxHardDisable() provides.
    257             */
    258          
    259            /* restore deault filter mode to off */
    260            macRxFilter = RX_FILTER_OFF;
   \   000007   7400         MOV     A,#0x0
   \   000009   90....       MOV     DPTR,#macRxFilter
   \   00000C   F0           MOVX    @DPTR,A
    261          
    262            /* return promiscuous mode to default off state */
    263            macRxPromiscuousMode(MAC_PROMISCUOUS_MODE_OFF);
   \   00000D                ; Setup parameters for call to function macRxPromiscuousMode
   \   00000D   7900         MOV     R1,#0x0
   \   00000F   12....       LCALL   ??macRxPromiscuousMode?relay
    264          }
   \   000012   D083         POP     DPH
   \   000014   D082         POP     DPL
   \   000016   02....       LJMP    ?BRET
    265          
    266          
    267          /**************************************************************************************************
    268           * @fn          macRxHaltCleanup
    269           *
    270           * @brief       Cleanup up the receive logic after receiver is forced off.
    271           *
    272           * @param       none
    273           *
    274           * @return      none
    275           **************************************************************************************************
    276           */

   \                                 In  segment BANKED_CODE, align 1, keep-with-next
    277          void macRxHaltCleanup(void)
   \                     macRxHaltCleanup:
    278          {
   \   000000   C082         PUSH    DPL
   \   000002   C083         PUSH    DPH
   \   000004                ; Saved register size: 2
   \   000004                ; Auto size: 0
    279            rxResetFlag = 1;
   \   000004   7401         MOV     A,#0x1
   \   000006   90....       MOV     DPTR,#rxResetFlag
   \   000009   F0           MOVX    @DPTR,A
    280            if (!rxIsrActiveFlag)
   \   00000A   90....       MOV     DPTR,#rxIsrActiveFlag
   \   00000D   E0           MOVX    A,@DPTR
   \   00000E   7009         JNZ     ??macRxHaltCleanup_0
    281            {
    282              rxHaltCleanupFinalStep();
   \   000010                ; Setup parameters for call to function rxHaltCleanupFinalStep
   \   000010   12....       LCALL   ??rxHaltCleanupFinalStep?relay
    283              rxResetFlag = 0;
   \   000013   7400         MOV     A,#0x0
   \   000015   90....       MOV     DPTR,#rxResetFlag
   \   000018   F0           MOVX    @DPTR,A
    284            }
    285          }
   \                     ??macRxHaltCleanup_0:
   \   000019   D083         POP     DPH
   \   00001B   D082         POP     DPL
   \   00001D   02....       LJMP    ?BRET
    286          
    287          
    288          /*=================================================================================================
    289           * @fn          rxHaltCleanupFinalStep
    290           *
    291           * @brief       Required cleanup if receiver is halted in the middle of a receive.
    292           *
    293           * @param       none
    294           *
    295           * @return      none
    296           *=================================================================================================
    297           */

   \                                 In  segment BANKED_CODE, align 1, keep-with-next
    298          static void rxHaltCleanupFinalStep(void)
   \                     rxHaltCleanupFinalStep:
    299          {
   \   000000   C082         PUSH    DPL
   \   000002   C083         PUSH    DPH
   \   000004                ; Saved register size: 2
   \   000004                ; Auto size: 0
    300            /* cancel any upcoming ACK transmit complete callback */
    301            MAC_RADIO_CANCEL_ACK_TX_DONE_CALLBACK();
   \   000004   5391BF       ANL     0x91,#0xbf
    302          
    303            /* set start of frame threshold */
    304            MAC_RADIO_SET_RX_THRESHOLD(RX_THRESHOLD_START_LEN);
   \   000007   7405         MOV     A,#0x5
   \   000009   90DF4F       MOV     DPTR,#-0x20b1
   \   00000C   F0           MOVX    @DPTR,A
    305          
    306            /* flush the receive FIFO */
    307            MAC_RADIO_FLUSH_RX_FIFO();
   \   00000D   75E1E6       MOV     0xe1,#-0x1a
   \   000010   75E1E6       MOV     0xe1,#-0x1a
    308          
    309            /* clear any receive interrupt that happened to squeak through */
    310            MAC_RADIO_CLEAR_RX_THRESHOLD_INTERRUPT_FLAG();
   \   000013   75E9DF       MOV     0xe9,#-0x21
    311          
    312            /* if data buffer has been allocated, free it */
    313            if (pRxBuf != NULL)
   \   000016   90....       MOV     DPTR,#pRxBuf
   \   000019   E0           MOVX    A,@DPTR
   \   00001A   6400         XRL     A,#0x0
   \   00001C   7004         JNZ     ??rxHaltCleanupFinalStep_0
   \   00001E   A3           INC     DPTR
   \   00001F   E0           MOVX    A,@DPTR
   \   000020   6400         XRL     A,#0x0
   \                     ??rxHaltCleanupFinalStep_0:
   \   000022   600B         JZ      ??rxHaltCleanupFinalStep_1
    314            {
    315              MEM_FREE((uint8 *) pRxBuf);
   \   000024                ; Setup parameters for call to function macDataRxMemFree
   \   000024   90....       MOV     DPTR,#pRxBuf
   \   000027   E0           MOVX    A,@DPTR
   \   000028   FA           MOV     R2,A
   \   000029   A3           INC     DPTR
   \   00002A   E0           MOVX    A,@DPTR
   \   00002B   FB           MOV     R3,A
   \   00002C   12....       LCALL   ??macDataRxMemFree?relay
    316            }
    317            pRxBuf = NULL; /* needed to indicate buffer is no longer allocated */
   \                     ??rxHaltCleanupFinalStep_1:
   \   00002F   90....       MOV     DPTR,#pRxBuf
   \   000032   7400         MOV     A,#0x0
   \   000034   F0           MOVX    @DPTR,A
   \   000035   A3           INC     DPTR
   \   000036   7400         MOV     A,#0x0
   \   000038   F0           MOVX    @DPTR,A
    318          
    319            pFuncRxState = &rxStartIsr;
   \   000039   90....       MOV     DPTR,#pFuncRxState
   \   00003C   74..         MOV     A,#(??rxStartIsr?relay & 0xff)
   \   00003E   F0           MOVX    @DPTR,A
   \   00003F   A3           INC     DPTR
   \   000040   74..         MOV     A,#((??rxStartIsr?relay >> 8) & 0xff)
   \   000042   F0           MOVX    @DPTR,A
    320          
    321            /* if receive was active, perform the post receive updates */
    322            if (macRxActive || macRxOutgoingAckFlag)
   \   000043   90....       MOV     DPTR,#macRxActive
   \   000046   E0           MOVX    A,@DPTR
   \   000047   7006         JNZ     ??rxHaltCleanupFinalStep_2
   \   000049   90....       MOV     DPTR,#macRxOutgoingAckFlag
   \   00004C   E0           MOVX    A,@DPTR
   \   00004D   600F         JZ      ??rxHaltCleanupFinalStep_3
    323            {
    324              macRxActive = MAC_RX_ACTIVE_NO_ACTIVITY;
   \                     ??rxHaltCleanupFinalStep_2:
   \   00004F   7400         MOV     A,#0x0
   \   000051   90....       MOV     DPTR,#macRxActive
   \   000054   F0           MOVX    @DPTR,A
    325              macRxOutgoingAckFlag = 0;
   \   000055   7400         MOV     A,#0x0
   \   000057   90....       MOV     DPTR,#macRxOutgoingAckFlag
   \   00005A   F0           MOVX    @DPTR,A
    326              
    327              rxPostRxUpdates();
   \   00005B                ; Setup parameters for call to function rxPostRxUpdates
   \   00005B   12....       LCALL   ??rxPostRxUpdates?relay
    328            }
    329          }
   \                     ??rxHaltCleanupFinalStep_3:
   \   00005E   D083         POP     DPH
   \   000060   D082         POP     DPL
   \   000062   02....       LJMP    ?BRET
   \   000065                REQUIRE RFIM
   \   000065                REQUIRE RFST
   \   000065                REQUIRE RFIF
    330          
    331          
    332          /**************************************************************************************************
    333           * @fn          macRxThresholdIsr
    334           *
    335           * @brief       Interrupt service routine called when bytes in FIFO reach threshold value.
    336           *              It implements a state machine for receiving a packet.
    337           *
    338           * @param       none
    339           *
    340           * @return      none
    341           **************************************************************************************************
    342           */

   \                                 In  segment BANKED_CODE, align 1, keep-with-next
    343          void macRxThresholdIsr(void)
   \                     macRxThresholdIsr:
    344          {
   \   000000   C082         PUSH    DPL
   \   000002   C083         PUSH    DPH
   \   000004                ; Saved register size: 2
   \   000004                ; Auto size: 0
    345            /* if currently reseting, do not execute receive ISR logic */
    346            if (rxResetFlag)
   \   000004   90....       MOV     DPTR,#rxResetFlag
   \   000007   E0           MOVX    A,@DPTR
   \   000008   7029         JNZ     ??macRxThresholdIsr_0
    347            {
    348              return;
    349            }
    350            
    351            /*
    352             *  Call the function that handles the current receive state.
    353             *  A flag is set for the duration of the call to indicate
    354             *  the ISR is executing.  This is necessary for the reset
    355             *  logic so it does not perform a reset in the middle of
    356             *  executing the ISR.
    357             */
    358            rxIsrActiveFlag = 1;
   \   00000A   7401         MOV     A,#0x1
   \   00000C   90....       MOV     DPTR,#rxIsrActiveFlag
   \   00000F   F0           MOVX    @DPTR,A
    359            (*pFuncRxState)();
   \   000010                ; Setup parameters for indirect call
   \   000010   90....       MOV     DPTR,#pFuncRxState
   \   000013   E0           MOVX    A,@DPTR
   \   000014   F8           MOV     R0,A
   \   000015   A3           INC     DPTR
   \   000016   E0           MOVX    A,@DPTR
   \   000017   F583         MOV     DPH,A
   \   000019   8882         MOV     DPL,R0
   \   00001B   12....       LCALL   ?CALL_IND
    360            rxIsrActiveFlag = 0;
   \   00001E   7400         MOV     A,#0x0
   \   000020   90....       MOV     DPTR,#rxIsrActiveFlag
   \   000023   F0           MOVX    @DPTR,A
    361            
    362            /* if a reset occurred during the ISR, peform cleanup here */
    363            if (rxResetFlag)
   \   000024   90....       MOV     DPTR,#rxResetFlag
   \   000027   E0           MOVX    A,@DPTR
   \   000028   6009         JZ      ??macRxThresholdIsr_0
    364            {
    365              rxHaltCleanupFinalStep();
   \   00002A                ; Setup parameters for call to function rxHaltCleanupFinalStep
   \   00002A   12....       LCALL   ??rxHaltCleanupFinalStep?relay
    366              rxResetFlag = 0;
   \   00002D   7400         MOV     A,#0x0
   \   00002F   90....       MOV     DPTR,#rxResetFlag
   \   000032   F0           MOVX    @DPTR,A
   \                     ??macRxThresholdIsr_0:
   \   000033   D083         POP     DPH
   \   000035   D082         POP     DPL
   \   000037   02....       LJMP    ?BRET
    367            }
    368          }
    369          
    370          
    371          /*=================================================================================================
    372           * @fn          rxStartIsr
    373           *
    374           * @brief       First ISR state for receiving a packet - compute packet length, allocate
    375           *              buffer, initialize buffer.  Acknowledgements are handled immediately without
    376           *              allocating a buffer.
    377           *
    378           * @param       none
    379           *
    380           * @return      none
    381           *=================================================================================================
    382           */

   \                                 In  segment BANKED_CODE, align 1, keep-with-next
    383          static void rxStartIsr(void)
   \                     rxStartIsr:
    384          {
   \   000000   74F1         MOV     A,#-0xf
   \   000002   12....       LCALL   ?BANKED_ENTER_XDATA
   \   000005                ; Saved register size: 15
   \   000005                ; Auto size: 2
   \   000005   74FE         MOV     A,#-0x2
   \   000007   12....       LCALL   ?ALLOC_XSTACK8
    385            uint8  addrLen;
    386            uint8  ackWithPending;
    387            uint8  dstAddrMode;
    388            uint8  srcAddrMode;
    389          
    390            MAC_ASSERT(!macRxActive); /* receive on top of receive */
   \   00000A   90....       MOV     DPTR,#macRxActive
   \   00000D   E0           MOVX    A,@DPTR
   \   00000E   6003         JZ      ??rxStartIsr_0
   \   000010                ; Setup parameters for call to function halAssertHandler
   \   000010   12....       LCALL   ??halAssertHandler?relay
    391          
    392            /* indicate rx is active */
    393            macRxActive = MAC_RX_ACTIVE_STARTED;
   \                     ??rxStartIsr_0:
   \   000013   7481         MOV     A,#-0x7f
   \   000015   90....       MOV     DPTR,#macRxActive
   \   000018   F0           MOVX    @DPTR,A
    394          
    395            /*
    396             *  For bullet proof functionality, need to see if the receiver was just turned off.
    397             *  The logic to request turning off the receiver, disables interrupts and then checks
    398             *  the value of macRxActive.  If it is TRUE, the receiver will not be turned off.
    399             *
    400             *  There is a small hole though.  It's possible to attempt turning off the receiver
    401             *  in the window from when the receive interrupt fires and the point where macRxActive
    402             *  is set to TRUE.  To plug this hole, the on/off status must be tested *after*
    403             *  macRxActive has been set.  If the receiver is off at this point, there is nothing
    404             *  in the RX fifo and the receive is simply aborted.
    405             *
    406             *  Also, there are some considerations in case a hard disable just happened.  Usually,
    407             *  the receiver will just be off at this point after a hard disable.  The check described
    408             *  above will account for this case too.  However, if a hard disable were immediately
    409             *  followed by an enable, the receiver would be on.  To catch this case, the receive
    410             *  FIFO is also tested to see if it is empty.  Recovery is identical to the other cases.
    411             */
    412            if (!macRxOnFlag || MAC_RADIO_RX_FIFO_IS_EMPTY())
   \   000019   90....       MOV     DPTR,#macRxOnFlag
   \   00001C   E0           MOVX    A,@DPTR
   \   00001D   6010         JZ      ??rxStartIsr_1
   \   00001F   90DF62       MOV     DPTR,#-0x209e
   \   000022   E0           MOVX    A,@DPTR
   \   000023   A2E3         MOV     C,0xE0 /* A   */.3
   \   000025   4014         JC      ??rxStartIsr_2
   \   000027   90DF62       MOV     DPTR,#-0x209e
   \   00002A   E0           MOVX    A,@DPTR
   \   00002B   A2E2         MOV     C,0xE0 /* A   */.2
   \   00002D   400C         JC      ??rxStartIsr_2
    413            {
    414              /* reset active flag */
    415              macRxActive = MAC_RX_ACTIVE_NO_ACTIVITY;
   \                     ??rxStartIsr_1:
   \   00002F   7400         MOV     A,#0x0
   \   000031   90....       MOV     DPTR,#macRxActive
   \   000034   F0           MOVX    @DPTR,A
    416          
    417              /*
    418               *  To be absolutely bulletproof, must make sure no transmit queue'ed up during
    419               *  the tiny, tiny window when macRxActive was not zero.
    420               */
    421              rxPostRxUpdates();
   \   000035                ; Setup parameters for call to function rxPostRxUpdates
   \   000035   12....       LCALL   ??rxPostRxUpdates?relay
    422          
    423              /* return immediately from here */
    424              return;
   \   000038   02....       LJMP    ??rxStartIsr_3 & 0xFFFF
    425            }
    426                
    427            /*
    428             *  If interrupts are held off for too long it's possible the previous "transmit done"
    429             *  callback is pending.  If this is the case, it needs to be completed before
    430             *  continuing with the receive logic.
    431             */
    432            MAC_RADIO_FORCE_TX_DONE_IF_PENDING();
   \                     ??rxStartIsr_2:
   \   00003B                ; Setup parameters for call to function macCspForceTxDoneIfPending
   \   00003B   12....       LCALL   ??macCspForceTxDoneIfPending?relay
    433            
    434            /*
    435             *  It's possible receive logic is still waiting for confirmation of an ACK that went out
    436             *  for the previous receive.  This is OK but the callback needs to be canceled at this point.
    437             *  That callback execute receive cleanup logic that will run at the completion
    438             *  of *this* receive.  Also, it is important the flag for the outgoing ACK to be cleared.
    439             */
    440            MAC_RADIO_CANCEL_ACK_TX_DONE_CALLBACK();
   \   00003E   5391BF       ANL     0x91,#0xbf
    441            macRxOutgoingAckFlag = 0;
   \   000041   7400         MOV     A,#0x0
   \   000043   90....       MOV     DPTR,#macRxOutgoingAckFlag
   \   000046   F0           MOVX    @DPTR,A
    442          
    443            /*
    444             *  Make a module-local copy of macRxFilter.  This prevents the selected
    445             *  filter from changing in the middle of a receive.
    446             */
    447            rxFilter = macRxFilter;
   \   000047   90....       MOV     DPTR,#macRxFilter
   \   00004A   E0           MOVX    A,@DPTR
   \   00004B   90....       MOV     DPTR,#rxFilter
   \   00004E   F0           MOVX    @DPTR,A
    448          
    449            /*-------------------------------------------------------------------------------
    450             *  Read initial frame information from FIFO.
    451             *
    452             *   This code is not triggered until the following are in the RX FIFO:
    453             *     frame length          - one byte containing length of MAC frame (excludes this field)
    454             *     frame control field   - two bytes defining frame type, addressing fields, control flags
    455             *     sequence number       - one byte unique sequence identifier
    456             *     additional two bytes  - these bytes are available in case the received frame is an ACK,
    457             *                             if so, the frame can be verified and responded to immediately,
    458             *                             if not an ACK, these bytes will be processed normally
    459             */
    460          
    461            /* read frame length, frame control field, and sequence number from FIFO */
    462            MAC_RADIO_READ_RX_FIFO(rxBuf, MAC_PHY_PHR_LEN + MAC_FCF_FIELD_LEN + MAC_SEQ_NUM_FIELD_LEN);
   \   00004F                ; Setup parameters for call to function macMemReadRxFifo
   \   00004F   7904         MOV     R1,#0x4
   \   000051   7A..         MOV     R2,#(rxBuf & 0xff)
   \   000053   7B..         MOV     R3,#((rxBuf >> 8) & 0xff)
   \   000055   12....       LCALL   ??macMemReadRxFifo?relay
    463          
    464            /* bytes to read from FIFO equals frame length minus length of MHR fields just read from FIFO */
    465            rxUnreadLen = (rxBuf[0] & PHY_PACKET_SIZE_MASK) - MAC_FCF_FIELD_LEN - MAC_SEQ_NUM_FIELD_LEN;
   \   000058   90....       MOV     DPTR,#rxBuf
   \   00005B   E0           MOVX    A,@DPTR
   \   00005C   547F         ANL     A,#0x7f
   \   00005E   24FD         ADD     A,#-0x3
   \   000060   90....       MOV     DPTR,#rxUnreadLen
   \   000063   F0           MOVX    @DPTR,A
    466          
    467            /*
    468             *  Workaround for chip bug.  The receive buffer can sometimes be corrupted by hardware.
    469             *  This usually occurs under heavy traffic.  If a corrupted receive buffer is detected
    470             *  the entire receive buffer is flushed.
    471             *
    472             *  In the case that this workaround is not needed, an assert is used to make sure the
    473             *  receive length field is not corrupted.  This is important because a corrupted receive
    474             *  length field is utterly fatal and, if not caught here, extremely hard to track down.
    475             */
    476          #ifdef MAC_RADIO_RXBUFF_CHIP_BUG
    477            if ((rxUnreadLen > (MAC_A_MAX_PHY_PACKET_SIZE - MAC_FCF_FIELD_LEN - MAC_SEQ_NUM_FIELD_LEN)) ||
    478                (MAC_FRAME_TYPE(&rxBuf[1]) > MAC_FRAME_TYPE_MAX_VALID))
   \   000064   90....       MOV     DPTR,#rxUnreadLen
   \   000067   E0           MOVX    A,@DPTR
   \   000068   C3           CLR     C
   \   000069   947D         SUBB    A,#0x7d
   \   00006B   500B         JNC     ??rxStartIsr_4
   \   00006D   90....       MOV     DPTR,#(rxBuf + 1)
   \   000070   E0           MOVX    A,@DPTR
   \   000071   5407         ANL     A,#0x7
   \   000073   C3           CLR     C
   \   000074   9404         SUBB    A,#0x4
   \   000076   400C         JC      ??rxStartIsr_5
    479            {
    480              MAC_RADIO_FLUSH_RX_FIFO();
   \                     ??rxStartIsr_4:
   \   000078   75E1E6       MOV     0xe1,#-0x1a
   \   00007B   75E1E6       MOV     0xe1,#-0x1a
    481              rxDone();
   \   00007E                ; Setup parameters for call to function rxDone
   \   00007E   12....       LCALL   ??rxDone?relay
    482              return;
   \   000081   02....       LJMP    ??rxStartIsr_3 & 0xFFFF
    483            }
    484          #else
    485            /* radio supplied a corrupted receive buffer length */
    486            MAC_ASSERT(rxUnreadLen <= (MAC_A_MAX_PHY_PACKET_SIZE - MAC_FCF_FIELD_LEN - MAC_SEQ_NUM_FIELD_LEN));
    487          #endif
    488            
    489          
    490          
    491            /*-------------------------------------------------------------------------------
    492             *  Process ACKs.
    493             *
    494             *  If this frame is an ACK, process it immediately and exit from here.
    495             *  If this frame is not an ACK and transmit is listening for an ACK, let
    496             *  the transmit logic know an non-ACK was received so transmit can complete.
    497             *
    498             *  In promiscuous mode ACKs are treated like any other frame.
    499             */
    500            if ((MAC_FRAME_TYPE(&rxBuf[1]) == MAC_FRAME_TYPE_ACK) && (rxPromiscuousMode == PROMISCUOUS_MODE_OFF))
   \                     ??rxStartIsr_5:
   \   000084   90....       MOV     DPTR,#(rxBuf + 1)
   \   000087   E0           MOVX    A,@DPTR
   \   000088   5407         ANL     A,#0x7
   \   00008A   6402         XRL     A,#0x2
   \   00008C   6003         JZ      $+5
   \   00008E   02....       LJMP    ??rxStartIsr_6 & 0xFFFF
   \   000091   90....       MOV     DPTR,#rxPromiscuousMode
   \   000094   E0           MOVX    A,@DPTR
   \   000095   6003         JZ      $+5
   \   000097   02....       LJMP    ??rxStartIsr_6 & 0xFFFF
    501            {
    502              uint8 fcsBuf[MAC_FCF_FIELD_LEN];
    503              /*
    504               *  There are guaranteed to be two unread bytes in the FIFO.  By defintion, for ACK frames
    505               *  these two bytes will be the FCS.
    506               */
    507          
    508              /* read FCS from FIFO (threshold set so bytes are guaranteed to be there) */
    509              MAC_RADIO_READ_RX_FIFO(fcsBuf, MAC_FCS_FIELD_LEN);
   \   00009A                ; Setup parameters for call to function macMemReadRxFifo
   \   00009A   7902         MOV     R1,#0x2
   \   00009C   85..82       MOV     DPL,?XSP + 0
   \   00009F   85..83       MOV     DPH,?XSP + 1
   \   0000A2   AA82         MOV     R2,DPL
   \   0000A4   AB83         MOV     R3,DPH
   \   0000A6   12....       LCALL   ??macMemReadRxFifo?relay
    510              
    511              /* see if transmit is listening for an ACK */
    512              if (macTxActive == MAC_TX_ACTIVE_LISTEN_FOR_ACK)
   \   0000A9   90....       MOV     DPTR,#macTxActive
   \   0000AC   E0           MOVX    A,@DPTR
   \   0000AD   6486         XRL     A,#0x86
   \   0000AF   6003         JZ      $+5
   \   0000B1   02....       LJMP    ??rxStartIsr_7 & 0xFFFF
    513              {
    514                MAC_ASSERT(pMacDataTx != NULL); /* transmit buffer must be present */
   \   0000B4   90....       MOV     DPTR,#pMacDataTx
   \   0000B7   E0           MOVX    A,@DPTR
   \   0000B8   6400         XRL     A,#0x0
   \   0000BA   7004         JNZ     ??rxStartIsr_8
   \   0000BC   A3           INC     DPTR
   \   0000BD   E0           MOVX    A,@DPTR
   \   0000BE   6400         XRL     A,#0x0
   \                     ??rxStartIsr_8:
   \   0000C0   7003         JNZ     ??rxStartIsr_9
   \   0000C2                ; Setup parameters for call to function halAssertHandler
   \   0000C2   12....       LCALL   ??halAssertHandler?relay
    515          
    516                /* record link quality metrics for the receive ACK */
    517                {
    518                  int8 rssiDbm;
    519                  uint8 corr;
    520          
    521                  rssiDbm = PROPRIETARY_FCS_RSSI(fcsBuf) + MAC_RADIO_RSSI_OFFSET;
   \                     ??rxStartIsr_9:
   \   0000C5   85..82       MOV     DPL,?XSP + 0
   \   0000C8   85..83       MOV     DPH,?XSP + 1
   \   0000CB   E0           MOVX    A,@DPTR
   \   0000CC   24D3         ADD     A,#-0x2d
   \   0000CE   F5..         MOV     ?V0 + 1,A
    522                  corr = PROPRIETARY_FCS_CORRELATION_VALUE(fcsBuf);
   \   0000D0   7401         MOV     A,#0x1
   \   0000D2   12....       LCALL   ?XSTACK_DISP0_8
   \   0000D5   E0           MOVX    A,@DPTR
   \   0000D6   547F         ANL     A,#0x7f
   \   0000D8   F5..         MOV     ?V0 + 0,A
    523              
    524                  pMacDataTx->internal.mpduLinkQuality = macRadioComputeLQI(rssiDbm, corr);
   \   0000DA                ; Setup parameters for call to function macRadioComputeLQI
   \   0000DA   AA..         MOV     R2,?V0 + 0
   \   0000DC   A9..         MOV     R1,?V0 + 1
   \   0000DE   12....       LCALL   ??macRadioComputeLQI?relay
   \   0000E1   E9           MOV     A,R1
   \   0000E2   C0E0         PUSH    A
   \   0000E4   90....       MOV     DPTR,#pMacDataTx
   \   0000E7   E0           MOVX    A,@DPTR
   \   0000E8   2414         ADD     A,#0x14
   \   0000EA   F8           MOV     R0,A
   \   0000EB   A3           INC     DPTR
   \   0000EC   E0           MOVX    A,@DPTR
   \   0000ED   3400         ADDC    A,#0x0
   \   0000EF   F9           MOV     R1,A
   \   0000F0   8882         MOV     DPL,R0
   \   0000F2   8983         MOV     DPH,R1
   \   0000F4   D0E0         POP     A
   \   0000F6   F0           MOVX    @DPTR,A
    525                  pMacDataTx->internal.correlation = corr;
   \   0000F7   90....       MOV     DPTR,#pMacDataTx
   \   0000FA   E0           MOVX    A,@DPTR
   \   0000FB   2415         ADD     A,#0x15
   \   0000FD   F8           MOV     R0,A
   \   0000FE   A3           INC     DPTR
   \   0000FF   E0           MOVX    A,@DPTR
   \   000100   3400         ADDC    A,#0x0
   \   000102   F9           MOV     R1,A
   \   000103   8882         MOV     DPL,R0
   \   000105   8983         MOV     DPH,R1
   \   000107   E5..         MOV     A,?V0 + 0
   \   000109   F0           MOVX    @DPTR,A
    526                  pMacDataTx->internal.rssi= rssiDbm;
   \   00010A   90....       MOV     DPTR,#pMacDataTx
   \   00010D   E0           MOVX    A,@DPTR
   \   00010E   2416         ADD     A,#0x16
   \   000110   F8           MOV     R0,A
   \   000111   A3           INC     DPTR
   \   000112   E0           MOVX    A,@DPTR
   \   000113   3400         ADDC    A,#0x0
   \   000115   F9           MOV     R1,A
   \   000116   8882         MOV     DPL,R0
   \   000118   8983         MOV     DPH,R1
   \   00011A   E5..         MOV     A,?V0 + 1
   \   00011C   F0           MOVX    @DPTR,A
    527                }
    528          
    529                /*
    530                 *  An ACK was received so transmit logic needs to know.  If the FCS failed,
    531                 *  the transmit logic still needs to know.  In that case, treat the frame
    532                 *  as a non-ACK to complete the active transmit.
    533                 */
    534                if (PROPRIETARY_FCS_CRC_OK(fcsBuf))
   \   00011D   7401         MOV     A,#0x1
   \   00011F   12....       LCALL   ?XSTACK_DISP0_8
   \   000122   E0           MOVX    A,@DPTR
   \   000123   A2E7         MOV     C,0xE0 /* A   */.7
   \   000125   5011         JNC     ??rxStartIsr_10
    535                {
    536                  /* call transmit logic to indicate ACK was received */
    537                  macTxAckReceivedCallback(MAC_SEQ_NUMBER(&rxBuf[1]), MAC_FRAME_PENDING(&rxBuf[1]));
   \   000127                ; Setup parameters for call to function macTxAckReceivedCallback
   \   000127   90....       MOV     DPTR,#(rxBuf + 1)
   \   00012A   E0           MOVX    A,@DPTR
   \   00012B   5410         ANL     A,#0x10
   \   00012D   FA           MOV     R2,A
   \   00012E   90....       MOV     DPTR,#(rxBuf + 3)
   \   000131   E0           MOVX    A,@DPTR
   \   000132   F9           MOV     R1,A
   \   000133   12....       LCALL   ??macTxAckReceivedCallback?relay
   \   000136   8003         SJMP    ??rxStartIsr_7
    538                }
    539                else
    540                {
    541                  macTxAckNotReceivedCallback();
   \                     ??rxStartIsr_10:
   \   000138                ; Setup parameters for call to function macTxAckNotReceivedCallback
   \   000138   12....       LCALL   ??macTxAckNotReceivedCallback?relay
    542                }
    543              }
    544                
    545              /* receive is done, exit from here */
    546              rxDone();
   \                     ??rxStartIsr_7:
   \   00013B                ; Setup parameters for call to function rxDone
   \   00013B   12....       LCALL   ??rxDone?relay
    547              return;
   \   00013E   02....       LJMP    ??rxStartIsr_3 & 0xFFFF
    548            }
    549            else if (macTxActive == MAC_TX_ACTIVE_LISTEN_FOR_ACK)
   \                     ??rxStartIsr_6:
   \   000141   90....       MOV     DPTR,#macTxActive
   \   000144   E0           MOVX    A,@DPTR
   \   000145   6486         XRL     A,#0x86
   \   000147   7003         JNZ     ??rxStartIsr_11
    550            {
    551              macTxAckNotReceivedCallback();
   \   000149                ; Setup parameters for call to function macTxAckNotReceivedCallback
   \   000149   12....       LCALL   ??macTxAckNotReceivedCallback?relay
    552            }
    553          
    554            /*-------------------------------------------------------------------------------
    555             *  Apply filtering.
    556             *
    557             *  For efficiency, see if filtering is even 'on' before processing.  Also test
    558             *  to make sure promiscuous mode is disabled.  If promiscuous mode is enabled,
    559             *  do not apply filtering.
    560             */
    561            if ((rxFilter != RX_FILTER_OFF) && !rxPromiscuousMode)
   \                     ??rxStartIsr_11:
   \   00014C   90....       MOV     DPTR,#rxFilter
   \   00014F   E0           MOVX    A,@DPTR
   \   000150   6036         JZ      ??rxStartIsr_12
   \   000152   90....       MOV     DPTR,#rxPromiscuousMode
   \   000155   E0           MOVX    A,@DPTR
   \   000156   7030         JNZ     ??rxStartIsr_12
    562            {
    563              if (/* filter all frames */
    564                   (rxFilter == RX_FILTER_ALL) ||
    565          
    566                   /* filter non-beacon frames */
    567                   ((rxFilter == RX_FILTER_NON_BEACON_FRAMES) &&
    568                    (MAC_FRAME_TYPE(&rxBuf[1]) != MAC_FRAME_TYPE_BEACON)) ||
    569          
    570                   /* filter non-command frames */
    571                   ((rxFilter == RX_FILTER_NON_COMMAND_FRAMES) &&
    572                    ((MAC_FRAME_TYPE(&rxBuf[1]) != MAC_FRAME_TYPE_COMMAND))))
   \   000158   90....       MOV     DPTR,#rxFilter
   \   00015B   E0           MOVX    A,@DPTR
   \   00015C   6401         XRL     A,#0x1
   \   00015E   6022         JZ      ??rxStartIsr_13
   \   000160   90....       MOV     DPTR,#rxFilter
   \   000163   E0           MOVX    A,@DPTR
   \   000164   6402         XRL     A,#0x2
   \   000166   7008         JNZ     ??rxStartIsr_14
   \   000168   90....       MOV     DPTR,#(rxBuf + 1)
   \   00016B   E0           MOVX    A,@DPTR
   \   00016C   5407         ANL     A,#0x7
   \   00016E   7012         JNZ     ??rxStartIsr_13
   \                     ??rxStartIsr_14:
   \   000170   90....       MOV     DPTR,#rxFilter
   \   000173   E0           MOVX    A,@DPTR
   \   000174   6403         XRL     A,#0x3
   \   000176   7010         JNZ     ??rxStartIsr_12
   \   000178   90....       MOV     DPTR,#(rxBuf + 1)
   \   00017B   E0           MOVX    A,@DPTR
   \   00017C   5407         ANL     A,#0x7
   \   00017E   6403         XRL     A,#0x3
   \   000180   6006         JZ      ??rxStartIsr_12
    573              {
    574                /* discard rest of frame */
    575                rxDiscardFrame();
   \                     ??rxStartIsr_13:
   \   000182                ; Setup parameters for call to function rxDiscardFrame
   \   000182   12....       LCALL   ??rxDiscardFrame?relay
    576                return;
   \   000185   02....       LJMP    ??rxStartIsr_3 & 0xFFFF
    577              }
    578            }
    579          
    580            /*-------------------------------------------------------------------------------
    581             *  Compute length of addressing fields.  Compute payload length.
    582             */
    583          
    584            /* decode addressing modes */
    585            dstAddrMode = MAC_DEST_ADDR_MODE(&rxBuf[1]);
   \                     ??rxStartIsr_12:
   \   000188   90....       MOV     DPTR,#(rxBuf + 2)
   \   00018B   E0           MOVX    A,@DPTR
   \   00018C   13           RRC     A
   \   00018D   13           RRC     A
   \   00018E   543F         ANL     A,#0x3f
   \   000190   5403         ANL     A,#0x3
   \   000192   F5..         MOV     ?V0 + 4,A
    586            srcAddrMode = MAC_SRC_ADDR_MODE(&rxBuf[1]);
   \   000194   90....       MOV     DPTR,#(rxBuf + 2)
   \   000197   E0           MOVX    A,@DPTR
   \   000198   C4           SWAP    A
   \   000199   13           RRC     A
   \   00019A   13           RRC     A
   \   00019B   5403         ANL     A,#0x3
   \   00019D   FF           MOV     R7,A
    587          
    588            /*
    589             *  Workaround for chip bug.  The receive buffer can sometimes be corrupted by hardware.
    590             *  This usually occurs under heavy traffic.  If a corrupted receive buffer is detected
    591             *  the entire receive buffer is flushed.
    592             */
    593          #ifdef MAC_RADIO_RXBUFF_CHIP_BUG
    594            if ((srcAddrMode == ADDR_MODE_RESERVERED) || (dstAddrMode == ADDR_MODE_RESERVERED))
   \   00019E   7401         MOV     A,#0x1
   \   0001A0   6F           XRL     A,R7
   \   0001A1   6006         JZ      ??rxStartIsr_15
   \   0001A3   7401         MOV     A,#0x1
   \   0001A5   65..         XRL     A,?V0 + 4
   \   0001A7   700C         JNZ     ??rxStartIsr_16
    595            {
    596              MAC_RADIO_FLUSH_RX_FIFO();
   \                     ??rxStartIsr_15:
   \   0001A9   75E1E6       MOV     0xe1,#-0x1a
   \   0001AC   75E1E6       MOV     0xe1,#-0x1a
    597              rxDone();
   \   0001AF                ; Setup parameters for call to function rxDone
   \   0001AF   12....       LCALL   ??rxDone?relay
    598              return;
   \   0001B2   02....       LJMP    ??rxStartIsr_3 & 0xFFFF
    599            }
    600          #endif
    601          
    602            /*
    603             *  Compute the addressing field length.  A lookup table based on addressing
    604             *  mode is used for efficiency.  If the source address is present and the
    605             *  frame is intra-PAN, the PAN Id is not repeated.  In this case, the address
    606             *  length is adjusted to match the smaller length.
    607             */
    608            addrLen = macRxAddrLen[dstAddrMode] + macRxAddrLen[srcAddrMode];
   \                     ??rxStartIsr_16:
   \   0001B5   8F..         MOV     ?V0 + 0,R7
   \   0001B7   75..00       MOV     ?V0 + 1,#0x0
   \   0001BA   E5..         MOV     A,?V0 + 0
   \   0001BC   24..         ADD     A,#(macRxAddrLen & 0xff)
   \   0001BE   F582         MOV     DPL,A
   \   0001C0   E5..         MOV     A,?V0 + 1
   \   0001C2   34..         ADDC    A,#((macRxAddrLen >> 8) & 0xff)
   \   0001C4   F583         MOV     DPH,A
   \   0001C6   E4           CLR     A
   \   0001C7   93           MOVC    A,@A+DPTR
   \   0001C8   C0E0         PUSH    A
   \   0001CA   85....       MOV     ?V0 + 0,?V0 + 4
   \   0001CD   75..00       MOV     ?V0 + 1,#0x0
   \   0001D0   E5..         MOV     A,?V0 + 0
   \   0001D2   24..         ADD     A,#(macRxAddrLen & 0xff)
   \   0001D4   F582         MOV     DPL,A
   \   0001D6   E5..         MOV     A,?V0 + 1
   \   0001D8   34..         ADDC    A,#((macRxAddrLen >> 8) & 0xff)
   \   0001DA   F583         MOV     DPH,A
   \   0001DC   E4           CLR     A
   \   0001DD   93           MOVC    A,@A+DPTR
   \   0001DE   FA           MOV     R2,A
   \   0001DF   D0E0         POP     A
   \   0001E1   2A           ADD     A,R2
   \   0001E2   FE           MOV     R6,A
    609            if ((srcAddrMode != SADDR_MODE_NONE) && MAC_INTRA_PAN(&rxBuf[1]))
   \   0001E3   EF           MOV     A,R7
   \   0001E4   600A         JZ      ??rxStartIsr_17
   \   0001E6   90....       MOV     DPTR,#(rxBuf + 1)
   \   0001E9   E0           MOVX    A,@DPTR
   \   0001EA   A2E6         MOV     C,0xE0 /* A   */.6
   \   0001EC   5002         JNC     ??rxStartIsr_17
    610            {
    611              addrLen -= MAC_PAN_ID_FIELD_LEN;
   \   0001EE   1E           DEC     R6
   \   0001EF   1E           DEC     R6
    612            }
    613          
    614            /*
    615             *  If there are not enough unread bytes to include the computed address
    616             *  plus FCS field, the frame is corrupted and must be discarded.
    617             */
    618            if ((addrLen + MAC_FCS_FIELD_LEN) > rxUnreadLen)
   \                     ??rxStartIsr_17:
   \   0001F0   90....       MOV     DPTR,#rxUnreadLen
   \   0001F3   E0           MOVX    A,@DPTR
   \   0001F4   FA           MOV     R2,A
   \   0001F5   7B00         MOV     R3,#0x0
   \   0001F7   8E..         MOV     ?V0 + 0,R6
   \   0001F9   75..00       MOV     ?V0 + 1,#0x0
   \   0001FC   7402         MOV     A,#0x2
   \   0001FE   25..         ADD     A,?V0 + 0
   \   000200   F8           MOV     R0,A
   \   000201   7400         MOV     A,#0x0
   \   000203   35..         ADDC    A,?V0 + 1
   \   000205   F9           MOV     R1,A
   \   000206   C3           CLR     C
   \   000207   EA           MOV     A,R2
   \   000208   98           SUBB    A,R0
   \   000209   EB           MOV     A,R3
   \   00020A   99           SUBB    A,R1
   \   00020B   A2D2         MOV     C,0xD0 /* PSW */.2
   \   00020D   65D0         XRL     A,PSW
   \   00020F   33           RLC     A
   \   000210   5006         JNC     ??rxStartIsr_18
    619            {
    620              /* discard frame and exit */
    621              rxDiscardFrame();
   \   000212                ; Setup parameters for call to function rxDiscardFrame
   \   000212   12....       LCALL   ??rxDiscardFrame?relay
    622              return;
   \   000215   02....       LJMP    ??rxStartIsr_3 & 0xFFFF
    623            }
    624          
    625            /* payload length is equal to unread bytes minus address length, minus the FCS */
    626            rxPayloadLen = rxUnreadLen - addrLen - MAC_FCS_FIELD_LEN;
   \                     ??rxStartIsr_18:
   \   000218   90....       MOV     DPTR,#rxUnreadLen
   \   00021B   E0           MOVX    A,@DPTR
   \   00021C   C3           CLR     C
   \   00021D   9E           SUBB    A,R6
   \   00021E   24FE         ADD     A,#-0x2
   \   000220   90....       MOV     DPTR,#rxPayloadLen
   \   000223   F0           MOVX    @DPTR,A
    627          
    628            /*-------------------------------------------------------------------------------
    629             *  Allocate memory for the incoming frame.
    630             */
    631            pRxBuf = (macRx_t *) MEM_ALLOC(sizeof(macRx_t) + rxPayloadLen);
   \   000224                ; Setup parameters for call to function macDataRxMemAlloc
   \   000224   90....       MOV     DPTR,#rxPayloadLen
   \   000227   E0           MOVX    A,@DPTR
   \   000228   F8           MOV     R0,A
   \   000229   7900         MOV     R1,#0x0
   \   00022B   7432         MOV     A,#0x32
   \   00022D   28           ADD     A,R0
   \   00022E   FA           MOV     R2,A
   \   00022F   7400         MOV     A,#0x0
   \   000231   39           ADDC    A,R1
   \   000232   FB           MOV     R3,A
   \   000233   12....       LCALL   ??macDataRxMemAlloc?relay
   \   000236   90....       MOV     DPTR,#pRxBuf
   \   000239   EA           MOV     A,R2
   \   00023A   F0           MOVX    @DPTR,A
   \   00023B   A3           INC     DPTR
   \   00023C   EB           MOV     A,R3
   \   00023D   F0           MOVX    @DPTR,A
    632            if (pRxBuf == NULL)
   \   00023E   90....       MOV     DPTR,#pRxBuf
   \   000241   E0           MOVX    A,@DPTR
   \   000242   6400         XRL     A,#0x0
   \   000244   7004         JNZ     ??rxStartIsr_19
   \   000246   A3           INC     DPTR
   \   000247   E0           MOVX    A,@DPTR
   \   000248   6400         XRL     A,#0x0
   \                     ??rxStartIsr_19:
   \   00024A   7006         JNZ     ??rxStartIsr_20
    633            {
    634              /* buffer allocation failed, discard the frame and exit*/
    635              rxDiscardFrame();
   \   00024C                ; Setup parameters for call to function rxDiscardFrame
   \   00024C   12....       LCALL   ??rxDiscardFrame?relay
    636              return;
   \   00024F   02....       LJMP    ??rxStartIsr_3 & 0xFFFF
    637            }
    638          
    639            /*-------------------------------------------------------------------------------
    640             *  Set up to process ACK request.  Do not ACK if in promiscuous mode.
    641             */
    642            ackWithPending = 0;
   \                     ??rxStartIsr_20:
   \   000252   75..00       MOV     ?V0 + 5,#0x0
    643            if (!rxPromiscuousMode)
   \   000255   90....       MOV     DPTR,#rxPromiscuousMode
   \   000258   E0           MOVX    A,@DPTR
   \   000259   700A         JNZ     ??rxStartIsr_21
    644            {
    645              macRxOutgoingAckFlag = MAC_ACK_REQUEST(&rxBuf[1]);
   \   00025B   90....       MOV     DPTR,#(rxBuf + 1)
   \   00025E   E0           MOVX    A,@DPTR
   \   00025F   5420         ANL     A,#0x20
   \   000261   90....       MOV     DPTR,#macRxOutgoingAckFlag
   \   000264   F0           MOVX    @DPTR,A
    646            }
    647          
    648            /*-------------------------------------------------------------------------------
    649             *  Process any ACK request.
    650             */
    651            if (macRxOutgoingAckFlag)
   \                     ??rxStartIsr_21:
   \   000265   90....       MOV     DPTR,#macRxOutgoingAckFlag
   \   000268   E0           MOVX    A,@DPTR
   \   000269   6041         JZ      ??rxStartIsr_22
    652            {
    653              halIntState_t  s;
    654          
    655              /*
    656               *  This critical section ensures that the callback ISR is initiated within time
    657               *  to guarantee correlation with the strobe.
    658               */
    659              HAL_ENTER_CRITICAL_SECTION(s);
   \   00026B   A2AF         MOV     C,0xa8.7
   \   00026D   E4           CLR     A
   \   00026E   92E0         MOV     0xE0 /* A   */.0,C
   \   000270   F5..         MOV     ?V0 + 6,A
   \   000272   C2AF         CLR     0xa8.7
    660          
    661              if ((MAC_FRAME_TYPE(&rxBuf[1]) == MAC_FRAME_TYPE_COMMAND) && macRxCheckPendingCallback())
   \   000274   90....       MOV     DPTR,#(rxBuf + 1)
   \   000277   E0           MOVX    A,@DPTR
   \   000278   5407         ANL     A,#0x7
   \   00027A   6403         XRL     A,#0x3
   \   00027C   700E         JNZ     ??rxStartIsr_23
   \   00027E                ; Setup parameters for call to function macRxCheckPendingCallback
   \   00027E   12....       LCALL   ??macRxCheckPendingCallback?relay
   \   000281   E9           MOV     A,R1
   \   000282   6008         JZ      ??rxStartIsr_23
    662              {
    663                MAC_RADIO_TX_ACK_PEND();
   \   000284   75E1E9       MOV     0xe1,#-0x17
    664                ackWithPending = MAC_RX_FLAG_ACK_PENDING;
   \   000287   75..04       MOV     ?V0 + 5,#0x4
   \   00028A   8003         SJMP    ??rxStartIsr_24
    665              }
    666              else
    667              {
    668                /* send ACK */
    669                MAC_RADIO_TX_ACK();
   \                     ??rxStartIsr_23:
   \   00028C   75E1E8       MOV     0xe1,#-0x18
    670              }
    671          
    672              /* request a callback to macRxAckTxDoneCallback() when the ACK transmit has finished */
    673              MAC_RADIO_REQUEST_ACK_TX_DONE_CALLBACK();
   \                     ??rxStartIsr_24:
   \   00028F   A2AF         MOV     C,0xa8.7
   \   000291   E4           CLR     A
   \   000292   92E0         MOV     0xE0 /* A   */.0,C
   \   000294   C2AF         CLR     0xa8.7
   \   000296   75E9BF       MOV     0xe9,#-0x41
   \   000299   759B00       MOV     0x9b,#0x0
   \   00029C   75E9FF       MOV     0xe9,#-0x1
   \   00029F   A2E0         MOV     C,0xE0 /* A   */.0
   \   0002A1   92AF         MOV     0xa8.7,C
   \   0002A3   439140       ORL     0x91,#0x40
    674              HAL_EXIT_CRITICAL_SECTION(s);
   \   0002A6   E5..         MOV     A,?V0 + 6
   \   0002A8   A2E0         MOV     C,0xE0 /* A   */.0
   \   0002AA   92AF         MOV     0xa8.7,C
    675            }
    676          
    677           /*-------------------------------------------------------------------------------
    678            *  Populate the receive buffer going up to high-level.
    679            */
    680          
    681            /* configure the payload buffer */
    682            pRxBuf->msdu.p = (uint8 *) (pRxBuf + 1);
   \                     ??rxStartIsr_22:
   \   0002AC   90....       MOV     DPTR,#pRxBuf
   \   0002AF   E0           MOVX    A,@DPTR
   \   0002B0   2432         ADD     A,#0x32
   \   0002B2   F8           MOV     R0,A
   \   0002B3   A3           INC     DPTR
   \   0002B4   E0           MOVX    A,@DPTR
   \   0002B5   3400         ADDC    A,#0x0
   \   0002B7   F9           MOV     R1,A
   \   0002B8   90....       MOV     DPTR,#pRxBuf
   \   0002BB   E0           MOVX    A,@DPTR
   \   0002BC   FA           MOV     R2,A
   \   0002BD   A3           INC     DPTR
   \   0002BE   E0           MOVX    A,@DPTR
   \   0002BF   F583         MOV     DPH,A
   \   0002C1   8A82         MOV     DPL,R2
   \   0002C3   A3           INC     DPTR
   \   0002C4   A3           INC     DPTR
   \   0002C5   E8           MOV     A,R0
   \   0002C6   F0           MOVX    @DPTR,A
   \   0002C7   A3           INC     DPTR
   \   0002C8   E9           MOV     A,R1
   \   0002C9   F0           MOVX    @DPTR,A
    683            pRxBuf->msdu.len = rxPayloadLen;
   \   0002CA   90....       MOV     DPTR,#rxPayloadLen
   \   0002CD   E0           MOVX    A,@DPTR
   \   0002CE   C0E0         PUSH    A
   \   0002D0   90....       MOV     DPTR,#pRxBuf
   \   0002D3   E0           MOVX    A,@DPTR
   \   0002D4   F8           MOV     R0,A
   \   0002D5   A3           INC     DPTR
   \   0002D6   E0           MOVX    A,@DPTR
   \   0002D7   F583         MOV     DPH,A
   \   0002D9   8882         MOV     DPL,R0
   \   0002DB   A3           INC     DPTR
   \   0002DC   A3           INC     DPTR
   \   0002DD   A3           INC     DPTR
   \   0002DE   A3           INC     DPTR
   \   0002DF   D0E0         POP     A
   \   0002E1   F0           MOVX    @DPTR,A
    684          
    685            /* set internal values */
    686            pRxBuf->mac.srcAddr.addrMode  = srcAddrMode;
   \   0002E2   EF           MOV     A,R7
   \   0002E3   C0E0         PUSH    A
   \   0002E5   90....       MOV     DPTR,#pRxBuf
   \   0002E8   E0           MOVX    A,@DPTR
   \   0002E9   241A         ADD     A,#0x1a
   \   0002EB   F8           MOV     R0,A
   \   0002EC   A3           INC     DPTR
   \   0002ED   E0           MOVX    A,@DPTR
   \   0002EE   3400         ADDC    A,#0x0
   \   0002F0   F9           MOV     R1,A
   \   0002F1   8882         MOV     DPL,R0
   \   0002F3   8983         MOV     DPH,R1
   \   0002F5   D0E0         POP     A
   \   0002F7   F0           MOVX    @DPTR,A
    687            pRxBuf->mac.dstAddr.addrMode  = dstAddrMode;
   \   0002F8   90....       MOV     DPTR,#pRxBuf
   \   0002FB   E0           MOVX    A,@DPTR
   \   0002FC   2423         ADD     A,#0x23
   \   0002FE   F8           MOV     R0,A
   \   0002FF   A3           INC     DPTR
   \   000300   E0           MOVX    A,@DPTR
   \   000301   3400         ADDC    A,#0x0
   \   000303   F9           MOV     R1,A
   \   000304   8882         MOV     DPL,R0
   \   000306   8983         MOV     DPH,R1
   \   000308   E5..         MOV     A,?V0 + 4
   \   00030A   F0           MOVX    @DPTR,A
    688            pRxBuf->mac.timestamp         = MAC_RADIO_BACKOFF_CAPTURE();
   \   00030B                ; Setup parameters for call to function macMcuOverflowCapture
   \   00030B   12....       LCALL   ??macMcuOverflowCapture?relay
   \   00030E   8A..         MOV     ?V0 + 0,R2
   \   000310   8B..         MOV     ?V0 + 1,R3
   \   000312   8C..         MOV     ?V0 + 2,R4
   \   000314   8D..         MOV     ?V0 + 3,R5
   \   000316   90....       MOV     DPTR,#pRxBuf
   \   000319   E0           MOVX    A,@DPTR
   \   00031A   2424         ADD     A,#0x24
   \   00031C   F8           MOV     R0,A
   \   00031D   A3           INC     DPTR
   \   00031E   E0           MOVX    A,@DPTR
   \   00031F   3400         ADDC    A,#0x0
   \   000321   F9           MOV     R1,A
   \   000322   8882         MOV     DPL,R0
   \   000324   8983         MOV     DPH,R1
   \   000326   78..         MOV     R0,#?V0 + 0
   \   000328   12....       LCALL   ?L_MOV_TO_X
    689            pRxBuf->mac.timestamp2        = MAC_RADIO_TIMER_CAPTURE();
   \   00032B                ; Setup parameters for call to function macMcuTimerCapture
   \   00032B   12....       LCALL   ??macMcuTimerCapture?relay
   \   00032E   8A..         MOV     ?V0 + 0,R2
   \   000330   8B..         MOV     ?V0 + 1,R3
   \   000332   90....       MOV     DPTR,#pRxBuf
   \   000335   E0           MOVX    A,@DPTR
   \   000336   2428         ADD     A,#0x28
   \   000338   F8           MOV     R0,A
   \   000339   A3           INC     DPTR
   \   00033A   E0           MOVX    A,@DPTR
   \   00033B   3400         ADDC    A,#0x0
   \   00033D   F9           MOV     R1,A
   \   00033E   8882         MOV     DPL,R0
   \   000340   8983         MOV     DPH,R1
   \   000342   E5..         MOV     A,?V0 + 0
   \   000344   F0           MOVX    @DPTR,A
   \   000345   A3           INC     DPTR
   \   000346   E5..         MOV     A,?V0 + 1
   \   000348   F0           MOVX    @DPTR,A
    690            pRxBuf->internal.frameType    = MAC_FRAME_TYPE(&rxBuf[1]);
   \   000349   90....       MOV     DPTR,#(rxBuf + 1)
   \   00034C   E0           MOVX    A,@DPTR
   \   00034D   5407         ANL     A,#0x7
   \   00034F   C0E0         PUSH    A
   \   000351   90....       MOV     DPTR,#pRxBuf
   \   000354   E0           MOVX    A,@DPTR
   \   000355   F8           MOV     R0,A
   \   000356   A3           INC     DPTR
   \   000357   E0           MOVX    A,@DPTR
   \   000358   F583         MOV     DPH,A
   \   00035A   8882         MOV     DPL,R0
   \   00035C   A3           INC     DPTR
   \   00035D   A3           INC     DPTR
   \   00035E   A3           INC     DPTR
   \   00035F   A3           INC     DPTR
   \   000360   A3           INC     DPTR
   \   000361   D0E0         POP     A
   \   000363   F0           MOVX    @DPTR,A
    691            pRxBuf->mac.dsn               = MAC_SEQ_NUMBER(&rxBuf[1]);
   \   000364   90....       MOV     DPTR,#(rxBuf + 3)
   \   000367   E0           MOVX    A,@DPTR
   \   000368   C0E0         PUSH    A
   \   00036A   90....       MOV     DPTR,#pRxBuf
   \   00036D   E0           MOVX    A,@DPTR
   \   00036E   2431         ADD     A,#0x31
   \   000370   F8           MOV     R0,A
   \   000371   A3           INC     DPTR
   \   000372   E0           MOVX    A,@DPTR
   \   000373   3400         ADDC    A,#0x0
   \   000375   F9           MOV     R1,A
   \   000376   8882         MOV     DPL,R0
   \   000378   8983         MOV     DPH,R1
   \   00037A   D0E0         POP     A
   \   00037C   F0           MOVX    @DPTR,A
    692            pRxBuf->internal.flags        = INTERNAL_FCF_FLAGS(&rxBuf[1]) | ackWithPending;
   \   00037D   90....       MOV     DPTR,#(rxBuf + 1)
   \   000380   E0           MOVX    A,@DPTR
   \   000381   5478         ANL     A,#0x78
   \   000383   C0E0         PUSH    A
   \   000385   90....       MOV     DPTR,#(rxBuf + 2)
   \   000388   E0           MOVX    A,@DPTR
   \   000389   C4           SWAP    A
   \   00038A   540F         ANL     A,#0xf
   \   00038C   5403         ANL     A,#0x3
   \   00038E   FA           MOV     R2,A
   \   00038F   D0E0         POP     A
   \   000391   4A           ORL     A,R2
   \   000392   45..         ORL     A,?V0 + 5
   \   000394   C0E0         PUSH    A
   \   000396   90....       MOV     DPTR,#pRxBuf
   \   000399   E0           MOVX    A,@DPTR
   \   00039A   F8           MOV     R0,A
   \   00039B   A3           INC     DPTR
   \   00039C   E0           MOVX    A,@DPTR
   \   00039D   F583         MOV     DPH,A
   \   00039F   8882         MOV     DPL,R0
   \   0003A1   A3           INC     DPTR
   \   0003A2   A3           INC     DPTR
   \   0003A3   A3           INC     DPTR
   \   0003A4   A3           INC     DPTR
   \   0003A5   A3           INC     DPTR
   \   0003A6   A3           INC     DPTR
   \   0003A7   D0E0         POP     A
   \   0003A9   F0           MOVX    @DPTR,A
    693            pRxBuf->sec.securityLevel     = MAC_SEC_LEVEL_NONE;
   \   0003AA   7400         MOV     A,#0x0
   \   0003AC   C0E0         PUSH    A
   \   0003AE   90....       MOV     DPTR,#pRxBuf
   \   0003B1   E0           MOVX    A,@DPTR
   \   0003B2   240F         ADD     A,#0xf
   \   0003B4   F8           MOV     R0,A
   \   0003B5   A3           INC     DPTR
   \   0003B6   E0           MOVX    A,@DPTR
   \   0003B7   3400         ADDC    A,#0x0
   \   0003B9   F9           MOV     R1,A
   \   0003BA   8882         MOV     DPL,R0
   \   0003BC   8983         MOV     DPH,R1
   \   0003BE   D0E0         POP     A
   \   0003C0   F0           MOVX    @DPTR,A
    694          
    695            /*-------------------------------------------------------------------------------
    696             *  If the processing the addressing fields does not require more bytes from
    697             *  the FIFO go directly address processing function.  Otherwise, configure
    698             *  interrupt to jump there once bytes are received.
    699             */
    700            if (addrLen == 0)
   \   0003C1   EE           MOV     A,R6
   \   0003C2   700F         JNZ     ??rxStartIsr_25
    701            {
    702              /* no addressing fields to read, prepare for payload interrupts */
    703              pFuncRxState = &rxPayloadIsr;
   \   0003C4   90....       MOV     DPTR,#pFuncRxState
   \   0003C7   74..         MOV     A,#(??rxPayloadIsr?relay & 0xff)
   \   0003C9   F0           MOVX    @DPTR,A
   \   0003CA   A3           INC     DPTR
   \   0003CB   74..         MOV     A,#((??rxPayloadIsr?relay >> 8) & 0xff)
   \   0003CD   F0           MOVX    @DPTR,A
    704              rxPrepPayload();
   \   0003CE                ; Setup parameters for call to function rxPrepPayload
   \   0003CE   12....       LCALL   ??rxPrepPayload?relay
   \   0003D1   8019         SJMP    ??rxStartIsr_3
    705            }
    706            else
    707            {
    708              /* need to read and process addressing fields, prepare for address interrupt */
    709              rxNextLen = addrLen;
   \                     ??rxStartIsr_25:
   \   0003D3   EE           MOV     A,R6
   \   0003D4   90....       MOV     DPTR,#rxNextLen
   \   0003D7   F0           MOVX    @DPTR,A
    710              MAC_RADIO_SET_RX_THRESHOLD(rxNextLen);
   \   0003D8   90....       MOV     DPTR,#rxNextLen
   \   0003DB   E0           MOVX    A,@DPTR
   \   0003DC   24FF         ADD     A,#-0x1
   \   0003DE   90DF4F       MOV     DPTR,#-0x20b1
   \   0003E1   F0           MOVX    @DPTR,A
    711              pFuncRxState = &rxAddrIsr;
   \   0003E2   90....       MOV     DPTR,#pFuncRxState
   \   0003E5   74..         MOV     A,#(??rxAddrIsr?relay & 0xff)
   \   0003E7   F0           MOVX    @DPTR,A
   \   0003E8   A3           INC     DPTR
   \   0003E9   74..         MOV     A,#((??rxAddrIsr?relay >> 8) & 0xff)
   \   0003EB   F0           MOVX    @DPTR,A
   \                     ??rxStartIsr_3:
   \   0003EC   7402         MOV     A,#0x2
   \   0003EE   12....       LCALL   ?DEALLOC_XSTACK8
   \   0003F1   7F07         MOV     R7,#0x7
   \   0003F3   02....       LJMP    ?BANKED_LEAVE_XDATA
   \   0003F6                REQUIRE _A_IEN0
   \   0003F6                REQUIRE RFIM
   \   0003F6                REQUIRE S1CON
   \   0003F6                REQUIRE RFST
   \   0003F6                REQUIRE RFIF
    712            }
    713          }
    714          
    715          
    716          /*=================================================================================================
    717           * @fn          rxAddrIsr
    718           *
    719           * @brief       Receive ISR state for decoding address.  Reads and stores the address information
    720           *              from the incoming packet.
    721           *
    722           * @param       none
    723           *
    724           * @return      none
    725           *=================================================================================================
    726           */

   \                                 In  segment BANKED_CODE, align 1, keep-with-next
    727          static void rxAddrIsr(void)
   \                     rxAddrIsr:
    728          {
   \   000000   74F6         MOV     A,#-0xa
   \   000002   12....       LCALL   ?BANKED_ENTER_XDATA
   \   000005                ; Saved register size: 10
   \   000005                ; Auto size: 20
   \   000005   74EC         MOV     A,#-0x14
   \   000007   12....       LCALL   ?ALLOC_XSTACK8
    729            uint8 buf[MAX_ADDR_FIELDS_LEN];
    730            uint8 dstAddrMode;
    731            uint8 srcAddrMode;
    732            uint8  * p;
    733          
    734            MAC_ASSERT(rxNextLen != 0); /* logic assumes at least one address byte in buffer */
   \   00000A   90....       MOV     DPTR,#rxNextLen
   \   00000D   E0           MOVX    A,@DPTR
   \   00000E   7003         JNZ     ??rxAddrIsr_0
   \   000010                ; Setup parameters for call to function halAssertHandler
   \   000010   12....       LCALL   ??halAssertHandler?relay
    735          
    736            /*  read out address fields into local buffer in one shot */
    737            MAC_RADIO_READ_RX_FIFO(buf, rxNextLen);
   \                     ??rxAddrIsr_0:
   \   000013                ; Setup parameters for call to function macMemReadRxFifo
   \   000013   90....       MOV     DPTR,#rxNextLen
   \   000016   E0           MOVX    A,@DPTR
   \   000017   F9           MOV     R1,A
   \   000018   85..82       MOV     DPL,?XSP + 0
   \   00001B   85..83       MOV     DPH,?XSP + 1
   \   00001E   AA82         MOV     R2,DPL
   \   000020   AB83         MOV     R3,DPH
   \   000022   12....       LCALL   ??macMemReadRxFifo?relay
    738          
    739            /* set pointer to buffer with addressing fields */
    740            p = buf;
   \   000025   85..82       MOV     DPL,?XSP + 0
   \   000028   85..83       MOV     DPH,?XSP + 1
   \   00002B   AE82         MOV     R6,DPL
   \   00002D   AF83         MOV     R7,DPH
    741          
    742            /* destination address */
    743            dstAddrMode = MAC_DEST_ADDR_MODE(&rxBuf[1]);
   \   00002F   90....       MOV     DPTR,#(rxBuf + 2)
   \   000032   E0           MOVX    A,@DPTR
   \   000033   13           RRC     A
   \   000034   13           RRC     A
   \   000035   543F         ANL     A,#0x3f
   \   000037   5403         ANL     A,#0x3
   \   000039   F5..         MOV     ?V0 + 0,A
    744            if (dstAddrMode != SADDR_MODE_NONE)
   \   00003B   E5..         MOV     A,?V0 + 0
   \   00003D   7003         JNZ     $+5
   \   00003F   02....       LJMP    ??rxAddrIsr_1 & 0xFFFF
    745            {
    746              pRxBuf->mac.srcPanId = pRxBuf->mac.dstPanId = BUILD_UINT16(p[0], p[1]);
   \   000042   8E82         MOV     DPL,R6
   \   000044   8F83         MOV     DPH,R7
   \   000046   E0           MOVX    A,@DPTR
   \   000047   FA           MOV     R2,A
   \   000048   7B00         MOV     R3,#0x0
   \   00004A   8E82         MOV     DPL,R6
   \   00004C   8F83         MOV     DPH,R7
   \   00004E   A3           INC     DPTR
   \   00004F   E0           MOVX    A,@DPTR
   \   000050   F8           MOV     R0,A
   \   000051   E4           CLR     A
   \   000052   C8           XCH     A,R0
   \   000053   F9           MOV     R1,A
   \   000054   E8           MOV     A,R0
   \   000055   2A           ADD     A,R2
   \   000056   F8           MOV     R0,A
   \   000057   E9           MOV     A,R1
   \   000058   3B           ADDC    A,R3
   \   000059   F9           MOV     R1,A
   \   00005A   90....       MOV     DPTR,#pRxBuf
   \   00005D   E0           MOVX    A,@DPTR
   \   00005E   242C         ADD     A,#0x2c
   \   000060   FA           MOV     R2,A
   \   000061   A3           INC     DPTR
   \   000062   E0           MOVX    A,@DPTR
   \   000063   3400         ADDC    A,#0x0
   \   000065   FB           MOV     R3,A
   \   000066   8A82         MOV     DPL,R2
   \   000068   8B83         MOV     DPH,R3
   \   00006A   E8           MOV     A,R0
   \   00006B   F0           MOVX    @DPTR,A
   \   00006C   A3           INC     DPTR
   \   00006D   E9           MOV     A,R1
   \   00006E   F0           MOVX    @DPTR,A
   \   00006F   90....       MOV     DPTR,#pRxBuf
   \   000072   E0           MOVX    A,@DPTR
   \   000073   242A         ADD     A,#0x2a
   \   000075   FA           MOV     R2,A
   \   000076   A3           INC     DPTR
   \   000077   E0           MOVX    A,@DPTR
   \   000078   3400         ADDC    A,#0x0
   \   00007A   FB           MOV     R3,A
   \   00007B   8A82         MOV     DPL,R2
   \   00007D   8B83         MOV     DPH,R3
   \   00007F   E8           MOV     A,R0
   \   000080   F0           MOVX    @DPTR,A
   \   000081   A3           INC     DPTR
   \   000082   E9           MOV     A,R1
   \   000083   F0           MOVX    @DPTR,A
    747              p += MAC_PAN_ID_FIELD_LEN;
   \   000084   EE           MOV     A,R6
   \   000085   2402         ADD     A,#0x2
   \   000087   FE           MOV     R6,A
   \   000088   EF           MOV     A,R7
   \   000089   3400         ADDC    A,#0x0
   \   00008B   FF           MOV     R7,A
    748              if (dstAddrMode == SADDR_MODE_EXT)
   \   00008C   7403         MOV     A,#0x3
   \   00008E   65..         XRL     A,?V0 + 0
   \   000090   701D         JNZ     ??rxAddrIsr_2
    749              {
    750                sAddrExtCpy(pRxBuf->mac.dstAddr.addr.extAddr, p);
   \   000092                ; Setup parameters for call to function sAddrExtCpy
   \   000092   EE           MOV     A,R6
   \   000093   FC           MOV     R4,A
   \   000094   EF           MOV     A,R7
   \   000095   FD           MOV     R5,A
   \   000096   90....       MOV     DPTR,#pRxBuf
   \   000099   E0           MOVX    A,@DPTR
   \   00009A   241B         ADD     A,#0x1b
   \   00009C   FA           MOV     R2,A
   \   00009D   A3           INC     DPTR
   \   00009E   E0           MOVX    A,@DPTR
   \   00009F   3400         ADDC    A,#0x0
   \   0000A1   FB           MOV     R3,A
   \   0000A2   12....       LCALL   ??sAddrExtCpy?relay
    751                p += MAC_EXT_ADDR_FIELD_LEN;
   \   0000A5   EE           MOV     A,R6
   \   0000A6   2408         ADD     A,#0x8
   \   0000A8   FE           MOV     R6,A
   \   0000A9   EF           MOV     A,R7
   \   0000AA   3400         ADDC    A,#0x0
   \   0000AC   FF           MOV     R7,A
   \   0000AD   8035         SJMP    ??rxAddrIsr_1
    752              }
    753              else
    754              {
    755                pRxBuf->mac.dstAddr.addr.shortAddr = BUILD_UINT16(p[0], p[1]);
   \                     ??rxAddrIsr_2:
   \   0000AF   8E82         MOV     DPL,R6
   \   0000B1   8F83         MOV     DPH,R7
   \   0000B3   E0           MOVX    A,@DPTR
   \   0000B4   FA           MOV     R2,A
   \   0000B5   7B00         MOV     R3,#0x0
   \   0000B7   8E82         MOV     DPL,R6
   \   0000B9   8F83         MOV     DPH,R7
   \   0000BB   A3           INC     DPTR
   \   0000BC   E0           MOVX    A,@DPTR
   \   0000BD   F8           MOV     R0,A
   \   0000BE   E4           CLR     A
   \   0000BF   C8           XCH     A,R0
   \   0000C0   F9           MOV     R1,A
   \   0000C1   E8           MOV     A,R0
   \   0000C2   2A           ADD     A,R2
   \   0000C3   FA           MOV     R2,A
   \   0000C4   E9           MOV     A,R1
   \   0000C5   3B           ADDC    A,R3
   \   0000C6   FB           MOV     R3,A
   \   0000C7   90....       MOV     DPTR,#pRxBuf
   \   0000CA   E0           MOVX    A,@DPTR
   \   0000CB   241B         ADD     A,#0x1b
   \   0000CD   F8           MOV     R0,A
   \   0000CE   A3           INC     DPTR
   \   0000CF   E0           MOVX    A,@DPTR
   \   0000D0   3400         ADDC    A,#0x0
   \   0000D2   F9           MOV     R1,A
   \   0000D3   8882         MOV     DPL,R0
   \   0000D5   8983         MOV     DPH,R1
   \   0000D7   EA           MOV     A,R2
   \   0000D8   F0           MOVX    @DPTR,A
   \   0000D9   A3           INC     DPTR
   \   0000DA   EB           MOV     A,R3
   \   0000DB   F0           MOVX    @DPTR,A
    756                p += MAC_SHORT_ADDR_FIELD_LEN;
   \   0000DC   EE           MOV     A,R6
   \   0000DD   2402         ADD     A,#0x2
   \   0000DF   FE           MOV     R6,A
   \   0000E0   EF           MOV     A,R7
   \   0000E1   3400         ADDC    A,#0x0
   \   0000E3   FF           MOV     R7,A
    757              }
    758            }
    759          
    760            /* sources address */
    761            srcAddrMode = MAC_SRC_ADDR_MODE(&rxBuf[1]);
   \                     ??rxAddrIsr_1:
   \   0000E4   90....       MOV     DPTR,#(rxBuf + 2)
   \   0000E7   E0           MOVX    A,@DPTR
   \   0000E8   C4           SWAP    A
   \   0000E9   13           RRC     A
   \   0000EA   13           RRC     A
   \   0000EB   5403         ANL     A,#0x3
   \   0000ED   F5..         MOV     ?V0 + 1,A
    762            if (srcAddrMode != SADDR_MODE_NONE)
   \   0000EF   E5..         MOV     A,?V0 + 1
   \   0000F1   7003         JNZ     $+5
   \   0000F3   02....       LJMP    ??rxAddrIsr_3 & 0xFFFF
    763            {
    764              if (!(pRxBuf->internal.flags & MAC_RX_FLAG_INTRA_PAN))
   \   0000F6   90....       MOV     DPTR,#pRxBuf
   \   0000F9   E0           MOVX    A,@DPTR
   \   0000FA   F8           MOV     R0,A
   \   0000FB   A3           INC     DPTR
   \   0000FC   E0           MOVX    A,@DPTR
   \   0000FD   F583         MOV     DPH,A
   \   0000FF   8882         MOV     DPL,R0
   \   000101   A3           INC     DPTR
   \   000102   A3           INC     DPTR
   \   000103   A3           INC     DPTR
   \   000104   A3           INC     DPTR
   \   000105   A3           INC     DPTR
   \   000106   A3           INC     DPTR
   \   000107   E0           MOVX    A,@DPTR
   \   000108   A2E6         MOV     C,0xE0 /* A   */.6
   \   00010A   4035         JC      ??rxAddrIsr_4
    765              {
    766                pRxBuf->mac.srcPanId = BUILD_UINT16(p[0], p[1]);
   \   00010C   8E82         MOV     DPL,R6
   \   00010E   8F83         MOV     DPH,R7
   \   000110   E0           MOVX    A,@DPTR
   \   000111   FA           MOV     R2,A
   \   000112   7B00         MOV     R3,#0x0
   \   000114   8E82         MOV     DPL,R6
   \   000116   8F83         MOV     DPH,R7
   \   000118   A3           INC     DPTR
   \   000119   E0           MOVX    A,@DPTR
   \   00011A   F8           MOV     R0,A
   \   00011B   E4           CLR     A
   \   00011C   C8           XCH     A,R0
   \   00011D   F9           MOV     R1,A
   \   00011E   E8           MOV     A,R0
   \   00011F   2A           ADD     A,R2
   \   000120   FA           MOV     R2,A
   \   000121   E9           MOV     A,R1
   \   000122   3B           ADDC    A,R3
   \   000123   FB           MOV     R3,A
   \   000124   90....       MOV     DPTR,#pRxBuf
   \   000127   E0           MOVX    A,@DPTR
   \   000128   242A         ADD     A,#0x2a
   \   00012A   F8           MOV     R0,A
   \   00012B   A3           INC     DPTR
   \   00012C   E0           MOVX    A,@DPTR
   \   00012D   3400         ADDC    A,#0x0
   \   00012F   F9           MOV     R1,A
   \   000130   8882         MOV     DPL,R0
   \   000132   8983         MOV     DPH,R1
   \   000134   EA           MOV     A,R2
   \   000135   F0           MOVX    @DPTR,A
   \   000136   A3           INC     DPTR
   \   000137   EB           MOV     A,R3
   \   000138   F0           MOVX    @DPTR,A
    767                p += MAC_PAN_ID_FIELD_LEN;
   \   000139   EE           MOV     A,R6
   \   00013A   2402         ADD     A,#0x2
   \   00013C   FE           MOV     R6,A
   \   00013D   EF           MOV     A,R7
   \   00013E   3400         ADDC    A,#0x0
   \   000140   FF           MOV     R7,A
    768              }
    769              if (srcAddrMode == SADDR_MODE_EXT)
   \                     ??rxAddrIsr_4:
   \   000141   7403         MOV     A,#0x3
   \   000143   65..         XRL     A,?V0 + 1
   \   000145   7015         JNZ     ??rxAddrIsr_5
    770              {
    771                sAddrExtCpy(pRxBuf->mac.srcAddr.addr.extAddr, p);
   \   000147                ; Setup parameters for call to function sAddrExtCpy
   \   000147   EE           MOV     A,R6
   \   000148   FC           MOV     R4,A
   \   000149   EF           MOV     A,R7
   \   00014A   FD           MOV     R5,A
   \   00014B   90....       MOV     DPTR,#pRxBuf
   \   00014E   E0           MOVX    A,@DPTR
   \   00014F   2412         ADD     A,#0x12
   \   000151   FA           MOV     R2,A
   \   000152   A3           INC     DPTR
   \   000153   E0           MOVX    A,@DPTR
   \   000154   3400         ADDC    A,#0x0
   \   000156   FB           MOV     R3,A
   \   000157   12....       LCALL   ??sAddrExtCpy?relay
   \   00015A   802D         SJMP    ??rxAddrIsr_3
    772              }
    773              else
    774              {
    775                pRxBuf->mac.srcAddr.addr.shortAddr = BUILD_UINT16(p[0], p[1]);
   \                     ??rxAddrIsr_5:
   \   00015C   8E82         MOV     DPL,R6
   \   00015E   8F83         MOV     DPH,R7
   \   000160   E0           MOVX    A,@DPTR
   \   000161   FA           MOV     R2,A
   \   000162   7B00         MOV     R3,#0x0
   \   000164   8E82         MOV     DPL,R6
   \   000166   8F83         MOV     DPH,R7
   \   000168   A3           INC     DPTR
   \   000169   E0           MOVX    A,@DPTR
   \   00016A   F8           MOV     R0,A
   \   00016B   E4           CLR     A
   \   00016C   C8           XCH     A,R0
   \   00016D   F9           MOV     R1,A
   \   00016E   E8           MOV     A,R0
   \   00016F   2A           ADD     A,R2
   \   000170   FA           MOV     R2,A
   \   000171   E9           MOV     A,R1
   \   000172   3B           ADDC    A,R3
   \   000173   FB           MOV     R3,A
   \   000174   90....       MOV     DPTR,#pRxBuf
   \   000177   E0           MOVX    A,@DPTR
   \   000178   2412         ADD     A,#0x12
   \   00017A   F8           MOV     R0,A
   \   00017B   A3           INC     DPTR
   \   00017C   E0           MOVX    A,@DPTR
   \   00017D   3400         ADDC    A,#0x0
   \   00017F   F9           MOV     R1,A
   \   000180   8882         MOV     DPL,R0
   \   000182   8983         MOV     DPH,R1
   \   000184   EA           MOV     A,R2
   \   000185   F0           MOVX    @DPTR,A
   \   000186   A3           INC     DPTR
   \   000187   EB           MOV     A,R3
   \   000188   F0           MOVX    @DPTR,A
    776              }
    777            }
    778          
    779            /*-------------------------------------------------------------------------------
    780             *  Prepare for payload interrupts.
    781             */
    782            pFuncRxState = &rxPayloadIsr;
   \                     ??rxAddrIsr_3:
   \   000189   90....       MOV     DPTR,#pFuncRxState
   \   00018C   74..         MOV     A,#(??rxPayloadIsr?relay & 0xff)
   \   00018E   F0           MOVX    @DPTR,A
   \   00018F   A3           INC     DPTR
   \   000190   74..         MOV     A,#((??rxPayloadIsr?relay >> 8) & 0xff)
   \   000192   F0           MOVX    @DPTR,A
    783            rxPrepPayload();
   \   000193                ; Setup parameters for call to function rxPrepPayload
   \   000193   12....       LCALL   ??rxPrepPayload?relay
    784          }
   \   000196   7414         MOV     A,#0x14
   \   000198   12....       LCALL   ?DEALLOC_XSTACK8
   \   00019B   7F02         MOV     R7,#0x2
   \   00019D   02....       LJMP    ?BANKED_LEAVE_XDATA
    785          
    786          
    787          /*=================================================================================================
    788           * @fn          rxPrepPayload
    789           *
    790           * @brief       Common code to prepare for the payload ISR.
    791           *
    792           * @param       none
    793           *
    794           * @return      none
    795           *=================================================================================================
    796           */

   \                                 In  segment BANKED_CODE, align 1, keep-with-next
    797          static void rxPrepPayload(void)
   \                     rxPrepPayload:
    798          {
   \   000000   C082         PUSH    DPL
   \   000002   C083         PUSH    DPH
   \   000004                ; Saved register size: 2
   \   000004                ; Auto size: 0
    799            if (rxPayloadLen == 0)
   \   000004   90....       MOV     DPTR,#rxPayloadLen
   \   000007   E0           MOVX    A,@DPTR
   \   000008   7012         JNZ     ??rxPrepPayload_0
    800            {
    801              MAC_RADIO_SET_RX_THRESHOLD(MAC_FCS_FIELD_LEN);
   \   00000A   7401         MOV     A,#0x1
   \   00000C   90DF4F       MOV     DPTR,#-0x20b1
   \   00000F   F0           MOVX    @DPTR,A
    802              pFuncRxState = &rxFcsIsr;
   \   000010   90....       MOV     DPTR,#pFuncRxState
   \   000013   74..         MOV     A,#(??rxFcsIsr?relay & 0xff)
   \   000015   F0           MOVX    @DPTR,A
   \   000016   A3           INC     DPTR
   \   000017   74..         MOV     A,#((??rxFcsIsr?relay >> 8) & 0xff)
   \   000019   F0           MOVX    @DPTR,A
   \   00001A   8021         SJMP    ??rxPrepPayload_1
    803            }
    804            else
    805            {
    806              rxNextLen = MIN(rxPayloadLen, MAX_PAYLOAD_BYTES_READ_PER_INTERRUPT);
   \                     ??rxPrepPayload_0:
   \   00001C   90....       MOV     DPTR,#rxPayloadLen
   \   00001F   E0           MOVX    A,@DPTR
   \   000020   C3           CLR     C
   \   000021   9410         SUBB    A,#0x10
   \   000023   5007         JNC     ??rxPrepPayload_2
   \   000025   90....       MOV     DPTR,#rxPayloadLen
   \   000028   E0           MOVX    A,@DPTR
   \   000029   FA           MOV     R2,A
   \   00002A   8002         SJMP    ??rxPrepPayload_3
   \                     ??rxPrepPayload_2:
   \   00002C   7A10         MOV     R2,#0x10
   \                     ??rxPrepPayload_3:
   \   00002E   EA           MOV     A,R2
   \   00002F   90....       MOV     DPTR,#rxNextLen
   \   000032   F0           MOVX    @DPTR,A
    807              MAC_RADIO_SET_RX_THRESHOLD(rxNextLen);
   \   000033   90....       MOV     DPTR,#rxNextLen
   \   000036   E0           MOVX    A,@DPTR
   \   000037   24FF         ADD     A,#-0x1
   \   000039   90DF4F       MOV     DPTR,#-0x20b1
   \   00003C   F0           MOVX    @DPTR,A
    808            }
    809          }
   \                     ??rxPrepPayload_1:
   \   00003D   D083         POP     DPH
   \   00003F   D082         POP     DPL
   \   000041   02....       LJMP    ?BRET
    810          
    811          
    812          /*=================================================================================================
    813           * @fn          rxPayloadIsr
    814           *
    815           * @brief       Receive ISR state for reading out and storing the packet payload.
    816           *
    817           * @param       none
    818           *
    819           * @return      none
    820           *=================================================================================================
    821           */

   \                                 In  segment BANKED_CODE, align 1, keep-with-next
    822          static void rxPayloadIsr(void)
   \                     rxPayloadIsr:
    823          {
   \   000000   C082         PUSH    DPL
   \   000002   C083         PUSH    DPH
   \   000004                ; Saved register size: 2
   \   000004                ; Auto size: 0
    824            MAC_RADIO_READ_RX_FIFO(pRxBuf->msdu.p, rxNextLen);
   \   000004                ; Setup parameters for call to function macMemReadRxFifo
   \   000004   90....       MOV     DPTR,#rxNextLen
   \   000007   E0           MOVX    A,@DPTR
   \   000008   F9           MOV     R1,A
   \   000009   90....       MOV     DPTR,#pRxBuf
   \   00000C   E0           MOVX    A,@DPTR
   \   00000D   F8           MOV     R0,A
   \   00000E   A3           INC     DPTR
   \   00000F   E0           MOVX    A,@DPTR
   \   000010   F583         MOV     DPH,A
   \   000012   8882         MOV     DPL,R0
   \   000014   A3           INC     DPTR
   \   000015   A3           INC     DPTR
   \   000016   E0           MOVX    A,@DPTR
   \   000017   FA           MOV     R2,A
   \   000018   A3           INC     DPTR
   \   000019   E0           MOVX    A,@DPTR
   \   00001A   FB           MOV     R3,A
   \   00001B   12....       LCALL   ??macMemReadRxFifo?relay
    825            pRxBuf->msdu.p += rxNextLen;
   \   00001E   90....       MOV     DPTR,#rxNextLen
   \   000021   E0           MOVX    A,@DPTR
   \   000022   F8           MOV     R0,A
   \   000023   7900         MOV     R1,#0x0
   \   000025   90....       MOV     DPTR,#pRxBuf
   \   000028   E0           MOVX    A,@DPTR
   \   000029   FA           MOV     R2,A
   \   00002A   A3           INC     DPTR
   \   00002B   E0           MOVX    A,@DPTR
   \   00002C   F583         MOV     DPH,A
   \   00002E   8A82         MOV     DPL,R2
   \   000030   A3           INC     DPTR
   \   000031   A3           INC     DPTR
   \   000032   E0           MOVX    A,@DPTR
   \   000033   28           ADD     A,R0
   \   000034   F8           MOV     R0,A
   \   000035   A3           INC     DPTR
   \   000036   E0           MOVX    A,@DPTR
   \   000037   39           ADDC    A,R1
   \   000038   F9           MOV     R1,A
   \   000039   90....       MOV     DPTR,#pRxBuf
   \   00003C   E0           MOVX    A,@DPTR
   \   00003D   FA           MOV     R2,A
   \   00003E   A3           INC     DPTR
   \   00003F   E0           MOVX    A,@DPTR
   \   000040   F583         MOV     DPH,A
   \   000042   8A82         MOV     DPL,R2
   \   000044   A3           INC     DPTR
   \   000045   A3           INC     DPTR
   \   000046   E8           MOV     A,R0
   \   000047   F0           MOVX    @DPTR,A
   \   000048   A3           INC     DPTR
   \   000049   E9           MOV     A,R1
   \   00004A   F0           MOVX    @DPTR,A
    826            rxPayloadLen -= rxNextLen;
   \   00004B   90....       MOV     DPTR,#rxNextLen
   \   00004E   E0           MOVX    A,@DPTR
   \   00004F   FA           MOV     R2,A
   \   000050   90....       MOV     DPTR,#rxPayloadLen
   \   000053   E0           MOVX    A,@DPTR
   \   000054   C3           CLR     C
   \   000055   9A           SUBB    A,R2
   \   000056   F0           MOVX    @DPTR,A
    827          
    828            rxPrepPayload();
   \   000057                ; Setup parameters for call to function rxPrepPayload
   \   000057   12....       LCALL   ??rxPrepPayload?relay
    829          }
   \   00005A   D083         POP     DPH
   \   00005C   D082         POP     DPL
   \   00005E   02....       LJMP    ?BRET
    830          
    831          
    832          /*=================================================================================================
    833           * @fn          rxFcsIsr
    834           *
    835           * @brief       Receive ISR state for handling the FCS.
    836           *
    837           * @param       none
    838           *
    839           * @return      none
    840           *=================================================================================================
    841           */

   \                                 In  segment BANKED_CODE, align 1, keep-with-next
    842          static void rxFcsIsr(void)
   \                     rxFcsIsr:
    843          {
   \   000000   74F7         MOV     A,#-0x9
   \   000002   12....       LCALL   ?BANKED_ENTER_XDATA
   \   000005                ; Saved register size: 9
   \   000005                ; Auto size: 0
    844            uint8 crcOK;
    845          
    846            /* read FCS, rxBuf is now available storage */
    847            MAC_RADIO_READ_RX_FIFO(rxBuf, MAC_FCS_FIELD_LEN);
   \   000005                ; Setup parameters for call to function macMemReadRxFifo
   \   000005   7902         MOV     R1,#0x2
   \   000007   7A..         MOV     R2,#(rxBuf & 0xff)
   \   000009   7B..         MOV     R3,#((rxBuf >> 8) & 0xff)
   \   00000B   12....       LCALL   ??macMemReadRxFifo?relay
    848          
    849            /*
    850             *  The FCS has actually been replaced within the radio by a proprietary version of the FCS.
    851             *  This proprietary FCS is two bytes (same length as the real FCS) and contains:
    852             *    1) the RSSI value
    853             *    2) the average correlation value (used for LQI)
    854             *    3) a CRC passed bit
    855             */
    856          
    857            /* save the "CRC-is-OK" status */
    858            crcOK = PROPRIETARY_FCS_CRC_OK(rxBuf);
   \   00000E   90....       MOV     DPTR,#(rxBuf + 1)
   \   000011   E0           MOVX    A,@DPTR
   \   000012   5480         ANL     A,#0x80
   \   000014   FE           MOV     R6,A
    859          
    860            /*
    861             *  See if the frame should be passed up to high-level MAC.  If the CRC is OK, the
    862             *  the frame is always passed up.  Frames with a bad CRC are also passed up *if*
    863             *  a special variant of promiscuous mode is active.
    864             */
    865            if (crcOK || (rxPromiscuousMode == MAC_PROMISCUOUS_MODE_WITH_BAD_CRC))
   \   000015   EE           MOV     A,R6
   \   000016   700B         JNZ     ??rxFcsIsr_0
   \   000018   90....       MOV     DPTR,#rxPromiscuousMode
   \   00001B   E0           MOVX    A,@DPTR
   \   00001C   6402         XRL     A,#0x2
   \   00001E   6003         JZ      $+5
   \   000020   02....       LJMP    ??rxFcsIsr_1 & 0xFFFF
    866            {
    867              int8 rssiDbm;
    868              uint8 corr;
    869          
    870              /*
    871               *  As power saving optimization, set state variable to indicate physical receive
    872               *  has completed and then request turning of the receiver.  This means the receiver
    873               *  can be off (if other conditions permit) during execution of the callback function.
    874               *
    875               *  The receiver will be requested to turn off once again at the end of the receive
    876               *  logic.  There is no harm in doing this.
    877               */
    878              macRxActive = MAC_RX_ACTIVE_DONE;
   \                     ??rxFcsIsr_0:
   \   000023   7402         MOV     A,#0x2
   \   000025   90....       MOV     DPTR,#macRxActive
   \   000028   F0           MOVX    @DPTR,A
    879              macRxOffRequest();
   \   000029                ; Setup parameters for call to function macRxOffRequest
   \   000029   12....       LCALL   ??macRxOffRequest?relay
    880              
    881              /* decode RSSI and correlation values */
    882              rssiDbm = PROPRIETARY_FCS_RSSI(rxBuf) + MAC_RADIO_RSSI_OFFSET;
   \   00002C   90....       MOV     DPTR,#rxBuf
   \   00002F   E0           MOVX    A,@DPTR
   \   000030   24D3         ADD     A,#-0x2d
   \   000032   FF           MOV     R7,A
    883              corr = PROPRIETARY_FCS_CORRELATION_VALUE(rxBuf);
   \   000033   90....       MOV     DPTR,#(rxBuf + 1)
   \   000036   E0           MOVX    A,@DPTR
   \   000037   547F         ANL     A,#0x7f
   \   000039   F5..         MOV     ?V0 + 0,A
    884              
    885              /* record parameters that get passed up to high-level */
    886              pRxBuf->internal.flags |= crcOK;
   \   00003B   90....       MOV     DPTR,#pRxBuf
   \   00003E   E0           MOVX    A,@DPTR
   \   00003F   F8           MOV     R0,A
   \   000040   A3           INC     DPTR
   \   000041   E0           MOVX    A,@DPTR
   \   000042   F583         MOV     DPH,A
   \   000044   8882         MOV     DPL,R0
   \   000046   A3           INC     DPTR
   \   000047   A3           INC     DPTR
   \   000048   A3           INC     DPTR
   \   000049   A3           INC     DPTR
   \   00004A   A3           INC     DPTR
   \   00004B   A3           INC     DPTR
   \   00004C   E0           MOVX    A,@DPTR
   \   00004D   4E           ORL     A,R6
   \   00004E   F0           MOVX    @DPTR,A
    887              pRxBuf->mac.mpduLinkQuality = macRadioComputeLQI(rssiDbm, corr);
   \   00004F                ; Setup parameters for call to function macRadioComputeLQI
   \   00004F   AA..         MOV     R2,?V0 + 0
   \   000051   EF           MOV     A,R7
   \   000052   F9           MOV     R1,A
   \   000053   12....       LCALL   ??macRadioComputeLQI?relay
   \   000056   E9           MOV     A,R1
   \   000057   C0E0         PUSH    A
   \   000059   90....       MOV     DPTR,#pRxBuf
   \   00005C   E0           MOVX    A,@DPTR
   \   00005D   242E         ADD     A,#0x2e
   \   00005F   F8           MOV     R0,A
   \   000060   A3           INC     DPTR
   \   000061   E0           MOVX    A,@DPTR
   \   000062   3400         ADDC    A,#0x0
   \   000064   F9           MOV     R1,A
   \   000065   8882         MOV     DPL,R0
   \   000067   8983         MOV     DPH,R1
   \   000069   D0E0         POP     A
   \   00006B   F0           MOVX    @DPTR,A
    888              pRxBuf->mac.rssi = rssiDbm;
   \   00006C   EF           MOV     A,R7
   \   00006D   C0E0         PUSH    A
   \   00006F   90....       MOV     DPTR,#pRxBuf
   \   000072   E0           MOVX    A,@DPTR
   \   000073   2430         ADD     A,#0x30
   \   000075   F8           MOV     R0,A
   \   000076   A3           INC     DPTR
   \   000077   E0           MOVX    A,@DPTR
   \   000078   3400         ADDC    A,#0x0
   \   00007A   F9           MOV     R1,A
   \   00007B   8882         MOV     DPL,R0
   \   00007D   8983         MOV     DPH,R1
   \   00007F   D0E0         POP     A
   \   000081   F0           MOVX    @DPTR,A
    889              pRxBuf->mac.correlation = corr;
   \   000082   90....       MOV     DPTR,#pRxBuf
   \   000085   E0           MOVX    A,@DPTR
   \   000086   242F         ADD     A,#0x2f
   \   000088   F8           MOV     R0,A
   \   000089   A3           INC     DPTR
   \   00008A   E0           MOVX    A,@DPTR
   \   00008B   3400         ADDC    A,#0x0
   \   00008D   F9           MOV     R1,A
   \   00008E   8882         MOV     DPL,R0
   \   000090   8983         MOV     DPH,R1
   \   000092   E5..         MOV     A,?V0 + 0
   \   000094   F0           MOVX    @DPTR,A
    890          
    891              /* set the MSDU pointer to point at start of data */
    892              pRxBuf->msdu.p = (uint8 *) (pRxBuf + 1);
   \   000095   90....       MOV     DPTR,#pRxBuf
   \   000098   E0           MOVX    A,@DPTR
   \   000099   2432         ADD     A,#0x32
   \   00009B   F8           MOV     R0,A
   \   00009C   A3           INC     DPTR
   \   00009D   E0           MOVX    A,@DPTR
   \   00009E   3400         ADDC    A,#0x0
   \   0000A0   F9           MOV     R1,A
   \   0000A1   90....       MOV     DPTR,#pRxBuf
   \   0000A4   E0           MOVX    A,@DPTR
   \   0000A5   FA           MOV     R2,A
   \   0000A6   A3           INC     DPTR
   \   0000A7   E0           MOVX    A,@DPTR
   \   0000A8   F583         MOV     DPH,A
   \   0000AA   8A82         MOV     DPL,R2
   \   0000AC   A3           INC     DPTR
   \   0000AD   A3           INC     DPTR
   \   0000AE   E8           MOV     A,R0
   \   0000AF   F0           MOVX    @DPTR,A
   \   0000B0   A3           INC     DPTR
   \   0000B1   E9           MOV     A,R1
   \   0000B2   F0           MOVX    @DPTR,A
    893              
    894              /* finally... execute callback function */
    895              macRxCompleteCallback(pRxBuf);
   \   0000B3                ; Setup parameters for call to function macRxCompleteCallback
   \   0000B3   90....       MOV     DPTR,#pRxBuf
   \   0000B6   E0           MOVX    A,@DPTR
   \   0000B7   FA           MOV     R2,A
   \   0000B8   A3           INC     DPTR
   \   0000B9   E0           MOVX    A,@DPTR
   \   0000BA   FB           MOV     R3,A
   \   0000BB   12....       LCALL   ??macRxCompleteCallback?relay
    896              pRxBuf = NULL; /* needed to indicate buffer is no longer allocated */
   \   0000BE   90....       MOV     DPTR,#pRxBuf
   \   0000C1   7400         MOV     A,#0x0
   \   0000C3   F0           MOVX    @DPTR,A
   \   0000C4   A3           INC     DPTR
   \   0000C5   7400         MOV     A,#0x0
   \   0000C7   F0           MOVX    @DPTR,A
   \   0000C8   801E         SJMP    ??rxFcsIsr_2
    897            }
    898            else
    899            {
    900              /*
    901               *  The CRC is bad so no ACK was sent.  Cancel any callback and clear the flag.
    902               *  (It's OK to cancel the outgoing ACK even if an ACK was not requested.  It's
    903               *  slightly more efficient to do so.)
    904               */
    905              MAC_RADIO_CANCEL_ACK_TX_DONE_CALLBACK();
   \                     ??rxFcsIsr_1:
   \   0000CA   5391BF       ANL     0x91,#0xbf
    906              macRxOutgoingAckFlag = 0;
   \   0000CD   7400         MOV     A,#0x0
   \   0000CF   90....       MOV     DPTR,#macRxOutgoingAckFlag
   \   0000D2   F0           MOVX    @DPTR,A
    907          
    908              /* the CRC failed so the packet must be discarded */
    909              MEM_FREE((uint8 *) pRxBuf);
   \   0000D3                ; Setup parameters for call to function macDataRxMemFree
   \   0000D3   90....       MOV     DPTR,#pRxBuf
   \   0000D6   E0           MOVX    A,@DPTR
   \   0000D7   FA           MOV     R2,A
   \   0000D8   A3           INC     DPTR
   \   0000D9   E0           MOVX    A,@DPTR
   \   0000DA   FB           MOV     R3,A
   \   0000DB   12....       LCALL   ??macDataRxMemFree?relay
    910              pRxBuf = NULL;  /* needed to indicate buffer is no longer allocated */
   \   0000DE   90....       MOV     DPTR,#pRxBuf
   \   0000E1   7400         MOV     A,#0x0
   \   0000E3   F0           MOVX    @DPTR,A
   \   0000E4   A3           INC     DPTR
   \   0000E5   7400         MOV     A,#0x0
   \   0000E7   F0           MOVX    @DPTR,A
    911            }
    912          
    913            /* reset threshold level, reset receive state, and complete receive logic */
    914            MAC_RADIO_SET_RX_THRESHOLD(RX_THRESHOLD_START_LEN);
   \                     ??rxFcsIsr_2:
   \   0000E8   7405         MOV     A,#0x5
   \   0000EA   90DF4F       MOV     DPTR,#-0x20b1
   \   0000ED   F0           MOVX    @DPTR,A
    915            pFuncRxState = &rxStartIsr;
   \   0000EE   90....       MOV     DPTR,#pFuncRxState
   \   0000F1   74..         MOV     A,#(??rxStartIsr?relay & 0xff)
   \   0000F3   F0           MOVX    @DPTR,A
   \   0000F4   A3           INC     DPTR
   \   0000F5   74..         MOV     A,#((??rxStartIsr?relay >> 8) & 0xff)
   \   0000F7   F0           MOVX    @DPTR,A
    916            rxDone();
   \   0000F8                ; Setup parameters for call to function rxDone
   \   0000F8   12....       LCALL   ??rxDone?relay
    917          }
   \   0000FB   7F01         MOV     R7,#0x1
   \   0000FD   02....       LJMP    ?BANKED_LEAVE_XDATA
   \   000100                REQUIRE RFIM
    918          
    919          
    920          /*=================================================================================================
    921           * @fn          rxDone
    922           *
    923           * @brief       Common exit point for receive.
    924           *
    925           * @param       none
    926           *
    927           * @return      none
    928           *=================================================================================================
    929           */

   \                                 In  segment BANKED_CODE, align 1, keep-with-next
    930          static void rxDone(void)
   \                     rxDone:
    931          {
   \   000000   C082         PUSH    DPL
   \   000002   C083         PUSH    DPH
   \   000004                ; Saved register size: 2
   \   000004                ; Auto size: 0
    932            /* if the receive FIFO has overflowed, flush it here */
    933            if (MAC_RADIO_RX_FIFO_HAS_OVERFLOWED())
   \   000004   90DF62       MOV     DPTR,#-0x209e
   \   000007   E0           MOVX    A,@DPTR
   \   000008   A2E2         MOV     C,0xE0 /* A   */.2
   \   00000A   500E         JNC     ??rxDone_0
   \   00000C   90DF62       MOV     DPTR,#-0x209e
   \   00000F   E0           MOVX    A,@DPTR
   \   000010   A2E3         MOV     C,0xE0 /* A   */.3
   \   000012   4006         JC      ??rxDone_0
    934            {
    935              MAC_RADIO_FLUSH_RX_FIFO();
   \   000014   75E1E6       MOV     0xe1,#-0x1a
   \   000017   75E1E6       MOV     0xe1,#-0x1a
    936            }
    937          
    938            /* mark receive as inactive */
    939            macRxActive = MAC_RX_ACTIVE_NO_ACTIVITY;
   \                     ??rxDone_0:
   \   00001A   7400         MOV     A,#0x0
   \   00001C   90....       MOV     DPTR,#macRxActive
   \   00001F   F0           MOVX    @DPTR,A
    940          
    941            /* if there is no outgoing ACK, run the post receive updates */
    942            if (!macRxOutgoingAckFlag)
   \   000020   90....       MOV     DPTR,#macRxOutgoingAckFlag
   \   000023   E0           MOVX    A,@DPTR
   \   000024   7003         JNZ     ??rxDone_1
    943            {
    944              rxPostRxUpdates();
   \   000026                ; Setup parameters for call to function rxPostRxUpdates
   \   000026   12....       LCALL   ??rxPostRxUpdates?relay
    945            }
    946          }
   \                     ??rxDone_1:
   \   000029   D083         POP     DPH
   \   00002B   D082         POP     DPL
   \   00002D   02....       LJMP    ?BRET
   \   000030                REQUIRE RFST
    947          
    948          
    949          /**************************************************************************************************
    950           * @fn          macRxAckTxDoneCallback
    951           *
    952           * @brief       Function called when the outoing ACK has completed transmitting.
    953           *
    954           * @param       none
    955           *
    956           * @return      none
    957           **************************************************************************************************
    958           */

   \                                 In  segment BANKED_CODE, align 1, keep-with-next
    959          void macRxAckTxDoneCallback(void)
   \                     macRxAckTxDoneCallback:
    960          {
   \   000000   C082         PUSH    DPL
   \   000002   C083         PUSH    DPH
   \   000004                ; Saved register size: 2
   \   000004                ; Auto size: 0
    961            macRxOutgoingAckFlag = 0;
   \   000004   7400         MOV     A,#0x0
   \   000006   90....       MOV     DPTR,#macRxOutgoingAckFlag
   \   000009   F0           MOVX    @DPTR,A
    962          
    963            /*
    964             *  With certain interrupt priorities and timing conditions, it is possible this callback
    965             *  could be executed before the primary receive logic completes.  To prevent this, the
    966             *  post updates are only executed if receive logic is no longer active.  In the case the
    967             *  post updates are not executed here, they will execute when the main receive logic
    968             *  completes.
    969             */  
    970            if (!macRxActive)
   \   00000A   90....       MOV     DPTR,#macRxActive
   \   00000D   E0           MOVX    A,@DPTR
   \   00000E   7003         JNZ     ??macRxAckTxDoneCallback_0
    971            {
    972              rxPostRxUpdates();
   \   000010                ; Setup parameters for call to function rxPostRxUpdates
   \   000010   12....       LCALL   ??rxPostRxUpdates?relay
    973            }
    974          }
   \                     ??macRxAckTxDoneCallback_0:
   \   000013   D083         POP     DPH
   \   000015   D082         POP     DPL
   \   000017   02....       LJMP    ?BRET
    975          
    976          
    977          /*=================================================================================================
    978           * @fn          rxPostRxUpdates
    979           *
    980           * @brief       Updates that need to be performed once receive is complete.
    981           *
    982           *              It is not fatal to execute this function if somehow receive is active.  Under
    983           *              certain timing/interrupt conditions a new receive may have started before this
    984           *              function executes.  This should happen very rarely (if it happens at all) and
    985           *              would cause no problems.
    986           *
    987           * @param       none
    988           *
    989           * @return      none
    990           *=================================================================================================
    991           */

   \                                 In  segment BANKED_CODE, align 1, keep-with-next
    992          static void rxPostRxUpdates(void)
   \                     rxPostRxUpdates:
    993          {
   \   000000   C082         PUSH    DPL
   \   000002   C083         PUSH    DPH
   \   000004                ; Saved register size: 2
   \   000004                ; Auto size: 0
    994            /* turn off receiver if permitted */
    995            macRxOffRequest();
   \   000004                ; Setup parameters for call to function macRxOffRequest
   \   000004   12....       LCALL   ??macRxOffRequest?relay
    996            
    997            /* update the transmit power, update may have been blocked by transmit of outgoing ACK */
    998            macRadioUpdateTxPower();
   \   000007                ; Setup parameters for call to function macRadioUpdateTxPower
   \   000007   12....       LCALL   ??macRadioUpdateTxPower?relay
    999            
   1000            /* initiate and transmit that was queued during receive */
   1001            macTxStartQueuedFrame();
   \   00000A                ; Setup parameters for call to function macTxStartQueuedFrame
   \   00000A   12....       LCALL   ??macTxStartQueuedFrame?relay
   1002          }
   \   00000D   D083         POP     DPH
   \   00000F   D082         POP     DPL
   \   000011   02....       LJMP    ?BRET
   1003          
   1004          
   1005          /*=================================================================================================
   1006           * @fn          rxDiscardFrame
   1007           *
   1008           * @brief       Initializes for discarding a packet.  Must be called before ACK is strobed.
   1009           *
   1010           * @param       none
   1011           *
   1012           * @return      none
   1013           *=================================================================================================
   1014           */

   \                                 In  segment BANKED_CODE, align 1, keep-with-next
   1015          static void rxDiscardFrame(void)
   \                     rxDiscardFrame:
   1016          {
   \   000000   C082         PUSH    DPL
   \   000002   C083         PUSH    DPH
   \   000004                ; Saved register size: 2
   \   000004                ; Auto size: 0
   1017            MAC_ASSERT(pFuncRxState == &rxStartIsr); /* illegal state for calling discard frame function */
   \   000004   90....       MOV     DPTR,#pFuncRxState
   \   000007   E0           MOVX    A,@DPTR
   \   000008   64..         XRL     A,#(??rxStartIsr?relay & 0xff)
   \   00000A   7004         JNZ     ??rxDiscardFrame_0
   \   00000C   A3           INC     DPTR
   \   00000D   E0           MOVX    A,@DPTR
   \   00000E   64..         XRL     A,#((??rxStartIsr?relay >> 8) & 0xff)
   \                     ??rxDiscardFrame_0:
   \   000010   6003         JZ      ??rxDiscardFrame_1
   \   000012                ; Setup parameters for call to function halAssertHandler
   \   000012   12....       LCALL   ??halAssertHandler?relay
   1018          
   1019            if (rxUnreadLen == 0)
   \                     ??rxDiscardFrame_1:
   \   000015   90....       MOV     DPTR,#rxUnreadLen
   \   000018   E0           MOVX    A,@DPTR
   \   000019   7005         JNZ     ??rxDiscardFrame_2
   1020            {
   1021              rxDone();
   \   00001B                ; Setup parameters for call to function rxDone
   \   00001B   12....       LCALL   ??rxDone?relay
   \   00001E   802B         SJMP    ??rxDiscardFrame_3
   1022            }
   1023            else
   1024            {
   1025              rxNextLen = MIN(rxUnreadLen, MAX_PAYLOAD_BYTES_READ_PER_INTERRUPT);
   \                     ??rxDiscardFrame_2:
   \   000020   90....       MOV     DPTR,#rxUnreadLen
   \   000023   E0           MOVX    A,@DPTR
   \   000024   C3           CLR     C
   \   000025   9410         SUBB    A,#0x10
   \   000027   5007         JNC     ??rxDiscardFrame_4
   \   000029   90....       MOV     DPTR,#rxUnreadLen
   \   00002C   E0           MOVX    A,@DPTR
   \   00002D   FA           MOV     R2,A
   \   00002E   8002         SJMP    ??rxDiscardFrame_5
   \                     ??rxDiscardFrame_4:
   \   000030   7A10         MOV     R2,#0x10
   \                     ??rxDiscardFrame_5:
   \   000032   EA           MOV     A,R2
   \   000033   90....       MOV     DPTR,#rxNextLen
   \   000036   F0           MOVX    @DPTR,A
   1026              MAC_RADIO_SET_RX_THRESHOLD(rxNextLen);
   \   000037   90....       MOV     DPTR,#rxNextLen
   \   00003A   E0           MOVX    A,@DPTR
   \   00003B   24FF         ADD     A,#-0x1
   \   00003D   90DF4F       MOV     DPTR,#-0x20b1
   \   000040   F0           MOVX    @DPTR,A
   1027              pFuncRxState = &rxDiscardIsr;
   \   000041   90....       MOV     DPTR,#pFuncRxState
   \   000044   74..         MOV     A,#(??rxDiscardIsr?relay & 0xff)
   \   000046   F0           MOVX    @DPTR,A
   \   000047   A3           INC     DPTR
   \   000048   74..         MOV     A,#((??rxDiscardIsr?relay >> 8) & 0xff)
   \   00004A   F0           MOVX    @DPTR,A
   1028            }
   1029          }
   \                     ??rxDiscardFrame_3:
   \   00004B   D083         POP     DPH
   \   00004D   D082         POP     DPL
   \   00004F   02....       LJMP    ?BRET
   1030          
   1031          
   1032          /*=================================================================================================
   1033           * @fn          rxDiscardIsr
   1034           *
   1035           * @brief       Receive ISR state for discarding a packet.
   1036           *
   1037           * @param       none
   1038           *
   1039           * @return      none
   1040           *=================================================================================================
   1041           */

   \                                 In  segment BANKED_CODE, align 1, keep-with-next
   1042          static void rxDiscardIsr(void)
   \                     rxDiscardIsr:
   1043          {
   \   000000   C082         PUSH    DPL
   \   000002   C083         PUSH    DPH
   \   000004                ; Saved register size: 2
   \   000004                ; Auto size: 16
   \   000004   74F0         MOV     A,#-0x10
   \   000006   12....       LCALL   ?ALLOC_XSTACK8
   1044            uint8 buf[MAX_PAYLOAD_BYTES_READ_PER_INTERRUPT];
   1045          
   1046            MAC_RADIO_READ_RX_FIFO(buf, rxNextLen);
   \   000009                ; Setup parameters for call to function macMemReadRxFifo
   \   000009   90....       MOV     DPTR,#rxNextLen
   \   00000C   E0           MOVX    A,@DPTR
   \   00000D   F9           MOV     R1,A
   \   00000E   85..82       MOV     DPL,?XSP + 0
   \   000011   85..83       MOV     DPH,?XSP + 1
   \   000014   AA82         MOV     R2,DPL
   \   000016   AB83         MOV     R3,DPH
   \   000018   12....       LCALL   ??macMemReadRxFifo?relay
   1047            rxUnreadLen -= rxNextLen;
   \   00001B   90....       MOV     DPTR,#rxNextLen
   \   00001E   E0           MOVX    A,@DPTR
   \   00001F   FA           MOV     R2,A
   \   000020   90....       MOV     DPTR,#rxUnreadLen
   \   000023   E0           MOVX    A,@DPTR
   \   000024   C3           CLR     C
   \   000025   9A           SUBB    A,R2
   \   000026   F0           MOVX    @DPTR,A
   1048          
   1049            /* read out and discard bytes until all bytes of packet are disposed of */
   1050            if (rxUnreadLen != 0)
   \   000027   90....       MOV     DPTR,#rxUnreadLen
   \   00002A   E0           MOVX    A,@DPTR
   \   00002B   601D         JZ      ??rxDiscardIsr_0
   1051            {
   1052              if (rxUnreadLen < MAX_PAYLOAD_BYTES_READ_PER_INTERRUPT)
   \   00002D   90....       MOV     DPTR,#rxUnreadLen
   \   000030   E0           MOVX    A,@DPTR
   \   000031   C3           CLR     C
   \   000032   9410         SUBB    A,#0x10
   \   000034   5027         JNC     ??rxDiscardIsr_1
   1053              {
   1054                rxNextLen = rxUnreadLen;
   \   000036   90....       MOV     DPTR,#rxUnreadLen
   \   000039   E0           MOVX    A,@DPTR
   \   00003A   90....       MOV     DPTR,#rxNextLen
   \   00003D   F0           MOVX    @DPTR,A
   1055                MAC_RADIO_SET_RX_THRESHOLD(rxNextLen);
   \   00003E   90....       MOV     DPTR,#rxNextLen
   \   000041   E0           MOVX    A,@DPTR
   \   000042   24FF         ADD     A,#-0x1
   \   000044   90DF4F       MOV     DPTR,#-0x20b1
   \   000047   F0           MOVX    @DPTR,A
   \   000048   8013         SJMP    ??rxDiscardIsr_1
   1056              }
   1057            }
   1058            else
   1059            {
   1060              /* reset threshold level, reset receive state, and complete receive logic */
   1061              MAC_RADIO_SET_RX_THRESHOLD(RX_THRESHOLD_START_LEN);
   \                     ??rxDiscardIsr_0:
   \   00004A   7405         MOV     A,#0x5
   \   00004C   90DF4F       MOV     DPTR,#-0x20b1
   \   00004F   F0           MOVX    @DPTR,A
   1062              pFuncRxState = &rxStartIsr;
   \   000050   90....       MOV     DPTR,#pFuncRxState
   \   000053   74..         MOV     A,#(??rxStartIsr?relay & 0xff)
   \   000055   F0           MOVX    @DPTR,A
   \   000056   A3           INC     DPTR
   \   000057   74..         MOV     A,#((??rxStartIsr?relay >> 8) & 0xff)
   \   000059   F0           MOVX    @DPTR,A
   1063              rxDone();
   \   00005A                ; Setup parameters for call to function rxDone
   \   00005A   12....       LCALL   ??rxDone?relay
   1064            }
   1065          }
   \                     ??rxDiscardIsr_1:
   \   00005D   7410         MOV     A,#0x10
   \   00005F   12....       LCALL   ?DEALLOC_XSTACK8
   \   000062   D083         POP     DPH
   \   000064   D082         POP     DPL
   \   000066   02....       LJMP    ?BRET
   1066          
   1067          
   1068          /**************************************************************************************************
   1069           * @fn          macRxPromiscuousMode
   1070           *
   1071           * @brief       Sets promiscuous mode - enabling or disabling it.
   1072           *
   1073           * @param       none
   1074           *
   1075           * @return      none
   1076           **************************************************************************************************
   1077           */

   \                                 In  segment BANKED_CODE, align 1, keep-with-next
   1078          void macRxPromiscuousMode(uint8 mode)
   \                     macRxPromiscuousMode:
   1079          {
   \   000000   74F7         MOV     A,#-0x9
   \   000002   12....       LCALL   ?BANKED_ENTER_XDATA
   \   000005                ; Saved register size: 9
   \   000005                ; Auto size: 0
   \   000005   E9           MOV     A,R1
   \   000006   FE           MOV     R6,A
   1080            rxPromiscuousMode = mode;
   \   000007   EE           MOV     A,R6
   \   000008   90....       MOV     DPTR,#rxPromiscuousMode
   \   00000B   F0           MOVX    @DPTR,A
   1081          
   1082            if (rxPromiscuousMode == MAC_PROMISCUOUS_MODE_OFF)
   \   00000C   90....       MOV     DPTR,#rxPromiscuousMode
   \   00000F   E0           MOVX    A,@DPTR
   \   000010   7009         JNZ     ??macRxPromiscuousMode_0
   1083            {
   1084                MAC_RADIO_TURN_ON_RX_FRAME_FILTERING();
   \   000012   90DF02       MOV     DPTR,#-0x20fe
   \   000015   E0           MOVX    A,@DPTR
   \   000016   D2E3         SETB    0xE0 /* A   */.3
   \   000018   F0           MOVX    @DPTR,A
   \   000019   8014         SJMP    ??macRxPromiscuousMode_1
   1085            }
   1086            else
   1087            {
   1088              MAC_ASSERT((mode == MAC_PROMISCUOUS_MODE_WITH_BAD_CRC)   ||
   1089                         (mode == MAC_PROMISCUOUS_MODE_COMPLIANT));  /* invalid mode */
   \                     ??macRxPromiscuousMode_0:
   \   00001B   7402         MOV     A,#0x2
   \   00001D   6E           XRL     A,R6
   \   00001E   6008         JZ      ??macRxPromiscuousMode_2
   \   000020   7401         MOV     A,#0x1
   \   000022   6E           XRL     A,R6
   \   000023   6003         JZ      ??macRxPromiscuousMode_2
   \   000025                ; Setup parameters for call to function halAssertHandler
   \   000025   12....       LCALL   ??halAssertHandler?relay
   1090          
   1091              MAC_RADIO_TURN_OFF_RX_FRAME_FILTERING();
   \                     ??macRxPromiscuousMode_2:
   \   000028   90DF02       MOV     DPTR,#-0x20fe
   \   00002B   E0           MOVX    A,@DPTR
   \   00002C   C2E3         CLR     0xE0 /* A   */.3
   \   00002E   F0           MOVX    @DPTR,A
   1092            }
   1093          }
   \                     ??macRxPromiscuousMode_1:
   \   00002F   7F01         MOV     R7,#0x1
   \   000031   02....       LJMP    ?BANKED_LEAVE_XDATA

   \                                 In  segment BANK_RELAYS, align 1
   \                     ??macRxInit?relay:
   \   000000   12....       LCALL   ?BDISPATCH
   \   000003   ......       DC24    macRxInit

   \                                 In  segment BANK_RELAYS, align 1
   \                     ??macRxRadioPowerUpInit?relay:
   \   000000   12....       LCALL   ?BDISPATCH
   \   000003   ......       DC24    macRxRadioPowerUpInit

   \                                 In  segment BANK_RELAYS, align 1
   \                     ??macRxTxReset?relay:
   \   000000   12....       LCALL   ?BDISPATCH
   \   000003   ......       DC24    macRxTxReset

   \                                 In  segment BANK_RELAYS, align 1
   \                     ??macRxHaltCleanup?relay:
   \   000000   12....       LCALL   ?BDISPATCH
   \   000003   ......       DC24    macRxHaltCleanup

   \                                 In  segment BANK_RELAYS, align 1
   \                     ??rxHaltCleanupFinalStep?relay:
   \   000000   12....       LCALL   ?BDISPATCH
   \   000003   ......       DC24    rxHaltCleanupFinalStep

   \                                 In  segment BANK_RELAYS, align 1
   \                     ??macRxThresholdIsr?relay:
   \   000000   12....       LCALL   ?BDISPATCH
   \   000003   ......       DC24    macRxThresholdIsr

   \                                 In  segment BANK_RELAYS, align 1
   \                     ??rxStartIsr?relay:
   \   000000   12....       LCALL   ?BDISPATCH
   \   000003   ......       DC24    rxStartIsr

   \                                 In  segment BANK_RELAYS, align 1
   \                     ??rxAddrIsr?relay:
   \   000000   12....       LCALL   ?BDISPATCH
   \   000003   ......       DC24    rxAddrIsr

   \                                 In  segment BANK_RELAYS, align 1
   \                     ??rxPrepPayload?relay:
   \   000000   12....       LCALL   ?BDISPATCH
   \   000003   ......       DC24    rxPrepPayload

   \                                 In  segment BANK_RELAYS, align 1
   \                     ??rxPayloadIsr?relay:
   \   000000   12....       LCALL   ?BDISPATCH
   \   000003   ......       DC24    rxPayloadIsr

   \                                 In  segment BANK_RELAYS, align 1
   \                     ??rxFcsIsr?relay:
   \   000000   12....       LCALL   ?BDISPATCH
   \   000003   ......       DC24    rxFcsIsr

   \                                 In  segment BANK_RELAYS, align 1
   \                     ??rxDone?relay:
   \   000000   12....       LCALL   ?BDISPATCH
   \   000003   ......       DC24    rxDone

   \                                 In  segment BANK_RELAYS, align 1
   \                     ??macRxAckTxDoneCallback?relay:
   \   000000   12....       LCALL   ?BDISPATCH
   \   000003   ......       DC24    macRxAckTxDoneCallback

   \                                 In  segment BANK_RELAYS, align 1
   \                     ??rxPostRxUpdates?relay:
   \   000000   12....       LCALL   ?BDISPATCH
   \   000003   ......       DC24    rxPostRxUpdates

   \                                 In  segment BANK_RELAYS, align 1
   \                     ??rxDiscardFrame?relay:
   \   000000   12....       LCALL   ?BDISPATCH
   \   000003   ......       DC24    rxDiscardFrame

   \                                 In  segment BANK_RELAYS, align 1
   \                     ??rxDiscardIsr?relay:
   \   000000   12....       LCALL   ?BDISPATCH
   \   000003   ......       DC24    rxDiscardIsr

   \                                 In  segment BANK_RELAYS, align 1
   \                     ??macRxPromiscuousMode?relay:
   \   000000   12....       LCALL   ?BDISPATCH
   \   000003   ......       DC24    macRxPromiscuousMode
   1094          
   1095          
   1096          
   1097          /**************************************************************************************************
   1098           *                                  Compile Time Integrity Checks
   1099           **************************************************************************************************
   1100           */
   1101          
   1102          /* check for changes to the spec that would affect the source code */
   1103          #if ((MAC_A_MAX_PHY_PACKET_SIZE   !=  0x7F )   ||  \
   1104               (MAC_FCF_FIELD_LEN           !=  2    )   ||  \
   1105               (MAC_FCF_FRAME_TYPE_POS      !=  0    )   ||  \
   1106               (MAC_FCF_FRAME_PENDING_POS   !=  4    )   ||  \
   1107               (MAC_FCF_ACK_REQUEST_POS     !=  5    )   ||  \
   1108               (MAC_FCF_INTRA_PAN_POS       !=  6    )   ||  \
   1109               (MAC_FCF_DST_ADDR_MODE_POS   !=  10   )   ||  \
   1110               (MAC_FCF_FRAME_VERSION_POS   !=  12   )   ||  \
   1111               (MAC_FCF_SRC_ADDR_MODE_POS   !=  14   ))
   1112          #error "ERROR!  Change to the spec that requires modification of source code."
   1113          #endif
   1114          
   1115          /* check for changes to the internal flags format */
   1116          #if ((MAC_RX_FLAG_VERSION      !=  0x03)  ||  \
   1117               (MAC_RX_FLAG_ACK_PENDING  !=  0x04)  ||  \
   1118               (MAC_RX_FLAG_SECURITY     !=  0x08)  ||  \
   1119               (MAC_RX_FLAG_PENDING      !=  0x10)  ||  \
   1120               (MAC_RX_FLAG_ACK_REQUEST  !=  0x20)  ||  \
   1121               (MAC_RX_FLAG_INTRA_PAN    !=  0x40))
   1122          #error "ERROR!  Change to the internal RX flags format.  Requires modification of source code."
   1123          #endif
   1124          
   1125          /* validate CRC OK bit optimization */
   1126          #if (MAC_RX_FLAG_CRC_OK != PROPRIETARY_FCS_CRC_OK_BIT)
   1127          #error "ERROR!  Optimization relies on these bits having the same position."
   1128          #endif
   1129          
   1130          #if (MAC_RX_ACTIVE_NO_ACTIVITY != 0x00)
   1131          #error "ERROR! Zero is reserved value of macRxActive. Allows boolean operations, e.g !macRxActive."
   1132          #endif
   1133          
   1134          #if (MAC_PROMISCUOUS_MODE_OFF != 0x00)
   1135          #error "ERROR! Zero is reserved value of rxPromiscuousMode. Allows boolean operations, e.g !rxPromiscuousMode."
   1136          #endif
   1137          
   1138          
   1139          /**************************************************************************************************
   1140          */

   Maximum stack usage in bytes:

     Function                       ISTACK PSTACK XSTACK
     --------                       ------ ------ ------
     macRxAckTxDoneCallback             2      0      0
       -> rxPostRxUpdates               4      0      0
     macRxHaltCleanup                   2      0      0
       -> rxHaltCleanupFinalStep        4      0      0
     macRxInit                          2      0      0
     macRxPromiscuousMode               0      0      9
       -> halAssertHandler              0      0     18
     macRxRadioPowerUpInit              2      0      0
     macRxThresholdIsr                  2      0      0
       -> rxHaltCleanupFinalStep        4      0      0
     macRxTxReset                       2      0      0
       -> macRxHardDisable              4      0      0
       -> macRxPromiscuousMode          4      0      0
     rxAddrIsr                          0      0     30
       -> halAssertHandler              0      0     60
       -> macMemReadRxFifo              0      0     60
       -> sAddrExtCpy                   0      0     60
       -> sAddrExtCpy                   0      0     60
       -> rxPrepPayload                 0      0     60
     rxDiscardFrame                     2      0     17
       -> halAssertHandler              4      0      0
       -> rxDone                        4      0      0
     rxDiscardIsr                       2      0     16
       -> macMemReadRxFifo              4      0     32
       -> rxDone                        4      0     32
     rxDone                             2      0     17
       -> rxPostRxUpdates               4      0      0
     rxFcsIsr                           1      0      9
       -> macMemReadRxFifo              0      0     18
       -> macRxOffRequest               0      0     18
       -> macRadioComputeLQI            0      0     18
       -> macRxCompleteCallback         0      0     18
       -> macDataRxMemFree              0      0     18
       -> rxDone                        0      0     18
     rxHaltCleanupFinalStep             2      0      0
       -> macDataRxMemFree              4      0      0
       -> rxPostRxUpdates               4      0      0
     rxPayloadIsr                       2      0      0
       -> macMemReadRxFifo              4      0      0
       -> rxPrepPayload                 4      0      0
     rxPostRxUpdates                    2      0     17
       -> macRxOffRequest               4      0      0
       -> macRadioUpdateTxPower         4      0      0
       -> macTxStartQueuedFrame         4      0      0
     rxPrepPayload                      2      0     30
     rxStartIsr                         1      0     17
       -> halAssertHandler              0      0     34
       -> rxPostRxUpdates               0      0     34
       -> macCspForceTxDoneIfPending
                                        0      0     34
       -> macMemReadRxFifo              0      0     34
       -> rxDone                        0      0     34
       -> macMemReadRxFifo              0      0     34
       -> halAssertHandler              0      0     34
       -> macRadioComputeLQI            0      0     34
       -> macTxAckReceivedCallback      0      0     34
       -> macTxAckNotReceivedCallback
                                        0      0     34
       -> rxDone                        0      0     34
       -> macTxAckNotReceivedCallback
                                        0      0     34
       -> rxDiscardFrame                0      0     34
       -> rxDone                        0      0     34
       -> rxDiscardFrame                0      0     34
       -> macDataRxMemAlloc             0      0     34
       -> rxDiscardFrame                0      0     34
       -> macRxCheckPendingCallback     0      0     34
       -> macMcuOverflowCapture         0      0     34
       -> macMcuTimerCapture            0      0     34
       -> rxPrepPayload                 0      0     34


   Segment part sizes:

     Function/Label                 Bytes
     --------------                 -----
     RFIM                              1
     S1CON                             1
     _A_IEN0                           1
     RFST                              1
     RFIF                              1
     macRxActive                       1
     macRxFilter                       1
     macRxOutgoingAckFlag              1
     macRxAddrLen                      4
     pFuncRxState                      2
     pRxBuf                            2
     rxBuf                             4
     rxUnreadLen                       1
     rxNextLen                         1
     rxPayloadLen                      1
     rxFilter                          1
     rxPromiscuousMode                 1
     rxIsrActiveFlag                   1
     rxResetFlag                       1
     macRxInit                        67
     macRxRadioPowerUpInit            23
     macRxTxReset                     25
     macRxHaltCleanup                 32
     rxHaltCleanupFinalStep          101
     macRxThresholdIsr                58
     rxStartIsr                     1014
     rxAddrIsr                       416
     rxPrepPayload                    68
     rxPayloadIsr                     97
     rxFcsIsr                        256
     rxDone                           48
     macRxAckTxDoneCallback           26
     rxPostRxUpdates                  20
     rxDiscardFrame                   82
     rxDiscardIsr                    105
     macRxPromiscuousMode             52
     ??macRxInit?relay                 6
     ??macRxRadioPowerUpInit?relay     6
     ??macRxTxReset?relay              6
     ??macRxHaltCleanup?relay          6
     ??rxHaltCleanupFinalStep?relay    6
     ??macRxThresholdIsr?relay         6
     ??rxStartIsr?relay                6
     ??rxAddrIsr?relay                 6
     ??rxPrepPayload?relay             6
     ??rxPayloadIsr?relay              6
     ??rxFcsIsr?relay                  6
     ??rxDone?relay                    6
     ??macRxAckTxDoneCallback?relay    6
     ??rxPostRxUpdates?relay           6
     ??rxDiscardFrame?relay            6
     ??rxDiscardIsr?relay              6
     ??macRxPromiscuousMode?relay      6

 
 2 490 bytes in segment BANKED_CODE
   102 bytes in segment BANK_RELAYS
     4 bytes in segment CODE_C
     5 bytes in segment SFR_AN
    18 bytes in segment XDATA_Z
 
 2 596 bytes of CODE  memory
     0 bytes of DATA  memory (+ 5 bytes shared)
    18 bytes of XDATA memory

Errors: none
Warnings: none
