///////////////////////////////////////////////////////////////////////////////
//                                                                            /
// IAR 8051 C/C++ Compiler V7.30B/W32                   03/Apr/2013  14:45:15 /
// Copyright 2004-2007 IAR Systems. All rights reserved.                      /
//                                                                            /
//    Core               =  plain                                             /
//    Code model         =  banked                                            /
//    Data model         =  large                                             /
//    Calling convention =  xdata reentrant                                   /
//    Constant location  =  data                                              /
//    Dptr setup         =  1,16                                              /
//    Source file        =  C:\Texas Instruments\ZStack-1.4.3-1.2.1\Component /
//                          s\stack\nwk\nwk_globals.c                         /
//    Command line       =  -f "C:\Texas Instruments\ZStack-1.4.3-1.2.1\Proje /
//                          cts\zstack\Samples\cc2430-zstack-adxl345 -        /
//                          2\CC2430DB\..\..\..\Tools\CC2430DB\f8wEndev.cfg"  /
//                          (-DCPU32MHZ -DFORCE_MAC_NEAR -DROOT=__near_func   /
//                          -DMAC_OPT_FFD=0 -DBLINK_LEDS "-DCONST=const       /
//                          __code" -DGENERIC=__generic) -f "C:\Texas         /
//                          Instruments\ZStack-1.4.3-1.2.1\Projects\zstack\Sa /
//                          mples\cc2430-zstack-adxl345 -                     /
//                          2\CC2430DB\..\..\..\Tools\CC2430DB\f8wConfig.cfg" /
//                           (-DSECURE=0 -DDEFAULT_CHANLIST=0x00000800        /
//                          -DZDAPP_CONFIG_PAN_ID=0xFFFF                      /
//                          -DNWK_START_DELAY=100 -DEXTENDED_JOINING_RANDOM_M /
//                          ASK=0x007F -DBEACON_REQUEST_DELAY=100             /
//                          -DBEACON_REQ_DELAY_MASK=0x00FF                    /
//                          -DROUTE_EXPIRY_TIME=30 -DAPSC_ACK_WAIT_DURATION_P /
//                          OLLED=3000 -DNWK_INDIRECT_MSG_TIMEOUT=7           /
//                          -DMAX_RREQ_ENTRIES=10 -DAPSC_MAX_FRAME_RETRIES=3  /
//                          -DNWK_MAX_DATA_RETRIES=2                          /
//                          -DMAX_POLL_FAILURE_RETRIES=2 -DMAX_BCAST=9        /
//                          -DAPS_MAX_GROUPS=16 -DMAX_RTG_ENTRIES=20          /
//                          -DNWK_MAX_BINDING_ENTRIES=10                      /
//                          -DMAX_BINDING_CLUSTER_IDS=5                       /
//                          "-DDEFAULT_KEY={0x01, 0x03, 0x05, 0x07, 0x09,     /
//                          0x0B, 0x0D, 0x0F, 0x00, 0x02, 0x04, 0x06, 0x08,   /
//                          0x0A, 0x0C, 0x0D}" -DRFD_RCVC_ALWAYS_ON=FALSE     /
//                          -DPOLL_RATE=1000 -DQUEUED_POLL_RATE=100           /
//                          -DRESPONSE_POLL_RATE=100) -DREJOIN_POLL_RATE=440  /
//                          "C:\Texas Instruments\ZStack-1.4.3-1.2.1\Componen /
//                          ts\stack\nwk\nwk_globals.c" -D CC2430EB -D        /
//                          AXD_END -D AXD_END_C -D NWK_AUTO_POLL -D          /
//                          REFLECTOR -D xZTOOL_P1 -D xMT_TASK -D             /
//                          xMT_ZDO_FUNC -D xLCD_SUPPORTED=DEBUG -D           /
//                          xPOWER_SAVING -lC "C:\Texas                       /
//                          Instruments\ZStack-1.4.3-1.2.1\Projects\zstack\Sa /
//                          mples\cc2430-zstack-adxl345 -                     /
//                          2\CC2430DB\EndDevice3EB\List\" -lA "C:\Texas      /
//                          Instruments\ZStack-1.4.3-1.2.1\Projects\zstack\Sa /
//                          mples\cc2430-zstack-adxl345 -                     /
//                          2\CC2430DB\EndDevice3EB\List\" --diag_suppress    /
//                          Pe001,Pa010 --diag_remark pe550 -o "C:\Texas      /
//                          Instruments\ZStack-1.4.3-1.2.1\Projects\zstack\Sa /
//                          mples\cc2430-zstack-adxl345 -                     /
//                          2\CC2430DB\EndDevice3EB\Obj\" -e                  /
//                          --require_prototypes -z2 --no_cse --no_unroll     /
//                          --no_inline --no_code_motion --no_tbaa --debug    /
//                          --core=plain --dptr=16,1 --data_model=large       /
//                          --code_model=banked --calling_convention=xdata_re /
//                          entrant --place_constants=data --nr_virtual_regs  /
//                          8 -I "C:\Texas Instruments\ZStack-1.4.3-1.2.1\Pro /
//                          jects\zstack\Samples\cc2430-zstack-adxl345 -      /
//                          2\CC2430DB\" -I "C:\Texas                         /
//                          Instruments\ZStack-1.4.3-1.2.1\Projects\zstack\Sa /
//                          mples\cc2430-zstack-adxl345 -                     /
//                          2\CC2430DB\..\SOURCE\" -I "C:\Texas               /
//                          Instruments\ZStack-1.4.3-1.2.1\Projects\zstack\Sa /
//                          mples\cc2430-zstack-adxl345 -                     /
//                          2\CC2430DB\..\Drivers\" -I "C:\Texas              /
//                          Instruments\ZStack-1.4.3-1.2.1\Projects\zstack\Sa /
//                          mples\cc2430-zstack-adxl345 -                     /
//                          2\CC2430DB\..\..\..\ZMAIN\TI2430DB\" -I           /
//                          "C:\Texas Instruments\ZStack-1.4.3-1.2.1\Projects /
//                          \zstack\Samples\cc2430-zstack-adxl345 -           /
//                          2\CC2430DB\..\..\..\..\..\COMPONENTS\MT\" -I      /
//                          "C:\Texas Instruments\ZStack-1.4.3-1.2.1\Projects /
//                          \zstack\Samples\cc2430-zstack-adxl345 -           /
//                          2\CC2430DB\..\..\..\..\..\COMPONENTS\HAL\INCLUDE\ /
//                          " -I "C:\Texas Instruments\ZStack-1.4.3-1.2.1\Pro /
//                          jects\zstack\Samples\cc2430-zstack-adxl345 -      /
//                          2\CC2430DB\..\..\..\..\..\COMPONENTS\HAL\TARGET\C /
//                          C2430EB\" -I "C:\Texas Instruments\ZStack-1.4.3-1 /
//                          .2.1\Projects\zstack\Samples\cc2430-zstack-adxl34 /
//                          5 - 2\CC2430DB\..\..\..\..\..\COMPONENTS\OSAL\MCU /
//                          \CCSOC\" -I "C:\Texas Instruments\ZStack-1.4.3-1. /
//                          2.1\Projects\zstack\Samples\cc2430-zstack-adxl345 /
//                           - 2\CC2430DB\..\..\..\..\..\COMPONENTS\OSAL\INCL /
//                          UDE\" -I "C:\Texas Instruments\ZStack-1.4.3-1.2.1 /
//                          \Projects\zstack\Samples\cc2430-zstack-adxl345 -  /
//                          2\CC2430DB\..\..\..\..\..\COMPONENTS\STACK\AF\"   /
//                          -I "C:\Texas Instruments\ZStack-1.4.3-1.2.1\Proje /
//                          cts\zstack\Samples\cc2430-zstack-adxl345 -        /
//                          2\CC2430DB\..\..\..\..\..\COMPONENTS\STACK\NWK\"  /
//                          -I "C:\Texas Instruments\ZStack-1.4.3-1.2.1\Proje /
//                          cts\zstack\Samples\cc2430-zstack-adxl345 -        /
//                          2\CC2430DB\..\..\..\..\..\COMPONENTS\STACK\SEC\"  /
//                          -I "C:\Texas Instruments\ZStack-1.4.3-1.2.1\Proje /
//                          cts\zstack\Samples\cc2430-zstack-adxl345 -        /
//                          2\CC2430DB\..\..\..\..\..\COMPONENTS\STACK\SYS\"  /
//                          -I "C:\Texas Instruments\ZStack-1.4.3-1.2.1\Proje /
//                          cts\zstack\Samples\cc2430-zstack-adxl345 -        /
//                          2\CC2430DB\..\..\..\..\..\COMPONENTS\STACK\ZDO\"  /
//                          -I "C:\Texas Instruments\ZStack-1.4.3-1.2.1\Proje /
//                          cts\zstack\Samples\cc2430-zstack-adxl345 -        /
//                          2\CC2430DB\..\..\..\..\..\COMPONENTS\ZMAC\F8W\"   /
//                          -I "C:\Texas Instruments\ZStack-1.4.3-1.2.1\Proje /
//                          cts\zstack\Samples\cc2430-zstack-adxl345 -        /
//                          2\CC2430DB\..\..\..\..\..\COMPONENTS\ZMAC\" -I    /
//                          "C:\Texas Instruments\ZStack-1.4.3-1.2.1\Projects /
//                          \zstack\Samples\cc2430-zstack-adxl345 -           /
//                          2\CC2430DB\..\..\..\..\..\COMPONENTS\SERVICES\SAD /
//                          DR\" -I "C:\Texas Instruments\ZStack-1.4.3-1.2.1\ /
//                          Projects\zstack\Samples\cc2430-zstack-adxl345 -   /
//                          2\CC2430DB\..\..\..\..\..\COMPONENTS\SERVICES\SDA /
//                          TA\" -I "C:\Texas Instruments\ZStack-1.4.3-1.2.1\ /
//                          Projects\zstack\Samples\cc2430-zstack-adxl345 -   /
//                          2\CC2430DB\..\..\..\..\..\COMPONENTS\MAC\INCLUDE\ /
//                          " -I "C:\Texas Instruments\ZStack-1.4.3-1.2.1\Pro /
//                          jects\zstack\Samples\cc2430-zstack-adxl345 -      /
//                          2\CC2430DB\..\..\..\..\..\COMPONENTS\MAC\HIGH_LEV /
//                          EL\" -I "C:\Texas Instruments\ZStack-1.4.3-1.2.1\ /
//                          Projects\zstack\Samples\cc2430-zstack-adxl345 -   /
//                          2\CC2430DB\..\..\..\..\..\COMPONENTS\MAC\LOW_LEVE /
//                          L\SRF03\" -I "C:\Texas Instruments\ZStack-1.4.3-1 /
//                          .2.1\Projects\zstack\Samples\cc2430-zstack-adxl34 /
//                          5 - 2\CC2430DB\..\..\..\..\..\COMPONENTS\MAC\LOW_ /
//                          LEVEL\SRF03\SINGLE_CHIP\" -I "C:\Program          /
//                          Files\IAR Systems\Embedded Workbench 4.0          /
//                          Evaluation version\8051\INC\" -I "C:\Program      /
//                          Files\IAR Systems\Embedded Workbench 4.0          /
//                          Evaluation version\8051\INC\CLIB\"                /
//    List file          =  C:\Texas Instruments\ZStack-1.4.3-1.2.1\Projects\ /
//                          zstack\Samples\cc2430-zstack-adxl345 -            /
//                          2\CC2430DB\EndDevice3EB\List\nwk_globals.s51      /
//                                                                            /
//                                                                            /
///////////////////////////////////////////////////////////////////////////////

        NAME nwk_globals

        RTMODEL "__calling_convention", "xdata_reentrant"
        RTMODEL "__code_model", "banked"
        RTMODEL "__core", "plain"
        RTMODEL "__data_model", "large"
        RTMODEL "__dptr_size", "16"
        RTMODEL "__extended_stack", "disabled"
        RTMODEL "__location_for_constants", "data"
        RTMODEL "__number_of_dptrs", "1"
        RTMODEL "__rt_version", "1"

        RSEG DOVERLAY:DATA:NOROOT(0)
        RSEG IOVERLAY:IDATA:NOROOT(0)
        RSEG ISTACK:IDATA:NOROOT(0)
        RSEG PSTACK:XDATA:NOROOT(0)
        RSEG XSTACK:XDATA:NOROOT(0)

        EXTERN ?BDISPATCH
        EXTERN ?BRET
        EXTERN __INIT_XDATA_I
        EXTERN __INIT_XDATA_Z

        PUBLIC ??NIB_init?relay
        FUNCTION ??NIB_init?relay,0203H
        PUBLIC ??nwk_Status?relay
        FUNCTION ??nwk_Status?relay,0203H
        PUBLIC ??nwk_globals_init?relay
        FUNCTION ??nwk_globals_init?relay,0203H
        PUBLIC BindingTable
        PUBLIC NIB_init
        FUNCTION NIB_init,021203H
        ARGFRAME XSTACK, 0, STACK
        LOCFRAME ISTACK, 2, STACK
        PUBLIC apscMaxWindowSize
        PUBLIC defaultKey
        PUBLIC gAPS_INTERFRAME_DELAY
        PUBLIC gAPS_MAX_GROUPS
        PUBLIC gBIND_REC_SIZE
        PUBLIC gMAX_BINDING_CLUSTER_IDS
        PUBLIC gMAX_NEIGHBOR_ENTRIES
        PUBLIC gMAX_RREQ_ENTRIES
        PUBLIC gMAX_RTG_ENTRIES
        PUBLIC gMAX_UNRESERVED_RTG_ENTRIES
        PUBLIC gMIN_TREE_LINK_COST
        PUBLIC gNWK_INDIRECT_CNT_RTG_TMR
        PUBLIC gNWK_INDIRECT_MSG_MAX_ALL
        PUBLIC gNWK_INDIRECT_MSG_MAX_PER
        PUBLIC gNWK_MAX_BINDING_ENTRIES
        PUBLIC gNWK_MAX_DATABUFS_CONFIRMED
        PUBLIC gNWK_MAX_DATABUFS_SCHEDULED
        PUBLIC gNWK_MAX_DATABUFS_TOTAL
        PUBLIC gNWK_MAX_DATABUFS_WAITING
        PUBLIC gNWK_MAX_DEVICE_LIST
        PUBLIC neighborTable
        PUBLIC nwk_Status
        FUNCTION nwk_Status,0203H
        ARGFRAME XSTACK, 0, STACK
        PUBLIC nwk_globals_init
        FUNCTION nwk_globals_init,021203H
        ARGFRAME XSTACK, 0, STACK
        LOCFRAME ISTACK, 2, STACK
        
        CFI Names cfiNames0
        CFI StackFrame CFA_SP SP DATA
        CFI StackFrame CFA_PSP16 PSP16 XDATA
        CFI StackFrame CFA_XSP16 XSP16 XDATA
        CFI StaticOverlayFrame CFA_IOVERLAY IOVERLAY
        CFI StaticOverlayFrame CFA_DOVERLAY DOVERLAY
        CFI Resource `PSW.CY`:1, `B.BR0`:1, `B.BR1`:1, `B.BR2`:1, `B.BR3`:1
        CFI Resource `B.BR4`:1, `B.BR5`:1, `B.BR6`:1, `B.BR7`:1, `VB.BR8`:1
        CFI Resource `VB.BR9`:1, `VB.BR10`:1, `VB.BR11`:1, `VB.BR12`:1
        CFI Resource `VB.BR13`:1, `VB.BR14`:1, `VB.BR15`:1, VB:8, B:8, A:8
        CFI Resource PSW:8, DPL0:8, DPH0:8, R0:8, R1:8, R2:8, R3:8, R4:8, R5:8
        CFI Resource R6:8, R7:8, V0:8, V1:8, V2:8, V3:8, V4:8, V5:8, V6:8, V7:8
        CFI Resource SP:8, PSPH:8, PSPL:8, PSP16:16, XSPH:8, XSPL:8, XSP16:16
        CFI VirtualResource ?RET:24
        CFI Resource ?BRET_EXT:8
        CFI VirtualResource ?RET_HIGH:8, ?RET_LOW:8
        CFI ResourceParts PSP16 PSPH, PSPL
        CFI ResourceParts XSP16 XSPH, XSPL
        CFI ResourceParts ?RET ?BRET_EXT, ?RET_HIGH, ?RET_LOW
        CFI EndNames cfiNames0
        
        CFI Common cfiCommon0 Using cfiNames0
        CFI CodeAlign 1
        CFI DataAlign -1
        CFI ReturnAddress ?RET CODE
        CFI CFA_DOVERLAY Used
        CFI CFA_IOVERLAY Used
        CFI CFA_SP SP+-3
        CFI CFA_PSP16 PSP16+0
        CFI CFA_XSP16 XSP16+0
        CFI `PSW.CY` SameValue
        CFI `B.BR0` SameValue
        CFI `B.BR1` SameValue
        CFI `B.BR2` SameValue
        CFI `B.BR3` SameValue
        CFI `B.BR4` SameValue
        CFI `B.BR5` SameValue
        CFI `B.BR6` SameValue
        CFI `B.BR7` SameValue
        CFI `VB.BR8` SameValue
        CFI `VB.BR9` SameValue
        CFI `VB.BR10` SameValue
        CFI `VB.BR11` SameValue
        CFI `VB.BR12` SameValue
        CFI `VB.BR13` SameValue
        CFI `VB.BR14` SameValue
        CFI `VB.BR15` SameValue
        CFI VB SameValue
        CFI B Undefined
        CFI A Undefined
        CFI PSW SameValue
        CFI DPL0 SameValue
        CFI DPH0 SameValue
        CFI R0 Undefined
        CFI R1 Undefined
        CFI R2 Undefined
        CFI R3 Undefined
        CFI R4 Undefined
        CFI R5 Undefined
        CFI R6 SameValue
        CFI R7 SameValue
        CFI V0 SameValue
        CFI V1 SameValue
        CFI V2 SameValue
        CFI V3 SameValue
        CFI V4 SameValue
        CFI V5 SameValue
        CFI V6 SameValue
        CFI V7 SameValue
        CFI PSPH Undefined
        CFI PSPL Undefined
        CFI XSPH Undefined
        CFI XSPL Undefined
        CFI ?RET Concat
        CFI ?BRET_EXT Frame(CFA_SP, 3)
        CFI ?RET_HIGH Frame(CFA_SP, 2)
        CFI ?RET_LOW Frame(CFA_SP, 1)
        CFI EndCommon cfiCommon0
        
AddrMgrInit         SYMBOL "AddrMgrInit"
osal_memset         SYMBOL "osal_memset"
osal_cpyExtAddr     SYMBOL "osal_cpyExtAddr"
??AddrMgrInit?relay SYMBOL "?relay", AddrMgrInit
??osal_cpyExtAddr?relay SYMBOL "?relay", osal_cpyExtAddr
??osal_memset?relay SYMBOL "?relay", osal_memset
NIB_init            SYMBOL "NIB_init"
??NIB_init?relay    SYMBOL "?relay", NIB_init
nwk_Status          SYMBOL "nwk_Status"
??nwk_Status?relay  SYMBOL "?relay", nwk_Status
nwk_globals_init    SYMBOL "nwk_globals_init"
??nwk_globals_init?relay SYMBOL "?relay", nwk_globals_init

        EXTERN AddrMgrInit
        FUNCTION AddrMgrInit,0202H
        ARGFRAME ISTACK, 2, STACK
        ARGFRAME PSTACK, 0, STACK
        ARGFRAME XSTACK, 0, STACK
        ARGFRAME IOVERLAY, 0, STATIC
        ARGFRAME DOVERLAY, 0, STATIC
        EXTERN osal_memset
        FUNCTION osal_memset,0202H
        ARGFRAME ISTACK, 2, STACK
        ARGFRAME PSTACK, 0, STACK
        ARGFRAME XSTACK, 0, STACK
        ARGFRAME IOVERLAY, 0, STATIC
        ARGFRAME DOVERLAY, 0, STATIC
        EXTERN osal_cpyExtAddr
        FUNCTION osal_cpyExtAddr,0202H
        ARGFRAME ISTACK, 2, STACK
        ARGFRAME PSTACK, 0, STACK
        ARGFRAME XSTACK, 0, STACK
        ARGFRAME IOVERLAY, 0, STATIC
        ARGFRAME DOVERLAY, 0, STATIC
        EXTERN ??AddrMgrInit?relay
        FUNCTION ??AddrMgrInit?relay,00H
        EXTERN ??osal_cpyExtAddr?relay
        FUNCTION ??osal_cpyExtAddr?relay,00H
        EXTERN ??osal_memset?relay
        FUNCTION ??osal_memset?relay,00H
        EXTERN ZDO_Config_Node_Descriptor
        EXTERN _NIB
        EXTERN zgBcastDeliveryTime
        EXTERN zgExtendedPANID
        EXTERN zgIndirectMsgTimeout
        EXTERN zgMaxBcastRetires
        EXTERN zgPassiveAckTimeout
        EXTERN zgRouteExpiryTime
        EXTERN zgSecurityLevel

// C:\Texas Instruments\ZStack-1.4.3-1.2.1\Components\stack\nwk\nwk_globals.c
//    1 /**************************************************************************************************
//    2   Filename:       nwk_globals.c
//    3   Revised:        $Date: 2008-03-03 17:57:18 -0800 (Mon, 03 Mar 2008) $
//    4   Revision:       $Revision: 16530 $
//    5 
//    6   Description:    User definable Network Parameters.
//    7 
//    8 
//    9   Copyright 2004-2007 Texas Instruments Incorporated. All rights reserved.
//   10 
//   11   IMPORTANT: Your use of this Software is limited to those specific rights
//   12   granted under the terms of a software license agreement between the user
//   13   who downloaded the software, his/her employer (which must be your employer)
//   14   and Texas Instruments Incorporated (the "License").  You may not use this
//   15   Software unless you agree to abide by the terms of the License. The License
//   16   limits your use, and you acknowledge, that the Software may not be modified,
//   17   copied or distributed unless embedded on a Texas Instruments microcontroller
//   18   or used solely and exclusively in conjunction with a Texas Instruments radio
//   19   frequency transceiver, which is integrated into your product.  Other than for
//   20   the foregoing purpose, you may not use, reproduce, copy, prepare derivative
//   21   works of, modify, distribute, perform, display or sell this Software and/or
//   22   its documentation for any purpose.
//   23 
//   24   YOU FURTHER ACKNOWLEDGE AND AGREE THAT THE SOFTWARE AND DOCUMENTATION ARE
//   25   PROVIDED “AS IS” WITHOUT WARRANTY OF ANY KIND, EITHER EXPRESS OR IMPLIED, 
//   26   INCLUDING WITHOUT LIMITATION, ANY WARRANTY OF MERCHANTABILITY, TITLE, 
//   27   NON-INFRINGEMENT AND FITNESS FOR A PARTICULAR PURPOSE. IN NO EVENT SHALL
//   28   TEXAS INSTRUMENTS OR ITS LICENSORS BE LIABLE OR OBLIGATED UNDER CONTRACT,
//   29   NEGLIGENCE, STRICT LIABILITY, CONTRIBUTION, BREACH OF WARRANTY, OR OTHER
//   30   LEGAL EQUITABLE THEORY ANY DIRECT OR INDIRECT DAMAGES OR EXPENSES
//   31   INCLUDING BUT NOT LIMITED TO ANY INCIDENTAL, SPECIAL, INDIRECT, PUNITIVE
//   32   OR CONSEQUENTIAL DAMAGES, LOST PROFITS OR LOST DATA, COST OF PROCUREMENT
//   33   OF SUBSTITUTE GOODS, TECHNOLOGY, SERVICES, OR ANY CLAIMS BY THIRD PARTIES
//   34   (INCLUDING BUT NOT LIMITED TO ANY DEFENSE THEREOF), OR OTHER SIMILAR COSTS.
//   35 
//   36   Should you have any questions regarding your right to use this Software,
//   37   contact Texas Instruments Incorporated at www.TI.com. 
//   38 **************************************************************************************************/
//   39 
//   40 /*********************************************************************
//   41  * INCLUDES
//   42  */
//   43 #include "ZComdef.h"
//   44 #include "OSAL.h"
//   45 #include "AddrMgr.h"
//   46 #include "AssocList.h"
//   47 #include "BindingTable.h"
//   48 #include "nwk_globals.h"
//   49 #include "ssp.h"
//   50 #include "rtg.h"
//   51 #include "ZDConfig.h"
//   52 #include "ZGlobals.h"
//   53 
//   54 #if defined ( LCD_SUPPORTED )
//   55   #include "OnBoard.h"
//   56 #endif
//   57 
//   58 /* HAL */
//   59 #include "hal_lcd.h"
//   60 
//   61 /*********************************************************************
//   62  * MACROS
//   63  */
//   64 
//   65 /*********************************************************************
//   66  * CONSTANTS
//   67  */
//   68 
//   69 // Maximums for the data buffer queue
//   70 #define NWK_MAX_DATABUFS_WAITING    8     // Waiting to be sent to MAC
//   71 #define NWK_MAX_DATABUFS_SCHEDULED  5     // Timed messages to be sent
//   72 #define NWK_MAX_DATABUFS_CONFIRMED  5     // Held after MAC confirms
//   73 #define NWK_MAX_DATABUFS_TOTAL      12    // Total number of buffers
//   74 
//   75 // 1-255 (0 -> 256) X RTG_TIMER_INTERVAL
//   76 // A known shortcoming is that when a message is enqueued as "hold" for a
//   77 // sleeping device, the timer tick may have counted down to 1, so that msg
//   78 // will not be held as long as expected. If NWK_INDIRECT_MSG_TIMEOUT is set to 1
//   79 // the hold time will vary randomly from 0 - CNT_RTG_TIMER ticks.
//   80 // So the hold time will vary within this interval:
//   81 // { (NWK_INDIRECT_MSG_TIMEOUT-1)*CNT_RTG_TIMER,
//   82 //                                    NWK_INDIRECT_MSG_TIMEOUT*CNT_RTG_TIMER }
//   83 #define NWK_INDIRECT_CNT_RTG_TMR    1  //ggg - need hours or days?
//   84 // To hold msg for sleeping end devices for 30 secs:
//   85 // #define CNT_RTG_TIMER            1
//   86 // #define NWK_INDIRECT_MSG_TIMEOUT 30
//   87 // To hold msg for sleeping end devices for 30 mins:
//   88 // #define CNT_RTG_TIMER            60
//   89 // #define NWK_INDIRECT_MSG_TIMEOUT 30
//   90 // To hold msg for sleeping end devices for 30 days:
//   91 // #define CNT_RTG_TIMER            60
//   92 // #define NWK_INDIRECT_MSG_TIMEOUT (30 * 24 * 60)
//   93 // Maximum msgs to hold per associated device.
//   94 #define NWK_INDIRECT_MSG_MAX_PER    3
//   95 // Maximum total msgs to hold for all associated devices.
//   96 #define NWK_INDIRECT_MSG_MAX_ALL    \ 
//   97                             (NWK_MAX_DATABUFS_TOTAL - NWK_INDIRECT_MSG_MAX_PER)
//   98 
//   99 
//  100 /*********************************************************************
//  101  * TYPEDEFS
//  102  */
//  103 
//  104 /*********************************************************************
//  105  * NWK GLOBAL VARIABLES
//  106  */
//  107 
//  108 // Variables for MAX list size

        RSEG CODE_C:CODE:REORDER:NOROOT(0)
        DATA
//  109 CONST uint16 gNWK_MAX_DEVICE_LIST = NWK_MAX_DEVICES;
gNWK_MAX_DEVICE_LIST:
        DW 21
//  110 
//  111 // Variables for MAX data buffer levels

        RSEG CODE_C:CODE:REORDER:NOROOT(0)
        DATA
//  112 CONST byte gNWK_MAX_DATABUFS_WAITING = NWK_MAX_DATABUFS_WAITING;
gNWK_MAX_DATABUFS_WAITING:
        DB 8

        RSEG CODE_C:CODE:REORDER:NOROOT(0)
        DATA
//  113 CONST byte gNWK_MAX_DATABUFS_SCHEDULED = NWK_MAX_DATABUFS_SCHEDULED;
gNWK_MAX_DATABUFS_SCHEDULED:
        DB 5

        RSEG CODE_C:CODE:REORDER:NOROOT(0)
        DATA
//  114 CONST byte gNWK_MAX_DATABUFS_CONFIRMED = NWK_MAX_DATABUFS_CONFIRMED;
gNWK_MAX_DATABUFS_CONFIRMED:
        DB 5

        RSEG CODE_C:CODE:REORDER:NOROOT(0)
        DATA
//  115 CONST byte gNWK_MAX_DATABUFS_TOTAL = NWK_MAX_DATABUFS_TOTAL;
gNWK_MAX_DATABUFS_TOTAL:
        DB 12
//  116 

        RSEG CODE_C:CODE:REORDER:NOROOT(0)
        DATA
//  117 CONST byte gNWK_INDIRECT_CNT_RTG_TMR = NWK_INDIRECT_CNT_RTG_TMR;
gNWK_INDIRECT_CNT_RTG_TMR:
        DB 1

        RSEG CODE_C:CODE:REORDER:NOROOT(0)
        DATA
//  118 CONST byte gNWK_INDIRECT_MSG_MAX_PER = NWK_INDIRECT_MSG_MAX_PER;
gNWK_INDIRECT_MSG_MAX_PER:
        DB 3

        RSEG CODE_C:CODE:REORDER:NOROOT(0)
        DATA
//  119 CONST byte gNWK_INDIRECT_MSG_MAX_ALL = NWK_INDIRECT_MSG_MAX_ALL;
gNWK_INDIRECT_MSG_MAX_ALL:
        DB 9
//  120 
//  121 #if defined ( RTR_NWK )
//  122   // change this if using a different stack profile...
//  123   // Cskip array
//  124   uint16 *Cskip;
//  125 
//  126   #if ( STACK_PROFILE_ID == HOME_CONTROLS )
//  127     byte CskipRtrs[MAX_NODE_DEPTH+1] = {6,6,6,6,6,0};
//  128     byte CskipChldrn[MAX_NODE_DEPTH+1] = {20,20,20,20,20,0};
//  129   #elif ( STACK_PROFILE_ID == GENERIC_STAR )
//  130     byte CskipRtrs[MAX_NODE_DEPTH+1] = {5,5,5,5,5,0};
//  131     byte CskipChldrn[MAX_NODE_DEPTH+1] = {5,5,5,5,5,0};
//  132   #elif ( STACK_PROFILE_ID == NETWORK_SPECIFIC )
//  133     byte CskipRtrs[MAX_NODE_DEPTH+1] = {5,5,5,5,5,0};
//  134     byte CskipChldrn[MAX_NODE_DEPTH+1] = {5,5,5,5,5,0};
//  135   #endif // STACK_PROFILE_ID
//  136 #endif  // RTR_NWK
//  137 
//  138 
//  139 // Minimum lqi value that is required for association

        RSEG XDATA_I:XDATA:NOROOT(0)
        DATA
//  140 byte gMIN_TREE_LINK_COST = MIN_LQI_COST_3;
gMIN_TREE_LINK_COST:
        DS 1
        REQUIRE `?<Initializer for gMIN_TREE_LINK_COST>`
        REQUIRE __INIT_XDATA_I
//  141 
//  142 #if defined(RTR_NWK)
//  143   // Statically defined Associated Device List
//  144   associated_devices_t AssociatedDevList[NWK_MAX_DEVICES];
//  145 #endif
//  146 

        RSEG CODE_C:CODE:REORDER:NOROOT(0)
        DATA
//  147 CONST byte gMAX_RTG_ENTRIES = MAX_RTG_ENTRIES;
gMAX_RTG_ENTRIES:
        DB 20

        RSEG CODE_C:CODE:REORDER:NOROOT(0)
        DATA
//  148 CONST byte gMAX_UNRESERVED_RTG_ENTRIES = MAX_UNRESERVED_RTG_ENTRIES;
gMAX_UNRESERVED_RTG_ENTRIES:
        DB 16

        RSEG CODE_C:CODE:REORDER:NOROOT(0)
        DATA
//  149 CONST byte gMAX_RREQ_ENTRIES = MAX_RREQ_ENTRIES;
gMAX_RREQ_ENTRIES:
        DB 10
//  150 

        RSEG CODE_C:CODE:REORDER:NOROOT(0)
        DATA
//  151 CONST byte gMAX_NEIGHBOR_ENTRIES = MAX_NEIGHBOR_ENTRIES;
gMAX_NEIGHBOR_ENTRIES:
        DB 4
//  152 
//  153  // Table of neighboring nodes (not including child nodes)

        RSEG XDATA_Z:XDATA:NOROOT(0)
//  154 neighborEntry_t neighborTable[MAX_NEIGHBOR_ENTRIES];
neighborTable:
        DS 44
        REQUIRE __INIT_XDATA_Z
//  155 
//  156 #if defined ( RTR_NWK )
//  157   // Routing table
//  158   rtgEntry_t rtgTable[MAX_RTG_ENTRIES];
//  159 
//  160   // Table of current RREQ packets in the network
//  161   rtDiscEntry_t rtDiscTable[MAX_RREQ_ENTRIES];
//  162   
//  163   // Table of data broadcast packets currently in circulation.
//  164   bcastEntry_t bcastTable[MAX_BCAST];
//  165   
//  166   // These 2 arrays are to be used as an array of struct { uint8, uint32 }.
//  167   uint8 bcastHoldHandle[MAX_BCAST];
//  168   uint32 bcastHoldAckMask[MAX_BCAST];
//  169   
//  170   CONST byte gMAX_BCAST = MAX_BCAST;
//  171 #endif
//  172 
//  173 /*********************************************************************
//  174  * APS GLOBAL VARIABLES
//  175  */
//  176 
//  177 //#if defined ( REFLECTOR )
//  178   // The Maximum number of binding records
//  179   // This number is defined in BindingTable.h - change it there.

        RSEG CODE_C:CODE:REORDER:NOROOT(0)
        DATA
//  180   CONST uint16 gNWK_MAX_BINDING_ENTRIES = NWK_MAX_BINDING_ENTRIES;
gNWK_MAX_BINDING_ENTRIES:
        DW 10
//  181 #if defined ( REFLECTOR )
//  182   // The Maximum number of cluster IDs in a binding record
//  183   // This number is defined in BindingTable.h - change it there.

        RSEG CODE_C:CODE:REORDER:NOROOT(0)
        DATA
//  184   CONST byte gMAX_BINDING_CLUSTER_IDS = MAX_BINDING_CLUSTER_IDS;
gMAX_BINDING_CLUSTER_IDS:
        DB 5
//  185 

        RSEG CODE_C:CODE:REORDER:NOROOT(0)
        DATA
//  186   CONST uint16 gBIND_REC_SIZE = sizeof( BindingEntry_t );
gBIND_REC_SIZE:
        DW 16
//  187 
//  188   // Binding Table

        RSEG XDATA_Z:XDATA:NOROOT(0)
//  189   BindingEntry_t BindingTable[NWK_MAX_BINDING_ENTRIES];
BindingTable:
        DS 160
        REQUIRE __INIT_XDATA_Z
//  190 #endif
//  191 
//  192 // Maximum number allowed in the groups table.

        RSEG CODE_C:CODE:REORDER:NOROOT(0)
        DATA
//  193 CONST uint8 gAPS_MAX_GROUPS = APS_MAX_GROUPS;
gAPS_MAX_GROUPS:
        DB 16
//  194 
//  195 // The size of a tx window when using fragmentation

        RSEG CODE_C:CODE:REORDER:NOROOT(0)
        DATA
//  196 CONST uint8 apscMaxWindowSize = APS_DEFAULT_WINDOW_SIZE;
apscMaxWindowSize:
        DB 5
//  197 
//  198 // The delay between tx packets when using fragmentaition

        RSEG CODE_C:CODE:REORDER:NOROOT(0)
        DATA
//  199 CONST uint16 gAPS_INTERFRAME_DELAY = APS_DEFAULT_INTERFRAME_DELAY;
gAPS_INTERFRAME_DELAY:
        DW 50
//  200 
//  201 
//  202 /*********************************************************************
//  203  * SECURITY GLOBAL VARIABLES
//  204  */
//  205 
//  206 // This is the default pre-configured key,
//  207 // change this to make a unique key
//  208 // SEC_KEY_LEN is defined in ssp.h.

        RSEG CODE_C:CODE:REORDER:NOROOT(0)
        DATA
//  209 CONST byte defaultKey[SEC_KEY_LEN] =
defaultKey:
        DB 0, 1, 2, 3, 4, 5, 6, 7, 8, 9, 10, 11, 12, 13, 14, 15
//  210 {
//  211 #if defined ( APP_TP ) || defined ( APP_TP2 )
//  212   // Key for ZigBee Conformance Testing
//  213   0x00, 0x00, 0x00, 0x00, 0x00, 0x00, 0x00, 0x00,
//  214   0x89, 0x67, 0x45, 0x23, 0x01, 0xEF, 0xCD, 0xAB
//  215 #else
//  216   // Key for In-House Testing
//  217   0x00, 0x01, 0x02, 0x03, 0x04, 0x05, 0x06, 0x07,
//  218   0x08, 0x09, 0x0A, 0x0B, 0x0C, 0x0D, 0x0E, 0x0F
//  219 #endif
//  220 };
//  221 
//  222 
//  223 /*********************************************************************
//  224  * STATUS STRINGS
//  225  */
//  226 #if defined ( LCD_SUPPORTED )
//  227   const char PingStr[]         = "Ping Rcvd from";
//  228   const char AssocCnfStr[]     = "Assoc Cnf";
//  229   const char SuccessStr[]      = "Success";
//  230   const char EndDeviceStr[]    = "EndDevice:";
//  231   const char ParentStr[]       = "Parent:";
//  232   const char ZigbeeCoordStr[]  = "ZigBee Coord";
//  233   const char NetworkIDStr[]    = "Network ID:";
//  234   const char RouterStr[]       = "Router:";
//  235   const char OrphanRspStr[]    = "Orphan Response";
//  236   const char SentStr[]         = "Sent";
//  237   const char FailedStr[]       = "Failed";
//  238   const char AssocRspFailStr[] = "Assoc Rsp fail";
//  239   const char AssocIndStr[]     = "Assoc Ind";
//  240   const char AssocCnfFailStr[] = "Assoc Cnf fail";
//  241   const char EnergyLevelStr[]  = "Energy Level";
//  242   const char ScanFailedStr[]   = "Scan Failed";
//  243 #endif
//  244 
//  245 /*********************************************************************
//  246  * @fn       nwk_globals_init()
//  247  *
//  248  * @brief
//  249  *
//  250  *   Initialize nwk layer globals.  These are the system defaults and
//  251  *   should be changed by the user here.  The default definitions are
//  252  *   defined in nwk.h or NLMEDE.h.
//  253  *
//  254  * @param   none
//  255  *
//  256  * @return  none
//  257  */

        RSEG BANKED_CODE:CODE:NOROOT(0)
//  258 void nwk_globals_init( void )
nwk_globals_init:
        CFI Block cfiBlock0 Using cfiCommon0
        CFI Function nwk_globals_init
//  259 {
        FUNCALL nwk_globals_init, AddrMgrInit
        LOCFRAME ISTACK, 2, STACK
        LOCFRAME PSTACK, 0, STACK
        LOCFRAME XSTACK, 0, STACK
        LOCFRAME IOVERLAY, 0, STATIC
        LOCFRAME DOVERLAY, 0, STATIC
        ARGFRAME ISTACK, 2, STACK
        ARGFRAME PSTACK, 0, STACK
        ARGFRAME XSTACK, 0, STACK
        ARGFRAME IOVERLAY, 0, STATIC
        ARGFRAME DOVERLAY, 0, STATIC
        PUSH    DPL
        CFI DPL0 Frame(CFA_SP, 4)
        CFI CFA_SP SP+-4
        PUSH    DPH
        CFI DPH0 Frame(CFA_SP, 5)
        CFI CFA_SP SP+-5
        ; Saved register size: 2
        ; Auto size: 0
//  260   AddrMgrInit( NWK_MAX_ADDRESSES );
        ; Setup parameters for call to function AddrMgrInit
        MOV     R2,#0x20
        MOV     R3,#0x0
        LCALL   ??AddrMgrInit?relay
//  261 
//  262 #if defined ( RTR_NWK )
//  263   // Initialize the Cskip Table
//  264   Cskip = osal_mem_alloc(sizeof(uint16) *(MAX_NODE_DEPTH+1));
//  265   RTG_FillCSkipTable(CskipChldrn, CskipRtrs, MAX_NODE_DEPTH, Cskip);
//  266 #endif
//  267 }
        POP     DPH
        CFI DPH0 SameValue
        CFI CFA_SP SP+-4
        POP     DPL
        CFI DPL0 SameValue
        CFI CFA_SP SP+-3
        LJMP    ?BRET
        CFI EndBlock cfiBlock0
//  268 
//  269 /*********************************************************************
//  270  * @fn       NIB_init()
//  271  *
//  272  * @brief
//  273  *
//  274  *   Initialize attribute values in NIB
//  275  *
//  276  * @param   none
//  277  *
//  278  * @return  none
//  279  */

        RSEG BANKED_CODE:CODE:NOROOT(0)
//  280 void NIB_init()
NIB_init:
        CFI Block cfiBlock1 Using cfiCommon0
        CFI Function NIB_init
//  281 {
        FUNCALL NIB_init, osal_memset
        LOCFRAME ISTACK, 2, STACK
        LOCFRAME PSTACK, 0, STACK
        LOCFRAME XSTACK, 0, STACK
        LOCFRAME IOVERLAY, 0, STATIC
        LOCFRAME DOVERLAY, 0, STATIC
        ARGFRAME ISTACK, 2, STACK
        ARGFRAME PSTACK, 0, STACK
        ARGFRAME XSTACK, 0, STACK
        ARGFRAME IOVERLAY, 0, STATIC
        ARGFRAME DOVERLAY, 0, STATIC
        FUNCALL NIB_init, osal_cpyExtAddr
        LOCFRAME ISTACK, 2, STACK
        LOCFRAME PSTACK, 0, STACK
        LOCFRAME XSTACK, 0, STACK
        LOCFRAME IOVERLAY, 0, STATIC
        LOCFRAME DOVERLAY, 0, STATIC
        ARGFRAME ISTACK, 2, STACK
        ARGFRAME PSTACK, 0, STACK
        ARGFRAME XSTACK, 0, STACK
        ARGFRAME IOVERLAY, 0, STATIC
        ARGFRAME DOVERLAY, 0, STATIC
        PUSH    DPL
        CFI DPL0 Frame(CFA_SP, 4)
        CFI CFA_SP SP+-4
        PUSH    DPH
        CFI DPH0 Frame(CFA_SP, 5)
        CFI CFA_SP SP+-5
        ; Saved register size: 2
        ; Auto size: 0
//  282 #if defined ( AUTO_SOFT_START )
//  283   byte extAddr[Z_EXTADDR_LEN];
//  284   ZMacGetReq( ZMacExtAddr, extAddr );
//  285   _NIB.SequenceNum = extAddr[0];
//  286 #else
//  287   _NIB.SequenceNum = 1;
        MOV     A,#0x1
        MOV     DPTR,#_NIB
        MOVX    @DPTR,A
//  288 #endif
//  289 
//  290   _NIB.nwkProtocolVersion = ZB_PROT_VERS;
        MOV     A,#0x2
        MOV     DPTR,#(_NIB + 17)
        MOVX    @DPTR,A
//  291   _NIB.MaxDepth = MAX_NODE_DEPTH;
        MOV     A,#0x5
        MOV     DPTR,#(_NIB + 4)
        MOVX    @DPTR,A
//  292 
//  293 #if ( NWK_MODE == NWK_MODE_MESH )
//  294   _NIB.beaconOrder = BEACON_ORDER_NO_BEACONS;
        MOV     A,#0xf
        MOV     DPTR,#(_NIB + 40)
        MOVX    @DPTR,A
//  295   _NIB.superFrameOrder = BEACON_ORDER_NO_BEACONS;
        MOV     A,#0xf
        MOV     DPTR,#(_NIB + 41)
        MOVX    @DPTR,A
//  296 #endif
//  297 
//  298    // BROADCAST SETTINGS:
//  299    // *******************
//  300    //   Broadcast Delivery Time
//  301    //     - set to multiples of 100ms 
//  302    //     - should be 500ms more than the retry time
//  303    //       -  "retry time" = PassiveAckTimeout * (MaxBroadcastRetries + 1)
//  304    //   Passive Ack Timeout
//  305    //     - set to multiples of 100ms 
//  306    _NIB.BroadcastDeliveryTime = zgBcastDeliveryTime;
        MOV     DPTR,#zgBcastDeliveryTime
        MOVX    A,@DPTR
        MOV     DPTR,#(_NIB + 7)
        MOVX    @DPTR,A
//  307    _NIB.PassiveAckTimeout     = zgPassiveAckTimeout;
        MOV     DPTR,#zgPassiveAckTimeout
        MOVX    A,@DPTR
        MOV     DPTR,#(_NIB + 1)
        MOVX    @DPTR,A
//  308    _NIB.MaxBroadcastRetries   = zgMaxBcastRetires;
        MOV     DPTR,#zgMaxBcastRetires
        MOVX    A,@DPTR
        MOV     DPTR,#(_NIB + 2)
        MOVX    @DPTR,A
//  309 
//  310    _NIB.ReportConstantCost = 0;
        MOV     A,#0x0
        MOV     DPTR,#(_NIB + 8)
        MOVX    @DPTR,A
//  311    _NIB.RouteDiscRetries = 0;
        MOV     A,#0x0
        MOV     DPTR,#(_NIB + 9)
        MOVX    @DPTR,A
//  312    _NIB.SecureAllFrames = USE_NWK_SECURITY;
        MOV     A,#0x0
        MOV     DPTR,#(_NIB + 11)
        MOVX    @DPTR,A
//  313    _NIB.SecurityLevel = zgSecurityLevel;
        MOV     DPTR,#zgSecurityLevel
        MOVX    A,@DPTR
        MOV     DPTR,#(_NIB + 12)
        MOVX    @DPTR,A
//  314    _NIB.SymLink = 0;
        MOV     A,#0x0
        MOV     DPTR,#(_NIB + 13)
        MOVX    @DPTR,A
//  315    _NIB.CapabilityInfo = ZDO_Config_Node_Descriptor.CapabilityFlags;
        MOV     DPTR,#(ZDO_Config_Node_Descriptor + 2)
        MOVX    A,@DPTR
        MOV     DPTR,#(_NIB + 14)
        MOVX    @DPTR,A
//  316 
//  317    _NIB.TransactionPersistenceTime = zgIndirectMsgTimeout;
        MOV     DPTR,#zgIndirectMsgTimeout
        MOVX    A,@DPTR
        MOV     R1,#0x0
        MOV     DPTR,#(_NIB + 15)
        MOVX    @DPTR,A
        INC     DPTR
        MOV     A,R1
        MOVX    @DPTR,A
//  318 
//  319    _NIB.RouteDiscoveryTime = 5;
        MOV     A,#0x5
        MOV     DPTR,#(_NIB + 18)
        MOVX    @DPTR,A
//  320    _NIB.RouteExpiryTime = zgRouteExpiryTime;
        MOV     DPTR,#zgRouteExpiryTime
        MOVX    A,@DPTR
        MOV     DPTR,#(_NIB + 19)
        MOVX    @DPTR,A
//  321 
//  322    _NIB.nwkDevAddress = INVALID_NODE_ADDR;
        MOV     DPTR,#(_NIB + 20)
        MOV     A,#-0x2
        MOVX    @DPTR,A
        INC     DPTR
        MOV     A,#-0x1
        MOVX    @DPTR,A
//  323    _NIB.nwkLogicalChannel = 0;
        MOV     A,#0x0
        MOV     DPTR,#(_NIB + 22)
        MOVX    @DPTR,A
//  324    _NIB.nwkCoordAddress = INVALID_NODE_ADDR;
        MOV     DPTR,#(_NIB + 23)
        MOV     A,#-0x2
        MOVX    @DPTR,A
        INC     DPTR
        MOV     A,#-0x1
        MOVX    @DPTR,A
//  325    osal_memset( _NIB.nwkCoordExtAddress, 0, Z_EXTADDR_LEN );
        ; Setup parameters for call to function osal_memset
        MOV     R4,#0x8
        MOV     R5,#0x0
        MOV     R1,#0x0
        MOV     R2,#((_NIB + 25) & 0xff)
        MOV     R3,#(((_NIB + 25) >> 8) & 0xff)
        LCALL   ??osal_memset?relay
//  326    _NIB.nwkPanId = INVALID_NODE_ADDR;
        MOV     DPTR,#(_NIB + 33)
        MOV     A,#-0x2
        MOVX    @DPTR,A
        INC     DPTR
        MOV     A,#-0x1
        MOVX    @DPTR,A
//  327 
//  328    osal_cpyExtAddr( _NIB.extendedPANID, zgExtendedPANID );
        ; Setup parameters for call to function osal_cpyExtAddr
        MOV     R4,#(zgExtendedPANID & 0xff)
        MOV     R5,#((zgExtendedPANID >> 8) & 0xff)
        MOV     R2,#((_NIB + 53) & 0xff)
        MOV     R3,#(((_NIB + 53) >> 8) & 0xff)
        LCALL   ??osal_cpyExtAddr?relay
//  329    
//  330    _NIB.nwkKeyLoaded = FALSE;
        MOV     A,#0x0
        MOV     DPTR,#(_NIB + 61)
        MOVX    @DPTR,A
//  331 }
        POP     DPH
        CFI DPH0 SameValue
        CFI CFA_SP SP+-4
        POP     DPL
        CFI DPL0 SameValue
        CFI CFA_SP SP+-3
        LJMP    ?BRET
        CFI EndBlock cfiBlock1
//  332 
//  333 /*********************************************************************
//  334  * @fn       nwk_Status()
//  335  *
//  336  * @brief
//  337  *
//  338  *   Status report.
//  339  *
//  340  * @param   statusCode
//  341  * @param   statusValue
//  342  *
//  343  * @return  none
//  344  */

        RSEG BANKED_CODE:CODE:NOROOT(0)
//  345 void nwk_Status( uint16 statusCode, uint16 statusValue )
nwk_Status:
        CFI Block cfiBlock2 Using cfiCommon0
        CFI Function nwk_Status
//  346 {
        ; Saved register size: 0
        ; Auto size: 0
//  347 #if defined ( LCD_SUPPORTED )
//  348   switch ( statusCode )
//  349   {
//  350 
//  351 #if defined( RTR_NWK )
//  352     case NWK_STATUS_COORD_ADDR:
//  353       HalLcdWriteString( (char*)ZigbeeCoordStr, HAL_LCD_LINE_1 );
//  354       HalLcdWriteStringValue( (char*)NetworkIDStr, (uint32)statusValue, 16, HAL_LCD_LINE_2 );
//  355       BuzzerControl( BUZZER_BLIP );
//  356       break;
//  357 
//  358     case NWK_STATUS_ROUTER_ADDR:
//  359       HalLcdWriteStringValue( (char*)RouterStr, (uint32)statusValue, 16, HAL_LCD_LINE_1 );
//  360       break;
//  361 
//  362     case NWK_STATUS_ORPHAN_RSP:
//  363       if ( statusValue == ZSuccess )
//  364         HalLcdWriteScreen( (char*)OrphanRspStr, (char*)SentStr );
//  365       else
//  366         HalLcdWriteScreen( (char*)OrphanRspStr, (char*)FailedStr );
//  367       break;
//  368 
//  369     case NWK_ERROR_ASSOC_RSP:
//  370       HalLcdWriteString( (char*)AssocRspFailStr, HAL_LCD_LINE_1 );
//  371       HalLcdWriteValue( (uint32)(statusValue), 16, HAL_LCD_LINE_2 );
//  372       break;
//  373 #else
//  374     case NWK_STATUS_ED_ADDR:
//  375             HalLcdWriteStringValue( (char*)EndDeviceStr, (uint32)statusValue, 16, HAL_LCD_LINE_1 );
//  376       break;
//  377 #endif
//  378 
//  379     case NWK_STATUS_PARENT_ADDR:
//  380             HalLcdWriteStringValue( (char*)ParentStr, (uint32)statusValue, 16, HAL_LCD_LINE_2 );
//  381       break;
//  382 
//  383     case NWK_STATUS_ASSOC_CNF:
//  384       HalLcdWriteScreen( (char*)AssocCnfStr, (char*)SuccessStr );
//  385       break;
//  386 
//  387     case NWK_ERROR_ASSOC_CNF_DENIED:
//  388       HalLcdWriteString((char*)AssocCnfFailStr, HAL_LCD_LINE_1 );
//  389       HalLcdWriteValue( (uint32)(statusValue), 16, HAL_LCD_LINE_2 );
//  390       break;
//  391 
//  392     case NWK_ERROR_ENERGY_SCAN_FAILED:
//  393       HalLcdWriteScreen( (char*)EnergyLevelStr, (char*)ScanFailedStr );
//  394       break;
//  395   }
//  396 #endif
//  397 }
        LJMP    ?BRET
        CFI EndBlock cfiBlock2

        RSEG XDATA_ID:CODE:NOROOT(0)
        DATA
`?<Initializer for gMIN_TREE_LINK_COST>`:
        DB 6

        RSEG BANK_RELAYS:CODE:REORDER:NOROOT(0)
??nwk_globals_init?relay:
        LCALL   ?BDISPATCH
        DATA
        DC24    nwk_globals_init

        RSEG BANK_RELAYS:CODE:REORDER:NOROOT(0)
??NIB_init?relay:
        LCALL   ?BDISPATCH
        DATA
        DC24    NIB_init

        RSEG BANK_RELAYS:CODE:REORDER:NOROOT(0)
??nwk_Status?relay:
        LCALL   ?BDISPATCH
        DATA
        DC24    nwk_Status

        END
//  398 
//  399 /*********************************************************************
//  400 *********************************************************************/
// 
// 219 bytes in segment BANKED_CODE
//  18 bytes in segment BANK_RELAYS
//  38 bytes in segment CODE_C
//   1 byte  in segment XDATA_I
//   1 byte  in segment XDATA_ID
// 204 bytes in segment XDATA_Z
// 
// 276 bytes of CODE  memory
// 205 bytes of XDATA memory
//
//Errors: none
//Warnings: none
