///////////////////////////////////////////////////////////////////////////////
//                                                                            /
// IAR 8051 C/C++ Compiler V7.30B/W32                   03/Apr/2013  14:45:08 /
// Copyright 2004-2007 IAR Systems. All rights reserved.                      /
//                                                                            /
//    Core               =  plain                                             /
//    Code model         =  banked                                            /
//    Data model         =  large                                             /
//    Calling convention =  xdata reentrant                                   /
//    Constant location  =  data                                              /
//    Dptr setup         =  1,16                                              /
//    Source file        =  C:\Texas Instruments\ZStack-1.4.3-1.2.1\Component /
//                          s\stack\zdo\ZDProfile.c                           /
//    Command line       =  -f "C:\Texas Instruments\ZStack-1.4.3-1.2.1\Proje /
//                          cts\zstack\Samples\cc2430-zstack-adxl345 -        /
//                          2\CC2430DB\..\..\..\Tools\CC2430DB\f8wEndev.cfg"  /
//                          (-DCPU32MHZ -DFORCE_MAC_NEAR -DROOT=__near_func   /
//                          -DMAC_OPT_FFD=0 -DBLINK_LEDS "-DCONST=const       /
//                          __code" -DGENERIC=__generic) -f "C:\Texas         /
//                          Instruments\ZStack-1.4.3-1.2.1\Projects\zstack\Sa /
//                          mples\cc2430-zstack-adxl345 -                     /
//                          2\CC2430DB\..\..\..\Tools\CC2430DB\f8wConfig.cfg" /
//                           (-DSECURE=0 -DDEFAULT_CHANLIST=0x00000800        /
//                          -DZDAPP_CONFIG_PAN_ID=0xFFFF                      /
//                          -DNWK_START_DELAY=100 -DEXTENDED_JOINING_RANDOM_M /
//                          ASK=0x007F -DBEACON_REQUEST_DELAY=100             /
//                          -DBEACON_REQ_DELAY_MASK=0x00FF                    /
//                          -DROUTE_EXPIRY_TIME=30 -DAPSC_ACK_WAIT_DURATION_P /
//                          OLLED=3000 -DNWK_INDIRECT_MSG_TIMEOUT=7           /
//                          -DMAX_RREQ_ENTRIES=10 -DAPSC_MAX_FRAME_RETRIES=3  /
//                          -DNWK_MAX_DATA_RETRIES=2                          /
//                          -DMAX_POLL_FAILURE_RETRIES=2 -DMAX_BCAST=9        /
//                          -DAPS_MAX_GROUPS=16 -DMAX_RTG_ENTRIES=20          /
//                          -DNWK_MAX_BINDING_ENTRIES=10                      /
//                          -DMAX_BINDING_CLUSTER_IDS=5                       /
//                          "-DDEFAULT_KEY={0x01, 0x03, 0x05, 0x07, 0x09,     /
//                          0x0B, 0x0D, 0x0F, 0x00, 0x02, 0x04, 0x06, 0x08,   /
//                          0x0A, 0x0C, 0x0D}" -DRFD_RCVC_ALWAYS_ON=FALSE     /
//                          -DPOLL_RATE=1000 -DQUEUED_POLL_RATE=100           /
//                          -DRESPONSE_POLL_RATE=100) -DREJOIN_POLL_RATE=440  /
//                          "C:\Texas Instruments\ZStack-1.4.3-1.2.1\Componen /
//                          ts\stack\zdo\ZDProfile.c" -D CC2430EB -D AXD_END  /
//                          -D AXD_END_C -D NWK_AUTO_POLL -D REFLECTOR -D     /
//                          xZTOOL_P1 -D xMT_TASK -D xMT_ZDO_FUNC -D          /
//                          xLCD_SUPPORTED=DEBUG -D xPOWER_SAVING -lC         /
//                          "C:\Texas Instruments\ZStack-1.4.3-1.2.1\Projects /
//                          \zstack\Samples\cc2430-zstack-adxl345 -           /
//                          2\CC2430DB\EndDevice3EB\List\" -lA "C:\Texas      /
//                          Instruments\ZStack-1.4.3-1.2.1\Projects\zstack\Sa /
//                          mples\cc2430-zstack-adxl345 -                     /
//                          2\CC2430DB\EndDevice3EB\List\" --diag_suppress    /
//                          Pe001,Pa010 --diag_remark pe550 -o "C:\Texas      /
//                          Instruments\ZStack-1.4.3-1.2.1\Projects\zstack\Sa /
//                          mples\cc2430-zstack-adxl345 -                     /
//                          2\CC2430DB\EndDevice3EB\Obj\" -e                  /
//                          --require_prototypes -z2 --no_cse --no_unroll     /
//                          --no_inline --no_code_motion --no_tbaa --debug    /
//                          --core=plain --dptr=16,1 --data_model=large       /
//                          --code_model=banked --calling_convention=xdata_re /
//                          entrant --place_constants=data --nr_virtual_regs  /
//                          8 -I "C:\Texas Instruments\ZStack-1.4.3-1.2.1\Pro /
//                          jects\zstack\Samples\cc2430-zstack-adxl345 -      /
//                          2\CC2430DB\" -I "C:\Texas                         /
//                          Instruments\ZStack-1.4.3-1.2.1\Projects\zstack\Sa /
//                          mples\cc2430-zstack-adxl345 -                     /
//                          2\CC2430DB\..\SOURCE\" -I "C:\Texas               /
//                          Instruments\ZStack-1.4.3-1.2.1\Projects\zstack\Sa /
//                          mples\cc2430-zstack-adxl345 -                     /
//                          2\CC2430DB\..\Drivers\" -I "C:\Texas              /
//                          Instruments\ZStack-1.4.3-1.2.1\Projects\zstack\Sa /
//                          mples\cc2430-zstack-adxl345 -                     /
//                          2\CC2430DB\..\..\..\ZMAIN\TI2430DB\" -I           /
//                          "C:\Texas Instruments\ZStack-1.4.3-1.2.1\Projects /
//                          \zstack\Samples\cc2430-zstack-adxl345 -           /
//                          2\CC2430DB\..\..\..\..\..\COMPONENTS\MT\" -I      /
//                          "C:\Texas Instruments\ZStack-1.4.3-1.2.1\Projects /
//                          \zstack\Samples\cc2430-zstack-adxl345 -           /
//                          2\CC2430DB\..\..\..\..\..\COMPONENTS\HAL\INCLUDE\ /
//                          " -I "C:\Texas Instruments\ZStack-1.4.3-1.2.1\Pro /
//                          jects\zstack\Samples\cc2430-zstack-adxl345 -      /
//                          2\CC2430DB\..\..\..\..\..\COMPONENTS\HAL\TARGET\C /
//                          C2430EB\" -I "C:\Texas Instruments\ZStack-1.4.3-1 /
//                          .2.1\Projects\zstack\Samples\cc2430-zstack-adxl34 /
//                          5 - 2\CC2430DB\..\..\..\..\..\COMPONENTS\OSAL\MCU /
//                          \CCSOC\" -I "C:\Texas Instruments\ZStack-1.4.3-1. /
//                          2.1\Projects\zstack\Samples\cc2430-zstack-adxl345 /
//                           - 2\CC2430DB\..\..\..\..\..\COMPONENTS\OSAL\INCL /
//                          UDE\" -I "C:\Texas Instruments\ZStack-1.4.3-1.2.1 /
//                          \Projects\zstack\Samples\cc2430-zstack-adxl345 -  /
//                          2\CC2430DB\..\..\..\..\..\COMPONENTS\STACK\AF\"   /
//                          -I "C:\Texas Instruments\ZStack-1.4.3-1.2.1\Proje /
//                          cts\zstack\Samples\cc2430-zstack-adxl345 -        /
//                          2\CC2430DB\..\..\..\..\..\COMPONENTS\STACK\NWK\"  /
//                          -I "C:\Texas Instruments\ZStack-1.4.3-1.2.1\Proje /
//                          cts\zstack\Samples\cc2430-zstack-adxl345 -        /
//                          2\CC2430DB\..\..\..\..\..\COMPONENTS\STACK\SEC\"  /
//                          -I "C:\Texas Instruments\ZStack-1.4.3-1.2.1\Proje /
//                          cts\zstack\Samples\cc2430-zstack-adxl345 -        /
//                          2\CC2430DB\..\..\..\..\..\COMPONENTS\STACK\SYS\"  /
//                          -I "C:\Texas Instruments\ZStack-1.4.3-1.2.1\Proje /
//                          cts\zstack\Samples\cc2430-zstack-adxl345 -        /
//                          2\CC2430DB\..\..\..\..\..\COMPONENTS\STACK\ZDO\"  /
//                          -I "C:\Texas Instruments\ZStack-1.4.3-1.2.1\Proje /
//                          cts\zstack\Samples\cc2430-zstack-adxl345 -        /
//                          2\CC2430DB\..\..\..\..\..\COMPONENTS\ZMAC\F8W\"   /
//                          -I "C:\Texas Instruments\ZStack-1.4.3-1.2.1\Proje /
//                          cts\zstack\Samples\cc2430-zstack-adxl345 -        /
//                          2\CC2430DB\..\..\..\..\..\COMPONENTS\ZMAC\" -I    /
//                          "C:\Texas Instruments\ZStack-1.4.3-1.2.1\Projects /
//                          \zstack\Samples\cc2430-zstack-adxl345 -           /
//                          2\CC2430DB\..\..\..\..\..\COMPONENTS\SERVICES\SAD /
//                          DR\" -I "C:\Texas Instruments\ZStack-1.4.3-1.2.1\ /
//                          Projects\zstack\Samples\cc2430-zstack-adxl345 -   /
//                          2\CC2430DB\..\..\..\..\..\COMPONENTS\SERVICES\SDA /
//                          TA\" -I "C:\Texas Instruments\ZStack-1.4.3-1.2.1\ /
//                          Projects\zstack\Samples\cc2430-zstack-adxl345 -   /
//                          2\CC2430DB\..\..\..\..\..\COMPONENTS\MAC\INCLUDE\ /
//                          " -I "C:\Texas Instruments\ZStack-1.4.3-1.2.1\Pro /
//                          jects\zstack\Samples\cc2430-zstack-adxl345 -      /
//                          2\CC2430DB\..\..\..\..\..\COMPONENTS\MAC\HIGH_LEV /
//                          EL\" -I "C:\Texas Instruments\ZStack-1.4.3-1.2.1\ /
//                          Projects\zstack\Samples\cc2430-zstack-adxl345 -   /
//                          2\CC2430DB\..\..\..\..\..\COMPONENTS\MAC\LOW_LEVE /
//                          L\SRF03\" -I "C:\Texas Instruments\ZStack-1.4.3-1 /
//                          .2.1\Projects\zstack\Samples\cc2430-zstack-adxl34 /
//                          5 - 2\CC2430DB\..\..\..\..\..\COMPONENTS\MAC\LOW_ /
//                          LEVEL\SRF03\SINGLE_CHIP\" -I "C:\Program          /
//                          Files\IAR Systems\Embedded Workbench 4.0          /
//                          Evaluation version\8051\INC\" -I "C:\Program      /
//                          Files\IAR Systems\Embedded Workbench 4.0          /
//                          Evaluation version\8051\INC\CLIB\"                /
//    List file          =  C:\Texas Instruments\ZStack-1.4.3-1.2.1\Projects\ /
//                          zstack\Samples\cc2430-zstack-adxl345 -            /
//                          2\CC2430DB\EndDevice3EB\List\ZDProfile.s51        /
//                                                                            /
//                                                                            /
///////////////////////////////////////////////////////////////////////////////

        NAME ZDProfile

        RTMODEL "__calling_convention", "xdata_reentrant"
        RTMODEL "__code_model", "banked"
        RTMODEL "__core", "plain"
        RTMODEL "__data_model", "large"
        RTMODEL "__dptr_size", "16"
        RTMODEL "__extended_stack", "disabled"
        RTMODEL "__location_for_constants", "data"
        RTMODEL "__number_of_dptrs", "1"
        RTMODEL "__rt_version", "1"

        RSEG DOVERLAY:DATA:NOROOT(0)
        RSEG IOVERLAY:IDATA:NOROOT(0)
        RSEG ISTACK:IDATA:NOROOT(0)
        RSEG PSTACK:XDATA:NOROOT(0)
        RSEG XSTACK:XDATA:NOROOT(0)

        EXTERN ??ZDO_SendMsgCBs?relay
        EXTERN ??fillAndSend?relay
        EXTERN ?ALLOC_XSTACK8
        EXTERN ?BANKED_ENTER_XDATA
        EXTERN ?BANKED_LEAVE_XDATA
        EXTERN ?BDISPATCH
        EXTERN ?CALL_IND
        EXTERN ?DEALLOC_XSTACK8
        EXTERN ?PUSH_XSTACK_I_ONE
        EXTERN ?PUSH_XSTACK_I_THREE
        EXTERN ?PUSH_XSTACK_I_TWO
        EXTERN ?V0
        EXTERN ?XSP
        EXTERN ?XSTACK_DISP0_8
        EXTERN __INIT_XDATA_I
        EXTERN __INIT_XDATA_Z

        PUBLIC ??ZDO_RegisterForZDOMsg?relay
        FUNCTION ??ZDO_RegisterForZDOMsg?relay,0203H
        PUBLIC ??ZDO_RemoveRegisteredCB?relay
        FUNCTION ??ZDO_RemoveRegisteredCB?relay,0203H
        PUBLIC ??ZDO_SendMsgCBs?relay
        FUNCTION ??ZDO_SendMsgCBs?relay,0203H
        PUBLIC ??ZDP_EPRsp?relay
        FUNCTION ??ZDP_EPRsp?relay,0203H
        PUBLIC ??ZDP_EndDeviceBindReq?relay
        FUNCTION ??ZDP_EndDeviceBindReq?relay,0203H
        PUBLIC ??ZDP_GenericRsp?relay
        FUNCTION ??ZDP_GenericRsp?relay,0203H
        PUBLIC ??ZDP_IEEEAddrReq?relay
        FUNCTION ??ZDP_IEEEAddrReq?relay,0203H
        PUBLIC ??ZDP_IncomingData?relay
        FUNCTION ??ZDP_IncomingData?relay,0203H
        PUBLIC ??ZDP_MatchDescReq?relay
        FUNCTION ??ZDP_MatchDescReq?relay,0203H
        PUBLIC ??ZDP_NodeDescMsg?relay
        FUNCTION ??ZDP_NodeDescMsg?relay,0203H
        PUBLIC ??ZDP_NwkAddrReq?relay
        FUNCTION ??ZDP_NwkAddrReq?relay,0203H
        PUBLIC ??ZDP_PowerDescMsg?relay
        FUNCTION ??ZDP_PowerDescMsg?relay,0203H
        PUBLIC ??ZDP_SendData?relay
        FUNCTION ??ZDP_SendData?relay,0203H
        PUBLIC ??ZDP_SimpleDescMsg?relay
        FUNCTION ??ZDP_SimpleDescMsg?relay,0203H
        FUNCTION ??fillAndSend?relay,0203H
        PUBLIC ??zdpProcessAddrReq?relay
        FUNCTION ??zdpProcessAddrReq?relay,0203H
        PUBLIC ZDO_RegisterForZDOMsg
        FUNCTION ZDO_RegisterForZDOMsg,021203H
        ARGFRAME XSTACK, 0, STACK
        LOCFRAME ISTACK, 1, STACK
        LOCFRAME XSTACK, 18, STACK
        PUBLIC ZDO_RemoveRegisteredCB
        FUNCTION ZDO_RemoveRegisteredCB,021203H
        ARGFRAME XSTACK, 0, STACK
        LOCFRAME XSTACK, 13, STACK
        PUBLIC ZDO_SendMsgCBs
        FUNCTION ZDO_SendMsgCBs,021203H
        ARGFRAME XSTACK, 29, STACK
        ARGFRAME IOVERLAY, 0, STATIC
        ARGFRAME DOVERLAY, 0, STATIC
        LOCFRAME ISTACK, 1, STACK
        LOCFRAME XSTACK, 21, STACK
        PUBLIC ZDP_AF_ENDPOINT
        PUBLIC ZDP_EPRsp
        FUNCTION ZDP_EPRsp,021203H
        ARGFRAME XSTACK, 7, STACK
        LOCFRAME ISTACK, 1, STACK
        LOCFRAME XSTACK, 23, STACK
        PUBLIC ZDP_EndDeviceBindReq
        FUNCTION ZDP_EndDeviceBindReq,021203H
        ARGFRAME XSTACK, 9, STACK
        LOCFRAME ISTACK, 1, STACK
        LOCFRAME XSTACK, 21, STACK
        PUBLIC ZDP_GenericRsp
        FUNCTION ZDP_GenericRsp,021203H
        ARGFRAME XSTACK, 4, STACK
        LOCFRAME ISTACK, 1, STACK
        LOCFRAME XSTACK, 19, STACK
        PUBLIC ZDP_IEEEAddrReq
        FUNCTION ZDP_IEEEAddrReq,021203H
        ARGFRAME XSTACK, 0, STACK
        LOCFRAME ISTACK, 1, STACK
        LOCFRAME XSTACK, 27, STACK
        PUBLIC ZDP_IncomingData
        FUNCTION ZDP_IncomingData,021203H
        ARGFRAME XSTACK, 0, STACK
        LOCFRAME ISTACK, 1, STACK
        LOCFRAME XSTACK, 29, STACK
        PUBLIC ZDP_MatchDescReq
        FUNCTION ZDP_MatchDescReq,021203H
        ARGFRAME XSTACK, 8, STACK
        LOCFRAME ISTACK, 1, STACK
        LOCFRAME XSTACK, 21, STACK
        PUBLIC ZDP_NodeDescMsg
        FUNCTION ZDP_NodeDescMsg,021203H
        ARGFRAME XSTACK, 2, STACK
        LOCFRAME ISTACK, 2, STACK
        LOCFRAME XSTACK, 19, STACK
        PUBLIC ZDP_NwkAddrReq
        FUNCTION ZDP_NwkAddrReq,021203H
        ARGFRAME XSTACK, 0, STACK
        LOCFRAME ISTACK, 1, STACK
        LOCFRAME XSTACK, 27, STACK
        PUBLIC ZDP_PowerDescMsg
        FUNCTION ZDP_PowerDescMsg,021203H
        ARGFRAME XSTACK, 2, STACK
        LOCFRAME ISTACK, 1, STACK
        LOCFRAME XSTACK, 20, STACK
        PUBLIC ZDP_SendData
        FUNCTION ZDP_SendData,021203H
        ARGFRAME XSTACK, 5, STACK
        LOCFRAME ISTACK, 1, STACK
        LOCFRAME XSTACK, 20, STACK
        PUBLIC ZDP_SimpleDescMsg
        FUNCTION ZDP_SimpleDescMsg,021203H
        ARGFRAME XSTACK, 0, STACK
        LOCFRAME ISTACK, 1, STACK
        LOCFRAME XSTACK, 19, STACK
        PUBLIC ZDP_TransID
        FUNCTION fillAndSend,021203H
        ARGFRAME XSTACK, 27, STACK
        ARGFRAME IOVERLAY, 0, STATIC
        ARGFRAME DOVERLAY, 0, STATIC
        LOCFRAME ISTACK, 1, STACK
        LOCFRAME XSTACK, 29, STACK
        PUBLIC zdoMsgCBs
        PUBLIC zdpMsgProcs
        PUBLIC zdpProcessAddrReq
        FUNCTION zdpProcessAddrReq,021603H
        ARGFRAME XSTACK, 0, STACK
        LOCFRAME ISTACK, 1, STACK
        LOCFRAME XSTACK, 21, STACK
        
        CFI Names cfiNames0
        CFI StackFrame CFA_SP SP DATA
        CFI StackFrame CFA_PSP16 PSP16 XDATA
        CFI StackFrame CFA_XSP16 XSP16 XDATA
        CFI StaticOverlayFrame CFA_IOVERLAY IOVERLAY
        CFI StaticOverlayFrame CFA_DOVERLAY DOVERLAY
        CFI Resource `PSW.CY`:1, `B.BR0`:1, `B.BR1`:1, `B.BR2`:1, `B.BR3`:1
        CFI Resource `B.BR4`:1, `B.BR5`:1, `B.BR6`:1, `B.BR7`:1, `VB.BR8`:1
        CFI Resource `VB.BR9`:1, `VB.BR10`:1, `VB.BR11`:1, `VB.BR12`:1
        CFI Resource `VB.BR13`:1, `VB.BR14`:1, `VB.BR15`:1, VB:8, B:8, A:8
        CFI Resource PSW:8, DPL0:8, DPH0:8, R0:8, R1:8, R2:8, R3:8, R4:8, R5:8
        CFI Resource R6:8, R7:8, V0:8, V1:8, V2:8, V3:8, V4:8, V5:8, V6:8, V7:8
        CFI Resource SP:8, PSPH:8, PSPL:8, PSP16:16, XSPH:8, XSPL:8, XSP16:16
        CFI VirtualResource ?RET:24
        CFI Resource ?BRET_EXT:8
        CFI VirtualResource ?RET_HIGH:8, ?RET_LOW:8
        CFI ResourceParts PSP16 PSPH, PSPL
        CFI ResourceParts XSP16 XSPH, XSPL
        CFI ResourceParts ?RET ?BRET_EXT, ?RET_HIGH, ?RET_LOW
        CFI EndNames cfiNames0
        
        CFI Common cfiCommon0 Using cfiNames0
        CFI CodeAlign 1
        CFI DataAlign -1
        CFI ReturnAddress ?RET CODE
        CFI CFA_DOVERLAY Used
        CFI CFA_IOVERLAY Used
        CFI CFA_SP SP+-3
        CFI CFA_PSP16 PSP16+0
        CFI CFA_XSP16 XSP16+0
        CFI `PSW.CY` SameValue
        CFI `B.BR0` SameValue
        CFI `B.BR1` SameValue
        CFI `B.BR2` SameValue
        CFI `B.BR3` SameValue
        CFI `B.BR4` SameValue
        CFI `B.BR5` SameValue
        CFI `B.BR6` SameValue
        CFI `B.BR7` SameValue
        CFI `VB.BR8` SameValue
        CFI `VB.BR9` SameValue
        CFI `VB.BR10` SameValue
        CFI `VB.BR11` SameValue
        CFI `VB.BR12` SameValue
        CFI `VB.BR13` SameValue
        CFI `VB.BR14` SameValue
        CFI `VB.BR15` SameValue
        CFI VB SameValue
        CFI B Undefined
        CFI A Undefined
        CFI PSW SameValue
        CFI DPL0 SameValue
        CFI DPH0 SameValue
        CFI R0 Undefined
        CFI R1 Undefined
        CFI R2 Undefined
        CFI R3 Undefined
        CFI R4 Undefined
        CFI R5 Undefined
        CFI R6 SameValue
        CFI R7 SameValue
        CFI V0 SameValue
        CFI V1 SameValue
        CFI V2 SameValue
        CFI V3 SameValue
        CFI V4 SameValue
        CFI V5 SameValue
        CFI V6 SameValue
        CFI V7 SameValue
        CFI PSPH Undefined
        CFI PSPL Undefined
        CFI XSPH Undefined
        CFI XSPL Undefined
        CFI ?RET Concat
        CFI ?BRET_EXT Frame(CFA_SP, 3)
        CFI ?RET_HIGH Frame(CFA_SP, 2)
        CFI ?RET_LOW Frame(CFA_SP, 1)
        CFI EndCommon cfiCommon0
        
AF_DataRequest      SYMBOL "AF_DataRequest"
osal_ExtAddrEqual   SYMBOL "osal_ExtAddrEqual"
osal_cpyExtAddr     SYMBOL "osal_cpyExtAddr"
osal_memcpy         SYMBOL "osal_memcpy"
NLME_GetShortAddr   SYMBOL "NLME_GetShortAddr"
NLME_GetExtAddr     SYMBOL "NLME_GetExtAddr"
osal_mem_alloc      SYMBOL "osal_mem_alloc"
osal_mem_free       SYMBOL "osal_mem_free"
osal_msg_allocate   SYMBOL "osal_msg_allocate"
osal_msg_send       SYMBOL "osal_msg_send"
ZDApp_InMsgCB       SYMBOL "ZDApp_InMsgCB"
??AF_DataRequest?relay SYMBOL "?relay", AF_DataRequest
??NLME_GetExtAddr?relay SYMBOL "?relay", NLME_GetExtAddr
??NLME_GetShortAddr?relay SYMBOL "?relay", NLME_GetShortAddr
??ZDApp_InMsgCB?relay SYMBOL "?relay", ZDApp_InMsgCB
`?<Name ZDO_ProcessActiveEPR 15>` SYMBOL "ZDO_ProcessActiveEPReq"
??ZDO_ProcessActiveEPReq?relay SYMBOL "?relay", `?<Name ZDO_ProcessActiveEPR 15>`
`?<Name ZDO_ProcessMatchDesc 17>` SYMBOL "ZDO_ProcessMatchDescReq"
??ZDO_ProcessMatchDescReq?relay SYMBOL "?relay", `?<Name ZDO_ProcessMatchDesc 17>`
`?<Name ZDO_ProcessNodeDescR 19>` SYMBOL "ZDO_ProcessNodeDescReq"
??ZDO_ProcessNodeDescReq?relay SYMBOL "?relay", `?<Name ZDO_ProcessNodeDescR 19>`
`?<Name ZDO_ProcessPowerDesc 21>` SYMBOL "ZDO_ProcessPowerDescReq"
??ZDO_ProcessPowerDescReq?relay SYMBOL "?relay", `?<Name ZDO_ProcessPowerDesc 21>`
`?<Name ZDO_ProcessSimpleDes 23>` SYMBOL "ZDO_ProcessSimpleDescReq"
??ZDO_ProcessSimpleDescReq?relay SYMBOL "?relay", `?<Name ZDO_ProcessSimpleDes 23>`
??osal_ExtAddrEqual?relay SYMBOL "?relay", osal_ExtAddrEqual
??osal_cpyExtAddr?relay SYMBOL "?relay", osal_cpyExtAddr
??osal_mem_alloc?relay SYMBOL "?relay", osal_mem_alloc
??osal_mem_free?relay SYMBOL "?relay", osal_mem_free
??osal_memcpy?relay SYMBOL "?relay", osal_memcpy
??osal_msg_allocate?relay SYMBOL "?relay", osal_msg_allocate
??osal_msg_send?relay SYMBOL "?relay", osal_msg_send
ZDO_RegisterForZDOMsg SYMBOL "ZDO_RegisterForZDOMsg"
??ZDO_RegisterForZDOMsg?relay SYMBOL "?relay", ZDO_RegisterForZDOMsg
ZDO_RemoveRegisteredCB SYMBOL "ZDO_RemoveRegisteredCB"
??ZDO_RemoveRegisteredCB?relay SYMBOL "?relay", ZDO_RemoveRegisteredCB
ZDO_SendMsgCBs      SYMBOL "ZDO_SendMsgCBs"
??ZDO_SendMsgCBs?relay SYMBOL "?relay", ZDO_SendMsgCBs
ZDP_EPRsp           SYMBOL "ZDP_EPRsp"
??ZDP_EPRsp?relay   SYMBOL "?relay", ZDP_EPRsp
ZDP_EndDeviceBindReq SYMBOL "ZDP_EndDeviceBindReq"
??ZDP_EndDeviceBindReq?relay SYMBOL "?relay", ZDP_EndDeviceBindReq
ZDP_GenericRsp      SYMBOL "ZDP_GenericRsp"
??ZDP_GenericRsp?relay SYMBOL "?relay", ZDP_GenericRsp
ZDP_IEEEAddrReq     SYMBOL "ZDP_IEEEAddrReq"
??ZDP_IEEEAddrReq?relay SYMBOL "?relay", ZDP_IEEEAddrReq
ZDP_IncomingData    SYMBOL "ZDP_IncomingData"
??ZDP_IncomingData?relay SYMBOL "?relay", ZDP_IncomingData
ZDP_MatchDescReq    SYMBOL "ZDP_MatchDescReq"
??ZDP_MatchDescReq?relay SYMBOL "?relay", ZDP_MatchDescReq
ZDP_NodeDescMsg     SYMBOL "ZDP_NodeDescMsg"
??ZDP_NodeDescMsg?relay SYMBOL "?relay", ZDP_NodeDescMsg
ZDP_NwkAddrReq      SYMBOL "ZDP_NwkAddrReq"
??ZDP_NwkAddrReq?relay SYMBOL "?relay", ZDP_NwkAddrReq
ZDP_PowerDescMsg    SYMBOL "ZDP_PowerDescMsg"
??ZDP_PowerDescMsg?relay SYMBOL "?relay", ZDP_PowerDescMsg
ZDP_SendData        SYMBOL "ZDP_SendData"
??ZDP_SendData?relay SYMBOL "?relay", ZDP_SendData
ZDP_SimpleDescMsg   SYMBOL "ZDP_SimpleDescMsg"
??ZDP_SimpleDescMsg?relay SYMBOL "?relay", ZDP_SimpleDescMsg
zdpProcessAddrReq   SYMBOL "zdpProcessAddrReq"
??zdpProcessAddrReq?relay SYMBOL "?relay", zdpProcessAddrReq

        EXTERN AF_DataRequest
        FUNCTION AF_DataRequest,0202H
        ARGFRAME ISTACK, 0, STACK
        ARGFRAME PSTACK, 0, STACK
        ARGFRAME XSTACK, 29, STACK
        ARGFRAME IOVERLAY, 0, STATIC
        ARGFRAME DOVERLAY, 0, STATIC
        EXTERN osal_ExtAddrEqual
        FUNCTION osal_ExtAddrEqual,0202H
        ARGFRAME ISTACK, 0, STACK
        ARGFRAME PSTACK, 0, STACK
        ARGFRAME XSTACK, 25, STACK
        ARGFRAME IOVERLAY, 0, STATIC
        ARGFRAME DOVERLAY, 0, STATIC
        EXTERN osal_cpyExtAddr
        FUNCTION osal_cpyExtAddr,0202H
        ARGFRAME ISTACK, 0, STACK
        ARGFRAME PSTACK, 0, STACK
        ARGFRAME XSTACK, 25, STACK
        ARGFRAME IOVERLAY, 0, STATIC
        ARGFRAME DOVERLAY, 0, STATIC
        EXTERN osal_memcpy
        FUNCTION osal_memcpy,0202H
        ARGFRAME ISTACK, 0, STACK
        ARGFRAME PSTACK, 0, STACK
        ARGFRAME XSTACK, 23, STACK
        ARGFRAME IOVERLAY, 0, STATIC
        ARGFRAME DOVERLAY, 0, STATIC
        EXTERN NLME_GetShortAddr
        FUNCTION NLME_GetShortAddr,0202H
        ARGFRAME ISTACK, 0, STACK
        ARGFRAME PSTACK, 0, STACK
        ARGFRAME XSTACK, 19, STACK
        ARGFRAME IOVERLAY, 0, STATIC
        ARGFRAME DOVERLAY, 0, STATIC
        EXTERN NLME_GetExtAddr
        FUNCTION NLME_GetExtAddr,0202H
        ARGFRAME ISTACK, 0, STACK
        ARGFRAME PSTACK, 0, STACK
        ARGFRAME XSTACK, 19, STACK
        ARGFRAME IOVERLAY, 0, STATIC
        ARGFRAME DOVERLAY, 0, STATIC
        EXTERN osal_mem_alloc
        FUNCTION osal_mem_alloc,0202H
        ARGFRAME ISTACK, 0, STACK
        ARGFRAME PSTACK, 0, STACK
        ARGFRAME XSTACK, 18, STACK
        ARGFRAME IOVERLAY, 0, STATIC
        ARGFRAME DOVERLAY, 0, STATIC
        EXTERN osal_mem_free
        FUNCTION osal_mem_free,0202H
        ARGFRAME ISTACK, 0, STACK
        ARGFRAME PSTACK, 0, STACK
        ARGFRAME XSTACK, 13, STACK
        ARGFRAME IOVERLAY, 0, STATIC
        ARGFRAME DOVERLAY, 0, STATIC
        EXTERN osal_msg_allocate
        FUNCTION osal_msg_allocate,0202H
        ARGFRAME ISTACK, 0, STACK
        ARGFRAME PSTACK, 0, STACK
        ARGFRAME XSTACK, 18, STACK
        ARGFRAME IOVERLAY, 0, STATIC
        ARGFRAME DOVERLAY, 0, STATIC
        EXTERN osal_msg_send
        FUNCTION osal_msg_send,0202H
        ARGFRAME ISTACK, 0, STACK
        ARGFRAME PSTACK, 0, STACK
        ARGFRAME XSTACK, 18, STACK
        ARGFRAME IOVERLAY, 0, STATIC
        ARGFRAME DOVERLAY, 0, STATIC
        EXTERN ZDApp_InMsgCB
        FUNCTION ZDApp_InMsgCB,0202H
        ARGFRAME ISTACK, 0, STACK
        ARGFRAME PSTACK, 0, STACK
        ARGFRAME XSTACK, 29, STACK
        ARGFRAME IOVERLAY, 0, STATIC
        ARGFRAME DOVERLAY, 0, STATIC
        EXTERN ??AF_DataRequest?relay
        FUNCTION ??AF_DataRequest?relay,00H
        EXTERN ??NLME_GetExtAddr?relay
        FUNCTION ??NLME_GetExtAddr?relay,00H
        EXTERN ??NLME_GetShortAddr?relay
        FUNCTION ??NLME_GetShortAddr?relay,00H
        EXTERN ??ZDApp_InMsgCB?relay
        FUNCTION ??ZDApp_InMsgCB?relay,00H
        EXTERN ??ZDO_ProcessActiveEPReq?relay
        FUNCTION ??ZDO_ProcessActiveEPReq?relay,00H
        EXTERN ??ZDO_ProcessMatchDescReq?relay
        FUNCTION ??ZDO_ProcessMatchDescReq?relay,00H
        EXTERN ??ZDO_ProcessNodeDescReq?relay
        FUNCTION ??ZDO_ProcessNodeDescReq?relay,00H
        EXTERN ??ZDO_ProcessPowerDescReq?relay
        FUNCTION ??ZDO_ProcessPowerDescReq?relay,00H
        EXTERN ??ZDO_ProcessSimpleDescReq?relay
        FUNCTION ??ZDO_ProcessSimpleDescReq?relay,00H
        EXTERN ??osal_ExtAddrEqual?relay
        FUNCTION ??osal_ExtAddrEqual?relay,00H
        EXTERN ??osal_cpyExtAddr?relay
        FUNCTION ??osal_cpyExtAddr?relay,00H
        EXTERN ??osal_mem_alloc?relay
        FUNCTION ??osal_mem_alloc?relay,00H
        EXTERN ??osal_mem_free?relay
        FUNCTION ??osal_mem_free?relay,00H
        EXTERN ??osal_memcpy?relay
        FUNCTION ??osal_memcpy?relay,00H
        EXTERN ??osal_msg_allocate?relay
        FUNCTION ??osal_msg_allocate?relay,00H
        EXTERN ??osal_msg_send?relay
        FUNCTION ??osal_msg_send?relay,00H
        EXTERN ZDAppNwkAddr
        EXTERN ZDApp_epDesc
        EXTERN saveExtAddr

// C:\Texas Instruments\ZStack-1.4.3-1.2.1\Components\stack\zdo\ZDProfile.c
//    1 /**************************************************************************************************
//    2   Filename:       ZDProfile.c
//    3   Revised:        $Date: 2007-10-28 18:43:04 -0700 (Sun, 28 Oct 2007) $
//    4   Revision:       $Revision: 15800 $
//    5 
//    6   Description:    This is the Zigbee Device Profile.
//    7 
//    8 
//    9   Copyright 2004-2007 Texas Instruments Incorporated. All rights reserved.
//   10 
//   11   IMPORTANT: Your use of this Software is limited to those specific rights
//   12   granted under the terms of a software license agreement between the user
//   13   who downloaded the software, his/her employer (which must be your employer)
//   14   and Texas Instruments Incorporated (the "License").  You may not use this
//   15   Software unless you agree to abide by the terms of the License. The License
//   16   limits your use, and you acknowledge, that the Software may not be modified,
//   17   copied or distributed unless embedded on a Texas Instruments microcontroller
//   18   or used solely and exclusively in conjunction with a Texas Instruments radio
//   19   frequency transceiver, which is integrated into your product.  Other than for
//   20   the foregoing purpose, you may not use, reproduce, copy, prepare derivative
//   21   works of, modify, distribute, perform, display or sell this Software and/or
//   22   its documentation for any purpose.
//   23 
//   24   YOU FURTHER ACKNOWLEDGE AND AGREE THAT THE SOFTWARE AND DOCUMENTATION ARE
//   25   PROVIDED “AS IS” WITHOUT WARRANTY OF ANY KIND, EITHER EXPRESS OR IMPLIED, 
//   26   INCLUDING WITHOUT LIMITATION, ANY WARRANTY OF MERCHANTABILITY, TITLE, 
//   27   NON-INFRINGEMENT AND FITNESS FOR A PARTICULAR PURPOSE. IN NO EVENT SHALL
//   28   TEXAS INSTRUMENTS OR ITS LICENSORS BE LIABLE OR OBLIGATED UNDER CONTRACT,
//   29   NEGLIGENCE, STRICT LIABILITY, CONTRIBUTION, BREACH OF WARRANTY, OR OTHER
//   30   LEGAL EQUITABLE THEORY ANY DIRECT OR INDIRECT DAMAGES OR EXPENSES
//   31   INCLUDING BUT NOT LIMITED TO ANY INCIDENTAL, SPECIAL, INDIRECT, PUNITIVE
//   32   OR CONSEQUENTIAL DAMAGES, LOST PROFITS OR LOST DATA, COST OF PROCUREMENT
//   33   OF SUBSTITUTE GOODS, TECHNOLOGY, SERVICES, OR ANY CLAIMS BY THIRD PARTIES
//   34   (INCLUDING BUT NOT LIMITED TO ANY DEFENSE THEREOF), OR OTHER SIMILAR COSTS.
//   35 
//   36   Should you have any questions regarding your right to use this Software,
//   37   contact Texas Instruments Incorporated at www.TI.com. 
//   38 **************************************************************************************************/
//   39 
//   40 /*********************************************************************
//   41  * INCLUDES
//   42  */
//   43 #include "ZComdef.h"
//   44 #include "OSAL.h"
//   45 #include "AF.h"
//   46 #include "NLMEDE.h"
//   47 #include "nwk_util.h"
//   48 #include "APS.h"
//   49 
//   50 #include "AddrMgr.h"
//   51 #include "ZDConfig.h"
//   52 #include "ZDProfile.h"
//   53 #include "ZDObject.h"
//   54 
//   55 #if defined( LCD_SUPPORTED )
//   56   #include "OnBoard.h"
//   57 #endif
//   58 
//   59 #include "nwk_util.h"
//   60 
//   61 #if defined( MT_ZDO_FUNC )
//   62   #include "MT_ZDO.h"
//   63 #endif
//   64 
//   65 /*********************************************************************
//   66  * MACROS
//   67  */
//   68 
//   69 #define ZADDR_TO_AFADDR( pZADDR, AFADDR ) {                            \ 
//   70   (AFADDR).endPoint = ZDP_AF_ENDPOINT;                                 \ 
//   71   (AFADDR).addrMode = (afAddrMode_t)(pZADDR)->addrMode;                \ 
//   72   (AFADDR).addr.shortAddr = (pZADDR)->addr.shortAddr;                  \ 
//   73 }
//   74 
//   75 #define FillAndSendBuffer( TRANSSEQ, ADDR, ID, LEN, BUF ) {     \ 
//   76   afStatus_t stat;                                    \ 
//   77   ZDP_TmpBuf = (BUF)+1;                               \ 
//   78   stat = fillAndSend( (TRANSSEQ), (ADDR), (ID), (LEN) );          \ 
//   79   osal_mem_free( (BUF) );                             \ 
//   80   ZDP_TmpBuf = ZDP_Buf+1;                             \ 
//   81   return stat;                                        \ 
//   82 }
//   83 
//   84 #define FillAndSendTxOptions( TRANSSEQ, ADDR, ID, LEN, TxO ) {  \ 
//   85   afStatus_t stat;                                    \ 
//   86   ZDP_TxOptions = (TxO);                              \ 
//   87   stat = fillAndSend( (TRANSSEQ), (ADDR), (ID), (LEN) );          \ 
//   88   ZDP_TxOptions = AF_TX_OPTIONS_NONE;                 \ 
//   89   return stat;                                        \ 
//   90 }
//   91 
//   92 /*********************************************************************
//   93  * CONSTANTS
//   94  */
//   95 
//   96 #define ZDP_BUF_SZ          80
//   97 

        RSEG CODE_C:CODE:REORDER:NOROOT(0)
        DATA
//   98 CONST byte ZDP_AF_ENDPOINT = 0;
ZDP_AF_ENDPOINT:
        DB 0
//   99 
//  100 /*********************************************************************
//  101  * TYPEDEFS
//  102  */
//  103 typedef struct
//  104 {
//  105   void *next;
//  106   uint8 taskID;
//  107   uint16 clusterID;
//  108 } ZDO_MsgCB_t;
//  109 
//  110 
//  111 /*********************************************************************
//  112  * GLOBAL VARIABLES
//  113  */
//  114 

        RSEG XDATA_Z:XDATA:NOROOT(0)
//  115 byte ZDP_TransID = 0;
ZDP_TransID:
        DS 1
        REQUIRE __INIT_XDATA_Z
//  116 
//  117 /*********************************************************************
//  118  * EXTERNAL VARIABLES
//  119  */
//  120 
//  121 extern endPointDesc_t ZDApp_epDesc;
//  122 
//  123 /*********************************************************************
//  124  * EXTERNAL FUNCTIONS
//  125  */
//  126 
//  127 /*********************************************************************
//  128  * LOCAL FUNCTIONS
//  129  */
//  130 
//  131 static afStatus_t fillAndSend( uint8 *transSeq, zAddrType_t *addr, cId_t clusterID, byte len );
//  132 uint8 ZDO_SendMsgCBs( zdoIncomingMsg_t *inMsg );
//  133 void zdpProcessAddrReq( zdoIncomingMsg_t *inMsg );
//  134 
//  135 /*********************************************************************
//  136  * LOCAL VARIABLES
//  137  */
//  138 

        RSEG XDATA_Z:XDATA:NOROOT(0)
//  139 static uint8  ZDP_Buf[ ZDP_BUF_SZ ];
ZDP_Buf:
        DS 80
        REQUIRE __INIT_XDATA_Z

        RSEG XDATA_I:XDATA:NOROOT(0)
        DATA
//  140 static uint8 *ZDP_TmpBuf = ZDP_Buf+1;
ZDP_TmpBuf:
        DS 2
        REQUIRE `?<Initializer for ZDP_TmpBuf>`
        REQUIRE __INIT_XDATA_I

        RSEG XDATA_Z:XDATA:NOROOT(0)
//  141 static byte ZDP_TxOptions = AF_TX_OPTIONS_NONE;
ZDP_TxOptions:
        DS 1
        REQUIRE __INIT_XDATA_Z
//  142 

        RSEG XDATA_Z:XDATA:NOROOT(0)
//  143 ZDO_MsgCB_t *zdoMsgCBs = (ZDO_MsgCB_t *)NULL;
zdoMsgCBs:
        DS 2
        REQUIRE __INIT_XDATA_Z
//  144 
//  145 /*********************************************************************
//  146  * ZDO Message Processing table
//  147  */
//  148 
//  149 typedef void (*pfnZDPMsgProcessor)( zdoIncomingMsg_t *inMsg );
//  150 
//  151 typedef struct
//  152 {
//  153   uint16                clusterID;
//  154   pfnZDPMsgProcessor    pFn;
//  155 } zdpMsgProcItem_t;
//  156 

        RSEG CODE_C:CODE:REORDER:NOROOT(0)
        DATA
//  157 CONST zdpMsgProcItem_t zdpMsgProcs[] = 
zdpMsgProcs:
        DW 0, ??zdpProcessAddrReq?relay, 1, ??zdpProcessAddrReq?relay, 2
        DW ??ZDO_ProcessNodeDescReq?relay, 3, ??ZDO_ProcessPowerDescReq?relay
        DW 4, ??ZDO_ProcessSimpleDescReq?relay, 5
        DW ??ZDO_ProcessActiveEPReq?relay, 6, ??ZDO_ProcessMatchDescReq?relay
        DW 65535, 0H
//  158 {
//  159   { NWK_addr_req,           zdpProcessAddrReq },
//  160   { IEEE_addr_req,          zdpProcessAddrReq },
//  161   { Node_Desc_req,          ZDO_ProcessNodeDescReq },
//  162   { Power_Desc_req,         ZDO_ProcessPowerDescReq },
//  163   { Simple_Desc_req,        ZDO_ProcessSimpleDescReq },
//  164   { Active_EP_req,          ZDO_ProcessActiveEPReq },
//  165   { Match_Desc_req,         ZDO_ProcessMatchDescReq },
//  166 #if defined ( ZDO_MGMT_NWKDISC_RESPONSE )
//  167   { Mgmt_NWK_Disc_req,      ZDO_ProcessMgmtNwkDiscReq },
//  168 #endif
//  169 #if defined ( ZDO_MGMT_LQI_RESPONSE ) && defined ( RTR_NWK )
//  170   { Mgmt_Lqi_req,           ZDO_ProcessMgmtLqiReq },
//  171 #endif
//  172 #if defined ( ZDO_MGMT_RTG_RESPONSE ) && defined ( RTR_NWK )
//  173   { Mgmt_Rtg_req,           ZDO_ProcessMgmtRtgReq },
//  174 #endif
//  175 #if defined ( ZDO_MGMT_BIND_RESPONSE ) && defined ( REFLECTOR )
//  176   { Mgmt_Bind_req,          ZDO_ProcessMgmtBindReq },
//  177 #endif
//  178 #if defined ( ZDO_MGMT_JOINDIRECT_RESPONSE ) && defined ( RTR_NWK )
//  179   { Mgmt_Direct_Join_req,   ZDO_ProcessMgmtDirectJoinReq },
//  180 #endif
//  181 #if defined ( ZDO_MGMT_LEAVE_RESPONSE )
//  182   { Mgmt_Leave_req,         ZDO_ProcessMgmtLeaveReq },
//  183 #endif
//  184 #if defined ( ZDO_MGMT_PERMIT_JOIN_RESPONSE )  && defined ( RTR_NWK )
//  185   { Mgmt_Permit_Join_req,   ZDO_ProcessMgmtPermitJoinReq },
//  186 #endif
//  187 #if defined ( ZDO_USERDESC_RESPONSE )
//  188   { User_Desc_req,          ZDO_ProcessUserDescReq },
//  189 #endif
//  190 #if defined ( ZDO_USERDESCSET_RESPONSE )
//  191   { User_Desc_set,          ZDO_ProcessUserDescSet },
//  192 #endif
//  193 #if defined ( ZDO_SERVERDISC_RESPONSE )
//  194   { Server_Discovery_req,   ZDO_ProcessServerDiscReq },
//  195 #endif
//  196 #if defined ( ZDO_ENDDEVICE_ANNCE ) && defined ( RTR_NWK )
//  197   { End_Device_annce,       ZDO_ProcessEndDeviceAnnce },
//  198 #endif
//  199   {0xFFFF, NULL} // Last
//  200 };
//  201 
//  202 /*********************************************************************
//  203  * @fn          fillAndSend
//  204  *
//  205  * @brief       Combined to reduce space
//  206  *
//  207  * @param
//  208  * @param
//  209  *
//  210  * @return      afStatus_t
//  211  */

        RSEG BANKED_CODE:CODE:NOROOT(0)
//  212 static afStatus_t fillAndSend( uint8 *transSeq, zAddrType_t *addr, cId_t clusterID, byte len )
fillAndSend:
        CFI Block cfiBlock0 Using cfiCommon0
        CFI Function fillAndSend
//  213 {
        FUNCALL fillAndSend, AF_DataRequest
        LOCFRAME ISTACK, 0, STACK
        LOCFRAME PSTACK, 0, STACK
        LOCFRAME XSTACK, 29, STACK
        LOCFRAME IOVERLAY, 0, STATIC
        LOCFRAME DOVERLAY, 0, STATIC
        ARGFRAME ISTACK, 0, STACK
        ARGFRAME PSTACK, 0, STACK
        ARGFRAME XSTACK, 29, STACK
        ARGFRAME IOVERLAY, 0, STATIC
        ARGFRAME DOVERLAY, 0, STATIC
        MOV     A,#-0x10
        LCALL   ?BANKED_ENTER_XDATA
        CFI DPH0 load(1, XDATA, add(CFA_XSP16, literal(-1)))
        CFI DPL0 load(1, XDATA, add(CFA_XSP16, literal(-2)))
        CFI ?BRET_EXT load(1, XDATA, add(CFA_XSP16, literal(-3)))
        CFI ?RET_HIGH load(1, XDATA, add(CFA_XSP16, literal(-4)))
        CFI ?RET_LOW load(1, XDATA, add(CFA_XSP16, literal(-5)))
        CFI R7 load(1, XDATA, add(CFA_XSP16, literal(-6)))
        CFI V7 load(1, XDATA, add(CFA_XSP16, literal(-7)))
        CFI V6 load(1, XDATA, add(CFA_XSP16, literal(-8)))
        CFI V5 load(1, XDATA, add(CFA_XSP16, literal(-9)))
        CFI V4 load(1, XDATA, add(CFA_XSP16, literal(-10)))
        CFI V3 load(1, XDATA, add(CFA_XSP16, literal(-11)))
        CFI V2 load(1, XDATA, add(CFA_XSP16, literal(-12)))
        CFI V1 load(1, XDATA, add(CFA_XSP16, literal(-13)))
        CFI V0 load(1, XDATA, add(CFA_XSP16, literal(-14)))
        CFI VB load(1, XDATA, add(CFA_XSP16, literal(-15)))
        CFI R6 load(1, XDATA, add(CFA_XSP16, literal(-16)))
        CFI CFA_SP SP+0
        CFI CFA_XSP16 add(XSP16, 16)
        ; Saved register size: 16
        ; Auto size: 4
        MOV     A,#-0x4
        LCALL   ?ALLOC_XSTACK8
        CFI CFA_XSP16 add(XSP16, 20)
        MOV     ?V0 + 6,R2
        MOV     ?V0 + 7,R3
        MOV     ?V0 + 2,R4
        MOV     ?V0 + 3,R5
        MOV     ?V0 + 0,R1
        MOV     A,#0x14
        LCALL   ?XSTACK_DISP0_8
        MOVX    A,@DPTR
        MOV     R6,A
        INC     DPTR
        MOVX    A,@DPTR
        MOV     R7,A
//  214   afAddrType_t afAddr;
//  215 
//  216   ZADDR_TO_AFADDR( addr, afAddr );
        MOV     DPTR,#ZDP_AF_ENDPOINT
        CLR     A
        MOVC    A,@A+DPTR
        PUSH    A
        CFI CFA_SP SP+-1
        MOV     A,#0x3
        LCALL   ?XSTACK_DISP0_8
        POP     A
        CFI CFA_SP SP+0
        MOVX    @DPTR,A
        MOV     DPL,?V0 + 2
        MOV     DPH,?V0 + 3
        INC     DPTR
        INC     DPTR
        INC     DPTR
        INC     DPTR
        INC     DPTR
        INC     DPTR
        INC     DPTR
        INC     DPTR
        MOVX    A,@DPTR
        PUSH    A
        CFI CFA_SP SP+-1
        MOV     A,#0x2
        LCALL   ?XSTACK_DISP0_8
        POP     A
        CFI CFA_SP SP+0
        MOVX    @DPTR,A
        MOV     DPL,?V0 + 2
        MOV     DPH,?V0 + 3
        MOVX    A,@DPTR
        MOV     R0,A
        INC     DPTR
        MOVX    A,@DPTR
        MOV     R1,A
        MOV     DPL,?XSP + 0
        MOV     DPH,?XSP + 1
        MOV     A,R0
        MOVX    @DPTR,A
        INC     DPTR
        MOV     A,R1
        MOVX    @DPTR,A
//  217 
//  218   *(ZDP_TmpBuf-1) = *transSeq;
        MOV     DPL,?V0 + 6
        MOV     DPH,?V0 + 7
        MOVX    A,@DPTR
        PUSH    A
        CFI CFA_SP SP+-1
        MOV     DPTR,#ZDP_TmpBuf
        MOVX    A,@DPTR
        ADD     A,#-0x1
        MOV     R0,A
        INC     DPTR
        MOVX    A,@DPTR
        ADDC    A,#-0x1
        MOV     R1,A
        MOV     DPL,R0
        MOV     DPH,R1
        POP     A
        CFI CFA_SP SP+0
        MOVX    @DPTR,A
//  219 
//  220   return AF_DataRequest( &afAddr, &ZDApp_epDesc, clusterID,
//  221                            (uint16)(len+1), (uint8*)(ZDP_TmpBuf-1),
//  222                            transSeq, ZDP_TxOptions,  AF_DEFAULT_RADIUS );
        ; Setup parameters for call to function AF_DataRequest
        MOV     ?V0 + 1,#0xa
        MOV     R0,#?V0 + 1
        LCALL   ?PUSH_XSTACK_I_ONE
        CFI CFA_XSP16 add(XSP16, 21)
        MOV     R0,#?V0 + 6
        LCALL   ?PUSH_XSTACK_I_TWO
        CFI CFA_XSP16 add(XSP16, 23)
        MOV     DPTR,#ZDP_TmpBuf
        MOVX    A,@DPTR
        ADD     A,#-0x1
        MOV     ?V0 + 4,A
        INC     DPTR
        MOVX    A,@DPTR
        ADDC    A,#-0x1
        MOV     ?V0 + 5,A
        MOV     R0,#?V0 + 4
        LCALL   ?PUSH_XSTACK_I_TWO
        CFI CFA_XSP16 add(XSP16, 25)
        MOV     ?V0 + 4,?V0 + 0
        MOV     ?V0 + 5,#0x0
        MOV     A,#0x1
        ADD     A,?V0 + 4
        MOV     ?V0 + 4,A
        MOV     A,#0x0
        ADDC    A,?V0 + 5
        MOV     ?V0 + 5,A
        MOV     R0,#?V0 + 4
        LCALL   ?PUSH_XSTACK_I_TWO
        CFI CFA_XSP16 add(XSP16, 27)
        MOV     ?V0 + 4,R6
        MOV     ?V0 + 5,R7
        MOV     R0,#?V0 + 4
        LCALL   ?PUSH_XSTACK_I_TWO
        CFI CFA_XSP16 add(XSP16, 29)
        MOV     DPTR,#ZDP_TxOptions
        MOVX    A,@DPTR
        MOV     R1,A
        MOV     R4,#(ZDApp_epDesc & 0xff)
        MOV     R5,#((ZDApp_epDesc >> 8) & 0xff)
        MOV     A,#0x9
        LCALL   ?XSTACK_DISP0_8
        MOV     R2,DPL
        MOV     R3,DPH
        LCALL   ??AF_DataRequest?relay
        MOV     A,#0x9
        LCALL   ?DEALLOC_XSTACK8
        CFI CFA_XSP16 add(XSP16, 20)
        MOV     A,#0x4
        LCALL   ?DEALLOC_XSTACK8
        CFI CFA_XSP16 add(XSP16, 16)
        MOV     R7,#0x8
        LJMP    ?BANKED_LEAVE_XDATA
        CFI EndBlock cfiBlock0
//  223 
//  224 }
//  225 
//  226 /*********************************************************************
//  227  * @fn          ZDP_SendData
//  228  *
//  229  * @brief       This builds and send a request message that has
//  230  *              NWKAddrOfInterest as its only parameter.
//  231  *
//  232  * @param       dstAddr - destination address
//  233  * @param       cmd - clusterID
//  234  * @param       dataLen - number of bytes of data
//  235  * @param       data - pointer to the data
//  236  * @param       SecurityEnable - Security Options
//  237  *
//  238  * @return      afStatus_t
//  239  */

        RSEG BANKED_CODE:CODE:NOROOT(0)
//  240 afStatus_t ZDP_SendData( byte *TransSeq, zAddrType_t *dstAddr, uint16 cmd,
ZDP_SendData:
        CFI Block cfiBlock1 Using cfiCommon0
        CFI Function ZDP_SendData
//  241                         byte len, byte *buf, byte SecurityEnable )
//  242 {
        FUNCALL ZDP_SendData, fillAndSend
        LOCFRAME ISTACK, 0, STACK
        LOCFRAME PSTACK, 0, STACK
        LOCFRAME XSTACK, 20, STACK
        LOCFRAME IOVERLAY, 0, STATIC
        LOCFRAME DOVERLAY, 0, STATIC
        ARGFRAME ISTACK, 0, STACK
        ARGFRAME PSTACK, 0, STACK
        ARGFRAME XSTACK, 20, STACK
        ARGFRAME IOVERLAY, 0, STATIC
        ARGFRAME DOVERLAY, 0, STATIC
        MOV     A,#-0xe
        LCALL   ?BANKED_ENTER_XDATA
        CFI DPH0 load(1, XDATA, add(CFA_XSP16, literal(-1)))
        CFI DPL0 load(1, XDATA, add(CFA_XSP16, literal(-2)))
        CFI ?BRET_EXT load(1, XDATA, add(CFA_XSP16, literal(-3)))
        CFI ?RET_HIGH load(1, XDATA, add(CFA_XSP16, literal(-4)))
        CFI ?RET_LOW load(1, XDATA, add(CFA_XSP16, literal(-5)))
        CFI R7 load(1, XDATA, add(CFA_XSP16, literal(-6)))
        CFI V5 load(1, XDATA, add(CFA_XSP16, literal(-7)))
        CFI V4 load(1, XDATA, add(CFA_XSP16, literal(-8)))
        CFI V3 load(1, XDATA, add(CFA_XSP16, literal(-9)))
        CFI V2 load(1, XDATA, add(CFA_XSP16, literal(-10)))
        CFI V1 load(1, XDATA, add(CFA_XSP16, literal(-11)))
        CFI V0 load(1, XDATA, add(CFA_XSP16, literal(-12)))
        CFI VB load(1, XDATA, add(CFA_XSP16, literal(-13)))
        CFI R6 load(1, XDATA, add(CFA_XSP16, literal(-14)))
        CFI CFA_SP SP+0
        CFI CFA_XSP16 add(XSP16, 14)
        ; Saved register size: 14
        ; Auto size: 4
        MOV     A,#-0x4
        LCALL   ?ALLOC_XSTACK8
        CFI CFA_XSP16 add(XSP16, 18)
        MOV     DPL,?XSP + 0
        MOV     DPH,?XSP + 1
        MOV     A,R2
        MOVX    @DPTR,A
        INC     DPTR
        MOV     A,R3
        MOVX    @DPTR,A
        MOV     A,#0x2
        LCALL   ?XSTACK_DISP0_8
        MOV     A,R4
        MOVX    @DPTR,A
        INC     DPTR
        MOV     A,R5
        MOVX    @DPTR,A
        MOV     A,R1
        MOV     R7,A
        MOV     A,#0x12
        LCALL   ?XSTACK_DISP0_8
        MOVX    A,@DPTR
        MOV     ?V0 + 2,A
        INC     DPTR
        MOVX    A,@DPTR
        MOV     ?V0 + 3,A
        MOV     A,#0x16
        LCALL   ?XSTACK_DISP0_8
        MOVX    A,@DPTR
        MOV     ?V0 + 1,A
//  243   byte *pBuf = ZDP_TmpBuf;
        MOV     DPTR,#ZDP_TmpBuf
        MOVX    A,@DPTR
        MOV     R0,A
        INC     DPTR
        MOVX    A,@DPTR
        MOV     R1,A
        MOV     ?V0 + 4,R0
        MOV     ?V0 + 5,R1
//  244   byte cnt = len;
        MOV     A,R7
        MOV     R6,A
//  245 
//  246   while ( cnt-- )
??ZDP_SendData_0:
        MOV     A,R6
        MOV     R2,A
        MOV     A,#-0x1
        ADD     A,R2
        MOV     R6,A
        MOV     A,R2
        JZ      ??ZDP_SendData_1
//  247   {
//  248     *pBuf++ = *buf++;
        MOV     A,#0x14
        LCALL   ?XSTACK_DISP0_8
        MOVX    A,@DPTR
        MOV     R0,A
        INC     DPTR
        MOVX    A,@DPTR
        MOV     DPH,A
        MOV     DPL,R0
        MOVX    A,@DPTR
        MOV     DPL,?V0 + 4
        MOV     DPH,?V0 + 5
        MOVX    @DPTR,A
        MOV     A,#0x14
        LCALL   ?XSTACK_DISP0_8
        MOVX    A,@DPTR
        ADD     A,#0x1
        MOV     R0,A
        INC     DPTR
        MOVX    A,@DPTR
        ADDC    A,#0x0
        MOV     R1,A
        MOV     A,#0x14
        LCALL   ?XSTACK_DISP0_8
        MOV     A,R0
        MOVX    @DPTR,A
        INC     DPTR
        MOV     A,R1
        MOVX    @DPTR,A
        MOV     DPL,?V0 + 4
        MOV     DPH,?V0 + 5
        INC     DPTR
        MOV     ?V0 + 4,DPL
        MOV     ?V0 + 5,DPH
        SJMP    ??ZDP_SendData_0
//  249   }
//  250 
//  251   FillAndSendTxOptions( TransSeq, dstAddr, cmd, len,
//  252                (AF_DEFAULT_RADIUS | ((SecurityEnable) ? AF_EN_SECURITY : 0)) );
??ZDP_SendData_1:
        MOV     A,?V0 + 1
        JZ      ??ZDP_SendData_2
        MOV     R0,#0x40
        SJMP    ??ZDP_SendData_3
??ZDP_SendData_2:
        MOV     R0,#0x0
??ZDP_SendData_3:
        MOV     A,R0
        ORL     A,#0xa
        MOV     DPTR,#ZDP_TxOptions
        MOVX    @DPTR,A
        ; Setup parameters for call to function fillAndSend
        MOV     R0,#?V0 + 2
        LCALL   ?PUSH_XSTACK_I_TWO
        CFI CFA_XSP16 add(XSP16, 20)
        MOV     A,R7
        MOV     R1,A
        MOV     A,#0x4
        LCALL   ?XSTACK_DISP0_8
        MOVX    A,@DPTR
        MOV     R4,A
        INC     DPTR
        MOVX    A,@DPTR
        MOV     R5,A
        MOV     A,#0x2
        LCALL   ?XSTACK_DISP0_8
        MOVX    A,@DPTR
        MOV     R2,A
        INC     DPTR
        MOVX    A,@DPTR
        MOV     R3,A
        LCALL   ??fillAndSend?relay
        MOV     A,#0x2
        LCALL   ?DEALLOC_XSTACK8
        CFI CFA_XSP16 add(XSP16, 18)
        MOV     A,R1
        MOV     ?V0 + 0,A
        MOV     A,#0x0
        MOV     DPTR,#ZDP_TxOptions
        MOVX    @DPTR,A
        MOV     R1,?V0 + 0
        MOV     A,#0x4
        LCALL   ?DEALLOC_XSTACK8
        CFI CFA_XSP16 add(XSP16, 14)
        MOV     R7,#0x6
        LJMP    ?BANKED_LEAVE_XDATA
        CFI EndBlock cfiBlock1
//  253 }
//  254 
//  255 #if defined ( ZDO_NODEDESC_REQUEST ) || defined ( ZDO_POWERDESC_REQUEST ) ||\ 
//  256     defined ( ZDO_ACTIVEEP_REQUEST ) || defined ( ZDO_COMPLEXDESC_REQUEST ) ||\ 
//  257     defined ( ZDO_USERDESC_REQUEST )
//  258 /*********************************************************************
//  259  * @fn          ZDP_NWKAddrOfInterestReq
//  260  *
//  261  * @brief       This builds and send a request message that has
//  262  *              NWKAddrOfInterest as its only parameter.
//  263  *
//  264  * @param       dstAddr - destination address
//  265  * @param       nwkAddr - 16 bit address
//  266  * @param       SecurityEnable - Security Options
//  267  *
//  268  * @return      afStatus_t
//  269  */
//  270 afStatus_t ZDP_NWKAddrOfInterestReq( zAddrType_t *dstAddr, uint16 nwkAddr,
//  271                                      byte cmd, byte SecurityEnable )
//  272 {
//  273   ZDP_TmpBuf[0] = LO_UINT16( nwkAddr );
//  274   ZDP_TmpBuf[1] = HI_UINT16( nwkAddr );
//  275 
//  276   return fillAndSend( &ZDP_TransID, dstAddr, cmd, 2 );
//  277 }
//  278 #endif // ZDO_NODEDESC_REQUEST ZDO_POWERDESC_REQUEST ZDO_ACTIVEEP_REQUEST ZDO_COMPLEXDESC_REQUEST  ZDO_USERDESC_REQUEST
//  279 
//  280 /*********************************************************************
//  281  * Address Requests
//  282  */
//  283 
//  284 #if defined ( ZDO_NWKADDR_REQUEST )
//  285 /*********************************************************************
//  286  * @fn          ZDP_NwkAddrReq
//  287  *
//  288  * @brief       This builds and send a NWK_addr_req message.  This
//  289  *              function sends a broadcast message looking for a 16
//  290  *              bit address with a 64 bit address as bait.
//  291  *
//  292  * @param       IEEEAddress - looking for this device
//  293  * @param       SecurityEnable - Security Options
//  294  *
//  295  * @return      afStatus_t
//  296  */

        RSEG BANKED_CODE:CODE:NOROOT(0)
//  297 afStatus_t ZDP_NwkAddrReq( byte *IEEEAddress, byte ReqType,
ZDP_NwkAddrReq:
        CFI Block cfiBlock2 Using cfiCommon0
        CFI Function ZDP_NwkAddrReq
//  298                            byte StartIndex, byte SecurityEnable )
//  299 {
        FUNCALL ZDP_NwkAddrReq, osal_ExtAddrEqual
        LOCFRAME ISTACK, 0, STACK
        LOCFRAME PSTACK, 0, STACK
        LOCFRAME XSTACK, 25, STACK
        LOCFRAME IOVERLAY, 0, STATIC
        LOCFRAME DOVERLAY, 0, STATIC
        ARGFRAME ISTACK, 0, STACK
        ARGFRAME PSTACK, 0, STACK
        ARGFRAME XSTACK, 25, STACK
        ARGFRAME IOVERLAY, 0, STATIC
        ARGFRAME DOVERLAY, 0, STATIC
        FUNCALL ZDP_NwkAddrReq, osal_cpyExtAddr
        LOCFRAME ISTACK, 0, STACK
        LOCFRAME PSTACK, 0, STACK
        LOCFRAME XSTACK, 25, STACK
        LOCFRAME IOVERLAY, 0, STATIC
        LOCFRAME DOVERLAY, 0, STATIC
        ARGFRAME ISTACK, 0, STACK
        ARGFRAME PSTACK, 0, STACK
        ARGFRAME XSTACK, 25, STACK
        ARGFRAME IOVERLAY, 0, STATIC
        ARGFRAME DOVERLAY, 0, STATIC
        FUNCALL ZDP_NwkAddrReq, fillAndSend
        LOCFRAME ISTACK, 0, STACK
        LOCFRAME PSTACK, 0, STACK
        LOCFRAME XSTACK, 27, STACK
        LOCFRAME IOVERLAY, 0, STATIC
        LOCFRAME DOVERLAY, 0, STATIC
        ARGFRAME ISTACK, 0, STACK
        ARGFRAME PSTACK, 0, STACK
        ARGFRAME XSTACK, 27, STACK
        ARGFRAME IOVERLAY, 0, STATIC
        ARGFRAME DOVERLAY, 0, STATIC
        MOV     A,#-0x10
        LCALL   ?BANKED_ENTER_XDATA
        CFI DPH0 load(1, XDATA, add(CFA_XSP16, literal(-1)))
        CFI DPL0 load(1, XDATA, add(CFA_XSP16, literal(-2)))
        CFI ?BRET_EXT load(1, XDATA, add(CFA_XSP16, literal(-3)))
        CFI ?RET_HIGH load(1, XDATA, add(CFA_XSP16, literal(-4)))
        CFI ?RET_LOW load(1, XDATA, add(CFA_XSP16, literal(-5)))
        CFI R7 load(1, XDATA, add(CFA_XSP16, literal(-6)))
        CFI V7 load(1, XDATA, add(CFA_XSP16, literal(-7)))
        CFI V6 load(1, XDATA, add(CFA_XSP16, literal(-8)))
        CFI V5 load(1, XDATA, add(CFA_XSP16, literal(-9)))
        CFI V4 load(1, XDATA, add(CFA_XSP16, literal(-10)))
        CFI V3 load(1, XDATA, add(CFA_XSP16, literal(-11)))
        CFI V2 load(1, XDATA, add(CFA_XSP16, literal(-12)))
        CFI V1 load(1, XDATA, add(CFA_XSP16, literal(-13)))
        CFI V0 load(1, XDATA, add(CFA_XSP16, literal(-14)))
        CFI VB load(1, XDATA, add(CFA_XSP16, literal(-15)))
        CFI R6 load(1, XDATA, add(CFA_XSP16, literal(-16)))
        CFI CFA_SP SP+0
        CFI CFA_XSP16 add(XSP16, 16)
        ; Saved register size: 16
        ; Auto size: 9
        MOV     A,#-0x9
        LCALL   ?ALLOC_XSTACK8
        CFI CFA_XSP16 add(XSP16, 25)
        MOV     ?V0 + 6,R2
        MOV     ?V0 + 7,R3
        MOV     ?V0 + 4,R1
        MOV     ?V0 + 1,R4
//  300   byte *pBuf = ZDP_TmpBuf;
        MOV     DPTR,#ZDP_TmpBuf
        MOVX    A,@DPTR
        MOV     R0,A
        INC     DPTR
        MOVX    A,@DPTR
        MOV     R1,A
        MOV     A,R0
        MOV     R6,A
        MOV     A,R1
        MOV     R7,A
//  301   byte len = Z_EXTADDR_LEN + 1 + 1;  // IEEEAddress + ReqType + StartIndex.
        MOV     ?V0 + 0,#0xa
//  302   zAddrType_t dstAddr;
//  303 
//  304   if ( osal_ExtAddrEqual( saveExtAddr, IEEEAddress ) == FALSE )
        ; Setup parameters for call to function osal_ExtAddrEqual
        MOV     R4,?V0 + 6
        MOV     R5,?V0 + 7
        MOV     R2,#(saveExtAddr & 0xff)
        MOV     R3,#((saveExtAddr >> 8) & 0xff)
        LCALL   ??osal_ExtAddrEqual?relay
        MOV     A,R1
        JNZ     ??ZDP_NwkAddrReq_0
//  305   {
//  306     dstAddr.addrMode = AddrBroadcast;
        MOV     A,#0xf
        PUSH    A
        CFI CFA_SP SP+-1
        MOV     A,#0x8
        LCALL   ?XSTACK_DISP0_8
        POP     A
        CFI CFA_SP SP+0
        MOVX    @DPTR,A
//  307     dstAddr.addr.shortAddr = NWK_BROADCAST_SHORTADDR;
        MOV     DPL,?XSP + 0
        MOV     DPH,?XSP + 1
        MOV     A,#-0x1
        MOVX    @DPTR,A
        INC     DPTR
        MOV     A,#-0x1
        MOVX    @DPTR,A
        SJMP    ??ZDP_NwkAddrReq_1
//  308   }
//  309   else
//  310   {
//  311     dstAddr.addrMode = Addr16Bit;
??ZDP_NwkAddrReq_0:
        MOV     A,#0x2
        PUSH    A
        CFI CFA_SP SP+-1
        MOV     A,#0x8
        LCALL   ?XSTACK_DISP0_8
        POP     A
        CFI CFA_SP SP+0
        MOVX    @DPTR,A
//  312     dstAddr.addr.shortAddr = ZDAppNwkAddr.addr.shortAddr;
        MOV     DPTR,#ZDAppNwkAddr
        MOVX    A,@DPTR
        MOV     R0,A
        INC     DPTR
        MOVX    A,@DPTR
        MOV     R1,A
        MOV     DPL,?XSP + 0
        MOV     DPH,?XSP + 1
        MOV     A,R0
        MOVX    @DPTR,A
        INC     DPTR
        MOV     A,R1
        MOVX    @DPTR,A
//  313   }
//  314 
//  315   pBuf = osal_cpyExtAddr( pBuf, IEEEAddress );
??ZDP_NwkAddrReq_1:
        ; Setup parameters for call to function osal_cpyExtAddr
        MOV     R4,?V0 + 6
        MOV     R5,?V0 + 7
        MOV     A,R6
        MOV     R2,A
        MOV     A,R7
        MOV     R3,A
        LCALL   ??osal_cpyExtAddr?relay
        MOV     ?V0 + 2,R2
        MOV     ?V0 + 3,R3
        MOV     R6,?V0 + 2
        MOV     R7,?V0 + 3
//  316 
//  317   *pBuf++ = ReqType;
        MOV     DPL,R6
        MOV     DPH,R7
        MOV     A,?V0 + 4
        MOVX    @DPTR,A
        MOV     DPL,R6
        MOV     DPH,R7
        INC     DPTR
        MOV     R6,DPL
        MOV     R7,DPH
//  318   *pBuf++ = StartIndex;
        MOV     DPL,R6
        MOV     DPH,R7
        MOV     A,?V0 + 1
        MOVX    @DPTR,A
//  319 
//  320   return fillAndSend( &ZDP_TransID, &dstAddr, NWK_addr_req, len );
        ; Setup parameters for call to function fillAndSend
        MOV     ?V0 + 2,#0x0
        MOV     ?V0 + 3,#0x0
        MOV     R0,#?V0 + 2
        LCALL   ?PUSH_XSTACK_I_TWO
        CFI CFA_XSP16 add(XSP16, 27)
        MOV     R1,?V0 + 0
        MOV     A,#0x2
        LCALL   ?XSTACK_DISP0_8
        MOV     R4,DPL
        MOV     R5,DPH
        MOV     R2,#(ZDP_TransID & 0xff)
        MOV     R3,#((ZDP_TransID >> 8) & 0xff)
        LCALL   ??fillAndSend?relay
        MOV     A,#0x2
        LCALL   ?DEALLOC_XSTACK8
        CFI CFA_XSP16 add(XSP16, 25)
        MOV     A,#0x9
        LCALL   ?DEALLOC_XSTACK8
        CFI CFA_XSP16 add(XSP16, 16)
        MOV     R7,#0x8
        LJMP    ?BANKED_LEAVE_XDATA
        CFI EndBlock cfiBlock2
//  321 }
//  322 #endif
//  323 
//  324 #if defined ( ZDO_IEEEADDR_REQUEST )
//  325 /*********************************************************************
//  326  * @fn          ZDP_IEEEAddrReq
//  327  *
//  328  * @brief       This builds and send a IEEE_addr_req message.  This
//  329  *              function sends a unicast message looking for a 64
//  330  *              bit IEEE address with a 16 bit address as bait.
//  331  *
//  332  * @param       ReqType - ZDP_IEEEADDR_REQTYPE_SINGLE or
//  333  *                        ZDP_IEEEADDR_REQTYPE_EXTENDED
//  334  * @param       SecurityEnable - Security Options
//  335  *
//  336  * @return      afStatus_t
//  337  */

        RSEG BANKED_CODE:CODE:NOROOT(0)
//  338 afStatus_t ZDP_IEEEAddrReq( uint16 shortAddr, byte ReqType,
ZDP_IEEEAddrReq:
        CFI Block cfiBlock3 Using cfiCommon0
        CFI Function ZDP_IEEEAddrReq
//  339                             byte StartIndex, byte SecurityEnable )
//  340 {
        FUNCALL ZDP_IEEEAddrReq, fillAndSend
        LOCFRAME ISTACK, 0, STACK
        LOCFRAME PSTACK, 0, STACK
        LOCFRAME XSTACK, 27, STACK
        LOCFRAME IOVERLAY, 0, STATIC
        LOCFRAME DOVERLAY, 0, STATIC
        ARGFRAME ISTACK, 0, STACK
        ARGFRAME PSTACK, 0, STACK
        ARGFRAME XSTACK, 27, STACK
        ARGFRAME IOVERLAY, 0, STATIC
        ARGFRAME DOVERLAY, 0, STATIC
        MOV     A,#-0x10
        LCALL   ?BANKED_ENTER_XDATA
        CFI DPH0 load(1, XDATA, add(CFA_XSP16, literal(-1)))
        CFI DPL0 load(1, XDATA, add(CFA_XSP16, literal(-2)))
        CFI ?BRET_EXT load(1, XDATA, add(CFA_XSP16, literal(-3)))
        CFI ?RET_HIGH load(1, XDATA, add(CFA_XSP16, literal(-4)))
        CFI ?RET_LOW load(1, XDATA, add(CFA_XSP16, literal(-5)))
        CFI R7 load(1, XDATA, add(CFA_XSP16, literal(-6)))
        CFI V7 load(1, XDATA, add(CFA_XSP16, literal(-7)))
        CFI V6 load(1, XDATA, add(CFA_XSP16, literal(-8)))
        CFI V5 load(1, XDATA, add(CFA_XSP16, literal(-9)))
        CFI V4 load(1, XDATA, add(CFA_XSP16, literal(-10)))
        CFI V3 load(1, XDATA, add(CFA_XSP16, literal(-11)))
        CFI V2 load(1, XDATA, add(CFA_XSP16, literal(-12)))
        CFI V1 load(1, XDATA, add(CFA_XSP16, literal(-13)))
        CFI V0 load(1, XDATA, add(CFA_XSP16, literal(-14)))
        CFI VB load(1, XDATA, add(CFA_XSP16, literal(-15)))
        CFI R6 load(1, XDATA, add(CFA_XSP16, literal(-16)))
        CFI CFA_SP SP+0
        CFI CFA_XSP16 add(XSP16, 16)
        ; Saved register size: 16
        ; Auto size: 9
        MOV     A,#-0x9
        LCALL   ?ALLOC_XSTACK8
        CFI CFA_XSP16 add(XSP16, 25)
        MOV     ?V0 + 0,R2
        MOV     ?V0 + 1,R3
        MOV     ?V0 + 6,R1
        MOV     ?V0 + 3,R4
//  341   byte *pBuf = ZDP_TmpBuf;
        MOV     DPTR,#ZDP_TmpBuf
        MOVX    A,@DPTR
        MOV     R0,A
        INC     DPTR
        MOVX    A,@DPTR
        MOV     R1,A
        MOV     A,R0
        MOV     R6,A
        MOV     A,R1
        MOV     R7,A
//  342   byte len = 2 + 1 + 1;  // shortAddr + ReqType + StartIndex.
        MOV     ?V0 + 2,#0x4
//  343   zAddrType_t dstAddr;
//  344 
//  345   dstAddr.addrMode = (afAddrMode_t)Addr16Bit;
        MOV     A,#0x2
        PUSH    A
        CFI CFA_SP SP+-1
        MOV     A,#0x8
        LCALL   ?XSTACK_DISP0_8
        POP     A
        CFI CFA_SP SP+0
        MOVX    @DPTR,A
//  346   dstAddr.addr.shortAddr = shortAddr;
        MOV     DPL,?XSP + 0
        MOV     DPH,?XSP + 1
        MOV     A,?V0 + 0
        MOVX    @DPTR,A
        INC     DPTR
        MOV     A,?V0 + 1
        MOVX    @DPTR,A
//  347 
//  348   *pBuf++ = LO_UINT16( shortAddr );
        MOV     DPL,R6
        MOV     DPH,R7
        MOV     A,?V0 + 0
        MOVX    @DPTR,A
        MOV     DPL,R6
        MOV     DPH,R7
        INC     DPTR
        MOV     R6,DPL
        MOV     R7,DPH
//  349   *pBuf++ = HI_UINT16( shortAddr );
        MOV     DPL,R6
        MOV     DPH,R7
        MOV     A,?V0 + 1
        MOVX    @DPTR,A
        MOV     DPL,R6
        MOV     DPH,R7
        INC     DPTR
        MOV     R6,DPL
        MOV     R7,DPH
//  350 
//  351   *pBuf++ = ReqType;
        MOV     DPL,R6
        MOV     DPH,R7
        MOV     A,?V0 + 6
        MOVX    @DPTR,A
        MOV     DPL,R6
        MOV     DPH,R7
        INC     DPTR
        MOV     R6,DPL
        MOV     R7,DPH
//  352   *pBuf++ = StartIndex;
        MOV     DPL,R6
        MOV     DPH,R7
        MOV     A,?V0 + 3
        MOVX    @DPTR,A
//  353 
//  354   return fillAndSend( &ZDP_TransID, &dstAddr, IEEE_addr_req, len );
        ; Setup parameters for call to function fillAndSend
        MOV     ?V0 + 4,#0x1
        MOV     ?V0 + 5,#0x0
        MOV     R0,#?V0 + 4
        LCALL   ?PUSH_XSTACK_I_TWO
        CFI CFA_XSP16 add(XSP16, 27)
        MOV     R1,?V0 + 2
        MOV     A,#0x2
        LCALL   ?XSTACK_DISP0_8
        MOV     R4,DPL
        MOV     R5,DPH
        MOV     R2,#(ZDP_TransID & 0xff)
        MOV     R3,#((ZDP_TransID >> 8) & 0xff)
        LCALL   ??fillAndSend?relay
        MOV     A,#0x2
        LCALL   ?DEALLOC_XSTACK8
        CFI CFA_XSP16 add(XSP16, 25)
        MOV     A,#0x9
        LCALL   ?DEALLOC_XSTACK8
        CFI CFA_XSP16 add(XSP16, 16)
        MOV     R7,#0x8
        LJMP    ?BANKED_LEAVE_XDATA
        CFI EndBlock cfiBlock3
//  355 }
//  356 #endif
//  357 
//  358 #if defined ( ZDO_MATCH_REQUEST )
//  359 /*********************************************************************
//  360  * @fn          ZDP_MatchDescReq
//  361  *
//  362  * @brief       This builds and send a Match_Desc_req message.  This
//  363  *              function sends a broadcast or unicast message
//  364  *              requesting the list of endpoint/interfaces that
//  365  *              match profile ID and cluster IDs.
//  366  *
//  367  * @param       dstAddr - destination address
//  368  * @param       ProfileID - Profile ID
//  369  * @param       NumInClusters - number of input clusters
//  370  * @param       InClusterList - input cluster ID list
//  371  * @param       NumOutClusters - number of output clusters
//  372  * @param       OutClusterList - output cluster ID list
//  373  * @param       SecurityEnable - Security Options
//  374  *
//  375  * @return      afStatus_t
//  376  */

        RSEG BANKED_CODE:CODE:NOROOT(0)
//  377 afStatus_t ZDP_MatchDescReq( zAddrType_t *dstAddr, uint16 nwkAddr,
ZDP_MatchDescReq:
        CFI Block cfiBlock4 Using cfiCommon0
        CFI Function ZDP_MatchDescReq
//  378                                 uint16 ProfileID,
//  379                                 byte NumInClusters, cId_t *InClusterList,
//  380                                 byte NumOutClusters, cId_t *OutClusterList,
//  381                                 byte SecurityEnable )
//  382 {
        FUNCALL ZDP_MatchDescReq, fillAndSend
        LOCFRAME ISTACK, 0, STACK
        LOCFRAME PSTACK, 0, STACK
        LOCFRAME XSTACK, 21, STACK
        LOCFRAME IOVERLAY, 0, STATIC
        LOCFRAME DOVERLAY, 0, STATIC
        ARGFRAME ISTACK, 0, STACK
        ARGFRAME PSTACK, 0, STACK
        ARGFRAME XSTACK, 21, STACK
        ARGFRAME IOVERLAY, 0, STATIC
        ARGFRAME DOVERLAY, 0, STATIC
        MOV     A,#-0xe
        LCALL   ?BANKED_ENTER_XDATA
        CFI DPH0 load(1, XDATA, add(CFA_XSP16, literal(-1)))
        CFI DPL0 load(1, XDATA, add(CFA_XSP16, literal(-2)))
        CFI ?BRET_EXT load(1, XDATA, add(CFA_XSP16, literal(-3)))
        CFI ?RET_HIGH load(1, XDATA, add(CFA_XSP16, literal(-4)))
        CFI ?RET_LOW load(1, XDATA, add(CFA_XSP16, literal(-5)))
        CFI R7 load(1, XDATA, add(CFA_XSP16, literal(-6)))
        CFI V5 load(1, XDATA, add(CFA_XSP16, literal(-7)))
        CFI V4 load(1, XDATA, add(CFA_XSP16, literal(-8)))
        CFI V3 load(1, XDATA, add(CFA_XSP16, literal(-9)))
        CFI V2 load(1, XDATA, add(CFA_XSP16, literal(-10)))
        CFI V1 load(1, XDATA, add(CFA_XSP16, literal(-11)))
        CFI V0 load(1, XDATA, add(CFA_XSP16, literal(-12)))
        CFI VB load(1, XDATA, add(CFA_XSP16, literal(-13)))
        CFI R6 load(1, XDATA, add(CFA_XSP16, literal(-14)))
        CFI CFA_SP SP+0
        CFI CFA_XSP16 add(XSP16, 14)
        ; Saved register size: 14
        ; Auto size: 5
        MOV     A,#-0x5
        LCALL   ?ALLOC_XSTACK8
        CFI CFA_XSP16 add(XSP16, 19)
        MOV     A,#0x3
        LCALL   ?XSTACK_DISP0_8
        MOV     A,R2
        MOVX    @DPTR,A
        INC     DPTR
        MOV     A,R3
        MOVX    @DPTR,A
        MOV     A,#0x1
        LCALL   ?XSTACK_DISP0_8
        MOV     A,R4
        MOVX    @DPTR,A
        INC     DPTR
        MOV     A,R5
        MOVX    @DPTR,A
        MOV     A,R1
        MOV     DPL,?XSP + 0
        MOV     DPH,?XSP + 1
        MOVX    @DPTR,A
        MOV     A,#0x13
        LCALL   ?XSTACK_DISP0_8
        MOVX    A,@DPTR
        MOV     ?V0 + 2,A
        INC     DPTR
        MOVX    A,@DPTR
        MOV     ?V0 + 3,A
//  383   byte *pBuf = ZDP_TmpBuf;
        MOV     DPTR,#ZDP_TmpBuf
        MOVX    A,@DPTR
        MOV     R0,A
        INC     DPTR
        MOVX    A,@DPTR
        MOV     R1,A
        MOV     A,R0
        MOV     R6,A
        MOV     A,R1
        MOV     R7,A
//  384   // nwkAddr+ProfileID+NumInClusters+NumOutClusters.
//  385   byte i, len = 2 + 2 + 1 + 1;  // nwkAddr+ProfileID+NumInClusters+NumOutClusters.
        MOV     ?V0 + 1,#0x6
//  386   
//  387   len += (NumInClusters + NumOutClusters) * sizeof(uint16);
        MOV     B,#0x2
        MOV     DPL,?XSP + 0
        MOV     DPH,?XSP + 1
        MOVX    A,@DPTR
        MOV     R0,A
        MOV     A,#0x17
        LCALL   ?XSTACK_DISP0_8
        MOVX    A,@DPTR
        ADD     A,R0
        MUL     AB
        ADD     A,?V0 + 1
        MOV     ?V0 + 1,A
//  388 
//  389   if ( len >= ZDP_BUF_SZ-1 )
        MOV     A,?V0 + 1
        CLR     C
        SUBB    A,#0x4f
        JC      ??ZDP_MatchDescReq_0
//  390   {
//  391     return afStatus_MEM_FAIL;
        MOV     R1,#-0x7f
        LJMP    ??ZDP_MatchDescReq_1 & 0xFFFF
//  392   }
//  393 
//  394   *pBuf++ = LO_UINT16( nwkAddr );   // NWKAddrOfInterest
??ZDP_MatchDescReq_0:
        MOV     A,#0x1
        LCALL   ?XSTACK_DISP0_8
        MOVX    A,@DPTR
        MOV     DPL,R6
        MOV     DPH,R7
        MOVX    @DPTR,A
        MOV     DPL,R6
        MOV     DPH,R7
        INC     DPTR
        MOV     R6,DPL
        MOV     R7,DPH
//  395   *pBuf++ = HI_UINT16( nwkAddr );
        MOV     A,#0x1
        LCALL   ?XSTACK_DISP0_8
        INC     DPTR
        MOVX    A,@DPTR
        MOV     R1,A
        MOV     A,R1
        MOV     DPL,R6
        MOV     DPH,R7
        MOVX    @DPTR,A
        MOV     DPL,R6
        MOV     DPH,R7
        INC     DPTR
        MOV     R6,DPL
        MOV     R7,DPH
//  396 
//  397   *pBuf++ = LO_UINT16( ProfileID );   // Profile ID
        MOV     DPL,R6
        MOV     DPH,R7
        MOV     A,?V0 + 2
        MOVX    @DPTR,A
        MOV     DPL,R6
        MOV     DPH,R7
        INC     DPTR
        MOV     R6,DPL
        MOV     R7,DPH
//  398   *pBuf++ = HI_UINT16( ProfileID );
        MOV     DPL,R6
        MOV     DPH,R7
        MOV     A,?V0 + 3
        MOVX    @DPTR,A
        MOV     DPL,R6
        MOV     DPH,R7
        INC     DPTR
        MOV     R6,DPL
        MOV     R7,DPH
//  399 
//  400   *pBuf++ = NumInClusters; // Input cluster list
        MOV     DPL,?XSP + 0
        MOV     DPH,?XSP + 1
        MOVX    A,@DPTR
        MOV     DPL,R6
        MOV     DPH,R7
        MOVX    @DPTR,A
        MOV     DPL,R6
        MOV     DPH,R7
        INC     DPTR
        MOV     R6,DPL
        MOV     R7,DPH
//  401   if ( NumInClusters )
        MOV     DPL,?XSP + 0
        MOV     DPH,?XSP + 1
        MOVX    A,@DPTR
        JNZ     $+5
        LJMP    ??ZDP_MatchDescReq_2 & 0xFFFF
//  402   {
//  403     for (i=0; i<NumInClusters; ++i)  {
        MOV     ?V0 + 0,#0x0
??ZDP_MatchDescReq_3:
        MOV     DPL,?XSP + 0
        MOV     DPH,?XSP + 1
        MOVX    A,@DPTR
        MOV     R2,A
        MOV     A,?V0 + 0
        CLR     C
        SUBB    A,R2
        JNC     ??ZDP_MatchDescReq_2
//  404       *pBuf++ = LO_UINT16( InClusterList[i] );
        MOV     R0,?V0 + 0
        MOV     R1,#0x0
        MOV     A,R0
        MOV     B,#0x2
        MUL     AB
        XCH     A,R0
        MOV     R2,B
        MOV     B,#0x0
        MUL     AB
        ADD     A,R2
        MOV     R2,A
        MOV     B,#0x2
        MOV     A,R1
        MUL     AB
        ADD     A,R2
        MOV     R1,A
        MOV     A,#0x15
        LCALL   ?XSTACK_DISP0_8
        MOVX    A,@DPTR
        ADD     A,R0
        MOV     R2,A
        INC     DPTR
        MOVX    A,@DPTR
        ADDC    A,R1
        MOV     DPL,R2
        MOV     DPH,A
        MOVX    A,@DPTR
        MOV     DPL,R6
        MOV     DPH,R7
        MOVX    @DPTR,A
        MOV     DPL,R6
        MOV     DPH,R7
        INC     DPTR
        MOV     R6,DPL
        MOV     R7,DPH
//  405       *pBuf++ = HI_UINT16( InClusterList[i] );
        MOV     R0,?V0 + 0
        MOV     R1,#0x0
        MOV     A,R0
        MOV     B,#0x2
        MUL     AB
        XCH     A,R0
        MOV     R2,B
        MOV     B,#0x0
        MUL     AB
        ADD     A,R2
        MOV     R2,A
        MOV     B,#0x2
        MOV     A,R1
        MUL     AB
        ADD     A,R2
        MOV     R1,A
        MOV     A,#0x15
        LCALL   ?XSTACK_DISP0_8
        MOVX    A,@DPTR
        ADD     A,R0
        MOV     R2,A
        INC     DPTR
        MOVX    A,@DPTR
        ADDC    A,R1
        MOV     DPL,R2
        MOV     DPH,A
        INC     DPTR
        MOVX    A,@DPTR
        MOV     R1,A
        MOV     A,R1
        MOV     DPL,R6
        MOV     DPH,R7
        MOVX    @DPTR,A
        MOV     DPL,R6
        MOV     DPH,R7
        INC     DPTR
        MOV     R6,DPL
        MOV     R7,DPH
//  406     }
        INC     ?V0 + 0
        LJMP    ??ZDP_MatchDescReq_3 & 0xFFFF
//  407   }
//  408 
//  409   *pBuf++ = NumOutClusters; // Output cluster list
??ZDP_MatchDescReq_2:
        MOV     A,#0x17
        LCALL   ?XSTACK_DISP0_8
        MOVX    A,@DPTR
        MOV     DPL,R6
        MOV     DPH,R7
        MOVX    @DPTR,A
        MOV     DPL,R6
        MOV     DPH,R7
        INC     DPTR
        MOV     R6,DPL
        MOV     R7,DPH
//  410   if ( NumOutClusters )
        MOV     A,#0x17
        LCALL   ?XSTACK_DISP0_8
        MOVX    A,@DPTR
        JNZ     $+5
        LJMP    ??ZDP_MatchDescReq_4 & 0xFFFF
//  411   {
//  412     for (i=0; i<NumOutClusters; ++i)  {
        MOV     ?V0 + 0,#0x0
??ZDP_MatchDescReq_5:
        MOV     A,#0x17
        LCALL   ?XSTACK_DISP0_8
        MOVX    A,@DPTR
        MOV     R2,A
        MOV     A,?V0 + 0
        CLR     C
        SUBB    A,R2
        JNC     ??ZDP_MatchDescReq_4
//  413       *pBuf++ = LO_UINT16( OutClusterList[i] );
        MOV     R0,?V0 + 0
        MOV     R1,#0x0
        MOV     A,R0
        MOV     B,#0x2
        MUL     AB
        XCH     A,R0
        MOV     R2,B
        MOV     B,#0x0
        MUL     AB
        ADD     A,R2
        MOV     R2,A
        MOV     B,#0x2
        MOV     A,R1
        MUL     AB
        ADD     A,R2
        MOV     R1,A
        MOV     A,#0x18
        LCALL   ?XSTACK_DISP0_8
        MOVX    A,@DPTR
        ADD     A,R0
        MOV     R2,A
        INC     DPTR
        MOVX    A,@DPTR
        ADDC    A,R1
        MOV     DPL,R2
        MOV     DPH,A
        MOVX    A,@DPTR
        MOV     DPL,R6
        MOV     DPH,R7
        MOVX    @DPTR,A
        MOV     DPL,R6
        MOV     DPH,R7
        INC     DPTR
        MOV     R6,DPL
        MOV     R7,DPH
//  414       *pBuf++ = HI_UINT16( OutClusterList[i] );
        MOV     R0,?V0 + 0
        MOV     R1,#0x0
        MOV     A,R0
        MOV     B,#0x2
        MUL     AB
        XCH     A,R0
        MOV     R2,B
        MOV     B,#0x0
        MUL     AB
        ADD     A,R2
        MOV     R2,A
        MOV     B,#0x2
        MOV     A,R1
        MUL     AB
        ADD     A,R2
        MOV     R1,A
        MOV     A,#0x18
        LCALL   ?XSTACK_DISP0_8
        MOVX    A,@DPTR
        ADD     A,R0
        MOV     R2,A
        INC     DPTR
        MOVX    A,@DPTR
        ADDC    A,R1
        MOV     DPL,R2
        MOV     DPH,A
        INC     DPTR
        MOVX    A,@DPTR
        MOV     R1,A
        MOV     A,R1
        MOV     DPL,R6
        MOV     DPH,R7
        MOVX    @DPTR,A
        MOV     DPL,R6
        MOV     DPH,R7
        INC     DPTR
        MOV     R6,DPL
        MOV     R7,DPH
//  415     }
        INC     ?V0 + 0
        LJMP    ??ZDP_MatchDescReq_5 & 0xFFFF
//  416   }
//  417 
//  418   return fillAndSend( &ZDP_TransID, dstAddr, Match_Desc_req, len );
??ZDP_MatchDescReq_4:
        ; Setup parameters for call to function fillAndSend
        MOV     ?V0 + 4,#0x6
        MOV     ?V0 + 5,#0x0
        MOV     R0,#?V0 + 4
        LCALL   ?PUSH_XSTACK_I_TWO
        CFI CFA_XSP16 add(XSP16, 21)
        MOV     R1,?V0 + 1
        MOV     A,#0x5
        LCALL   ?XSTACK_DISP0_8
        MOVX    A,@DPTR
        MOV     R4,A
        INC     DPTR
        MOVX    A,@DPTR
        MOV     R5,A
        MOV     R2,#(ZDP_TransID & 0xff)
        MOV     R3,#((ZDP_TransID >> 8) & 0xff)
        LCALL   ??fillAndSend?relay
        MOV     A,#0x2
        LCALL   ?DEALLOC_XSTACK8
        CFI CFA_XSP16 add(XSP16, 19)
??ZDP_MatchDescReq_1:
        MOV     A,#0x5
        LCALL   ?DEALLOC_XSTACK8
        CFI CFA_XSP16 add(XSP16, 14)
        MOV     R7,#0x6
        LJMP    ?BANKED_LEAVE_XDATA
        CFI EndBlock cfiBlock4
//  419 }
//  420 #endif // ZDO_MATCH_REQUEST
//  421 
//  422 #if defined ( ZDO_SIMPLEDESC_REQUEST )
//  423 /*********************************************************************
//  424  * @fn          ZDP_SimpleDescReq
//  425  *
//  426  * @brief       This builds and send a NWK_Simple_Desc_req
//  427  *              message.  This function sends unicast message to the
//  428  *              destination device.
//  429  *
//  430  * @param       dstAddr - destination address
//  431  * @param       nwkAddr - 16 bit address
//  432  * @param       epIntf - endpoint/interface
//  433  * @param       SecurityEnable - Security Options
//  434  *
//  435  * @return      afStatus_t
//  436  */
//  437 afStatus_t ZDP_SimpleDescReq( zAddrType_t *dstAddr, uint16 nwkAddr,
//  438                                     byte endPoint, byte SecurityEnable )
//  439 
//  440 {
//  441   ZDP_TmpBuf[0] = LO_UINT16( nwkAddr );
//  442   ZDP_TmpBuf[1] = HI_UINT16( nwkAddr );
//  443   ZDP_TmpBuf[2] = endPoint;
//  444 
//  445   return fillAndSend( &ZDP_TransID, dstAddr, Simple_Desc_req, 3 );
//  446 }
//  447 #endif // ZDO_SIMPLEDESC_REQUEST
//  448 
//  449 #if defined ( ZDO_USERDESCSET_REQUEST )
//  450 /*********************************************************************
//  451  * @fn          ZDP_UserDescSet
//  452  *
//  453  * @brief       This builds and send a User_Desc_set message to set
//  454  *              the user descriptor.  This function sends unicast
//  455  *              message to the destination device.
//  456  *
//  457  * @param       dstAddr - destination address
//  458  * @param       nwkAddr - 16 bit address
//  459  * @param       UserDescriptor - user descriptor
//  460  * @param       SecurityEnable - Security Options
//  461  *
//  462  * @return      afStatus_t
//  463  */
//  464 afStatus_t ZDP_UserDescSet( zAddrType_t *dstAddr, uint16 nwkAddr,
//  465                           UserDescriptorFormat_t *UserDescriptor,
//  466                           byte SecurityEnable )
//  467 {
//  468   byte *pBuf = ZDP_TmpBuf;
//  469   byte len = (UserDescriptor->len < AF_MAX_USER_DESCRIPTOR_LEN) ?
//  470               UserDescriptor->len : AF_MAX_USER_DESCRIPTOR_LEN;
//  471   byte addrLen = 2;
//  472 
//  473   *pBuf++ = LO_UINT16( nwkAddr );
//  474   *pBuf++ = HI_UINT16( nwkAddr );
//  475 
//  476   *pBuf++ = len;
//  477   addrLen = 3;
//  478 
//  479   pBuf = osal_memcpy( pBuf, UserDescriptor->desc, len );
//  480   osal_memset( pBuf, AF_USER_DESCRIPTOR_FILL, AF_MAX_USER_DESCRIPTOR_LEN-len );
//  481 
//  482   return fillAndSend( &ZDP_TransID, dstAddr, User_Desc_set, (AF_MAX_USER_DESCRIPTOR_LEN + addrLen) );
//  483 }
//  484 #endif // ZDO_USERDESCSET_REQUEST
//  485 
//  486 #if defined ( ZDO_SERVERDISC_REQUEST )
//  487 /*********************************************************************
//  488  * @fn          ZDP_ServerDiscReq
//  489  *
//  490  * @brief       Build and send a Server_Discovery_req request message.
//  491  *
//  492  * @param       serverMask - 16-bit bit-mask of server services being sought.
//  493  * @param       SecurityEnable - Security Options
//  494  *
//  495  * @return      afStatus_t
//  496  */
//  497 afStatus_t ZDP_ServerDiscReq( uint16 serverMask, byte SecurityEnable )
//  498 {
//  499   byte *pBuf = ZDP_TmpBuf;
//  500   zAddrType_t dstAddr;
//  501 
//  502   dstAddr.addrMode = AddrBroadcast;
//  503   dstAddr.addr.shortAddr = NWK_BROADCAST_SHORTADDR_DEVZCZR;
//  504 
//  505   *pBuf++ = LO_UINT16( serverMask );
//  506   *pBuf = HI_UINT16( serverMask );
//  507 
//  508   FillAndSendTxOptions( &ZDP_TransID, &dstAddr, Server_Discovery_req, 2,
//  509              ((SecurityEnable) ? AF_EN_SECURITY : AF_TX_OPTIONS_NONE) );
//  510 }
//  511 #endif
//  512 
//  513 #if defined ( ZDO_ENDDEVICE_ANNCE_REQUEST ) || defined ( ZDO_ENDDEVICE_ANNCE_GENERATE )
//  514 /*********************************************************************
//  515  * @fn          ZDP_EndDeviceAnnce
//  516  *
//  517  * @brief       This builds and send an End_Device_Annce
//  518  *              message.  This function sends a broadcast message.
//  519  *
//  520  * @param       nwkAddr - 16 bit address of the device
//  521  * @param       IEEEAddr - 64 bit address of the device
//  522  * @param       capabilities - device capabilities.  This field is only
//  523  *                 sent for v1.1 networks.
//  524  * @param       SecurityEnable - Security Options
//  525  *
//  526  * @return      afStatus_t
//  527  */
//  528 afStatus_t ZDP_EndDeviceAnnce( uint16 nwkAddr, byte *IEEEAddr,
//  529                               byte capabilities, byte SecurityEnable )
//  530 {
//  531   zAddrType_t dstAddr;
//  532   uint8 len;
//  533 
//  534   dstAddr.addrMode = (afAddrMode_t)AddrBroadcast;
//  535   dstAddr.addr.shortAddr = NWK_BROADCAST_SHORTADDR;
//  536 
//  537   ZDP_TmpBuf[0] = LO_UINT16( nwkAddr );
//  538   ZDP_TmpBuf[1] = HI_UINT16( nwkAddr );
//  539   osal_cpyExtAddr( &ZDP_TmpBuf[2], IEEEAddr );
//  540   len = 2 + Z_EXTADDR_LEN;
//  541 
//  542   ZDP_TmpBuf[10] = capabilities;
//  543   len++;
//  544 
//  545   return fillAndSend( &ZDP_TransID, &dstAddr, End_Device_annce, len );
//  546 }
//  547 #endif // ZDO_ENDDEVICE_ANNCE_REQUEST
//  548 
//  549 /*********************************************************************
//  550  * Address Responses
//  551  */
//  552 
//  553 /*********************************************************************
//  554  * @fn      zdpProcessAddrReq
//  555  *
//  556  * @brief   Process an incoming NWK_addr_req or IEEE_addr_req message and then
//  557  *          build and send a corresponding NWK_addr_rsp or IEEE_addr_rsp msg.
//  558  *
//  559  * @param   inMsg - incoming message
//  560  *
//  561  * @return  none
//  562  */

        RSEG BANKED_CODE:CODE:NOROOT(0)
//  563 void zdpProcessAddrReq( zdoIncomingMsg_t *inMsg )
zdpProcessAddrReq:
        CFI Block cfiBlock5 Using cfiCommon0
        CFI Function zdpProcessAddrReq
//  564 {
        FUNCALL zdpProcessAddrReq, osal_ExtAddrEqual
        LOCFRAME ISTACK, 0, STACK
        LOCFRAME PSTACK, 0, STACK
        LOCFRAME XSTACK, 19, STACK
        LOCFRAME IOVERLAY, 0, STATIC
        LOCFRAME DOVERLAY, 0, STATIC
        ARGFRAME ISTACK, 0, STACK
        ARGFRAME PSTACK, 0, STACK
        ARGFRAME XSTACK, 19, STACK
        ARGFRAME IOVERLAY, 0, STATIC
        ARGFRAME DOVERLAY, 0, STATIC
        FUNCALL zdpProcessAddrReq, osal_cpyExtAddr
        LOCFRAME ISTACK, 0, STACK
        LOCFRAME PSTACK, 0, STACK
        LOCFRAME XSTACK, 19, STACK
        LOCFRAME IOVERLAY, 0, STATIC
        LOCFRAME DOVERLAY, 0, STATIC
        ARGFRAME ISTACK, 0, STACK
        ARGFRAME PSTACK, 0, STACK
        ARGFRAME XSTACK, 19, STACK
        ARGFRAME IOVERLAY, 0, STATIC
        ARGFRAME DOVERLAY, 0, STATIC
        FUNCALL zdpProcessAddrReq, fillAndSend
        LOCFRAME ISTACK, 0, STACK
        LOCFRAME PSTACK, 0, STACK
        LOCFRAME XSTACK, 21, STACK
        LOCFRAME IOVERLAY, 0, STATIC
        LOCFRAME DOVERLAY, 0, STATIC
        ARGFRAME ISTACK, 0, STACK
        ARGFRAME PSTACK, 0, STACK
        ARGFRAME XSTACK, 21, STACK
        ARGFRAME IOVERLAY, 0, STATIC
        ARGFRAME DOVERLAY, 0, STATIC
        MOV     A,#-0x10
        LCALL   ?BANKED_ENTER_XDATA
        CFI DPH0 load(1, XDATA, add(CFA_XSP16, literal(-1)))
        CFI DPL0 load(1, XDATA, add(CFA_XSP16, literal(-2)))
        CFI ?BRET_EXT load(1, XDATA, add(CFA_XSP16, literal(-3)))
        CFI ?RET_HIGH load(1, XDATA, add(CFA_XSP16, literal(-4)))
        CFI ?RET_LOW load(1, XDATA, add(CFA_XSP16, literal(-5)))
        CFI R7 load(1, XDATA, add(CFA_XSP16, literal(-6)))
        CFI V7 load(1, XDATA, add(CFA_XSP16, literal(-7)))
        CFI V6 load(1, XDATA, add(CFA_XSP16, literal(-8)))
        CFI V5 load(1, XDATA, add(CFA_XSP16, literal(-9)))
        CFI V4 load(1, XDATA, add(CFA_XSP16, literal(-10)))
        CFI V3 load(1, XDATA, add(CFA_XSP16, literal(-11)))
        CFI V2 load(1, XDATA, add(CFA_XSP16, literal(-12)))
        CFI V1 load(1, XDATA, add(CFA_XSP16, literal(-13)))
        CFI V0 load(1, XDATA, add(CFA_XSP16, literal(-14)))
        CFI VB load(1, XDATA, add(CFA_XSP16, literal(-15)))
        CFI R6 load(1, XDATA, add(CFA_XSP16, literal(-16)))
        CFI CFA_SP SP+0
        CFI CFA_XSP16 add(XSP16, 16)
        ; Saved register size: 16
        ; Auto size: 3
        MOV     A,#-0x3
        LCALL   ?ALLOC_XSTACK8
        CFI CFA_XSP16 add(XSP16, 19)
        MOV     ?V0 + 2,R2
        MOV     ?V0 + 3,R3
//  565   uint8 reqType;
//  566   uint16 aoi = INVALID_NODE_ADDR;
        MOV     R6,#-0x2
        MOV     R7,#-0x1
//  567   uint8 *ieee = NULL;
        MOV     ?V0 + 6,#0x0
        MOV     ?V0 + 7,#0x0
//  568 
//  569   reqType = inMsg->asdu[(inMsg->clusterID == NWK_addr_req) ? Z_EXTADDR_LEN : sizeof( uint16 ) ];
        MOV     A,?V0 + 2
        ADD     A,#0xc
        MOV     DPL,A
        MOV     A,?V0 + 3
        ADDC    A,#0x0
        MOV     DPH,A
        MOVX    A,@DPTR
        XRL     A,#0x0
        JNZ     ??zdpProcessAddrReq_0
        INC     DPTR
        MOVX    A,@DPTR
        XRL     A,#0x0
??zdpProcessAddrReq_0:
        JNZ     ??zdpProcessAddrReq_1
        MOV     R0,#0x8
        MOV     R1,#0x0
        SJMP    ??zdpProcessAddrReq_2
??zdpProcessAddrReq_1:
        MOV     R0,#0x2
        MOV     R1,#0x0
??zdpProcessAddrReq_2:
        MOV     A,?V0 + 2
        ADD     A,#0x11
        MOV     DPL,A
        MOV     A,?V0 + 3
        ADDC    A,#0x0
        MOV     DPH,A
        MOVX    A,@DPTR
        ADD     A,R0
        MOV     R2,A
        INC     DPTR
        MOVX    A,@DPTR
        ADDC    A,R1
        MOV     DPL,R2
        MOV     DPH,A
        MOVX    A,@DPTR
        MOV     DPL,?XSP + 0
        MOV     DPH,?XSP + 1
        MOVX    @DPTR,A
//  570   
//  571   if ( inMsg->clusterID == NWK_addr_req )
        MOV     A,?V0 + 2
        ADD     A,#0xc
        MOV     DPL,A
        MOV     A,?V0 + 3
        ADDC    A,#0x0
        MOV     DPH,A
        MOVX    A,@DPTR
        XRL     A,#0x0
        JNZ     ??zdpProcessAddrReq_3
        INC     DPTR
        MOVX    A,@DPTR
        XRL     A,#0x0
??zdpProcessAddrReq_3:
        JNZ     ??zdpProcessAddrReq_4
//  572   {
//  573     ieee = inMsg->asdu;
        MOV     A,?V0 + 2
        ADD     A,#0x11
        MOV     DPL,A
        MOV     A,?V0 + 3
        ADDC    A,#0x0
        MOV     DPH,A
        MOVX    A,@DPTR
        MOV     R0,A
        INC     DPTR
        MOVX    A,@DPTR
        MOV     R1,A
        MOV     ?V0 + 6,R0
        MOV     ?V0 + 7,R1
//  574 
//  575     if ( osal_ExtAddrEqual( saveExtAddr, ieee ) )
        ; Setup parameters for call to function osal_ExtAddrEqual
        MOV     R4,?V0 + 6
        MOV     R5,?V0 + 7
        MOV     R2,#(saveExtAddr & 0xff)
        MOV     R3,#((saveExtAddr >> 8) & 0xff)
        LCALL   ??osal_ExtAddrEqual?relay
        MOV     A,R1
        JZ      ??zdpProcessAddrReq_5
//  576     {
//  577       aoi = ZDAppNwkAddr.addr.shortAddr;
        MOV     DPTR,#ZDAppNwkAddr
        MOVX    A,@DPTR
        MOV     R6,A
        INC     DPTR
        MOVX    A,@DPTR
        MOV     R7,A
        SJMP    ??zdpProcessAddrReq_5
//  578     }
//  579     /*
//  580     else if ( reqType == ZDP_ADDR_REQTYPE_MEMBERSHIP )
//  581     {
//  582       //ggg - what to do?
//  583     }
//  584     */
//  585   }
//  586   else  // if ( inMsg->clusterID == IEEE_addr_req )
//  587   {
//  588     aoi = BUILD_UINT16( inMsg->asdu[0], inMsg->asdu[1] );
??zdpProcessAddrReq_4:
        MOV     A,?V0 + 2
        ADD     A,#0x11
        MOV     DPL,A
        MOV     A,?V0 + 3
        ADDC    A,#0x0
        MOV     DPH,A
        MOVX    A,@DPTR
        MOV     R0,A
        INC     DPTR
        MOVX    A,@DPTR
        MOV     DPH,A
        MOV     DPL,R0
        MOVX    A,@DPTR
        MOV     R2,A
        MOV     R3,#0x0
        MOV     A,?V0 + 2
        ADD     A,#0x11
        MOV     DPL,A
        MOV     A,?V0 + 3
        ADDC    A,#0x0
        MOV     DPH,A
        MOVX    A,@DPTR
        MOV     R0,A
        INC     DPTR
        MOVX    A,@DPTR
        MOV     DPH,A
        MOV     DPL,R0
        INC     DPTR
        MOVX    A,@DPTR
        MOV     R0,A
        CLR     A
        XCH     A,R0
        MOV     R1,A
        MOV     A,R0
        ADD     A,R2
        MOV     R0,A
        MOV     A,R1
        ADDC    A,R3
        MOV     R1,A
        MOV     A,R0
        MOV     R6,A
        MOV     A,R1
        MOV     R7,A
//  589 
//  590     if ( aoi == ZDAppNwkAddr.addr.shortAddr )
        MOV     DPTR,#ZDAppNwkAddr
        MOVX    A,@DPTR
        XRL     A,R6
        JNZ     ??zdpProcessAddrReq_6
        INC     DPTR
        MOVX    A,@DPTR
        XRL     A,R7
??zdpProcessAddrReq_6:
        JNZ     ??zdpProcessAddrReq_5
//  591     {
//  592       ieee = saveExtAddr;
        MOV     ?V0 + 6,#(saveExtAddr & 0xff)
        MOV     ?V0 + 7,#((saveExtAddr >> 8) & 0xff)
//  593     }
//  594   }
//  595 
//  596   if ( (aoi != INVALID_NODE_ADDR) && (ieee != NULL) )
??zdpProcessAddrReq_5:
        MOV     A,#-0x2
        XRL     A,R6
        JNZ     ??zdpProcessAddrReq_7
        MOV     A,#-0x1
        XRL     A,R7
??zdpProcessAddrReq_7:
        JNZ     $+5
        LJMP    ??zdpProcessAddrReq_8 & 0xFFFF
        MOV     A,?V0 + 6
        XRL     A,#0x0
        JNZ     ??zdpProcessAddrReq_9
        MOV     A,?V0 + 7
        XRL     A,#0x0
??zdpProcessAddrReq_9:
        JNZ     $+5
        LJMP    ??zdpProcessAddrReq_8 & 0xFFFF
//  597   {
//  598     byte *pBuf = ZDP_TmpBuf;
        MOV     DPTR,#ZDP_TmpBuf
        MOVX    A,@DPTR
        MOV     R0,A
        INC     DPTR
        MOVX    A,@DPTR
        MOV     R1,A
        MOV     ?V0 + 0,R0
        MOV     ?V0 + 1,R1
//  599     // Status + IEEE-Addr + Nwk-Addr.
//  600     byte len = 1 + Z_EXTADDR_LEN + 2;
        MOV     A,#0xb
        PUSH    A
        CFI CFA_SP SP+-1
        MOV     A,#0x1
        LCALL   ?XSTACK_DISP0_8
        POP     A
        CFI CFA_SP SP+0
        MOVX    @DPTR,A
//  601 
//  602     byte stat = ((reqType == ZDP_ADDR_REQTYPE_SINGLE) 
//  603             || (reqType == ZDP_ADDR_REQTYPE_EXTENDED) 
//  604           || ((reqType == ZDP_ADDR_REQTYPE_MEMBERSHIP) 
//  605          && (inMsg->clusterID == NWK_addr_req)) ) ? ZDP_SUCCESS : ZDP_INVALID_REQTYPE;
        MOV     DPL,?XSP + 0
        MOV     DPH,?XSP + 1
        MOVX    A,@DPTR
        JZ      ??zdpProcessAddrReq_10
        MOV     DPL,?XSP + 0
        MOV     DPH,?XSP + 1
        MOVX    A,@DPTR
        XRL     A,#0x1
        JZ      ??zdpProcessAddrReq_10
        MOV     DPL,?XSP + 0
        MOV     DPH,?XSP + 1
        MOVX    A,@DPTR
        XRL     A,#0x2
        JNZ     ??zdpProcessAddrReq_11
        MOV     A,?V0 + 2
        ADD     A,#0xc
        MOV     DPL,A
        MOV     A,?V0 + 3
        ADDC    A,#0x0
        MOV     DPH,A
        MOVX    A,@DPTR
        XRL     A,#0x0
        JNZ     ??zdpProcessAddrReq_12
        INC     DPTR
        MOVX    A,@DPTR
        XRL     A,#0x0
??zdpProcessAddrReq_12:
        JNZ     ??zdpProcessAddrReq_11
??zdpProcessAddrReq_10:
        MOV     R2,#0x0
        SJMP    ??zdpProcessAddrReq_13
??zdpProcessAddrReq_11:
        MOV     R2,#-0x80
??zdpProcessAddrReq_13:
        MOV     A,R2
        PUSH    A
        CFI CFA_SP SP+-1
        MOV     A,#0x2
        LCALL   ?XSTACK_DISP0_8
        POP     A
        CFI CFA_SP SP+0
        MOVX    @DPTR,A
//  606 
//  607     *pBuf++ = stat;
        MOV     A,#0x2
        LCALL   ?XSTACK_DISP0_8
        MOVX    A,@DPTR
        MOV     DPL,?V0 + 0
        MOV     DPH,?V0 + 1
        MOVX    @DPTR,A
        MOV     DPL,?V0 + 0
        MOV     DPH,?V0 + 1
        INC     DPTR
        MOV     ?V0 + 0,DPL
        MOV     ?V0 + 1,DPH
//  608 
//  609     pBuf = osal_cpyExtAddr( pBuf, ieee );
        ; Setup parameters for call to function osal_cpyExtAddr
        MOV     R4,?V0 + 6
        MOV     R5,?V0 + 7
        MOV     R2,?V0 + 0
        MOV     R3,?V0 + 1
        LCALL   ??osal_cpyExtAddr?relay
        MOV     ?V0 + 4,R2
        MOV     ?V0 + 5,R3
        MOV     ?V0 + 0,?V0 + 4
        MOV     ?V0 + 1,?V0 + 5
//  610 
//  611     *pBuf++ = LO_UINT16( aoi );
        MOV     A,R6
        MOV     DPL,?V0 + 0
        MOV     DPH,?V0 + 1
        MOVX    @DPTR,A
        MOV     DPL,?V0 + 0
        MOV     DPH,?V0 + 1
        INC     DPTR
        MOV     ?V0 + 0,DPL
        MOV     ?V0 + 1,DPH
//  612     *pBuf++ = HI_UINT16( aoi );
        MOV     A,R7
        MOV     R1,A
        MOV     A,R1
        MOV     DPL,?V0 + 0
        MOV     DPH,?V0 + 1
        MOVX    @DPTR,A
//  613 
//  614 #if defined( RTR_NWK )
//  615     if ( (reqType == ZDP_ADDR_REQTYPE_EXTENDED) &&
//  616          (aoi == ZDAppNwkAddr.addr.shortAddr) )
//  617     {
//  618       byte cnt = 0;
//  619       uint16 *list = AssocMakeList( &cnt );
//  620 
//  621       if ( list != NULL )
//  622       {
//  623         byte idx = inMsg->asdu[(((inMsg->clusterID == NWK_addr_req) ? Z_EXTADDR_LEN : sizeof( uint16 )) + 1)];
//  624         uint16 *pList = list + idx;
//  625 
//  626         // NumAssocDev field is only present on success.
//  627         if ( cnt > idx )
//  628         {
//  629           cnt -= idx;
//  630           len += (cnt * sizeof( uint16 ));
//  631         }
//  632         else
//  633         {
//  634           cnt = 0;
//  635         }
//  636         *pBuf++ = cnt;
//  637         len++;
//  638         
//  639         // StartIndex field is only present if NumAssocDev field is non-zero.
//  640         *pBuf++ = idx;
//  641         len++;
//  642 
//  643         while ( cnt != 0 )
//  644         {
//  645           *pBuf++ = LO_UINT16( *pList );
//  646           *pBuf++ = HI_UINT16( *pList );
//  647           pList++;
//  648           cnt--;
//  649         }
//  650 
//  651         osal_mem_free( (uint8 *)list );
//  652       }
//  653       else
//  654       {
//  655         // NumAssocDev field is only present on success.
//  656         *pBuf++ = 0;
//  657         len++;
//  658       }
//  659     }
//  660 
//  661 #endif
//  662 
//  663     ZDP_TxOptions = AF_MSG_ACK_REQUEST;
        MOV     A,#0x10
        MOV     DPTR,#ZDP_TxOptions
        MOVX    @DPTR,A
//  664     fillAndSend( &(inMsg->TransSeq), &(inMsg->srcAddr), 
//  665                 (cId_t)(inMsg->clusterID | ZDO_RESPONSE_BIT), len );
        ; Setup parameters for call to function fillAndSend
        MOV     A,?V0 + 2
        ADD     A,#0xc
        MOV     DPL,A
        MOV     A,?V0 + 3
        ADDC    A,#0x0
        MOV     DPH,A
        MOVX    A,@DPTR
        ORL     A,#0x0
        MOV     ?V0 + 4,A
        INC     DPTR
        MOVX    A,@DPTR
        ORL     A,#0x80
        MOV     ?V0 + 5,A
        MOV     R0,#?V0 + 4
        LCALL   ?PUSH_XSTACK_I_TWO
        CFI CFA_XSP16 add(XSP16, 21)
        MOV     A,#0x3
        LCALL   ?XSTACK_DISP0_8
        MOVX    A,@DPTR
        MOV     R1,A
        MOV     A,?V0 + 2
        ADD     A,#0x2
        MOV     R4,A
        MOV     A,?V0 + 3
        ADDC    A,#0x0
        MOV     R5,A
        MOV     A,?V0 + 2
        ADD     A,#0xf
        MOV     R2,A
        MOV     A,?V0 + 3
        ADDC    A,#0x0
        MOV     R3,A
        LCALL   ??fillAndSend?relay
        MOV     A,#0x2
        LCALL   ?DEALLOC_XSTACK8
        CFI CFA_XSP16 add(XSP16, 19)
//  666     ZDP_TxOptions = AF_TX_OPTIONS_NONE;
        MOV     A,#0x0
        MOV     DPTR,#ZDP_TxOptions
        MOVX    @DPTR,A
//  667   }
//  668 }
??zdpProcessAddrReq_8:
        MOV     A,#0x3
        LCALL   ?DEALLOC_XSTACK8
        CFI CFA_XSP16 add(XSP16, 16)
        MOV     R7,#0x8
        LJMP    ?BANKED_LEAVE_XDATA
        CFI EndBlock cfiBlock5
//  669 
//  670 /*********************************************************************
//  671  * @fn          ZDP_NodeDescMsg
//  672  *
//  673  * @brief       Builds and sends a Node Descriptor message, unicast to the
//  674  *              specified device.
//  675  *
//  676  * @param       inMsg - incoming message
//  677  * @param       nwkAddr - 16 bit network address for device
//  678  * @param       pNodeDesc - pointer to the node descriptor
//  679  *
//  680  * @return      afStatus_t
//  681  */

        RSEG BANKED_CODE:CODE:NOROOT(0)
//  682 afStatus_t ZDP_NodeDescMsg( zdoIncomingMsg_t *inMsg, 
ZDP_NodeDescMsg:
        CFI Block cfiBlock6 Using cfiCommon0
        CFI Function ZDP_NodeDescMsg
//  683                            uint16 nwkAddr, NodeDescriptorFormat_t *pNodeDesc )
//  684 {
        FUNCALL ZDP_NodeDescMsg, fillAndSend
        LOCFRAME ISTACK, 0, STACK
        LOCFRAME PSTACK, 0, STACK
        LOCFRAME XSTACK, 19, STACK
        LOCFRAME IOVERLAY, 0, STATIC
        LOCFRAME DOVERLAY, 0, STATIC
        ARGFRAME ISTACK, 0, STACK
        ARGFRAME PSTACK, 0, STACK
        ARGFRAME XSTACK, 19, STACK
        ARGFRAME IOVERLAY, 0, STATIC
        ARGFRAME DOVERLAY, 0, STATIC
        MOV     A,#-0xf
        LCALL   ?BANKED_ENTER_XDATA
        CFI DPH0 load(1, XDATA, add(CFA_XSP16, literal(-1)))
        CFI DPL0 load(1, XDATA, add(CFA_XSP16, literal(-2)))
        CFI ?BRET_EXT load(1, XDATA, add(CFA_XSP16, literal(-3)))
        CFI ?RET_HIGH load(1, XDATA, add(CFA_XSP16, literal(-4)))
        CFI ?RET_LOW load(1, XDATA, add(CFA_XSP16, literal(-5)))
        CFI R7 load(1, XDATA, add(CFA_XSP16, literal(-6)))
        CFI V6 load(1, XDATA, add(CFA_XSP16, literal(-7)))
        CFI V5 load(1, XDATA, add(CFA_XSP16, literal(-8)))
        CFI V4 load(1, XDATA, add(CFA_XSP16, literal(-9)))
        CFI V3 load(1, XDATA, add(CFA_XSP16, literal(-10)))
        CFI V2 load(1, XDATA, add(CFA_XSP16, literal(-11)))
        CFI V1 load(1, XDATA, add(CFA_XSP16, literal(-12)))
        CFI V0 load(1, XDATA, add(CFA_XSP16, literal(-13)))
        CFI VB load(1, XDATA, add(CFA_XSP16, literal(-14)))
        CFI R6 load(1, XDATA, add(CFA_XSP16, literal(-15)))
        CFI CFA_SP SP+0
        CFI CFA_XSP16 add(XSP16, 15)
        ; Saved register size: 15
        ; Auto size: 2
        MOV     A,#-0x2
        LCALL   ?ALLOC_XSTACK8
        CFI CFA_XSP16 add(XSP16, 17)
        MOV     DPL,?XSP + 0
        MOV     DPH,?XSP + 1
        MOV     A,R2
        MOVX    @DPTR,A
        INC     DPTR
        MOV     A,R3
        MOVX    @DPTR,A
        MOV     ?V0 + 2,R4
        MOV     ?V0 + 3,R5
        MOV     A,#0x11
        LCALL   ?XSTACK_DISP0_8
        MOVX    A,@DPTR
        MOV     ?V0 + 0,A
        INC     DPTR
        MOVX    A,@DPTR
        MOV     ?V0 + 1,A
//  685   byte *pBuf = ZDP_TmpBuf;
        MOV     DPTR,#ZDP_TmpBuf
        MOVX    A,@DPTR
        MOV     R0,A
        INC     DPTR
        MOVX    A,@DPTR
        MOV     R1,A
        MOV     A,R0
        MOV     R6,A
        MOV     A,R1
        MOV     R7,A
//  686   byte len;
//  687 
//  688   len = 1 + 2 + 10;  // Status + nwkAddr + Node descriptor
        MOV     ?V0 + 6,#0xd
//  689 
//  690   *pBuf++ = ZDP_SUCCESS;
        MOV     A,#0x0
        MOV     DPL,R6
        MOV     DPH,R7
        MOVX    @DPTR,A
        MOV     DPL,R6
        MOV     DPH,R7
        INC     DPTR
        MOV     R6,DPL
        MOV     R7,DPH
//  691 
//  692   *pBuf++ = LO_UINT16( nwkAddr );
        MOV     DPL,R6
        MOV     DPH,R7
        MOV     A,?V0 + 2
        MOVX    @DPTR,A
        MOV     DPL,R6
        MOV     DPH,R7
        INC     DPTR
        MOV     R6,DPL
        MOV     R7,DPH
//  693   *pBuf++ = HI_UINT16( nwkAddr );
        MOV     DPL,R6
        MOV     DPH,R7
        MOV     A,?V0 + 3
        MOVX    @DPTR,A
        MOV     DPL,R6
        MOV     DPH,R7
        INC     DPTR
        MOV     R6,DPL
        MOV     R7,DPH
//  694 
//  695   *pBuf++ = (byte)((pNodeDesc->ComplexDescAvail << 3) |
//  696                      (pNodeDesc->UserDescAvail << 4) |
//  697                      (pNodeDesc->LogicalType & 0x07));
        MOV     DPL,?V0 + 0
        MOV     DPH,?V0 + 1
        MOVX    A,@DPTR
        ANL     A,#0x7
        PUSH    A
        CFI CFA_SP SP+-1
        MOV     DPL,?V0 + 0
        MOV     DPH,?V0 + 1
        MOVX    A,@DPTR
        MOV     C,0xE0 /* A   */.4
        CLR     A
        MOV     0xE0 /* A   */.0,C
        SWAP    A
        ANL     A,#0xf0
        PUSH    A
        CFI CFA_SP SP+-2
        MOV     DPL,?V0 + 0
        MOV     DPH,?V0 + 1
        MOVX    A,@DPTR
        MOV     C,0xE0 /* A   */.3
        CLR     A
        MOV     0xE0 /* A   */.0,C
        RLC     A
        RLC     A
        RLC     A
        ANL     A,#0xf8
        MOV     R2,A
        POP     A
        CFI CFA_SP SP+-1
        ORL     A,R2
        MOV     R2,A
        POP     A
        CFI CFA_SP SP+0
        ORL     A,R2
        MOV     DPL,R6
        MOV     DPH,R7
        MOVX    @DPTR,A
        MOV     DPL,R6
        MOV     DPH,R7
        INC     DPTR
        MOV     R6,DPL
        MOV     R7,DPH
//  698 
//  699   *pBuf++ = (byte)((pNodeDesc->FrequencyBand << 3) | (pNodeDesc->APSFlags & 0x07));
        MOV     DPL,?V0 + 0
        MOV     DPH,?V0 + 1
        INC     DPTR
        MOVX    A,@DPTR
        ANL     A,#0x7
        PUSH    A
        CFI CFA_SP SP+-1
        MOV     DPL,?V0 + 0
        MOV     DPH,?V0 + 1
        INC     DPTR
        MOVX    A,@DPTR
        RRC     A
        RRC     A
        RRC     A
        ANL     A,#0x1f
        RLC     A
        RLC     A
        RLC     A
        ANL     A,#0xf8
        MOV     R2,A
        POP     A
        CFI CFA_SP SP+0
        ORL     A,R2
        MOV     DPL,R6
        MOV     DPH,R7
        MOVX    @DPTR,A
        MOV     DPL,R6
        MOV     DPH,R7
        INC     DPTR
        MOV     R6,DPL
        MOV     R7,DPH
//  700   *pBuf++ = pNodeDesc->CapabilityFlags;
        MOV     DPL,?V0 + 0
        MOV     DPH,?V0 + 1
        INC     DPTR
        INC     DPTR
        MOVX    A,@DPTR
        MOV     DPL,R6
        MOV     DPH,R7
        MOVX    @DPTR,A
        MOV     DPL,R6
        MOV     DPH,R7
        INC     DPTR
        MOV     R6,DPL
        MOV     R7,DPH
//  701   *pBuf++ = pNodeDesc->ManufacturerCode[0];
        MOV     DPL,?V0 + 0
        MOV     DPH,?V0 + 1
        INC     DPTR
        INC     DPTR
        INC     DPTR
        MOVX    A,@DPTR
        MOV     DPL,R6
        MOV     DPH,R7
        MOVX    @DPTR,A
        MOV     DPL,R6
        MOV     DPH,R7
        INC     DPTR
        MOV     R6,DPL
        MOV     R7,DPH
//  702   *pBuf++ = pNodeDesc->ManufacturerCode[1];
        MOV     DPL,?V0 + 0
        MOV     DPH,?V0 + 1
        INC     DPTR
        INC     DPTR
        INC     DPTR
        INC     DPTR
        MOVX    A,@DPTR
        MOV     DPL,R6
        MOV     DPH,R7
        MOVX    @DPTR,A
        MOV     DPL,R6
        MOV     DPH,R7
        INC     DPTR
        MOV     R6,DPL
        MOV     R7,DPH
//  703   *pBuf++ = pNodeDesc->MaxBufferSize;
        MOV     DPL,?V0 + 0
        MOV     DPH,?V0 + 1
        INC     DPTR
        INC     DPTR
        INC     DPTR
        INC     DPTR
        INC     DPTR
        MOVX    A,@DPTR
        MOV     DPL,R6
        MOV     DPH,R7
        MOVX    @DPTR,A
        MOV     DPL,R6
        MOV     DPH,R7
        INC     DPTR
        MOV     R6,DPL
        MOV     R7,DPH
//  704   *pBuf++ = pNodeDesc->MaxTransferSize[0];
        MOV     DPL,?V0 + 0
        MOV     DPH,?V0 + 1
        INC     DPTR
        INC     DPTR
        INC     DPTR
        INC     DPTR
        INC     DPTR
        INC     DPTR
        MOVX    A,@DPTR
        MOV     DPL,R6
        MOV     DPH,R7
        MOVX    @DPTR,A
        MOV     DPL,R6
        MOV     DPH,R7
        INC     DPTR
        MOV     R6,DPL
        MOV     R7,DPH
//  705   *pBuf++ = pNodeDesc->MaxTransferSize[1];
        MOV     DPL,?V0 + 0
        MOV     DPH,?V0 + 1
        INC     DPTR
        INC     DPTR
        INC     DPTR
        INC     DPTR
        INC     DPTR
        INC     DPTR
        INC     DPTR
        MOVX    A,@DPTR
        MOV     DPL,R6
        MOV     DPH,R7
        MOVX    @DPTR,A
        MOV     DPL,R6
        MOV     DPH,R7
        INC     DPTR
        MOV     R6,DPL
        MOV     R7,DPH
//  706 
//  707   *pBuf++ = LO_UINT16( pNodeDesc->ServerMask );
        MOV     DPL,?V0 + 0
        MOV     DPH,?V0 + 1
        INC     DPTR
        INC     DPTR
        INC     DPTR
        INC     DPTR
        INC     DPTR
        INC     DPTR
        INC     DPTR
        INC     DPTR
        MOVX    A,@DPTR
        MOV     DPL,R6
        MOV     DPH,R7
        MOVX    @DPTR,A
        MOV     DPL,R6
        MOV     DPH,R7
        INC     DPTR
        MOV     R6,DPL
        MOV     R7,DPH
//  708   *pBuf++ = HI_UINT16( pNodeDesc->ServerMask );
        MOV     DPL,?V0 + 0
        MOV     DPH,?V0 + 1
        INC     DPTR
        INC     DPTR
        INC     DPTR
        INC     DPTR
        INC     DPTR
        INC     DPTR
        INC     DPTR
        INC     DPTR
        INC     DPTR
        MOVX    A,@DPTR
        MOV     R1,A
        MOV     A,R1
        MOV     DPL,R6
        MOV     DPH,R7
        MOVX    @DPTR,A
//  709 
//  710   return fillAndSend( &(inMsg->TransSeq), &(inMsg->srcAddr), Node_Desc_rsp, len );
        ; Setup parameters for call to function fillAndSend
        MOV     ?V0 + 4,#0x2
        MOV     ?V0 + 5,#-0x80
        MOV     R0,#?V0 + 4
        LCALL   ?PUSH_XSTACK_I_TWO
        CFI CFA_XSP16 add(XSP16, 19)
        MOV     R1,?V0 + 6
        MOV     A,#0x2
        LCALL   ?XSTACK_DISP0_8
        MOVX    A,@DPTR
        ADD     A,#0x2
        MOV     R4,A
        INC     DPTR
        MOVX    A,@DPTR
        ADDC    A,#0x0
        MOV     R5,A
        MOV     A,#0x2
        LCALL   ?XSTACK_DISP0_8
        MOVX    A,@DPTR
        ADD     A,#0xf
        MOV     R2,A
        INC     DPTR
        MOVX    A,@DPTR
        ADDC    A,#0x0
        MOV     R3,A
        LCALL   ??fillAndSend?relay
        MOV     A,#0x2
        LCALL   ?DEALLOC_XSTACK8
        CFI CFA_XSP16 add(XSP16, 17)
        MOV     A,#0x2
        LCALL   ?DEALLOC_XSTACK8
        CFI CFA_XSP16 add(XSP16, 15)
        MOV     R7,#0x7
        LJMP    ?BANKED_LEAVE_XDATA
        CFI EndBlock cfiBlock6
//  711 }
//  712 
//  713 /*********************************************************************
//  714  * @fn          ZDP_PowerDescMsg
//  715  *
//  716  * @brief       Builds and sends a Power Descriptor message, unicast to the
//  717  *              specified device.
//  718  *
//  719  * @param       inMsg - incoming message (request)
//  720  * @param       nwkAddr - 16 bit network address for device
//  721  * @param       pPowerDesc - pointer to the node descriptor
//  722  *
//  723  * @return      afStatus_t
//  724  */

        RSEG BANKED_CODE:CODE:NOROOT(0)
//  725 afStatus_t ZDP_PowerDescMsg( zdoIncomingMsg_t *inMsg,
ZDP_PowerDescMsg:
        CFI Block cfiBlock7 Using cfiCommon0
        CFI Function ZDP_PowerDescMsg
//  726                      uint16 nwkAddr, NodePowerDescriptorFormat_t *pPowerDesc )
//  727 {
        FUNCALL ZDP_PowerDescMsg, fillAndSend
        LOCFRAME ISTACK, 0, STACK
        LOCFRAME PSTACK, 0, STACK
        LOCFRAME XSTACK, 20, STACK
        LOCFRAME IOVERLAY, 0, STATIC
        LOCFRAME DOVERLAY, 0, STATIC
        ARGFRAME ISTACK, 0, STACK
        ARGFRAME PSTACK, 0, STACK
        ARGFRAME XSTACK, 20, STACK
        ARGFRAME IOVERLAY, 0, STATIC
        ARGFRAME DOVERLAY, 0, STATIC
        MOV     A,#-0x10
        LCALL   ?BANKED_ENTER_XDATA
        CFI DPH0 load(1, XDATA, add(CFA_XSP16, literal(-1)))
        CFI DPL0 load(1, XDATA, add(CFA_XSP16, literal(-2)))
        CFI ?BRET_EXT load(1, XDATA, add(CFA_XSP16, literal(-3)))
        CFI ?RET_HIGH load(1, XDATA, add(CFA_XSP16, literal(-4)))
        CFI ?RET_LOW load(1, XDATA, add(CFA_XSP16, literal(-5)))
        CFI R7 load(1, XDATA, add(CFA_XSP16, literal(-6)))
        CFI V7 load(1, XDATA, add(CFA_XSP16, literal(-7)))
        CFI V6 load(1, XDATA, add(CFA_XSP16, literal(-8)))
        CFI V5 load(1, XDATA, add(CFA_XSP16, literal(-9)))
        CFI V4 load(1, XDATA, add(CFA_XSP16, literal(-10)))
        CFI V3 load(1, XDATA, add(CFA_XSP16, literal(-11)))
        CFI V2 load(1, XDATA, add(CFA_XSP16, literal(-12)))
        CFI V1 load(1, XDATA, add(CFA_XSP16, literal(-13)))
        CFI V0 load(1, XDATA, add(CFA_XSP16, literal(-14)))
        CFI VB load(1, XDATA, add(CFA_XSP16, literal(-15)))
        CFI R6 load(1, XDATA, add(CFA_XSP16, literal(-16)))
        CFI CFA_SP SP+0
        CFI CFA_XSP16 add(XSP16, 16)
        ; Saved register size: 16
        ; Auto size: 2
        MOV     A,#-0x2
        LCALL   ?ALLOC_XSTACK8
        CFI CFA_XSP16 add(XSP16, 18)
        MOV     DPL,?XSP + 0
        MOV     DPH,?XSP + 1
        MOV     A,R2
        MOVX    @DPTR,A
        INC     DPTR
        MOV     A,R3
        MOVX    @DPTR,A
        MOV     ?V0 + 0,R4
        MOV     ?V0 + 1,R5
        MOV     A,#0x12
        LCALL   ?XSTACK_DISP0_8
        MOVX    A,@DPTR
        MOV     ?V0 + 6,A
        INC     DPTR
        MOVX    A,@DPTR
        MOV     ?V0 + 7,A
//  728   byte *pBuf = ZDP_TmpBuf;
        MOV     DPTR,#ZDP_TmpBuf
        MOVX    A,@DPTR
        MOV     R0,A
        INC     DPTR
        MOVX    A,@DPTR
        MOV     R1,A
        MOV     A,R0
        MOV     R6,A
        MOV     A,R1
        MOV     R7,A
//  729   byte len = 1 + 2 + 2;  // Status + nwkAddr + Node Power descriptor.
        MOV     ?V0 + 2,#0x5
//  730 
//  731   *pBuf++ = ZDP_SUCCESS;
        MOV     A,#0x0
        MOV     DPL,R6
        MOV     DPH,R7
        MOVX    @DPTR,A
        MOV     DPL,R6
        MOV     DPH,R7
        INC     DPTR
        MOV     R6,DPL
        MOV     R7,DPH
//  732 
//  733   *pBuf++ = LO_UINT16( nwkAddr );
        MOV     DPL,R6
        MOV     DPH,R7
        MOV     A,?V0 + 0
        MOVX    @DPTR,A
        MOV     DPL,R6
        MOV     DPH,R7
        INC     DPTR
        MOV     R6,DPL
        MOV     R7,DPH
//  734   *pBuf++ = HI_UINT16( nwkAddr );
        MOV     DPL,R6
        MOV     DPH,R7
        MOV     A,?V0 + 1
        MOVX    @DPTR,A
        MOV     DPL,R6
        MOV     DPH,R7
        INC     DPTR
        MOV     R6,DPL
        MOV     R7,DPH
//  735 
//  736   *pBuf++ = (byte)((pPowerDesc->AvailablePowerSources << 4)
//  737                     | (pPowerDesc->PowerMode & 0x0F));
        MOV     DPL,?V0 + 6
        MOV     DPH,?V0 + 7
        MOVX    A,@DPTR
        ANL     A,#0xf
        PUSH    A
        CFI CFA_SP SP+-1
        MOV     DPL,?V0 + 6
        MOV     DPH,?V0 + 7
        MOVX    A,@DPTR
        SWAP    A
        ANL     A,#0xf
        SWAP    A
        ANL     A,#0xf0
        MOV     R2,A
        POP     A
        CFI CFA_SP SP+0
        ORL     A,R2
        MOV     DPL,R6
        MOV     DPH,R7
        MOVX    @DPTR,A
        MOV     DPL,R6
        MOV     DPH,R7
        INC     DPTR
        MOV     R6,DPL
        MOV     R7,DPH
//  738   *pBuf++ = (byte)((pPowerDesc->CurrentPowerSourceLevel << 4)
//  739                     | (pPowerDesc->CurrentPowerSource & 0x0F));
        MOV     DPL,?V0 + 6
        MOV     DPH,?V0 + 7
        INC     DPTR
        MOVX    A,@DPTR
        MOV     R1,A
        MOV     A,R1
        ANL     A,#0xf
        PUSH    A
        CFI CFA_SP SP+-1
        MOV     DPL,?V0 + 6
        MOV     DPH,?V0 + 7
        INC     DPTR
        MOVX    A,@DPTR
        MOV     R1,A
        MOV     A,R1
        ANL     A,#0xf0
        MOV     R2,A
        POP     A
        CFI CFA_SP SP+0
        ORL     A,R2
        MOV     DPL,R6
        MOV     DPH,R7
        MOVX    @DPTR,A
//  740 
//  741   return fillAndSend( &(inMsg->TransSeq), &(inMsg->srcAddr), Power_Desc_rsp, len );
        ; Setup parameters for call to function fillAndSend
        MOV     ?V0 + 4,#0x3
        MOV     ?V0 + 5,#-0x80
        MOV     R0,#?V0 + 4
        LCALL   ?PUSH_XSTACK_I_TWO
        CFI CFA_XSP16 add(XSP16, 20)
        MOV     R1,?V0 + 2
        MOV     A,#0x2
        LCALL   ?XSTACK_DISP0_8
        MOVX    A,@DPTR
        ADD     A,#0x2
        MOV     R4,A
        INC     DPTR
        MOVX    A,@DPTR
        ADDC    A,#0x0
        MOV     R5,A
        MOV     A,#0x2
        LCALL   ?XSTACK_DISP0_8
        MOVX    A,@DPTR
        ADD     A,#0xf
        MOV     R2,A
        INC     DPTR
        MOVX    A,@DPTR
        ADDC    A,#0x0
        MOV     R3,A
        LCALL   ??fillAndSend?relay
        MOV     A,#0x2
        LCALL   ?DEALLOC_XSTACK8
        CFI CFA_XSP16 add(XSP16, 18)
        MOV     A,#0x2
        LCALL   ?DEALLOC_XSTACK8
        CFI CFA_XSP16 add(XSP16, 16)
        MOV     R7,#0x8
        LJMP    ?BANKED_LEAVE_XDATA
        CFI EndBlock cfiBlock7
//  742 }
//  743 
//  744 /*********************************************************************
//  745  * @fn          ZDP_SimpleDescMsg
//  746  *
//  747  * @brief       Builds and sends a Simple Descriptor message, unicast to the
//  748  *              specified device.
//  749  *
//  750  * @param       inMsg - incoming message (request)
//  751  * @param       Status - message status (ZDP_SUCCESS or other)
//  752  * @param       pSimpleDesc - pointer to the node descriptor
//  753  *
//  754  * @return      afStatus_t
//  755  */

        RSEG BANKED_CODE:CODE:NOROOT(0)
//  756 afStatus_t ZDP_SimpleDescMsg( zdoIncomingMsg_t *inMsg, byte Status,
ZDP_SimpleDescMsg:
        CFI Block cfiBlock8 Using cfiCommon0
        CFI Function ZDP_SimpleDescMsg
//  757                               SimpleDescriptionFormat_t *pSimpleDesc )
//  758 {
        FUNCALL ZDP_SimpleDescMsg, fillAndSend
        LOCFRAME ISTACK, 0, STACK
        LOCFRAME PSTACK, 0, STACK
        LOCFRAME XSTACK, 19, STACK
        LOCFRAME IOVERLAY, 0, STATIC
        LOCFRAME DOVERLAY, 0, STATIC
        ARGFRAME ISTACK, 0, STACK
        ARGFRAME PSTACK, 0, STACK
        ARGFRAME XSTACK, 19, STACK
        ARGFRAME IOVERLAY, 0, STATIC
        ARGFRAME DOVERLAY, 0, STATIC
        MOV     A,#-0xf
        LCALL   ?BANKED_ENTER_XDATA
        CFI DPH0 load(1, XDATA, add(CFA_XSP16, literal(-1)))
        CFI DPL0 load(1, XDATA, add(CFA_XSP16, literal(-2)))
        CFI ?BRET_EXT load(1, XDATA, add(CFA_XSP16, literal(-3)))
        CFI ?RET_HIGH load(1, XDATA, add(CFA_XSP16, literal(-4)))
        CFI ?RET_LOW load(1, XDATA, add(CFA_XSP16, literal(-5)))
        CFI R7 load(1, XDATA, add(CFA_XSP16, literal(-6)))
        CFI V6 load(1, XDATA, add(CFA_XSP16, literal(-7)))
        CFI V5 load(1, XDATA, add(CFA_XSP16, literal(-8)))
        CFI V4 load(1, XDATA, add(CFA_XSP16, literal(-9)))
        CFI V3 load(1, XDATA, add(CFA_XSP16, literal(-10)))
        CFI V2 load(1, XDATA, add(CFA_XSP16, literal(-11)))
        CFI V1 load(1, XDATA, add(CFA_XSP16, literal(-12)))
        CFI V0 load(1, XDATA, add(CFA_XSP16, literal(-13)))
        CFI VB load(1, XDATA, add(CFA_XSP16, literal(-14)))
        CFI R6 load(1, XDATA, add(CFA_XSP16, literal(-15)))
        CFI CFA_SP SP+0
        CFI CFA_XSP16 add(XSP16, 15)
        ; Saved register size: 15
        ; Auto size: 2
        MOV     A,#-0x2
        LCALL   ?ALLOC_XSTACK8
        CFI CFA_XSP16 add(XSP16, 17)
        MOV     DPL,?XSP + 0
        MOV     DPH,?XSP + 1
        MOV     A,R2
        MOVX    @DPTR,A
        INC     DPTR
        MOV     A,R3
        MOVX    @DPTR,A
        MOV     ?V0 + 6,R1
        MOV     ?V0 + 0,R4
        MOV     ?V0 + 1,R5
//  759   uint8 *pBuf = ZDP_TmpBuf;
        MOV     DPTR,#ZDP_TmpBuf
        MOVX    A,@DPTR
        MOV     R0,A
        INC     DPTR
        MOVX    A,@DPTR
        MOV     R1,A
        MOV     A,R0
        MOV     R6,A
        MOV     A,R1
        MOV     R7,A
//  760   uint8 i, len;
//  761 
//  762   if ( Status == ZDP_SUCCESS && pSimpleDesc )
        MOV     A,?V0 + 6
        JNZ     ??ZDP_SimpleDescMsg_0
        MOV     A,?V0 + 0
        XRL     A,#0x0
        JNZ     ??ZDP_SimpleDescMsg_1
        MOV     A,?V0 + 1
        XRL     A,#0x0
??ZDP_SimpleDescMsg_1:
        JZ      ??ZDP_SimpleDescMsg_0
//  763   {
//  764     // Status + NWKAddrOfInterest + desc length + empty simple descriptor.
//  765     len = 1 + 2 + 1 + 8;
        MOV     ?V0 + 3,#0xc
//  766     len += (pSimpleDesc->AppNumInClusters + pSimpleDesc->AppNumOutClusters) * sizeof ( uint16 );
        MOV     B,#0x2
        MOV     DPL,?V0 + 0
        MOV     DPH,?V0 + 1
        INC     DPTR
        INC     DPTR
        INC     DPTR
        INC     DPTR
        INC     DPTR
        INC     DPTR
        MOVX    A,@DPTR
        MOV     R0,A
        MOV     DPL,?V0 + 0
        MOV     DPH,?V0 + 1
        INC     DPTR
        INC     DPTR
        INC     DPTR
        INC     DPTR
        INC     DPTR
        INC     DPTR
        INC     DPTR
        INC     DPTR
        INC     DPTR
        MOVX    A,@DPTR
        ADD     A,R0
        MUL     AB
        ADD     A,?V0 + 3
        MOV     ?V0 + 3,A
        SJMP    ??ZDP_SimpleDescMsg_2
//  767   }
//  768   else
//  769   {
//  770     len = 2; // Status + desc length
??ZDP_SimpleDescMsg_0:
        MOV     ?V0 + 3,#0x2
//  771   }
//  772   if ( len >= ZDP_BUF_SZ-1 )
??ZDP_SimpleDescMsg_2:
        MOV     A,?V0 + 3
        CLR     C
        SUBB    A,#0x4f
        JC      ??ZDP_SimpleDescMsg_3
//  773   {
//  774     return afStatus_MEM_FAIL;
        MOV     R1,#-0x7f
        LJMP    ??ZDP_SimpleDescMsg_4 & 0xFFFF
//  775   }
//  776 
//  777   *pBuf++ = Status;
??ZDP_SimpleDescMsg_3:
        MOV     DPL,R6
        MOV     DPH,R7
        MOV     A,?V0 + 6
        MOVX    @DPTR,A
        MOV     DPL,R6
        MOV     DPH,R7
        INC     DPTR
        MOV     R6,DPL
        MOV     R7,DPH
//  778 
//  779   *pBuf++ = LO_UINT16( ZDAppNwkAddr.addr.shortAddr );
        MOV     DPTR,#ZDAppNwkAddr
        MOVX    A,@DPTR
        MOV     DPL,R6
        MOV     DPH,R7
        MOVX    @DPTR,A
        MOV     DPL,R6
        MOV     DPH,R7
        INC     DPTR
        MOV     R6,DPL
        MOV     R7,DPH
//  780   *pBuf++ = HI_UINT16( ZDAppNwkAddr.addr.shortAddr );
        MOV     DPTR,#ZDAppNwkAddr
        INC     DPTR
        MOVX    A,@DPTR
        MOV     R1,A
        MOV     A,R1
        MOV     DPL,R6
        MOV     DPH,R7
        MOVX    @DPTR,A
        MOV     DPL,R6
        MOV     DPH,R7
        INC     DPTR
        MOV     R6,DPL
        MOV     R7,DPH
//  781 
//  782   if ( len > 2 )
        MOV     A,?V0 + 3
        CLR     C
        SUBB    A,#0x3
        JNC     $+5
        LJMP    ??ZDP_SimpleDescMsg_5 & 0xFFFF
//  783   {
//  784     *pBuf++ = len - 4;   // Simple descriptor length
        MOV     A,#-0x4
        ADD     A,?V0 + 3
        MOV     DPL,R6
        MOV     DPH,R7
        MOVX    @DPTR,A
        MOV     DPL,R6
        MOV     DPH,R7
        INC     DPTR
        MOV     R6,DPL
        MOV     R7,DPH
//  785 
//  786     *pBuf++ = pSimpleDesc->EndPoint;
        MOV     DPL,?V0 + 0
        MOV     DPH,?V0 + 1
        MOVX    A,@DPTR
        MOV     DPL,R6
        MOV     DPH,R7
        MOVX    @DPTR,A
        MOV     DPL,R6
        MOV     DPH,R7
        INC     DPTR
        MOV     R6,DPL
        MOV     R7,DPH
//  787     *pBuf++ = LO_UINT16( pSimpleDesc->AppProfId );
        MOV     DPL,?V0 + 0
        MOV     DPH,?V0 + 1
        INC     DPTR
        MOVX    A,@DPTR
        MOV     DPL,R6
        MOV     DPH,R7
        MOVX    @DPTR,A
        MOV     DPL,R6
        MOV     DPH,R7
        INC     DPTR
        MOV     R6,DPL
        MOV     R7,DPH
//  788     *pBuf++ = HI_UINT16( pSimpleDesc->AppProfId );
        MOV     DPL,?V0 + 0
        MOV     DPH,?V0 + 1
        INC     DPTR
        INC     DPTR
        MOVX    A,@DPTR
        MOV     R1,A
        MOV     A,R1
        MOV     DPL,R6
        MOV     DPH,R7
        MOVX    @DPTR,A
        MOV     DPL,R6
        MOV     DPH,R7
        INC     DPTR
        MOV     R6,DPL
        MOV     R7,DPH
//  789     *pBuf++ = LO_UINT16( pSimpleDesc->AppDeviceId );
        MOV     DPL,?V0 + 0
        MOV     DPH,?V0 + 1
        INC     DPTR
        INC     DPTR
        INC     DPTR
        MOVX    A,@DPTR
        MOV     DPL,R6
        MOV     DPH,R7
        MOVX    @DPTR,A
        MOV     DPL,R6
        MOV     DPH,R7
        INC     DPTR
        MOV     R6,DPL
        MOV     R7,DPH
//  790     *pBuf++ = HI_UINT16( pSimpleDesc->AppDeviceId );
        MOV     DPL,?V0 + 0
        MOV     DPH,?V0 + 1
        INC     DPTR
        INC     DPTR
        INC     DPTR
        INC     DPTR
        MOVX    A,@DPTR
        MOV     R1,A
        MOV     A,R1
        MOV     DPL,R6
        MOV     DPH,R7
        MOVX    @DPTR,A
        MOV     DPL,R6
        MOV     DPH,R7
        INC     DPTR
        MOV     R6,DPL
        MOV     R7,DPH
//  791 
//  792     *pBuf++ = (byte)(pSimpleDesc->AppDevVer << 4);
        MOV     DPL,?V0 + 0
        MOV     DPH,?V0 + 1
        INC     DPTR
        INC     DPTR
        INC     DPTR
        INC     DPTR
        INC     DPTR
        MOVX    A,@DPTR
        SWAP    A
        ANL     A,#0xf0
        MOV     DPL,R6
        MOV     DPH,R7
        MOVX    @DPTR,A
        MOV     DPL,R6
        MOV     DPH,R7
        INC     DPTR
        MOV     R6,DPL
        MOV     R7,DPH
//  793 
//  794     *pBuf++ = pSimpleDesc->AppNumInClusters;
        MOV     DPL,?V0 + 0
        MOV     DPH,?V0 + 1
        INC     DPTR
        INC     DPTR
        INC     DPTR
        INC     DPTR
        INC     DPTR
        INC     DPTR
        MOVX    A,@DPTR
        MOV     DPL,R6
        MOV     DPH,R7
        MOVX    @DPTR,A
        MOV     DPL,R6
        MOV     DPH,R7
        INC     DPTR
        MOV     R6,DPL
        MOV     R7,DPH
//  795     if ( pSimpleDesc->AppNumInClusters )
        MOV     DPL,?V0 + 0
        MOV     DPH,?V0 + 1
        INC     DPTR
        INC     DPTR
        INC     DPTR
        INC     DPTR
        INC     DPTR
        INC     DPTR
        MOVX    A,@DPTR
        JNZ     $+5
        LJMP    ??ZDP_SimpleDescMsg_6 & 0xFFFF
//  796     {
//  797       for (i=0; i<pSimpleDesc->AppNumInClusters; ++i)
        MOV     ?V0 + 2,#0x0
??ZDP_SimpleDescMsg_7:
        MOV     DPL,?V0 + 0
        MOV     DPH,?V0 + 1
        INC     DPTR
        INC     DPTR
        INC     DPTR
        INC     DPTR
        INC     DPTR
        INC     DPTR
        MOVX    A,@DPTR
        MOV     R2,A
        MOV     A,?V0 + 2
        CLR     C
        SUBB    A,R2
        JC      $+5
        LJMP    ??ZDP_SimpleDescMsg_6 & 0xFFFF
//  798       {
//  799         *pBuf++ = LO_UINT16( pSimpleDesc->pAppInClusterList[i] );
        MOV     R0,?V0 + 2
        MOV     R1,#0x0
        MOV     A,R0
        MOV     B,#0x2
        MUL     AB
        XCH     A,R0
        MOV     R2,B
        MOV     B,#0x0
        MUL     AB
        ADD     A,R2
        MOV     R2,A
        MOV     B,#0x2
        MOV     A,R1
        MUL     AB
        ADD     A,R2
        MOV     R1,A
        MOV     DPL,?V0 + 0
        MOV     DPH,?V0 + 1
        INC     DPTR
        INC     DPTR
        INC     DPTR
        INC     DPTR
        INC     DPTR
        INC     DPTR
        INC     DPTR
        MOVX    A,@DPTR
        ADD     A,R0
        MOV     R2,A
        INC     DPTR
        MOVX    A,@DPTR
        ADDC    A,R1
        MOV     DPL,R2
        MOV     DPH,A
        MOVX    A,@DPTR
        MOV     DPL,R6
        MOV     DPH,R7
        MOVX    @DPTR,A
        MOV     DPL,R6
        MOV     DPH,R7
        INC     DPTR
        MOV     R6,DPL
        MOV     R7,DPH
//  800         *pBuf++ = HI_UINT16( pSimpleDesc->pAppInClusterList[i] );
        MOV     R0,?V0 + 2
        MOV     R1,#0x0
        MOV     A,R0
        MOV     B,#0x2
        MUL     AB
        XCH     A,R0
        MOV     R2,B
        MOV     B,#0x0
        MUL     AB
        ADD     A,R2
        MOV     R2,A
        MOV     B,#0x2
        MOV     A,R1
        MUL     AB
        ADD     A,R2
        MOV     R1,A
        MOV     DPL,?V0 + 0
        MOV     DPH,?V0 + 1
        INC     DPTR
        INC     DPTR
        INC     DPTR
        INC     DPTR
        INC     DPTR
        INC     DPTR
        INC     DPTR
        MOVX    A,@DPTR
        ADD     A,R0
        MOV     R2,A
        INC     DPTR
        MOVX    A,@DPTR
        ADDC    A,R1
        MOV     DPL,R2
        MOV     DPH,A
        INC     DPTR
        MOVX    A,@DPTR
        MOV     R1,A
        MOV     A,R1
        MOV     DPL,R6
        MOV     DPH,R7
        MOVX    @DPTR,A
        MOV     DPL,R6
        MOV     DPH,R7
        INC     DPTR
        MOV     R6,DPL
        MOV     R7,DPH
//  801       }
        INC     ?V0 + 2
        LJMP    ??ZDP_SimpleDescMsg_7 & 0xFFFF
//  802     }
//  803     
//  804     *pBuf++ = pSimpleDesc->AppNumOutClusters;
??ZDP_SimpleDescMsg_6:
        MOV     DPL,?V0 + 0
        MOV     DPH,?V0 + 1
        INC     DPTR
        INC     DPTR
        INC     DPTR
        INC     DPTR
        INC     DPTR
        INC     DPTR
        INC     DPTR
        INC     DPTR
        INC     DPTR
        MOVX    A,@DPTR
        MOV     DPL,R6
        MOV     DPH,R7
        MOVX    @DPTR,A
        MOV     DPL,R6
        MOV     DPH,R7
        INC     DPTR
        MOV     R6,DPL
        MOV     R7,DPH
//  805     if ( pSimpleDesc->AppNumOutClusters )
        MOV     DPL,?V0 + 0
        MOV     DPH,?V0 + 1
        INC     DPTR
        INC     DPTR
        INC     DPTR
        INC     DPTR
        INC     DPTR
        INC     DPTR
        INC     DPTR
        INC     DPTR
        INC     DPTR
        MOVX    A,@DPTR
        JNZ     $+5
        LJMP    ??ZDP_SimpleDescMsg_8 & 0xFFFF
//  806     {
//  807       for (i=0; i<pSimpleDesc->AppNumOutClusters; ++i)
        MOV     ?V0 + 2,#0x0
??ZDP_SimpleDescMsg_9:
        MOV     DPL,?V0 + 0
        MOV     DPH,?V0 + 1
        INC     DPTR
        INC     DPTR
        INC     DPTR
        INC     DPTR
        INC     DPTR
        INC     DPTR
        INC     DPTR
        INC     DPTR
        INC     DPTR
        MOVX    A,@DPTR
        MOV     R2,A
        MOV     A,?V0 + 2
        CLR     C
        SUBB    A,R2
        JC      $+5
        LJMP    ??ZDP_SimpleDescMsg_8 & 0xFFFF
//  808       {
//  809         *pBuf++ = LO_UINT16( pSimpleDesc->pAppOutClusterList[i] );
        MOV     R0,?V0 + 2
        MOV     R1,#0x0
        MOV     A,R0
        MOV     B,#0x2
        MUL     AB
        XCH     A,R0
        MOV     R2,B
        MOV     B,#0x0
        MUL     AB
        ADD     A,R2
        MOV     R2,A
        MOV     B,#0x2
        MOV     A,R1
        MUL     AB
        ADD     A,R2
        MOV     R1,A
        MOV     DPL,?V0 + 0
        MOV     DPH,?V0 + 1
        INC     DPTR
        INC     DPTR
        INC     DPTR
        INC     DPTR
        INC     DPTR
        INC     DPTR
        INC     DPTR
        INC     DPTR
        INC     DPTR
        INC     DPTR
        MOVX    A,@DPTR
        ADD     A,R0
        MOV     R2,A
        INC     DPTR
        MOVX    A,@DPTR
        ADDC    A,R1
        MOV     DPL,R2
        MOV     DPH,A
        MOVX    A,@DPTR
        MOV     DPL,R6
        MOV     DPH,R7
        MOVX    @DPTR,A
        MOV     DPL,R6
        MOV     DPH,R7
        INC     DPTR
        MOV     R6,DPL
        MOV     R7,DPH
//  810         *pBuf++ = HI_UINT16( pSimpleDesc->pAppOutClusterList[i] );
        MOV     R0,?V0 + 2
        MOV     R1,#0x0
        MOV     A,R0
        MOV     B,#0x2
        MUL     AB
        XCH     A,R0
        MOV     R2,B
        MOV     B,#0x0
        MUL     AB
        ADD     A,R2
        MOV     R2,A
        MOV     B,#0x2
        MOV     A,R1
        MUL     AB
        ADD     A,R2
        MOV     R1,A
        MOV     DPL,?V0 + 0
        MOV     DPH,?V0 + 1
        INC     DPTR
        INC     DPTR
        INC     DPTR
        INC     DPTR
        INC     DPTR
        INC     DPTR
        INC     DPTR
        INC     DPTR
        INC     DPTR
        INC     DPTR
        MOVX    A,@DPTR
        ADD     A,R0
        MOV     R2,A
        INC     DPTR
        MOVX    A,@DPTR
        ADDC    A,R1
        MOV     DPL,R2
        MOV     DPH,A
        INC     DPTR
        MOVX    A,@DPTR
        MOV     R1,A
        MOV     A,R1
        MOV     DPL,R6
        MOV     DPH,R7
        MOVX    @DPTR,A
        MOV     DPL,R6
        MOV     DPH,R7
        INC     DPTR
        MOV     R6,DPL
        MOV     R7,DPH
//  811       }
        INC     ?V0 + 2
        LJMP    ??ZDP_SimpleDescMsg_9 & 0xFFFF
//  812     }
//  813   }
//  814   
//  815   else
//  816   {
//  817     *pBuf = 0; // Description Length = 0;
??ZDP_SimpleDescMsg_5:
        MOV     A,#0x0
        MOV     DPL,R6
        MOV     DPH,R7
        MOVX    @DPTR,A
//  818   }
//  819 
//  820   return fillAndSend( &(inMsg->TransSeq), &(inMsg->srcAddr), Simple_Desc_rsp, len );
??ZDP_SimpleDescMsg_8:
        ; Setup parameters for call to function fillAndSend
        MOV     ?V0 + 4,#0x4
        MOV     ?V0 + 5,#-0x80
        MOV     R0,#?V0 + 4
        LCALL   ?PUSH_XSTACK_I_TWO
        CFI CFA_XSP16 add(XSP16, 19)
        MOV     R1,?V0 + 3
        MOV     A,#0x2
        LCALL   ?XSTACK_DISP0_8
        MOVX    A,@DPTR
        ADD     A,#0x2
        MOV     R4,A
        INC     DPTR
        MOVX    A,@DPTR
        ADDC    A,#0x0
        MOV     R5,A
        MOV     A,#0x2
        LCALL   ?XSTACK_DISP0_8
        MOVX    A,@DPTR
        ADD     A,#0xf
        MOV     R2,A
        INC     DPTR
        MOVX    A,@DPTR
        ADDC    A,#0x0
        MOV     R3,A
        LCALL   ??fillAndSend?relay
        MOV     A,#0x2
        LCALL   ?DEALLOC_XSTACK8
        CFI CFA_XSP16 add(XSP16, 17)
??ZDP_SimpleDescMsg_4:
        MOV     A,#0x2
        LCALL   ?DEALLOC_XSTACK8
        CFI CFA_XSP16 add(XSP16, 15)
        MOV     R7,#0x7
        LJMP    ?BANKED_LEAVE_XDATA
        CFI EndBlock cfiBlock8
//  821 }
//  822 
//  823 /*********************************************************************
//  824  * @fn          ZDP_EPRsp
//  825  *
//  826  * @brief       This builds and send an endpoint list. Used in
//  827  *              Active_EP_rsp and Match_Desc_Rsp
//  828  *              message.  This function sends unicast message to the
//  829  *              requesting device.
//  830  *
//  831  * @param       MsgType - either Active_EP_rsp or Match_Desc_Rsp
//  832  * @param       dstAddr - destination address
//  833  * @param       Status - message status (ZDP_SUCCESS or other)
//  834  * @param       nwkAddr - Device's short address that this response describes
//  835  * @param       Count - number of endpoint/interfaces in list
//  836  * @param       pEPIntfList - Array of Endpoint/Interfaces
//  837  * @param       SecurityEnable - Security Options
//  838  *
//  839  * @return      afStatus_t
//  840  */

        RSEG BANKED_CODE:CODE:NOROOT(0)
//  841 afStatus_t ZDP_EPRsp( uint16 MsgType, byte TransSeq, zAddrType_t *dstAddr,
ZDP_EPRsp:
        CFI Block cfiBlock9 Using cfiCommon0
        CFI Function ZDP_EPRsp
//  842                         byte Status, uint16 nwkAddr, byte Count,
//  843                         byte *pEPList,
//  844                         byte SecurityEnable )
//  845 {
        FUNCALL ZDP_EPRsp, osal_memcpy
        LOCFRAME ISTACK, 0, STACK
        LOCFRAME PSTACK, 0, STACK
        LOCFRAME XSTACK, 23, STACK
        LOCFRAME IOVERLAY, 0, STATIC
        LOCFRAME DOVERLAY, 0, STATIC
        ARGFRAME ISTACK, 0, STACK
        ARGFRAME PSTACK, 0, STACK
        ARGFRAME XSTACK, 23, STACK
        ARGFRAME IOVERLAY, 0, STATIC
        ARGFRAME DOVERLAY, 0, STATIC
        FUNCALL ZDP_EPRsp, fillAndSend
        LOCFRAME ISTACK, 0, STACK
        LOCFRAME PSTACK, 0, STACK
        LOCFRAME XSTACK, 22, STACK
        LOCFRAME IOVERLAY, 0, STATIC
        LOCFRAME DOVERLAY, 0, STATIC
        ARGFRAME ISTACK, 0, STACK
        ARGFRAME PSTACK, 0, STACK
        ARGFRAME XSTACK, 22, STACK
        ARGFRAME IOVERLAY, 0, STATIC
        ARGFRAME DOVERLAY, 0, STATIC
        MOV     A,#-0x10
        LCALL   ?BANKED_ENTER_XDATA
        CFI DPH0 load(1, XDATA, add(CFA_XSP16, literal(-1)))
        CFI DPL0 load(1, XDATA, add(CFA_XSP16, literal(-2)))
        CFI ?BRET_EXT load(1, XDATA, add(CFA_XSP16, literal(-3)))
        CFI ?RET_HIGH load(1, XDATA, add(CFA_XSP16, literal(-4)))
        CFI ?RET_LOW load(1, XDATA, add(CFA_XSP16, literal(-5)))
        CFI R7 load(1, XDATA, add(CFA_XSP16, literal(-6)))
        CFI V7 load(1, XDATA, add(CFA_XSP16, literal(-7)))
        CFI V6 load(1, XDATA, add(CFA_XSP16, literal(-8)))
        CFI V5 load(1, XDATA, add(CFA_XSP16, literal(-9)))
        CFI V4 load(1, XDATA, add(CFA_XSP16, literal(-10)))
        CFI V3 load(1, XDATA, add(CFA_XSP16, literal(-11)))
        CFI V2 load(1, XDATA, add(CFA_XSP16, literal(-12)))
        CFI V1 load(1, XDATA, add(CFA_XSP16, literal(-13)))
        CFI V0 load(1, XDATA, add(CFA_XSP16, literal(-14)))
        CFI VB load(1, XDATA, add(CFA_XSP16, literal(-15)))
        CFI R6 load(1, XDATA, add(CFA_XSP16, literal(-16)))
        CFI CFA_SP SP+0
        CFI CFA_XSP16 add(XSP16, 16)
        ; Saved register size: 16
        ; Auto size: 4
        MOV     A,#-0x4
        LCALL   ?ALLOC_XSTACK8
        CFI CFA_XSP16 add(XSP16, 20)
        MOV     A,R1
        PUSH    A
        CFI CFA_SP SP+-1
        MOV     A,#0x1
        LCALL   ?XSTACK_DISP0_8
        POP     A
        CFI CFA_SP SP+0
        MOVX    @DPTR,A
        MOV     A,#0x2
        LCALL   ?XSTACK_DISP0_8
        MOV     A,R4
        MOVX    @DPTR,A
        INC     DPTR
        MOV     A,R5
        MOVX    @DPTR,A
        MOV     ?V0 + 6,R2
        MOV     ?V0 + 7,R3
        MOV     A,#0x15
        LCALL   ?XSTACK_DISP0_8
        MOVX    A,@DPTR
        MOV     ?V0 + 4,A
        INC     DPTR
        MOVX    A,@DPTR
        MOV     ?V0 + 5,A
//  846   byte *pBuf = ZDP_TmpBuf;
        MOV     DPTR,#ZDP_TmpBuf
        MOVX    A,@DPTR
        MOV     R0,A
        INC     DPTR
        MOVX    A,@DPTR
        MOV     R1,A
        MOV     A,R0
        MOV     R6,A
        MOV     A,R1
        MOV     R7,A
//  847   byte len = 1 + 2 + 1;  // Status + nwkAddr + endpoint/interface count.
        MOV     ?V0 + 3,#0x4
//  848   byte txOptions;
//  849 
//  850   if ( MsgType == Match_Desc_rsp )
        MOV     A,#0x6
        XRL     A,?V0 + 6
        JNZ     ??ZDP_EPRsp_0
        MOV     A,#-0x80
        XRL     A,?V0 + 7
??ZDP_EPRsp_0:
        JNZ     ??ZDP_EPRsp_1
//  851     txOptions = AF_MSG_ACK_REQUEST;
        MOV     A,#0x10
        MOV     DPL,?XSP + 0
        MOV     DPH,?XSP + 1
        MOVX    @DPTR,A
        SJMP    ??ZDP_EPRsp_2
//  852   else
//  853     txOptions = 0;
??ZDP_EPRsp_1:
        MOV     A,#0x0
        MOV     DPL,?XSP + 0
        MOV     DPH,?XSP + 1
        MOVX    @DPTR,A
//  854 
//  855     *pBuf++ = Status;
??ZDP_EPRsp_2:
        MOV     A,#0x14
        LCALL   ?XSTACK_DISP0_8
        MOVX    A,@DPTR
        MOV     DPL,R6
        MOV     DPH,R7
        MOVX    @DPTR,A
        MOV     DPL,R6
        MOV     DPH,R7
        INC     DPTR
        MOV     R6,DPL
        MOV     R7,DPH
//  856   *pBuf++ = LO_UINT16( nwkAddr );
        MOV     DPL,R6
        MOV     DPH,R7
        MOV     A,?V0 + 4
        MOVX    @DPTR,A
        MOV     DPL,R6
        MOV     DPH,R7
        INC     DPTR
        MOV     R6,DPL
        MOV     R7,DPH
//  857   *pBuf++ = HI_UINT16( nwkAddr );
        MOV     DPL,R6
        MOV     DPH,R7
        MOV     A,?V0 + 5
        MOVX    @DPTR,A
        MOV     DPL,R6
        MOV     DPH,R7
        INC     DPTR
        MOV     R6,DPL
        MOV     R7,DPH
//  858 
//  859   *pBuf++ = Count;   // Endpoint/Interface count
        MOV     A,#0x17
        LCALL   ?XSTACK_DISP0_8
        MOVX    A,@DPTR
        MOV     DPL,R6
        MOV     DPH,R7
        MOVX    @DPTR,A
        MOV     DPL,R6
        MOV     DPH,R7
        INC     DPTR
        MOV     R6,DPL
        MOV     R7,DPH
//  860 
//  861   if ( Count )
        MOV     A,#0x17
        LCALL   ?XSTACK_DISP0_8
        MOVX    A,@DPTR
        JZ      ??ZDP_EPRsp_3
//  862   {
//  863     len += Count;
        MOV     A,#0x17
        LCALL   ?XSTACK_DISP0_8
        MOVX    A,@DPTR
        ADD     A,?V0 + 3
        MOV     ?V0 + 3,A
//  864     osal_memcpy( pBuf, pEPList, Count );
        ; Setup parameters for call to function osal_memcpy
        MOV     A,#0x18
        LCALL   ?XSTACK_DISP0_8
        MOVX    A,@DPTR
        MOV     ?V0 + 0,A
        INC     DPTR
        MOVX    A,@DPTR
        MOV     ?V0 + 1,A
        MOV     ?V0 + 2,#0x0
        MOV     R0,#?V0 + 0
        LCALL   ?PUSH_XSTACK_I_THREE
        CFI CFA_XSP16 add(XSP16, 23)
        MOV     A,#0x1a
        LCALL   ?XSTACK_DISP0_8
        MOVX    A,@DPTR
        MOV     ?V0 + 0,A
        MOV     R4,?V0 + 0
        MOV     R5,#0x0
        MOV     A,R6
        MOV     R2,A
        MOV     A,R7
        MOV     R3,A
        LCALL   ??osal_memcpy?relay
        MOV     A,#0x3
        LCALL   ?DEALLOC_XSTACK8
        CFI CFA_XSP16 add(XSP16, 20)
//  865   }
//  866 
//  867   FillAndSendTxOptions( &TransSeq, dstAddr, MsgType, len, txOptions );
??ZDP_EPRsp_3:
        MOV     DPL,?XSP + 0
        MOV     DPH,?XSP + 1
        MOVX    A,@DPTR
        MOV     DPTR,#ZDP_TxOptions
        MOVX    @DPTR,A
        ; Setup parameters for call to function fillAndSend
        MOV     R0,#?V0 + 6
        LCALL   ?PUSH_XSTACK_I_TWO
        CFI CFA_XSP16 add(XSP16, 22)
        MOV     R1,?V0 + 3
        MOV     A,#0x4
        LCALL   ?XSTACK_DISP0_8
        MOVX    A,@DPTR
        MOV     R4,A
        INC     DPTR
        MOVX    A,@DPTR
        MOV     R5,A
        MOV     A,#0x3
        LCALL   ?XSTACK_DISP0_8
        MOV     R2,DPL
        MOV     R3,DPH
        LCALL   ??fillAndSend?relay
        MOV     A,#0x2
        LCALL   ?DEALLOC_XSTACK8
        CFI CFA_XSP16 add(XSP16, 20)
        MOV     A,R1
        MOV     ?V0 + 0,A
        MOV     A,#0x0
        MOV     DPTR,#ZDP_TxOptions
        MOVX    @DPTR,A
        MOV     R1,?V0 + 0
        MOV     A,#0x4
        LCALL   ?DEALLOC_XSTACK8
        CFI CFA_XSP16 add(XSP16, 16)
        MOV     R7,#0x8
        LJMP    ?BANKED_LEAVE_XDATA
        CFI EndBlock cfiBlock9
//  868 }
//  869 
//  870 #if defined ( ZDO_USERDESC_RESPONSE )
//  871 /*********************************************************************
//  872  * @fn          ZDP_UserDescRsp
//  873  *
//  874  * @brief       Build and send the User Decriptor Response.
//  875  *
//  876  *
//  877  * @param       dstAddr - destination address
//  878  * @param       nwkAddrOfInterest -
//  879  * @param       userDesc -
//  880  * @param       SecurityEnable - Security Options
//  881  *
//  882  * @return      ZStatus_t
//  883  */
//  884 ZStatus_t ZDP_UserDescRsp( byte TransSeq, zAddrType_t *dstAddr,
//  885                 uint16 nwkAddrOfInterest, UserDescriptorFormat_t *userDesc,
//  886                 byte SecurityEnable )
//  887 {
//  888   byte *pBuf = ZDP_TmpBuf;
//  889   byte len = 1 + 2 + 1;  // Status + nwkAddr + descriptor length.
//  890 
//  891   len += userDesc->len;
//  892 
//  893   *pBuf++ = ZSUCCESS;
//  894 
//  895   *pBuf++ = LO_UINT16( nwkAddrOfInterest );
//  896   *pBuf++ = HI_UINT16( nwkAddrOfInterest );
//  897 
//  898   *pBuf++ = userDesc->len;
//  899   osal_memcpy( pBuf, userDesc->desc, userDesc->len );
//  900 
//  901   return (ZStatus_t)fillAndSend( &TransSeq, dstAddr, User_Desc_rsp, len );
//  902 }
//  903 #endif // ZDO_USERDESC_RESPONSE
//  904 
//  905 #if defined ( ZDO_SERVERDISC_RESPONSE )
//  906 /*********************************************************************
//  907  * @fn          ZDP_ServerDiscRsp
//  908  *
//  909  * @brief       Build and send the Server_Discovery_rsp response.
//  910  *
//  911  * @param       transID - Transaction sequence number of request.
//  912  * @param       dstAddr - Network Destination Address.
//  913  * @param       status - Status of response to request.
//  914  * @param       aoi - Network Address of Interest of request.
//  915  * @param       serverMask - Bit map of service(s) being sought.
//  916  * @param       SecurityEnable - Security Options
//  917  *
//  918  * @return      ZStatus_t
//  919  */
//  920 ZStatus_t ZDP_ServerDiscRsp( byte transID, zAddrType_t *dstAddr, byte status,
//  921                            uint16 aoi, uint16 serverMask, byte SecurityEnable )
//  922 {
//  923   const byte len = 1  + 2;  // status + aoi + mask.
//  924   byte *pBuf = ZDP_TmpBuf;
//  925 
//  926   *pBuf++ = status;
//  927 
//  928   *pBuf++ = LO_UINT16( serverMask );
//  929   *pBuf++ = HI_UINT16( serverMask );
//  930 
//  931   return (ZStatus_t)fillAndSend( &transID, dstAddr, Server_Discovery_rsp, len );
//  932 }
//  933 #endif // ZDO_USERDESC_RESPONSE
//  934 
//  935 /*********************************************************************
//  936  * @fn          ZDP_GenericRsp
//  937  *
//  938  * @brief       Sends a response message with only the parameter status
//  939  *              byte and the addr of interest for data.
//  940  *              This function sends unicast message to the
//  941  *              requesting device.
//  942  *
//  943  * @param       dstAddr - destination address
//  944  * @param       status  - generic status for response
//  945  * @param       aoi     - address of interest
//  946  * @param       dstAddr - destination address
//  947  * @param       rspId   - response cluster ID
//  948  * @param       SecurityEnable - Security Options
//  949  *
//  950  * @return      afStatus_t
//  951  */

        RSEG BANKED_CODE:CODE:NOROOT(0)
//  952 afStatus_t ZDP_GenericRsp( byte TransSeq, zAddrType_t *dstAddr,
ZDP_GenericRsp:
        CFI Block cfiBlock10 Using cfiCommon0
        CFI Function ZDP_GenericRsp
//  953                      byte status, uint16 aoi, uint16 rspID, byte SecurityEnable )
//  954 {
        FUNCALL ZDP_GenericRsp, fillAndSend
        LOCFRAME ISTACK, 0, STACK
        LOCFRAME PSTACK, 0, STACK
        LOCFRAME XSTACK, 19, STACK
        LOCFRAME IOVERLAY, 0, STATIC
        LOCFRAME DOVERLAY, 0, STATIC
        ARGFRAME ISTACK, 0, STACK
        ARGFRAME PSTACK, 0, STACK
        ARGFRAME XSTACK, 19, STACK
        ARGFRAME IOVERLAY, 0, STATIC
        ARGFRAME DOVERLAY, 0, STATIC
        MOV     A,#-0x10
        LCALL   ?BANKED_ENTER_XDATA
        CFI DPH0 load(1, XDATA, add(CFA_XSP16, literal(-1)))
        CFI DPL0 load(1, XDATA, add(CFA_XSP16, literal(-2)))
        CFI ?BRET_EXT load(1, XDATA, add(CFA_XSP16, literal(-3)))
        CFI ?RET_HIGH load(1, XDATA, add(CFA_XSP16, literal(-4)))
        CFI ?RET_LOW load(1, XDATA, add(CFA_XSP16, literal(-5)))
        CFI R7 load(1, XDATA, add(CFA_XSP16, literal(-6)))
        CFI V7 load(1, XDATA, add(CFA_XSP16, literal(-7)))
        CFI V6 load(1, XDATA, add(CFA_XSP16, literal(-8)))
        CFI V5 load(1, XDATA, add(CFA_XSP16, literal(-9)))
        CFI V4 load(1, XDATA, add(CFA_XSP16, literal(-10)))
        CFI V3 load(1, XDATA, add(CFA_XSP16, literal(-11)))
        CFI V2 load(1, XDATA, add(CFA_XSP16, literal(-12)))
        CFI V1 load(1, XDATA, add(CFA_XSP16, literal(-13)))
        CFI V0 load(1, XDATA, add(CFA_XSP16, literal(-14)))
        CFI VB load(1, XDATA, add(CFA_XSP16, literal(-15)))
        CFI R6 load(1, XDATA, add(CFA_XSP16, literal(-16)))
        CFI CFA_SP SP+0
        CFI CFA_XSP16 add(XSP16, 16)
        ; Saved register size: 16
        ; Auto size: 1
        MOV     A,#-0x1
        LCALL   ?ALLOC_XSTACK8
        CFI CFA_XSP16 add(XSP16, 17)
        MOV     A,R1
        MOV     DPL,?XSP + 0
        MOV     DPH,?XSP + 1
        MOVX    @DPTR,A
        MOV     ?V0 + 6,R2
        MOV     ?V0 + 7,R3
        MOV     ?V0 + 1,R4
        MOV     A,#0x11
        LCALL   ?XSTACK_DISP0_8
        MOVX    A,@DPTR
        MOV     R6,A
        INC     DPTR
        MOVX    A,@DPTR
        MOV     R7,A
        MOV     A,#0x13
        LCALL   ?XSTACK_DISP0_8
        MOVX    A,@DPTR
        MOV     ?V0 + 2,A
        INC     DPTR
        MOVX    A,@DPTR
        MOV     ?V0 + 3,A
//  955   uint8 len;
//  956 
//  957   ZDP_TmpBuf[0] = status;
        MOV     DPTR,#ZDP_TmpBuf
        MOVX    A,@DPTR
        MOV     R0,A
        INC     DPTR
        MOVX    A,@DPTR
        MOV     DPH,A
        MOV     DPL,R0
        MOV     A,?V0 + 1
        MOVX    @DPTR,A
//  958   ZDP_TmpBuf[1] = LO_UINT16( aoi );
        MOV     A,R6
        PUSH    A
        CFI CFA_SP SP+-1
        MOV     DPTR,#ZDP_TmpBuf
        MOVX    A,@DPTR
        MOV     R0,A
        INC     DPTR
        MOVX    A,@DPTR
        MOV     DPH,A
        MOV     DPL,R0
        INC     DPTR
        POP     A
        CFI CFA_SP SP+0
        MOVX    @DPTR,A
//  959   ZDP_TmpBuf[2] = HI_UINT16( aoi );
        MOV     A,R7
        MOV     R1,A
        MOV     A,R1
        PUSH    A
        CFI CFA_SP SP+-1
        MOV     DPTR,#ZDP_TmpBuf
        MOVX    A,@DPTR
        MOV     R0,A
        INC     DPTR
        MOVX    A,@DPTR
        MOV     DPH,A
        MOV     DPL,R0
        INC     DPTR
        INC     DPTR
        POP     A
        CFI CFA_SP SP+0
        MOVX    @DPTR,A
//  960 
//  961   // Length byte
//  962   ZDP_TmpBuf[3] = 0;
        MOV     A,#0x0
        PUSH    A
        CFI CFA_SP SP+-1
        MOV     DPTR,#ZDP_TmpBuf
        MOVX    A,@DPTR
        MOV     R0,A
        INC     DPTR
        MOVX    A,@DPTR
        MOV     DPH,A
        MOV     DPL,R0
        INC     DPTR
        INC     DPTR
        INC     DPTR
        POP     A
        CFI CFA_SP SP+0
        MOVX    @DPTR,A
//  963   len = 4;
        MOV     ?V0 + 0,#0x4
//  964   
//  965   return fillAndSend( &TransSeq, dstAddr, rspID, len );
        ; Setup parameters for call to function fillAndSend
        MOV     R0,#?V0 + 2
        LCALL   ?PUSH_XSTACK_I_TWO
        CFI CFA_XSP16 add(XSP16, 19)
        MOV     R1,?V0 + 0
        MOV     R4,?V0 + 6
        MOV     R5,?V0 + 7
        MOV     A,#0x2
        LCALL   ?XSTACK_DISP0_8
        MOV     R2,DPL
        MOV     R3,DPH
        LCALL   ??fillAndSend?relay
        MOV     A,#0x2
        LCALL   ?DEALLOC_XSTACK8
        CFI CFA_XSP16 add(XSP16, 17)
        MOV     A,#0x1
        LCALL   ?DEALLOC_XSTACK8
        CFI CFA_XSP16 add(XSP16, 16)
        MOV     R7,#0x8
        LJMP    ?BANKED_LEAVE_XDATA
        CFI EndBlock cfiBlock10
//  966 }
//  967 
//  968 /*********************************************************************
//  969  * Binding
//  970  */
//  971 #if defined ( ZDO_ENDDEVICEBIND_REQUEST )
//  972 /*********************************************************************
//  973  * @fn          ZDP_EndDeviceBindReq
//  974  *
//  975  * @brief       This builds and sends a End_Device_Bind_req message.
//  976  *              This function sends a unicast message.
//  977  *
//  978  * @param       dstAddr - destination address
//  979  * @param       LocalCoordinator - short address of local coordinator
//  980  * @param       epIntf - Endpoint/Interface of Simple Desc
//  981  * @param       ProfileID - Profile ID
//  982  *
//  983  *   The Input cluster list is the opposite of what you would think.
//  984  *   This is the output cluster list of this device
//  985  * @param       NumInClusters - number of input clusters
//  986  * @param       InClusterList - input cluster ID list
//  987  *
//  988  *   The Output cluster list is the opposite of what you would think.
//  989  *   This is the input cluster list of this device
//  990  * @param       NumOutClusters - number of output clusters
//  991  * @param       OutClusterList - output cluster ID list
//  992  *
//  993  * @param       SecurityEnable - Security Options
//  994  *
//  995  * @return      afStatus_t
//  996  */

        RSEG BANKED_CODE:CODE:NOROOT(0)
//  997 afStatus_t ZDP_EndDeviceBindReq( zAddrType_t *dstAddr,
ZDP_EndDeviceBindReq:
        CFI Block cfiBlock11 Using cfiCommon0
        CFI Function ZDP_EndDeviceBindReq
//  998                                  uint16 LocalCoordinator,
//  999                                  byte endPoint,
// 1000                                  uint16 ProfileID,
// 1001                                  byte NumInClusters, cId_t *InClusterList,
// 1002                                  byte NumOutClusters, cId_t *OutClusterList,
// 1003                                  byte SecurityEnable )
// 1004 {
        FUNCALL ZDP_EndDeviceBindReq, NLME_GetShortAddr
        LOCFRAME ISTACK, 0, STACK
        LOCFRAME PSTACK, 0, STACK
        LOCFRAME XSTACK, 19, STACK
        LOCFRAME IOVERLAY, 0, STATIC
        LOCFRAME DOVERLAY, 0, STATIC
        ARGFRAME ISTACK, 0, STACK
        ARGFRAME PSTACK, 0, STACK
        ARGFRAME XSTACK, 19, STACK
        ARGFRAME IOVERLAY, 0, STATIC
        ARGFRAME DOVERLAY, 0, STATIC
        FUNCALL ZDP_EndDeviceBindReq, NLME_GetExtAddr
        LOCFRAME ISTACK, 0, STACK
        LOCFRAME PSTACK, 0, STACK
        LOCFRAME XSTACK, 19, STACK
        LOCFRAME IOVERLAY, 0, STATIC
        LOCFRAME DOVERLAY, 0, STATIC
        ARGFRAME ISTACK, 0, STACK
        ARGFRAME PSTACK, 0, STACK
        ARGFRAME XSTACK, 19, STACK
        ARGFRAME IOVERLAY, 0, STATIC
        ARGFRAME DOVERLAY, 0, STATIC
        FUNCALL ZDP_EndDeviceBindReq, osal_cpyExtAddr
        LOCFRAME ISTACK, 0, STACK
        LOCFRAME PSTACK, 0, STACK
        LOCFRAME XSTACK, 19, STACK
        LOCFRAME IOVERLAY, 0, STATIC
        LOCFRAME DOVERLAY, 0, STATIC
        ARGFRAME ISTACK, 0, STACK
        ARGFRAME PSTACK, 0, STACK
        ARGFRAME XSTACK, 19, STACK
        ARGFRAME IOVERLAY, 0, STATIC
        ARGFRAME DOVERLAY, 0, STATIC
        FUNCALL ZDP_EndDeviceBindReq, fillAndSend
        LOCFRAME ISTACK, 0, STACK
        LOCFRAME PSTACK, 0, STACK
        LOCFRAME XSTACK, 21, STACK
        LOCFRAME IOVERLAY, 0, STATIC
        LOCFRAME DOVERLAY, 0, STATIC
        ARGFRAME ISTACK, 0, STACK
        ARGFRAME PSTACK, 0, STACK
        ARGFRAME XSTACK, 21, STACK
        ARGFRAME IOVERLAY, 0, STATIC
        ARGFRAME DOVERLAY, 0, STATIC
        MOV     A,#-0xe
        LCALL   ?BANKED_ENTER_XDATA
        CFI DPH0 load(1, XDATA, add(CFA_XSP16, literal(-1)))
        CFI DPL0 load(1, XDATA, add(CFA_XSP16, literal(-2)))
        CFI ?BRET_EXT load(1, XDATA, add(CFA_XSP16, literal(-3)))
        CFI ?RET_HIGH load(1, XDATA, add(CFA_XSP16, literal(-4)))
        CFI ?RET_LOW load(1, XDATA, add(CFA_XSP16, literal(-5)))
        CFI R7 load(1, XDATA, add(CFA_XSP16, literal(-6)))
        CFI V5 load(1, XDATA, add(CFA_XSP16, literal(-7)))
        CFI V4 load(1, XDATA, add(CFA_XSP16, literal(-8)))
        CFI V3 load(1, XDATA, add(CFA_XSP16, literal(-9)))
        CFI V2 load(1, XDATA, add(CFA_XSP16, literal(-10)))
        CFI V1 load(1, XDATA, add(CFA_XSP16, literal(-11)))
        CFI V0 load(1, XDATA, add(CFA_XSP16, literal(-12)))
        CFI VB load(1, XDATA, add(CFA_XSP16, literal(-13)))
        CFI R6 load(1, XDATA, add(CFA_XSP16, literal(-14)))
        CFI CFA_SP SP+0
        CFI CFA_XSP16 add(XSP16, 14)
        ; Saved register size: 14
        ; Auto size: 5
        MOV     A,#-0x5
        LCALL   ?ALLOC_XSTACK8
        CFI CFA_XSP16 add(XSP16, 19)
        MOV     A,#0x3
        LCALL   ?XSTACK_DISP0_8
        MOV     A,R2
        MOVX    @DPTR,A
        INC     DPTR
        MOV     A,R3
        MOVX    @DPTR,A
        MOV     A,R1
        MOV     DPL,?XSP + 0
        MOV     DPH,?XSP + 1
        MOVX    @DPTR,A
        MOV     ?V0 + 2,R4
        MOV     ?V0 + 3,R5
// 1005   uint8 *pBuf = ZDP_TmpBuf;
        MOV     DPTR,#ZDP_TmpBuf
        MOVX    A,@DPTR
        MOV     R0,A
        INC     DPTR
        MOVX    A,@DPTR
        MOV     R1,A
        MOV     A,R0
        MOV     R6,A
        MOV     A,R1
        MOV     R7,A
// 1006   uint8 i, len;
// 1007   uint8 *ieeeAddr;
// 1008 
// 1009   // LocalCoordinator + SrcExtAddr + ep + ProfileID +  NumInClusters + NumOutClusters.
// 1010   len = 2 + Z_EXTADDR_LEN + 1 + 2 + 1 + 1;
        MOV     ?V0 + 1,#0xf
// 1011   len += (NumInClusters + NumOutClusters) * sizeof ( uint16 );
        MOV     B,#0x2
        MOV     A,#0x15
        LCALL   ?XSTACK_DISP0_8
        MOVX    A,@DPTR
        MOV     R0,A
        MOV     A,#0x18
        LCALL   ?XSTACK_DISP0_8
        MOVX    A,@DPTR
        ADD     A,R0
        MUL     AB
        ADD     A,?V0 + 1
        MOV     ?V0 + 1,A
// 1012  
// 1013   if ( len >= ZDP_BUF_SZ-1 )
        MOV     A,?V0 + 1
        CLR     C
        SUBB    A,#0x4f
        JC      ??ZDP_EndDeviceBindReq_0
// 1014   {
// 1015     return afStatus_MEM_FAIL;
        MOV     R1,#-0x7f
        LJMP    ??ZDP_EndDeviceBindReq_1 & 0xFFFF
// 1016   }
// 1017   
// 1018   if ( LocalCoordinator != NLME_GetShortAddr() )
??ZDP_EndDeviceBindReq_0:
        ; Setup parameters for call to function NLME_GetShortAddr
        LCALL   ??NLME_GetShortAddr?relay
        MOV     ?V0 + 4,R2
        MOV     ?V0 + 5,R3
        MOV     A,?V0 + 4
        XRL     A,?V0 + 2
        JNZ     ??ZDP_EndDeviceBindReq_2
        MOV     A,?V0 + 5
        XRL     A,?V0 + 3
??ZDP_EndDeviceBindReq_2:
        JZ      ??ZDP_EndDeviceBindReq_3
// 1019   {
// 1020     return afStatus_INVALID_PARAMETER;
        MOV     R1,#-0x7e
        LJMP    ??ZDP_EndDeviceBindReq_1 & 0xFFFF
// 1021   }
// 1022 
// 1023   *pBuf++ = LO_UINT16( LocalCoordinator );
??ZDP_EndDeviceBindReq_3:
        MOV     DPL,R6
        MOV     DPH,R7
        MOV     A,?V0 + 2
        MOVX    @DPTR,A
        MOV     DPL,R6
        MOV     DPH,R7
        INC     DPTR
        MOV     R6,DPL
        MOV     R7,DPH
// 1024   *pBuf++ = HI_UINT16( LocalCoordinator );
        MOV     DPL,R6
        MOV     DPH,R7
        MOV     A,?V0 + 3
        MOVX    @DPTR,A
        MOV     DPL,R6
        MOV     DPH,R7
        INC     DPTR
        MOV     R6,DPL
        MOV     R7,DPH
// 1025 
// 1026   ieeeAddr = NLME_GetExtAddr();
        ; Setup parameters for call to function NLME_GetExtAddr
        LCALL   ??NLME_GetExtAddr?relay
        MOV     A,#0x1
        LCALL   ?XSTACK_DISP0_8
        MOV     A,R2
        MOVX    @DPTR,A
        INC     DPTR
        MOV     A,R3
        MOVX    @DPTR,A
// 1027   pBuf = osal_cpyExtAddr( pBuf, ieeeAddr );
        ; Setup parameters for call to function osal_cpyExtAddr
        MOV     A,#0x1
        LCALL   ?XSTACK_DISP0_8
        MOVX    A,@DPTR
        MOV     R4,A
        INC     DPTR
        MOVX    A,@DPTR
        MOV     R5,A
        MOV     A,R6
        MOV     R2,A
        MOV     A,R7
        MOV     R3,A
        LCALL   ??osal_cpyExtAddr?relay
        MOV     ?V0 + 4,R2
        MOV     ?V0 + 5,R3
        MOV     R6,?V0 + 4
        MOV     R7,?V0 + 5
// 1028   
// 1029   *pBuf++ = endPoint;
        MOV     DPL,?XSP + 0
        MOV     DPH,?XSP + 1
        MOVX    A,@DPTR
        MOV     DPL,R6
        MOV     DPH,R7
        MOVX    @DPTR,A
        MOV     DPL,R6
        MOV     DPH,R7
        INC     DPTR
        MOV     R6,DPL
        MOV     R7,DPH
// 1030 
// 1031   *pBuf++ = LO_UINT16( ProfileID );   // Profile ID
        MOV     A,#0x13
        LCALL   ?XSTACK_DISP0_8
        MOVX    A,@DPTR
        MOV     DPL,R6
        MOV     DPH,R7
        MOVX    @DPTR,A
        MOV     DPL,R6
        MOV     DPH,R7
        INC     DPTR
        MOV     R6,DPL
        MOV     R7,DPH
// 1032   *pBuf++ = HI_UINT16( ProfileID );
        MOV     A,#0x13
        LCALL   ?XSTACK_DISP0_8
        INC     DPTR
        MOVX    A,@DPTR
        MOV     R1,A
        MOV     A,R1
        MOV     DPL,R6
        MOV     DPH,R7
        MOVX    @DPTR,A
        MOV     DPL,R6
        MOV     DPH,R7
        INC     DPTR
        MOV     R6,DPL
        MOV     R7,DPH
// 1033 
// 1034   *pBuf++ = NumInClusters; // Input cluster list
        MOV     A,#0x15
        LCALL   ?XSTACK_DISP0_8
        MOVX    A,@DPTR
        MOV     DPL,R6
        MOV     DPH,R7
        MOVX    @DPTR,A
        MOV     DPL,R6
        MOV     DPH,R7
        INC     DPTR
        MOV     R6,DPL
        MOV     R7,DPH
// 1035   for ( i = 0; i < NumInClusters; ++i )
        MOV     ?V0 + 0,#0x0
??ZDP_EndDeviceBindReq_4:
        MOV     A,#0x15
        LCALL   ?XSTACK_DISP0_8
        MOVX    A,@DPTR
        MOV     R2,A
        MOV     A,?V0 + 0
        CLR     C
        SUBB    A,R2
        JNC     ??ZDP_EndDeviceBindReq_5
// 1036   {
// 1037     *pBuf++ = LO_UINT16(InClusterList[i]);
        MOV     R0,?V0 + 0
        MOV     R1,#0x0
        MOV     A,R0
        MOV     B,#0x2
        MUL     AB
        XCH     A,R0
        MOV     R2,B
        MOV     B,#0x0
        MUL     AB
        ADD     A,R2
        MOV     R2,A
        MOV     B,#0x2
        MOV     A,R1
        MUL     AB
        ADD     A,R2
        MOV     R1,A
        MOV     A,#0x16
        LCALL   ?XSTACK_DISP0_8
        MOVX    A,@DPTR
        ADD     A,R0
        MOV     R2,A
        INC     DPTR
        MOVX    A,@DPTR
        ADDC    A,R1
        MOV     DPL,R2
        MOV     DPH,A
        MOVX    A,@DPTR
        MOV     DPL,R6
        MOV     DPH,R7
        MOVX    @DPTR,A
        MOV     DPL,R6
        MOV     DPH,R7
        INC     DPTR
        MOV     R6,DPL
        MOV     R7,DPH
// 1038     *pBuf++ = HI_UINT16(InClusterList[i]);
        MOV     R0,?V0 + 0
        MOV     R1,#0x0
        MOV     A,R0
        MOV     B,#0x2
        MUL     AB
        XCH     A,R0
        MOV     R2,B
        MOV     B,#0x0
        MUL     AB
        ADD     A,R2
        MOV     R2,A
        MOV     B,#0x2
        MOV     A,R1
        MUL     AB
        ADD     A,R2
        MOV     R1,A
        MOV     A,#0x16
        LCALL   ?XSTACK_DISP0_8
        MOVX    A,@DPTR
        ADD     A,R0
        MOV     R2,A
        INC     DPTR
        MOVX    A,@DPTR
        ADDC    A,R1
        MOV     DPL,R2
        MOV     DPH,A
        INC     DPTR
        MOVX    A,@DPTR
        MOV     R1,A
        MOV     A,R1
        MOV     DPL,R6
        MOV     DPH,R7
        MOVX    @DPTR,A
        MOV     DPL,R6
        MOV     DPH,R7
        INC     DPTR
        MOV     R6,DPL
        MOV     R7,DPH
// 1039   }
        INC     ?V0 + 0
        LJMP    ??ZDP_EndDeviceBindReq_4 & 0xFFFF
// 1040 
// 1041   *pBuf++ = NumOutClusters; // Output cluster list
??ZDP_EndDeviceBindReq_5:
        MOV     A,#0x18
        LCALL   ?XSTACK_DISP0_8
        MOVX    A,@DPTR
        MOV     DPL,R6
        MOV     DPH,R7
        MOVX    @DPTR,A
        MOV     DPL,R6
        MOV     DPH,R7
        INC     DPTR
        MOV     R6,DPL
        MOV     R7,DPH
// 1042   for ( i = 0; i < NumOutClusters; ++i )
        MOV     ?V0 + 0,#0x0
??ZDP_EndDeviceBindReq_6:
        MOV     A,#0x18
        LCALL   ?XSTACK_DISP0_8
        MOVX    A,@DPTR
        MOV     R2,A
        MOV     A,?V0 + 0
        CLR     C
        SUBB    A,R2
        JNC     ??ZDP_EndDeviceBindReq_7
// 1043   {
// 1044     *pBuf++ = LO_UINT16(OutClusterList[i]);
        MOV     R0,?V0 + 0
        MOV     R1,#0x0
        MOV     A,R0
        MOV     B,#0x2
        MUL     AB
        XCH     A,R0
        MOV     R2,B
        MOV     B,#0x0
        MUL     AB
        ADD     A,R2
        MOV     R2,A
        MOV     B,#0x2
        MOV     A,R1
        MUL     AB
        ADD     A,R2
        MOV     R1,A
        MOV     A,#0x19
        LCALL   ?XSTACK_DISP0_8
        MOVX    A,@DPTR
        ADD     A,R0
        MOV     R2,A
        INC     DPTR
        MOVX    A,@DPTR
        ADDC    A,R1
        MOV     DPL,R2
        MOV     DPH,A
        MOVX    A,@DPTR
        MOV     DPL,R6
        MOV     DPH,R7
        MOVX    @DPTR,A
        MOV     DPL,R6
        MOV     DPH,R7
        INC     DPTR
        MOV     R6,DPL
        MOV     R7,DPH
// 1045     *pBuf++ = HI_UINT16(OutClusterList[i]);
        MOV     R0,?V0 + 0
        MOV     R1,#0x0
        MOV     A,R0
        MOV     B,#0x2
        MUL     AB
        XCH     A,R0
        MOV     R2,B
        MOV     B,#0x0
        MUL     AB
        ADD     A,R2
        MOV     R2,A
        MOV     B,#0x2
        MOV     A,R1
        MUL     AB
        ADD     A,R2
        MOV     R1,A
        MOV     A,#0x19
        LCALL   ?XSTACK_DISP0_8
        MOVX    A,@DPTR
        ADD     A,R0
        MOV     R2,A
        INC     DPTR
        MOVX    A,@DPTR
        ADDC    A,R1
        MOV     DPL,R2
        MOV     DPH,A
        INC     DPTR
        MOVX    A,@DPTR
        MOV     R1,A
        MOV     A,R1
        MOV     DPL,R6
        MOV     DPH,R7
        MOVX    @DPTR,A
        MOV     DPL,R6
        MOV     DPH,R7
        INC     DPTR
        MOV     R6,DPL
        MOV     R7,DPH
// 1046   }
        INC     ?V0 + 0
        LJMP    ??ZDP_EndDeviceBindReq_6 & 0xFFFF
// 1047 
// 1048   return fillAndSend( &ZDP_TransID, dstAddr, End_Device_Bind_req, len );
??ZDP_EndDeviceBindReq_7:
        ; Setup parameters for call to function fillAndSend
        MOV     ?V0 + 4,#0x20
        MOV     ?V0 + 5,#0x0
        MOV     R0,#?V0 + 4
        LCALL   ?PUSH_XSTACK_I_TWO
        CFI CFA_XSP16 add(XSP16, 21)
        MOV     R1,?V0 + 1
        MOV     A,#0x5
        LCALL   ?XSTACK_DISP0_8
        MOVX    A,@DPTR
        MOV     R4,A
        INC     DPTR
        MOVX    A,@DPTR
        MOV     R5,A
        MOV     R2,#(ZDP_TransID & 0xff)
        MOV     R3,#((ZDP_TransID >> 8) & 0xff)
        LCALL   ??fillAndSend?relay
        MOV     A,#0x2
        LCALL   ?DEALLOC_XSTACK8
        CFI CFA_XSP16 add(XSP16, 19)
??ZDP_EndDeviceBindReq_1:
        MOV     A,#0x5
        LCALL   ?DEALLOC_XSTACK8
        CFI CFA_XSP16 add(XSP16, 14)
        MOV     R7,#0x6
        LJMP    ?BANKED_LEAVE_XDATA
        CFI EndBlock cfiBlock11
// 1049 }
// 1050 #endif // ZDO_ENDDEVICEBIND_REQUEST
// 1051 
// 1052 #if defined ( ZDO_BIND_UNBIND_REQUEST ) || defined ( ZDO_COORDINATOR )
// 1053 /*********************************************************************
// 1054  * @fn          ZDP_BindUnbindReq
// 1055  *
// 1056  * @brief       This builds and send a Bind_req or Unbind_req message
// 1057  *              Depending on the ClusterID. This function
// 1058  *              sends a unicast message to the local coordinator.
// 1059  *
// 1060  * @param       BindOrUnbind - either Bind_req or Unbind_req
// 1061  * @param       dstAddr - destination address of the message
// 1062  * @param       SourceAddr - source 64 bit address of the binding
// 1063  * @param       SrcEPIntf - Source endpoint/interface
// 1064  * @param       ClusterID - Binding cluster ID
// 1065  * @param       DestinationAddr - destination 64 bit addr of binding
// 1066  * @param       DstEPIntf - destination endpoint/interface
// 1067  * @param       SecurityEnable - Security Options
// 1068  *
// 1069  * @return      afStatus_t
// 1070  */
// 1071 afStatus_t ZDP_BindUnbindReq( uint16 BindOrUnbind, zAddrType_t *dstAddr,
// 1072                               byte *SourceAddr, byte SrcEndPoint,
// 1073                               cId_t ClusterID,
// 1074                               zAddrType_t *destinationAddr, byte DstEndPoint,
// 1075                               byte SecurityEnable )
// 1076 {
// 1077   uint8 *pBuf = ZDP_TmpBuf;
// 1078   byte len;
// 1079 
// 1080   // SourceAddr + SrcEPIntf + ClusterID +  addrMode.
// 1081   len = Z_EXTADDR_LEN + 1 + sizeof( cId_t ) + sizeof( uint8 );
// 1082   if ( destinationAddr->addrMode == Addr64Bit )
// 1083     len += Z_EXTADDR_LEN + 1;     // +1 for DstEPIntf
// 1084   else if ( destinationAddr->addrMode == AddrGroup )
// 1085     len += sizeof ( uint16 );
// 1086 
// 1087   pBuf = osal_cpyExtAddr( pBuf, SourceAddr );
// 1088   *pBuf++ = SrcEndPoint;
// 1089 
// 1090   *pBuf++ = LO_UINT16( ClusterID );
// 1091 
// 1092   *pBuf++ = HI_UINT16( ClusterID );
// 1093   *pBuf++ = destinationAddr->addrMode;
// 1094   if ( destinationAddr->addrMode == Addr64Bit )
// 1095   {
// 1096     pBuf = osal_cpyExtAddr( pBuf, destinationAddr->addr.extAddr );
// 1097     *pBuf = DstEndPoint;
// 1098   }
// 1099   else if ( destinationAddr->addrMode == AddrGroup )
// 1100   {
// 1101     *pBuf++ = LO_UINT16( destinationAddr->addr.shortAddr );
// 1102     *pBuf++ = HI_UINT16( destinationAddr->addr.shortAddr );
// 1103   }
// 1104 
// 1105   FillAndSendTxOptions( &ZDP_TransID, dstAddr, BindOrUnbind, len, AF_MSG_ACK_REQUEST );
// 1106 }
// 1107 #endif // ZDO_BIND_UNBIND_REQUEST
// 1108 
// 1109 /*********************************************************************
// 1110  * Network Management
// 1111  */
// 1112 
// 1113 #if defined ( ZDO_MGMT_NWKDISC_REQUEST )
// 1114 /*********************************************************************
// 1115  * @fn          ZDP_MgmtNwkDiscReq
// 1116  *
// 1117  * @brief       This builds and send a Mgmt_NWK_Disc_req message. This
// 1118  *              function sends a unicast message.
// 1119  *
// 1120  * @param       dstAddr - destination address of the message
// 1121  * @param       ScanChannels - 32 bit address bit map
// 1122  * @param       StartIndex - Starting index within the reporting network
// 1123  *                           list
// 1124  * @param       SecurityEnable - Security Options
// 1125  *
// 1126  * @return      afStatus_t
// 1127  */
// 1128 afStatus_t ZDP_MgmtNwkDiscReq( zAddrType_t *dstAddr,
// 1129                                uint32 ScanChannels,
// 1130                                byte ScanDuration,
// 1131                                byte StartIndex,
// 1132                                byte SecurityEnable )
// 1133 {
// 1134   byte *pBuf = ZDP_TmpBuf;
// 1135   byte len = sizeof( uint32 )+1+1;  // ScanChannels + ScanDuration + StartIndex.
// 1136 
// 1137   *pBuf++ = BREAK_UINT32( ScanChannels, 0 );
// 1138   *pBuf++ = BREAK_UINT32( ScanChannels, 1 );
// 1139   *pBuf++ = BREAK_UINT32( ScanChannels, 2 );
// 1140   *pBuf++ = BREAK_UINT32( ScanChannels, 3 );
// 1141 
// 1142   *pBuf++ = ScanDuration;
// 1143   *pBuf = StartIndex;
// 1144 
// 1145   return fillAndSend( &ZDP_TransID, dstAddr, Mgmt_NWK_Disc_req, len );
// 1146 }
// 1147 #endif // ZDO_MGMT_NWKDISC_REQUEST
// 1148 
// 1149 #if defined ( ZDO_MGMT_JOINDIRECT_REQUEST )
// 1150 /*********************************************************************
// 1151  * @fn          ZDP_MgmtDirectJoinReq
// 1152  *
// 1153  * @brief       This builds and send a Mgmt_Direct_Join_req message. This
// 1154  *              function sends a unicast message.
// 1155  *
// 1156  * @param       dstAddr - destination address of the message
// 1157  * @param       deviceAddr - 64 bit IEEE Address
// 1158  * @param       SecurityEnable - Security Options
// 1159  *
// 1160  * @return      afStatus_t
// 1161  */
// 1162 afStatus_t ZDP_MgmtDirectJoinReq( zAddrType_t *dstAddr,
// 1163                                byte *deviceAddr,
// 1164                                byte capInfo,
// 1165                                byte SecurityEnable )
// 1166 {
// 1167   osal_cpyExtAddr( ZDP_TmpBuf, deviceAddr );
// 1168   ZDP_TmpBuf[Z_EXTADDR_LEN] = capInfo;
// 1169 
// 1170   return fillAndSend( &ZDP_TransID, dstAddr, Mgmt_Direct_Join_req, (Z_EXTADDR_LEN + 1) );
// 1171 }
// 1172 #endif // ZDO_MGMT_JOINDIRECT_REQUEST
// 1173 
// 1174 #if defined ( ZDO_MGMT_PERMIT_JOIN_REQUEST )
// 1175 /*********************************************************************
// 1176  * @fn          ZDP_MgmtPermitJoinReq
// 1177  *
// 1178  * @brief       This builds and send a Mgmt_Permit_Join_req message.
// 1179  *
// 1180  * @param       dstAddr - destination address of the message
// 1181  * @param       duration - Permit duration
// 1182  * @param       TcSignificance - Trust Center Significance
// 1183  *
// 1184  * @return      afStatus_t
// 1185  */
// 1186 afStatus_t ZDP_MgmtPermitJoinReq( zAddrType_t *dstAddr, byte duration,
// 1187                                   byte TcSignificance, byte SecurityEnable )
// 1188 {
// 1189   // Build buffer
// 1190   ZDP_TmpBuf[ZDP_MGMT_PERMIT_JOIN_REQ_DURATION] = duration;
// 1191   ZDP_TmpBuf[ZDP_MGMT_PERMIT_JOIN_REQ_TC_SIG]   = TcSignificance;
// 1192 
// 1193   // Send the message
// 1194   return fillAndSend( &ZDP_TransID, dstAddr, Mgmt_Permit_Join_req,
// 1195                       ZDP_MGMT_PERMIT_JOIN_REQ_SIZE );
// 1196 }
// 1197 #endif // ZDO_MGMT_PERMIT_JOIN_REQUEST
// 1198 
// 1199 /*********************************************************************
// 1200  * Network Management Responses
// 1201  */
// 1202 
// 1203 #if defined ( ZDO_MGMT_NWKDISC_RESPONSE )
// 1204 /*********************************************************************
// 1205  * @fn          ZDP_MgmtNwkDiscRsp
// 1206  *
// 1207  * @brief       This builds and send a Mgmt_NWK_Disc_rsp message. This
// 1208  *              function sends a unicast message.
// 1209  *
// 1210  * @param       dstAddr - destination address of the message
// 1211  * @param       Status - message status (ZDP_SUCCESS or other)
// 1212  * @param       NetworkCount - Total number of networks found
// 1213  * @param       StartIndex - Starting index within the reporting network
// 1214  *                           list
// 1215  * @param       NetworkListCount - number of network lists included
// 1216  *                                 in this message
// 1217  * @param       NetworkList - List of network descriptors
// 1218  * @param       SecurityEnable - Security Options
// 1219  *
// 1220  * @return      afStatus_t
// 1221  */
// 1222 afStatus_t ZDP_MgmtNwkDiscRsp( byte TransSeq, zAddrType_t *dstAddr,
// 1223                             byte Status,
// 1224                             byte NetworkCount,
// 1225                             byte StartIndex,
// 1226                             byte NetworkListCount,
// 1227                             networkDesc_t *NetworkList,
// 1228                             byte SecurityEnable )
// 1229 {
// 1230   byte *buf;
// 1231   byte *pBuf;
// 1232   byte len = 1+1+1+1;  // Status + NetworkCount + StartIndex + NetworkCountList.
// 1233   byte idx;
// 1234 
// 1235   len += ((NetworkListCount - StartIndex) * ( ZDP_NETWORK_EXTENDED_DISCRIPTOR_SIZE - 2 ));
// 1236 
// 1237   buf = osal_mem_alloc( len+1 );
// 1238   if ( buf == NULL )
// 1239   {
// 1240     return afStatus_MEM_FAIL;
// 1241   }
// 1242 
// 1243   pBuf = buf+1;
// 1244 
// 1245   *pBuf++ = Status;
// 1246   *pBuf++ = NetworkCount;
// 1247   *pBuf++ = StartIndex;
// 1248   *pBuf++ = NetworkListCount;
// 1249 
// 1250   for ( idx = StartIndex; idx < (NetworkListCount - StartIndex); idx++ )
// 1251   {
// 1252     osal_cpyExtAddr( pBuf, NetworkList->extendedPANID);
// 1253     pBuf += Z_EXTADDR_LEN;
// 1254    
// 1255     *pBuf++  = NetworkList->logicalChannel;                // LogicalChannel
// 1256     *pBuf    = NetworkList->stackProfile;                  // Stack profile
// 1257     *pBuf++ |= (byte)(NetworkList->version << 4);          // ZigBee Version
// 1258     *pBuf    = NetworkList->beaconOrder;                   // Beacon Order
// 1259     *pBuf++ |= (byte)(NetworkList->superFrameOrder << 4);  // Superframe Order
// 1260 
// 1261     if ( NetworkList->chosenRouter != INVALID_NODE_ADDR )
// 1262     {
// 1263       *pBuf++ = TRUE;                         // Permit Joining
// 1264     }
// 1265     else
// 1266     {
// 1267       *pBuf++ = FALSE;
// 1268     }
// 1269 
// 1270     NetworkList = NetworkList->nextDesc;    // Move to next list entry
// 1271   }
// 1272 
// 1273   FillAndSendBuffer( &TransSeq, dstAddr, Mgmt_NWK_Disc_rsp, len, buf );
// 1274 }
// 1275 #endif // ZDO_MGMT_NWKDISC_RESPONSE
// 1276 
// 1277 #if defined ( ZDO_MGMT_LQI_RESPONSE ) && defined ( RTR_NWK )
// 1278 /*********************************************************************
// 1279  * @fn          ZDP_MgmtLqiRsp
// 1280  *
// 1281  * @brief       This builds and send a Mgmt_Lqi_rsp message. This
// 1282  *              function sends a unicast message.
// 1283  *
// 1284  * @param       dstAddr - destination address of the message
// 1285  * @param       Status - message status (ZDP_SUCCESS or other)
// 1286  * @param       NeighborLqiEntries - Total number of entries found
// 1287  * @param       StartIndex - Starting index within the reporting list
// 1288  * @param       NeighborLqiCount - number of lists included
// 1289  *                                 in this message
// 1290  * @param       NeighborLqiList - List of NeighborLqiItems.  This list
// 1291  *                is the list to be sent, not the entire list
// 1292  * @param       SecurityEnable - true if secure
// 1293  *
// 1294  * @return      ZStatus_t
// 1295  */
// 1296 ZStatus_t ZDP_MgmtLqiRsp( byte TransSeq, zAddrType_t *dstAddr,
// 1297                           byte Status,
// 1298                           byte NeighborLqiEntries,
// 1299                           byte StartIndex,
// 1300                           byte NeighborLqiCount,
// 1301                           ZDP_MgmtLqiItem_t* NeighborList,
// 1302                           byte SecurityEnable )
// 1303 {
// 1304   ZDP_MgmtLqiItem_t* list = NeighborList;
// 1305   byte *buf, *pBuf;
// 1306   byte len, x;
// 1307 
// 1308   if ( ZSuccess != Status )
// 1309   {
// 1310     ZDP_TmpBuf[0] = Status;
// 1311     return fillAndSend( &TransSeq, dstAddr, Mgmt_Lqi_rsp, 1 );
// 1312   }
// 1313 
// 1314   // (Status + NeighborLqiEntries + StartIndex + NeighborLqiCount) +
// 1315   //  neighbor LQI data.
// 1316   len = (1 + 1 + 1 + 1) + (NeighborLqiCount * ZDP_MGMTLQI_EXTENDED_SIZE);
// 1317 
// 1318   buf = osal_mem_alloc( len+1 );
// 1319   if ( buf == NULL )
// 1320   {
// 1321     return afStatus_MEM_FAIL;
// 1322   }
// 1323 
// 1324   pBuf = buf+1;
// 1325 
// 1326   *pBuf++ = Status;
// 1327   *pBuf++ = NeighborLqiEntries;
// 1328   *pBuf++ = StartIndex;
// 1329   *pBuf++ = NeighborLqiCount;
// 1330 
// 1331   for ( x = 0; x < NeighborLqiCount; x++ )
// 1332   {
// 1333     osal_cpyExtAddr( pBuf, list->extPanID);         // Extended PanID
// 1334     pBuf += Z_EXTADDR_LEN;
// 1335    
// 1336     // EXTADDR
// 1337     pBuf = osal_cpyExtAddr( pBuf, list->extAddr );
// 1338 
// 1339     // NWKADDR
// 1340     *pBuf++ = LO_UINT16( list->nwkAddr );
// 1341     *pBuf++ = HI_UINT16( list->nwkAddr );
// 1342 
// 1343     // DEVICETYPE
// 1344     *pBuf = list->devType;
// 1345 
// 1346     // RXONIDLE
// 1347     *pBuf |= (uint8)(list->rxOnIdle << 2);
// 1348 
// 1349     // RELATIONSHIP
// 1350     *pBuf++ |= (uint8)(list->relation << 4);
// 1351 
// 1352     // PERMITJOINING
// 1353     *pBuf++ = (uint8)(list->permit);
// 1354 
// 1355     // DEPTH
// 1356     *pBuf++ = list->depth;
// 1357     
// 1358     // LQI
// 1359     *pBuf++ = list->lqi;
// 1360 
// 1361     list++; // next list entry
// 1362   }
// 1363 
// 1364   FillAndSendBuffer( &TransSeq, dstAddr, Mgmt_Lqi_rsp, len, buf );
// 1365 }
// 1366 #endif // ZDO_MGMT_LQI_RESPONSE && RTR_NWK
// 1367 
// 1368 #if defined ( ZDO_MGMT_RTG_RESPONSE )
// 1369 /*********************************************************************
// 1370  * @fn          ZDP_MgmtRtgRsp
// 1371  *
// 1372  * @brief       This builds and send a Mgmt_Rtg_rsp message. This
// 1373  *              function sends a unicast message.
// 1374  *
// 1375  * @param       dstAddr - destination address of the message
// 1376  * @param       Status - message status (ZDP_SUCCESS or other)
// 1377  * @param       RoutingTableEntries - Total number of entries
// 1378  * @param       StartIndex - Starting index within the reporting list
// 1379  * @param       RoutingTableListCount - number of entries included
// 1380  *                                      in this message
// 1381  * @param       RoutingTableList - List of Routing Table entries
// 1382  * @param       SecurityEnable - true to enable security for this message
// 1383  *
// 1384  * @return      ZStatus_t
// 1385  */
// 1386 ZStatus_t ZDP_MgmtRtgRsp( byte TransSeq, zAddrType_t *dstAddr,
// 1387                             byte Status,
// 1388                             byte RoutingTableEntries,
// 1389                             byte StartIndex,
// 1390                             byte RoutingListCount,
// 1391                             rtgItem_t *RoutingTableList,
// 1392                             byte SecurityEnable )
// 1393 {
// 1394   byte *buf;
// 1395   byte *pBuf;
// 1396   // Status + RoutingTableEntries + StartIndex + RoutingListCount.
// 1397   byte len = 1 + 1 + 1 + 1;
// 1398   byte x;
// 1399 
// 1400   // Add an array for Routing List data
// 1401   len += (RoutingListCount * ZDP_ROUTINGENTRY_SIZE);
// 1402 
// 1403   buf = osal_mem_alloc( (short)(len+1) );
// 1404   if ( buf == NULL )
// 1405   {
// 1406     return afStatus_MEM_FAIL;
// 1407   }
// 1408 
// 1409   pBuf = buf+1;
// 1410 
// 1411   *pBuf++ = Status;
// 1412   *pBuf++ = RoutingTableEntries;
// 1413   *pBuf++ = StartIndex;
// 1414   *pBuf++ = RoutingListCount;
// 1415 
// 1416   for ( x = 0; x < RoutingListCount; x++ )
// 1417   {
// 1418     *pBuf++ = LO_UINT16( RoutingTableList->dstAddress );  // Destination Address
// 1419     *pBuf++ = HI_UINT16( RoutingTableList->dstAddress );
// 1420     *pBuf++ = RoutingTableList->status;
// 1421     *pBuf++ = LO_UINT16( RoutingTableList->nextHopAddress );  // Next hop
// 1422     *pBuf++ = HI_UINT16( RoutingTableList->nextHopAddress );
// 1423     RoutingTableList++;    // Move to next list entry
// 1424   }
// 1425 
// 1426   FillAndSendBuffer( &TransSeq, dstAddr, Mgmt_Rtg_rsp, len, buf );
// 1427 }
// 1428 #endif // ZDO_MGMT_RTG_RESPONSE
// 1429 
// 1430 #if defined ( ZDO_MGMT_BIND_RESPONSE ) && defined ( REFLECTOR )
// 1431 /*********************************************************************
// 1432  * @fn          ZDP_MgmtBindRsp
// 1433  *
// 1434  * @brief       This builds and send a Mgmt_Bind_rsp message. This
// 1435  *              function sends a unicast message.
// 1436  *
// 1437  * @param       dstAddr - destination address of the message
// 1438  * @param       Status - message status (ZDP_SUCCESS or other)
// 1439  * @param       BindingTableEntries - Total number of entries
// 1440  * @param       StartIndex - Starting index within the reporting list
// 1441  * @param       BindingTableListCount - number of entries included
// 1442  *                                 in this message
// 1443  * @param       BindingTableList - List of Binding Table entries
// 1444  * @param       SecurityEnable - Security Options
// 1445  *
// 1446  * @return      ZStatus_t
// 1447  */
// 1448 ZStatus_t ZDP_MgmtBindRsp( byte TransSeq, zAddrType_t *dstAddr,
// 1449                             byte Status,
// 1450                             byte BindingTableEntries,
// 1451                             byte StartIndex,
// 1452                             byte BindingTableListCount,
// 1453                             apsBindingItem_t *BindingTableList,
// 1454                             byte SecurityEnable )
// 1455 {
// 1456   uint8 *buf;
// 1457   uint8 *pBuf;
// 1458   uint8 maxLen; // maxLen is the maximum packet length to allocate enough memory space
// 1459   uint8 len;    // Actual length varies due to different addrMode
// 1460   uint8 x;
// 1461   byte extZdpBindEntrySize = ZDP_BINDINGENTRY_SIZE + 1 + 1; // One more byte for cluserID and DstAddrMode
// 1462   byte shortZdpBindEntrySize = ZDP_BINDINGENTRY_SIZE + 1 + 1 + 2 - 8 - 1; // clusterID + DstAddrMode + shortAddr - ExtAddr - DstEndpoint
// 1463 
// 1464   // Status + BindingTableEntries + StartIndex + BindingTableListCount.
// 1465   maxLen = 1 + 1 + 1 + 1;
// 1466   maxLen += (BindingTableListCount * extZdpBindEntrySize );  //max length
// 1467   buf = osal_mem_alloc( maxLen + 1 );  // +1 for transaction ID
// 1468 
// 1469   if ( buf == NULL )
// 1470   {
// 1471     return afStatus_MEM_FAIL;
// 1472   }
// 1473 
// 1474   pBuf = buf+1;
// 1475 
// 1476   *pBuf++ = Status;
// 1477   *pBuf++ = BindingTableEntries;
// 1478   *pBuf++ = StartIndex;
// 1479   *pBuf++ = BindingTableListCount;
// 1480 
// 1481   // Initial length = Status + BindingTableEntries + StartIndex + BindingTableListCount.
// 1482   // length += ZDP_BINDINGENTRY_SIZE   -- Version 1.0
// 1483   //           extZdpBindEntrySize     -- Version 1.1 extended address mode
// 1484   //           shortZdpBindEntrySize   -- Version 1.1 group address mode
// 1485 
// 1486   len = 1 + 1 + 1 + 1;
// 1487   for ( x = 0; x < BindingTableListCount; x++ )
// 1488   {
// 1489     pBuf = osal_cpyExtAddr( pBuf, BindingTableList->srcAddr );
// 1490     *pBuf++ = BindingTableList->srcEP;
// 1491 
// 1492     // Cluster ID
// 1493     *pBuf++ = LO_UINT16( BindingTableList->clusterID );
// 1494     *pBuf++ = HI_UINT16( BindingTableList->clusterID );
// 1495 
// 1496     *pBuf++ = BindingTableList->dstAddr.addrMode;
// 1497     if ( BindingTableList->dstAddr.addrMode == Addr64Bit )
// 1498     {
// 1499       len += extZdpBindEntrySize;
// 1500       pBuf = osal_cpyExtAddr( pBuf, BindingTableList->dstAddr.addr.extAddr );
// 1501       *pBuf++ = BindingTableList->dstEP;
// 1502     }
// 1503     else
// 1504     {
// 1505       len += shortZdpBindEntrySize;
// 1506       *pBuf++ = LO_UINT16( BindingTableList->dstAddr.addr.shortAddr );
// 1507       *pBuf++ = HI_UINT16( BindingTableList->dstAddr.addr.shortAddr );
// 1508     }  
// 1509     BindingTableList++;    // Move to next list entry
// 1510   }
// 1511 
// 1512   FillAndSendBuffer( &TransSeq, dstAddr, Mgmt_Bind_rsp, len, buf );
// 1513 }
// 1514 #endif // ZDO_MGMT_BIND_RESPONSE && REFLECTOR
// 1515 
// 1516 /*********************************************************************
// 1517  * Functions to register for ZDO Over-the-air messages
// 1518  */
// 1519 
// 1520 /*********************************************************************
// 1521  * @fn          ZDO_RegisterForZDOMsg
// 1522  *
// 1523  * @brief       Call this function to register of an incoming over
// 1524  *              the air ZDO message - probably a response message
// 1525  *              but requests can also be received.
// 1526  *              Messages are delivered to the task with ZDO_CB_MSG
// 1527  *              as the message ID.
// 1528  *
// 1529  * @param       taskID - Where you would like the message delivered
// 1530  * @param       clusterID - What message?
// 1531  *
// 1532  * @return      ZSuccess - successful, ZMemError if not 
// 1533  */

        RSEG BANKED_CODE:CODE:NOROOT(0)
// 1534 ZStatus_t ZDO_RegisterForZDOMsg( uint8 taskID, uint16 clusterID )
ZDO_RegisterForZDOMsg:
        CFI Block cfiBlock12 Using cfiCommon0
        CFI Function ZDO_RegisterForZDOMsg
// 1535 {
        FUNCALL ZDO_RegisterForZDOMsg, osal_mem_alloc
        LOCFRAME ISTACK, 0, STACK
        LOCFRAME PSTACK, 0, STACK
        LOCFRAME XSTACK, 18, STACK
        LOCFRAME IOVERLAY, 0, STATIC
        LOCFRAME DOVERLAY, 0, STATIC
        ARGFRAME ISTACK, 0, STACK
        ARGFRAME PSTACK, 0, STACK
        ARGFRAME XSTACK, 18, STACK
        ARGFRAME IOVERLAY, 0, STATIC
        ARGFRAME DOVERLAY, 0, STATIC
        MOV     A,#-0x10
        LCALL   ?BANKED_ENTER_XDATA
        CFI DPH0 load(1, XDATA, add(CFA_XSP16, literal(-1)))
        CFI DPL0 load(1, XDATA, add(CFA_XSP16, literal(-2)))
        CFI ?BRET_EXT load(1, XDATA, add(CFA_XSP16, literal(-3)))
        CFI ?RET_HIGH load(1, XDATA, add(CFA_XSP16, literal(-4)))
        CFI ?RET_LOW load(1, XDATA, add(CFA_XSP16, literal(-5)))
        CFI R7 load(1, XDATA, add(CFA_XSP16, literal(-6)))
        CFI V7 load(1, XDATA, add(CFA_XSP16, literal(-7)))
        CFI V6 load(1, XDATA, add(CFA_XSP16, literal(-8)))
        CFI V5 load(1, XDATA, add(CFA_XSP16, literal(-9)))
        CFI V4 load(1, XDATA, add(CFA_XSP16, literal(-10)))
        CFI V3 load(1, XDATA, add(CFA_XSP16, literal(-11)))
        CFI V2 load(1, XDATA, add(CFA_XSP16, literal(-12)))
        CFI V1 load(1, XDATA, add(CFA_XSP16, literal(-13)))
        CFI V0 load(1, XDATA, add(CFA_XSP16, literal(-14)))
        CFI VB load(1, XDATA, add(CFA_XSP16, literal(-15)))
        CFI R6 load(1, XDATA, add(CFA_XSP16, literal(-16)))
        CFI CFA_SP SP+0
        CFI CFA_XSP16 add(XSP16, 16)
        ; Saved register size: 16
        ; Auto size: 2
        MOV     A,#-0x2
        LCALL   ?ALLOC_XSTACK8
        CFI CFA_XSP16 add(XSP16, 18)
        MOV     ?V0 + 2,R1
        MOV     ?V0 + 6,R2
        MOV     ?V0 + 7,R3
// 1536   ZDO_MsgCB_t *pList;
// 1537   ZDO_MsgCB_t *pLast;
// 1538   ZDO_MsgCB_t *pNew;
// 1539 
// 1540   // Look for duplicate
// 1541   pList = zdoMsgCBs;
        MOV     DPTR,#zdoMsgCBs
        MOVX    A,@DPTR
        MOV     R0,A
        INC     DPTR
        MOVX    A,@DPTR
        MOV     R1,A
        MOV     A,R0
        MOV     R6,A
        MOV     A,R1
        MOV     R7,A
// 1542   while ( pList )
??ZDO_RegisterForZDOMsg_0:
        MOV     A,R6
        XRL     A,#0x0
        JNZ     ??ZDO_RegisterForZDOMsg_1
        MOV     A,R7
        XRL     A,#0x0
??ZDO_RegisterForZDOMsg_1:
        JZ      ??ZDO_RegisterForZDOMsg_2
// 1543   {
// 1544     if ( pList->taskID == taskID && pList->clusterID == clusterID )
        MOV     DPL,R6
        MOV     DPH,R7
        INC     DPTR
        INC     DPTR
        MOVX    A,@DPTR
        XRL     A,?V0 + 2
        JNZ     ??ZDO_RegisterForZDOMsg_3
        MOV     DPL,R6
        MOV     DPH,R7
        INC     DPTR
        INC     DPTR
        INC     DPTR
        MOVX    A,@DPTR
        XRL     A,?V0 + 6
        JNZ     ??ZDO_RegisterForZDOMsg_4
        INC     DPTR
        MOVX    A,@DPTR
        XRL     A,?V0 + 7
??ZDO_RegisterForZDOMsg_4:
        JNZ     ??ZDO_RegisterForZDOMsg_3
// 1545       return ( ZSuccess );
        MOV     R1,#0x0
        LJMP    ??ZDO_RegisterForZDOMsg_5 & 0xFFFF
// 1546     pLast = pList;
??ZDO_RegisterForZDOMsg_3:
        MOV     DPL,?XSP + 0
        MOV     DPH,?XSP + 1
        MOV     A,R6
        MOVX    @DPTR,A
        INC     DPTR
        MOV     A,R7
        MOVX    @DPTR,A
// 1547     pList = (ZDO_MsgCB_t *)pList->next;
        MOV     DPL,R6
        MOV     DPH,R7
        MOVX    A,@DPTR
        MOV     R6,A
        INC     DPTR
        MOVX    A,@DPTR
        MOV     R7,A
        SJMP    ??ZDO_RegisterForZDOMsg_0
// 1548   }
// 1549   
// 1550   // Add to the list
// 1551   pNew = (ZDO_MsgCB_t *)osal_mem_alloc( sizeof ( ZDO_MsgCB_t ) );
??ZDO_RegisterForZDOMsg_2:
        ; Setup parameters for call to function osal_mem_alloc
        MOV     R2,#0x5
        MOV     R3,#0x0
        LCALL   ??osal_mem_alloc?relay
        MOV     ?V0 + 4,R2
        MOV     ?V0 + 5,R3
        MOV     ?V0 + 0,?V0 + 4
        MOV     ?V0 + 1,?V0 + 5
// 1552   if ( pNew )
        MOV     A,?V0 + 0
        XRL     A,#0x0
        JNZ     ??ZDO_RegisterForZDOMsg_6
        MOV     A,?V0 + 1
        XRL     A,#0x0
??ZDO_RegisterForZDOMsg_6:
        JZ      ??ZDO_RegisterForZDOMsg_7
// 1553   {
// 1554     pNew->taskID = taskID;
        MOV     DPL,?V0 + 0
        MOV     DPH,?V0 + 1
        INC     DPTR
        INC     DPTR
        MOV     A,?V0 + 2
        MOVX    @DPTR,A
// 1555     pNew->clusterID = clusterID;
        MOV     DPL,?V0 + 0
        MOV     DPH,?V0 + 1
        INC     DPTR
        INC     DPTR
        INC     DPTR
        MOV     A,?V0 + 6
        MOVX    @DPTR,A
        INC     DPTR
        MOV     A,?V0 + 7
        MOVX    @DPTR,A
// 1556     pNew->next = NULL;
        MOV     DPL,?V0 + 0
        MOV     DPH,?V0 + 1
        MOV     A,#0x0
        MOVX    @DPTR,A
        INC     DPTR
        MOV     A,#0x0
        MOVX    @DPTR,A
// 1557     if ( zdoMsgCBs )
        MOV     DPTR,#zdoMsgCBs
        MOVX    A,@DPTR
        XRL     A,#0x0
        JNZ     ??ZDO_RegisterForZDOMsg_8
        INC     DPTR
        MOVX    A,@DPTR
        XRL     A,#0x0
??ZDO_RegisterForZDOMsg_8:
        JZ      ??ZDO_RegisterForZDOMsg_9
// 1558     {
// 1559       pLast->next = pNew;
        MOV     DPL,?XSP + 0
        MOV     DPH,?XSP + 1
        MOVX    A,@DPTR
        MOV     R0,A
        INC     DPTR
        MOVX    A,@DPTR
        MOV     DPH,A
        MOV     DPL,R0
        MOV     A,?V0 + 0
        MOVX    @DPTR,A
        INC     DPTR
        MOV     A,?V0 + 1
        MOVX    @DPTR,A
        SJMP    ??ZDO_RegisterForZDOMsg_10
// 1560     }
// 1561     else
// 1562       zdoMsgCBs = pNew;
??ZDO_RegisterForZDOMsg_9:
        MOV     DPTR,#zdoMsgCBs
        MOV     A,?V0 + 0
        MOVX    @DPTR,A
        INC     DPTR
        MOV     A,?V0 + 1
        MOVX    @DPTR,A
// 1563     return ( ZSuccess );
??ZDO_RegisterForZDOMsg_10:
        MOV     R1,#0x0
        SJMP    ??ZDO_RegisterForZDOMsg_5
// 1564   }
// 1565   else
// 1566     return ( ZMemError );
??ZDO_RegisterForZDOMsg_7:
        MOV     R1,#0x10
??ZDO_RegisterForZDOMsg_5:
        MOV     A,#0x2
        LCALL   ?DEALLOC_XSTACK8
        CFI CFA_XSP16 add(XSP16, 16)
        MOV     R7,#0x8
        LJMP    ?BANKED_LEAVE_XDATA
        CFI EndBlock cfiBlock12
// 1567 }
// 1568 
// 1569 /*********************************************************************
// 1570  * @fn          ZDO_RemoveRegisteredCB
// 1571  *
// 1572  * @brief       Call this function if you don't want to receive the 
// 1573  *              incoming message.
// 1574  *
// 1575  * @param       taskID - Where the messages are being delivered.
// 1576  * @param       clusterID - What message?
// 1577  *
// 1578  * @return      ZSuccess - successful, ZFailure if not found
// 1579  */

        RSEG BANKED_CODE:CODE:NOROOT(0)
// 1580 ZStatus_t ZDO_RemoveRegisteredCB( uint8 taskID, uint16 clusterID )
ZDO_RemoveRegisteredCB:
        CFI Block cfiBlock13 Using cfiCommon0
        CFI Function ZDO_RemoveRegisteredCB
// 1581 {
        FUNCALL ZDO_RemoveRegisteredCB, osal_mem_free
        LOCFRAME ISTACK, 0, STACK
        LOCFRAME PSTACK, 0, STACK
        LOCFRAME XSTACK, 13, STACK
        LOCFRAME IOVERLAY, 0, STATIC
        LOCFRAME DOVERLAY, 0, STATIC
        ARGFRAME ISTACK, 0, STACK
        ARGFRAME PSTACK, 0, STACK
        ARGFRAME XSTACK, 13, STACK
        ARGFRAME IOVERLAY, 0, STATIC
        ARGFRAME DOVERLAY, 0, STATIC
        MOV     A,#-0xd
        LCALL   ?BANKED_ENTER_XDATA
        CFI DPH0 load(1, XDATA, add(CFA_XSP16, literal(-1)))
        CFI DPL0 load(1, XDATA, add(CFA_XSP16, literal(-2)))
        CFI ?BRET_EXT load(1, XDATA, add(CFA_XSP16, literal(-3)))
        CFI ?RET_HIGH load(1, XDATA, add(CFA_XSP16, literal(-4)))
        CFI ?RET_LOW load(1, XDATA, add(CFA_XSP16, literal(-5)))
        CFI R7 load(1, XDATA, add(CFA_XSP16, literal(-6)))
        CFI V4 load(1, XDATA, add(CFA_XSP16, literal(-7)))
        CFI V3 load(1, XDATA, add(CFA_XSP16, literal(-8)))
        CFI V2 load(1, XDATA, add(CFA_XSP16, literal(-9)))
        CFI V1 load(1, XDATA, add(CFA_XSP16, literal(-10)))
        CFI V0 load(1, XDATA, add(CFA_XSP16, literal(-11)))
        CFI VB load(1, XDATA, add(CFA_XSP16, literal(-12)))
        CFI R6 load(1, XDATA, add(CFA_XSP16, literal(-13)))
        CFI CFA_SP SP+0
        CFI CFA_XSP16 add(XSP16, 13)
        ; Saved register size: 13
        ; Auto size: 0
        MOV     ?V0 + 4,R1
        MOV     ?V0 + 2,R2
        MOV     ?V0 + 3,R3
// 1582   ZDO_MsgCB_t *pList;
// 1583   ZDO_MsgCB_t *pLast = NULL;
        MOV     ?V0 + 0,#0x0
        MOV     ?V0 + 1,#0x0
// 1584 
// 1585   pList = zdoMsgCBs;  
        MOV     DPTR,#zdoMsgCBs
        MOVX    A,@DPTR
        MOV     R0,A
        INC     DPTR
        MOVX    A,@DPTR
        MOV     R1,A
        MOV     A,R0
        MOV     R6,A
        MOV     A,R1
        MOV     R7,A
// 1586   while ( pList )
??ZDO_RemoveRegisteredCB_0:
        MOV     A,R6
        XRL     A,#0x0
        JNZ     ??ZDO_RemoveRegisteredCB_1
        MOV     A,R7
        XRL     A,#0x0
??ZDO_RemoveRegisteredCB_1:
        JNZ     $+5
        LJMP    ??ZDO_RemoveRegisteredCB_2 & 0xFFFF
// 1587   {
// 1588     if ( pList->taskID == taskID && pList->clusterID == clusterID )
        MOV     DPL,R6
        MOV     DPH,R7
        INC     DPTR
        INC     DPTR
        MOVX    A,@DPTR
        XRL     A,?V0 + 4
        JNZ     ??ZDO_RemoveRegisteredCB_3
        MOV     DPL,R6
        MOV     DPH,R7
        INC     DPTR
        INC     DPTR
        INC     DPTR
        MOVX    A,@DPTR
        XRL     A,?V0 + 2
        JNZ     ??ZDO_RemoveRegisteredCB_4
        INC     DPTR
        MOVX    A,@DPTR
        XRL     A,?V0 + 3
??ZDO_RemoveRegisteredCB_4:
        JNZ     ??ZDO_RemoveRegisteredCB_3
// 1589     {
// 1590       if ( pLast )
        MOV     A,?V0 + 0
        XRL     A,#0x0
        JNZ     ??ZDO_RemoveRegisteredCB_5
        MOV     A,?V0 + 1
        XRL     A,#0x0
??ZDO_RemoveRegisteredCB_5:
        JZ      ??ZDO_RemoveRegisteredCB_6
// 1591       {
// 1592         // remove this one from the linked list
// 1593         pLast->next = pList->next;
        MOV     DPL,R6
        MOV     DPH,R7
        MOVX    A,@DPTR
        MOV     R0,A
        INC     DPTR
        MOVX    A,@DPTR
        MOV     R1,A
        MOV     DPL,?V0 + 0
        MOV     DPH,?V0 + 1
        MOV     A,R0
        MOVX    @DPTR,A
        INC     DPTR
        MOV     A,R1
        MOVX    @DPTR,A
        SJMP    ??ZDO_RemoveRegisteredCB_7
// 1594       }
// 1595       else if ( pList->next )
??ZDO_RemoveRegisteredCB_6:
        MOV     DPL,R6
        MOV     DPH,R7
        MOVX    A,@DPTR
        XRL     A,#0x0
        JNZ     ??ZDO_RemoveRegisteredCB_8
        INC     DPTR
        MOVX    A,@DPTR
        XRL     A,#0x0
??ZDO_RemoveRegisteredCB_8:
        JZ      ??ZDO_RemoveRegisteredCB_9
// 1596       {
// 1597         // remove the first one from the linked list
// 1598         zdoMsgCBs = pList->next;
        MOV     DPL,R6
        MOV     DPH,R7
        MOVX    A,@DPTR
        MOV     R0,A
        INC     DPTR
        MOVX    A,@DPTR
        MOV     R1,A
        MOV     DPTR,#zdoMsgCBs
        MOV     A,R0
        MOVX    @DPTR,A
        INC     DPTR
        MOV     A,R1
        MOVX    @DPTR,A
        SJMP    ??ZDO_RemoveRegisteredCB_7
// 1599       }
// 1600       else
// 1601       {
// 1602         // remove the only item from the list
// 1603         zdoMsgCBs = (ZDO_MsgCB_t *)NULL;
??ZDO_RemoveRegisteredCB_9:
        MOV     DPTR,#zdoMsgCBs
        MOV     A,#0x0
        MOVX    @DPTR,A
        INC     DPTR
        MOV     A,#0x0
        MOVX    @DPTR,A
// 1604       }
// 1605       osal_mem_free( pList );
??ZDO_RemoveRegisteredCB_7:
        ; Setup parameters for call to function osal_mem_free
        MOV     A,R6
        MOV     R2,A
        MOV     A,R7
        MOV     R3,A
        LCALL   ??osal_mem_free?relay
// 1606       return ( ZSuccess );      
        MOV     R1,#0x0
        SJMP    ??ZDO_RemoveRegisteredCB_10
// 1607     }
// 1608     pLast = pList;
??ZDO_RemoveRegisteredCB_3:
        MOV     ?V0 + 0,R6
        MOV     ?V0 + 1,R7
// 1609     pList = pList->next;
        MOV     DPL,R6
        MOV     DPH,R7
        MOVX    A,@DPTR
        MOV     R6,A
        INC     DPTR
        MOVX    A,@DPTR
        MOV     R7,A
        LJMP    ??ZDO_RemoveRegisteredCB_0 & 0xFFFF
// 1610   }
// 1611   
// 1612   return ( ZFailure );
??ZDO_RemoveRegisteredCB_2:
        MOV     R1,#0x1
??ZDO_RemoveRegisteredCB_10:
        MOV     R7,#0x5
        LJMP    ?BANKED_LEAVE_XDATA
        CFI EndBlock cfiBlock13
// 1613 }
// 1614 
// 1615 /*********************************************************************
// 1616  * @fn          ZDO_SendMsgCBs
// 1617  *
// 1618  * @brief       This function sends messages to registered tasks.
// 1619  *              Local to ZDO and shouldn't be called outside of ZDO.
// 1620  *
// 1621  * @param       inMsg - incoming message
// 1622  *
// 1623  * @return      TRUE if sent to at least 1 task, FALSE if not
// 1624  */

        RSEG BANKED_CODE:CODE:NOROOT(0)
// 1625 uint8 ZDO_SendMsgCBs( zdoIncomingMsg_t *inMsg )
ZDO_SendMsgCBs:
        CFI Block cfiBlock14 Using cfiCommon0
        CFI Function ZDO_SendMsgCBs
// 1626 {
        FUNCALL ZDO_SendMsgCBs, osal_msg_allocate
        LOCFRAME ISTACK, 0, STACK
        LOCFRAME PSTACK, 0, STACK
        LOCFRAME XSTACK, 18, STACK
        LOCFRAME IOVERLAY, 0, STATIC
        LOCFRAME DOVERLAY, 0, STATIC
        ARGFRAME ISTACK, 0, STACK
        ARGFRAME PSTACK, 0, STACK
        ARGFRAME XSTACK, 18, STACK
        ARGFRAME IOVERLAY, 0, STATIC
        ARGFRAME DOVERLAY, 0, STATIC
        FUNCALL ZDO_SendMsgCBs, osal_memcpy
        LOCFRAME ISTACK, 0, STACK
        LOCFRAME PSTACK, 0, STACK
        LOCFRAME XSTACK, 21, STACK
        LOCFRAME IOVERLAY, 0, STATIC
        LOCFRAME DOVERLAY, 0, STATIC
        ARGFRAME ISTACK, 0, STACK
        ARGFRAME PSTACK, 0, STACK
        ARGFRAME XSTACK, 21, STACK
        ARGFRAME IOVERLAY, 0, STATIC
        ARGFRAME DOVERLAY, 0, STATIC
        FUNCALL ZDO_SendMsgCBs, osal_memcpy
        LOCFRAME ISTACK, 0, STACK
        LOCFRAME PSTACK, 0, STACK
        LOCFRAME XSTACK, 21, STACK
        LOCFRAME IOVERLAY, 0, STATIC
        LOCFRAME DOVERLAY, 0, STATIC
        ARGFRAME ISTACK, 0, STACK
        ARGFRAME PSTACK, 0, STACK
        ARGFRAME XSTACK, 21, STACK
        ARGFRAME IOVERLAY, 0, STATIC
        ARGFRAME DOVERLAY, 0, STATIC
        FUNCALL ZDO_SendMsgCBs, osal_msg_send
        LOCFRAME ISTACK, 0, STACK
        LOCFRAME PSTACK, 0, STACK
        LOCFRAME XSTACK, 18, STACK
        LOCFRAME IOVERLAY, 0, STATIC
        LOCFRAME DOVERLAY, 0, STATIC
        ARGFRAME ISTACK, 0, STACK
        ARGFRAME PSTACK, 0, STACK
        ARGFRAME XSTACK, 18, STACK
        ARGFRAME IOVERLAY, 0, STATIC
        ARGFRAME DOVERLAY, 0, STATIC
        MOV     A,#-0x10
        LCALL   ?BANKED_ENTER_XDATA
        CFI DPH0 load(1, XDATA, add(CFA_XSP16, literal(-1)))
        CFI DPL0 load(1, XDATA, add(CFA_XSP16, literal(-2)))
        CFI ?BRET_EXT load(1, XDATA, add(CFA_XSP16, literal(-3)))
        CFI ?RET_HIGH load(1, XDATA, add(CFA_XSP16, literal(-4)))
        CFI ?RET_LOW load(1, XDATA, add(CFA_XSP16, literal(-5)))
        CFI R7 load(1, XDATA, add(CFA_XSP16, literal(-6)))
        CFI V7 load(1, XDATA, add(CFA_XSP16, literal(-7)))
        CFI V6 load(1, XDATA, add(CFA_XSP16, literal(-8)))
        CFI V5 load(1, XDATA, add(CFA_XSP16, literal(-9)))
        CFI V4 load(1, XDATA, add(CFA_XSP16, literal(-10)))
        CFI V3 load(1, XDATA, add(CFA_XSP16, literal(-11)))
        CFI V2 load(1, XDATA, add(CFA_XSP16, literal(-12)))
        CFI V1 load(1, XDATA, add(CFA_XSP16, literal(-13)))
        CFI V0 load(1, XDATA, add(CFA_XSP16, literal(-14)))
        CFI VB load(1, XDATA, add(CFA_XSP16, literal(-15)))
        CFI R6 load(1, XDATA, add(CFA_XSP16, literal(-16)))
        CFI CFA_SP SP+0
        CFI CFA_XSP16 add(XSP16, 16)
        ; Saved register size: 16
        ; Auto size: 2
        MOV     A,#-0x2
        LCALL   ?ALLOC_XSTACK8
        CFI CFA_XSP16 add(XSP16, 18)
        MOV     DPL,?XSP + 0
        MOV     DPH,?XSP + 1
        MOV     A,R2
        MOVX    @DPTR,A
        INC     DPTR
        MOV     A,R3
        MOVX    @DPTR,A
// 1627   uint8 ret = FALSE;
        MOV     R6,#0x0
// 1628   ZDO_MsgCB_t *pList = zdoMsgCBs;
        MOV     DPTR,#zdoMsgCBs
        MOVX    A,@DPTR
        MOV     R0,A
        INC     DPTR
        MOVX    A,@DPTR
        MOV     R1,A
        MOV     ?V0 + 6,R0
        MOV     ?V0 + 7,R1
// 1629   while ( pList )
??ZDO_SendMsgCBs_0:
        MOV     A,?V0 + 6
        XRL     A,#0x0
        JNZ     ??ZDO_SendMsgCBs_1
        MOV     A,?V0 + 7
        XRL     A,#0x0
??ZDO_SendMsgCBs_1:
        JNZ     $+5
        LJMP    ??ZDO_SendMsgCBs_2 & 0xFFFF
// 1630   {
// 1631     if ( pList->clusterID == inMsg->clusterID )
        MOV     DPL,?V0 + 6
        MOV     DPH,?V0 + 7
        INC     DPTR
        INC     DPTR
        INC     DPTR
        MOVX    A,@DPTR
        MOV     R0,A
        INC     DPTR
        MOVX    A,@DPTR
        MOV     R1,A
        MOV     DPL,?XSP + 0
        MOV     DPH,?XSP + 1
        MOVX    A,@DPTR
        ADD     A,#0xc
        MOV     R2,A
        INC     DPTR
        MOVX    A,@DPTR
        ADDC    A,#0x0
        MOV     R3,A
        MOV     DPL,R2
        MOV     DPH,R3
        MOVX    A,@DPTR
        XRL     A,R0
        JNZ     ??ZDO_SendMsgCBs_3
        INC     DPTR
        MOVX    A,@DPTR
        XRL     A,R1
??ZDO_SendMsgCBs_3:
        JZ      $+5
        LJMP    ??ZDO_SendMsgCBs_4 & 0xFFFF
// 1632     {
// 1633       zdoIncomingMsg_t *msgPtr;
// 1634 
// 1635       // Send the address to the task
// 1636       msgPtr = (zdoIncomingMsg_t *)osal_msg_allocate( sizeof( zdoIncomingMsg_t ) + inMsg->asduLen );
        ; Setup parameters for call to function osal_msg_allocate
        MOV     DPL,?XSP + 0
        MOV     DPH,?XSP + 1
        MOVX    A,@DPTR
        ADD     A,#0x10
        MOV     R0,A
        INC     DPTR
        MOVX    A,@DPTR
        ADDC    A,#0x0
        MOV     R1,A
        MOV     DPL,R0
        MOV     DPH,R1
        MOVX    A,@DPTR
        MOV     R0,A
        MOV     R1,#0x0
        MOV     A,#0x13
        ADD     A,R0
        MOV     R2,A
        MOV     A,#0x0
        ADDC    A,R1
        MOV     R3,A
        LCALL   ??osal_msg_allocate?relay
        MOV     ?V0 + 0,R2
        MOV     ?V0 + 1,R3
        MOV     ?V0 + 4,?V0 + 0
        MOV     ?V0 + 5,?V0 + 1
// 1637       if ( msgPtr )
        MOV     A,?V0 + 4
        XRL     A,#0x0
        JNZ     ??ZDO_SendMsgCBs_5
        MOV     A,?V0 + 5
        XRL     A,#0x0
??ZDO_SendMsgCBs_5:
        JNZ     $+5
        LJMP    ??ZDO_SendMsgCBs_4 & 0xFFFF
// 1638       {
// 1639         // copy struct
// 1640         osal_memcpy( msgPtr, inMsg, sizeof( zdoIncomingMsg_t ));
        ; Setup parameters for call to function osal_memcpy
        MOV     DPL,?XSP + 0
        MOV     DPH,?XSP + 1
        MOVX    A,@DPTR
        MOV     ?V0 + 0,A
        INC     DPTR
        MOVX    A,@DPTR
        MOV     ?V0 + 1,A
        MOV     ?V0 + 2,#0x0
        MOV     R0,#?V0 + 0
        LCALL   ?PUSH_XSTACK_I_THREE
        CFI CFA_XSP16 add(XSP16, 21)
        MOV     R4,#0x13
        MOV     R5,#0x0
        MOV     R2,?V0 + 4
        MOV     R3,?V0 + 5
        LCALL   ??osal_memcpy?relay
        MOV     A,#0x3
        LCALL   ?DEALLOC_XSTACK8
        CFI CFA_XSP16 add(XSP16, 18)
// 1641         
// 1642         if ( inMsg->asduLen )
        MOV     DPL,?XSP + 0
        MOV     DPH,?XSP + 1
        MOVX    A,@DPTR
        ADD     A,#0x10
        MOV     R0,A
        INC     DPTR
        MOVX    A,@DPTR
        ADDC    A,#0x0
        MOV     R1,A
        MOV     DPL,R0
        MOV     DPH,R1
        MOVX    A,@DPTR
        JZ      ??ZDO_SendMsgCBs_6
// 1643         {
// 1644           msgPtr->asdu = (byte*)(((byte*)msgPtr) + sizeof( zdoIncomingMsg_t ));
        MOV     A,?V0 + 4
        ADD     A,#0x13
        MOV     R0,A
        MOV     A,?V0 + 5
        ADDC    A,#0x0
        MOV     R1,A
        MOV     A,?V0 + 4
        ADD     A,#0x11
        MOV     DPL,A
        MOV     A,?V0 + 5
        ADDC    A,#0x0
        MOV     DPH,A
        MOV     A,R0
        MOVX    @DPTR,A
        INC     DPTR
        MOV     A,R1
        MOVX    @DPTR,A
// 1645           osal_memcpy( msgPtr->asdu, inMsg->asdu, inMsg->asduLen );
        ; Setup parameters for call to function osal_memcpy
        MOV     DPL,?XSP + 0
        MOV     DPH,?XSP + 1
        MOVX    A,@DPTR
        ADD     A,#0x11
        MOV     R0,A
        INC     DPTR
        MOVX    A,@DPTR
        ADDC    A,#0x0
        MOV     R1,A
        MOV     DPL,R0
        MOV     DPH,R1
        MOVX    A,@DPTR
        MOV     ?V0 + 0,A
        INC     DPTR
        MOVX    A,@DPTR
        MOV     ?V0 + 1,A
        MOV     ?V0 + 2,#0x0
        MOV     R0,#?V0 + 0
        LCALL   ?PUSH_XSTACK_I_THREE
        CFI CFA_XSP16 add(XSP16, 21)
        MOV     A,#0x3
        LCALL   ?XSTACK_DISP0_8
        MOVX    A,@DPTR
        ADD     A,#0x10
        MOV     R0,A
        INC     DPTR
        MOVX    A,@DPTR
        ADDC    A,#0x0
        MOV     R1,A
        MOV     DPL,R0
        MOV     DPH,R1
        MOVX    A,@DPTR
        MOV     ?V0 + 0,A
        MOV     R4,?V0 + 0
        MOV     R5,#0x0
        MOV     A,?V0 + 4
        ADD     A,#0x11
        MOV     DPL,A
        MOV     A,?V0 + 5
        ADDC    A,#0x0
        MOV     DPH,A
        MOVX    A,@DPTR
        MOV     R2,A
        INC     DPTR
        MOVX    A,@DPTR
        MOV     R3,A
        LCALL   ??osal_memcpy?relay
        MOV     A,#0x3
        LCALL   ?DEALLOC_XSTACK8
        CFI CFA_XSP16 add(XSP16, 18)
// 1646         }
// 1647     
// 1648         msgPtr->hdr.event = ZDO_CB_MSG;
??ZDO_SendMsgCBs_6:
        MOV     A,#-0x2d
        MOV     DPL,?V0 + 4
        MOV     DPH,?V0 + 5
        MOVX    @DPTR,A
// 1649         osal_msg_send( pList->taskID, (uint8 *)msgPtr );
        ; Setup parameters for call to function osal_msg_send
        MOV     R2,?V0 + 4
        MOV     R3,?V0 + 5
        MOV     DPL,?V0 + 6
        MOV     DPH,?V0 + 7
        INC     DPTR
        INC     DPTR
        MOVX    A,@DPTR
        MOV     R1,A
        LCALL   ??osal_msg_send?relay
// 1650         ret = TRUE;
        MOV     R6,#0x1
// 1651       }
// 1652     }
// 1653     pList = (ZDO_MsgCB_t *)pList->next;
??ZDO_SendMsgCBs_4:
        MOV     DPL,?V0 + 6
        MOV     DPH,?V0 + 7
        MOVX    A,@DPTR
        MOV     ?V0 + 6,A
        INC     DPTR
        MOVX    A,@DPTR
        MOV     ?V0 + 7,A
        LJMP    ??ZDO_SendMsgCBs_0 & 0xFFFF
// 1654   }
// 1655   return ( ret );
??ZDO_SendMsgCBs_2:
        MOV     A,R6
        MOV     R1,A
        MOV     A,#0x2
        LCALL   ?DEALLOC_XSTACK8
        CFI CFA_XSP16 add(XSP16, 16)
        MOV     R7,#0x8
        LJMP    ?BANKED_LEAVE_XDATA
        CFI EndBlock cfiBlock14
// 1656 }  
// 1657 
// 1658 /*********************************************************************
// 1659  * Incoming message processor
// 1660  */
// 1661 
// 1662 /*********************************************************************
// 1663  * @fn          ZDP_IncomingData
// 1664  *
// 1665  * @brief       This function indicates the transfer of a data PDU (ASDU)
// 1666  *              from the APS sub-layer to the ZDO.
// 1667  *
// 1668  * @param       pData - Incoming Message
// 1669  *
// 1670  * @return      none
// 1671  */

        RSEG BANKED_CODE:CODE:NOROOT(0)
// 1672 void ZDP_IncomingData( afIncomingMSGPacket_t *pData )
ZDP_IncomingData:
        CFI Block cfiBlock15 Using cfiCommon0
        CFI Function ZDP_IncomingData
// 1673 {
        FUNCALL ZDP_IncomingData, ZDO_SendMsgCBs
        LOCFRAME ISTACK, 0, STACK
        LOCFRAME PSTACK, 0, STACK
        LOCFRAME XSTACK, 29, STACK
        LOCFRAME IOVERLAY, 0, STATIC
        LOCFRAME DOVERLAY, 0, STATIC
        ARGFRAME ISTACK, 0, STACK
        ARGFRAME PSTACK, 0, STACK
        ARGFRAME XSTACK, 29, STACK
        ARGFRAME IOVERLAY, 0, STATIC
        ARGFRAME DOVERLAY, 0, STATIC
        FUNCALL ZDP_IncomingData, ZDApp_InMsgCB
        LOCFRAME ISTACK, 0, STACK
        LOCFRAME PSTACK, 0, STACK
        LOCFRAME XSTACK, 29, STACK
        LOCFRAME IOVERLAY, 0, STATIC
        LOCFRAME DOVERLAY, 0, STATIC
        ARGFRAME ISTACK, 0, STACK
        ARGFRAME PSTACK, 0, STACK
        ARGFRAME XSTACK, 29, STACK
        ARGFRAME IOVERLAY, 0, STATIC
        ARGFRAME DOVERLAY, 0, STATIC
        MOV     A,#-0xa
        LCALL   ?BANKED_ENTER_XDATA
        CFI DPH0 load(1, XDATA, add(CFA_XSP16, literal(-1)))
        CFI DPL0 load(1, XDATA, add(CFA_XSP16, literal(-2)))
        CFI ?BRET_EXT load(1, XDATA, add(CFA_XSP16, literal(-3)))
        CFI ?RET_HIGH load(1, XDATA, add(CFA_XSP16, literal(-4)))
        CFI ?RET_LOW load(1, XDATA, add(CFA_XSP16, literal(-5)))
        CFI R7 load(1, XDATA, add(CFA_XSP16, literal(-6)))
        CFI V1 load(1, XDATA, add(CFA_XSP16, literal(-7)))
        CFI V0 load(1, XDATA, add(CFA_XSP16, literal(-8)))
        CFI VB load(1, XDATA, add(CFA_XSP16, literal(-9)))
        CFI R6 load(1, XDATA, add(CFA_XSP16, literal(-10)))
        CFI CFA_SP SP+0
        CFI CFA_XSP16 add(XSP16, 10)
        ; Saved register size: 10
        ; Auto size: 19
        MOV     A,#-0x13
        LCALL   ?ALLOC_XSTACK8
        CFI CFA_XSP16 add(XSP16, 29)
        MOV     A,R2
        MOV     R6,A
        MOV     A,R3
        MOV     R7,A
// 1674   uint8 x = 0;
        MOV     ?V0 + 0,#0x0
// 1675   uint8 handled;
// 1676   zdoIncomingMsg_t inMsg;
// 1677 
// 1678   inMsg.srcAddr.addrMode = Addr16Bit;
        MOV     A,#0x2
        PUSH    A
        CFI CFA_SP SP+-1
        MOV     A,#0xa
        LCALL   ?XSTACK_DISP0_8
        POP     A
        CFI CFA_SP SP+0
        MOVX    @DPTR,A
// 1679   inMsg.srcAddr.addr.shortAddr = pData->srcAddr.addr.shortAddr;
        MOV     DPL,R6
        MOV     DPH,R7
        INC     DPTR
        INC     DPTR
        INC     DPTR
        INC     DPTR
        INC     DPTR
        INC     DPTR
        MOVX    A,@DPTR
        MOV     R0,A
        INC     DPTR
        MOVX    A,@DPTR
        MOV     R1,A
        MOV     A,#0x2
        LCALL   ?XSTACK_DISP0_8
        MOV     A,R0
        MOVX    @DPTR,A
        INC     DPTR
        MOV     A,R1
        MOVX    @DPTR,A
// 1680   inMsg.wasBroadcast = pData->wasBroadcast;
        MOV     A,R6
        ADD     A,#0xb
        MOV     DPL,A
        MOV     A,R7
        ADDC    A,#0x0
        MOV     DPH,A
        MOVX    A,@DPTR
        PUSH    A
        CFI CFA_SP SP+-1
        MOV     A,#0xb
        LCALL   ?XSTACK_DISP0_8
        POP     A
        CFI CFA_SP SP+0
        MOVX    @DPTR,A
// 1681   inMsg.clusterID = pData->clusterId;
        MOV     DPL,R6
        MOV     DPH,R7
        INC     DPTR
        INC     DPTR
        INC     DPTR
        INC     DPTR
        MOVX    A,@DPTR
        MOV     R0,A
        INC     DPTR
        MOVX    A,@DPTR
        MOV     R1,A
        MOV     A,#0xc
        LCALL   ?XSTACK_DISP0_8
        MOV     A,R0
        MOVX    @DPTR,A
        INC     DPTR
        MOV     A,R1
        MOVX    @DPTR,A
// 1682   inMsg.SecurityUse = pData->SecurityUse;
        MOV     A,R6
        ADD     A,#0xd
        MOV     DPL,A
        MOV     A,R7
        ADDC    A,#0x0
        MOV     DPH,A
        MOVX    A,@DPTR
        PUSH    A
        CFI CFA_SP SP+-1
        MOV     A,#0xe
        LCALL   ?XSTACK_DISP0_8
        POP     A
        CFI CFA_SP SP+0
        MOVX    @DPTR,A
// 1683 
// 1684   inMsg.asduLen = pData->cmd.DataLength-1;
        MOV     A,R6
        ADD     A,#0x13
        MOV     DPL,A
        MOV     A,R7
        ADDC    A,#0x0
        MOV     DPH,A
        MOVX    A,@DPTR
        ADD     A,#-0x1
        PUSH    A
        CFI CFA_SP SP+-1
        MOV     A,#0x10
        LCALL   ?XSTACK_DISP0_8
        POP     A
        CFI CFA_SP SP+0
        MOVX    @DPTR,A
// 1685   inMsg.asdu = pData->cmd.Data+1;
        MOV     A,R6
        ADD     A,#0x15
        MOV     DPL,A
        MOV     A,R7
        ADDC    A,#0x0
        MOV     DPH,A
        MOVX    A,@DPTR
        ADD     A,#0x1
        MOV     R0,A
        INC     DPTR
        MOVX    A,@DPTR
        ADDC    A,#0x0
        MOV     R1,A
        MOV     A,#0x11
        LCALL   ?XSTACK_DISP0_8
        MOV     A,R0
        MOVX    @DPTR,A
        INC     DPTR
        MOV     A,R1
        MOVX    @DPTR,A
// 1686   inMsg.TransSeq = pData->cmd.Data[0];
        MOV     A,R6
        ADD     A,#0x15
        MOV     DPL,A
        MOV     A,R7
        ADDC    A,#0x0
        MOV     DPH,A
        MOVX    A,@DPTR
        MOV     R0,A
        INC     DPTR
        MOVX    A,@DPTR
        MOV     DPH,A
        MOV     DPL,R0
        MOVX    A,@DPTR
        PUSH    A
        CFI CFA_SP SP+-1
        MOV     A,#0xf
        LCALL   ?XSTACK_DISP0_8
        POP     A
        CFI CFA_SP SP+0
        MOVX    @DPTR,A
// 1687   
// 1688   handled = ZDO_SendMsgCBs( &inMsg );
        ; Setup parameters for call to function ZDO_SendMsgCBs
        MOV     DPL,?XSP + 0
        MOV     DPH,?XSP + 1
        MOV     R2,DPL
        MOV     R3,DPH
        LCALL   ??ZDO_SendMsgCBs?relay
        MOV     A,R1
        MOV     ?V0 + 1,A
// 1689   
// 1690 #if defined( MT_ZDO_FUNC )
// 1691   MT_ZdoRsp( &inMsg );
// 1692 #endif
// 1693 
// 1694   while ( zdpMsgProcs[x].clusterID != 0xFFFF )
??ZDP_IncomingData_0:
        MOV     R0,?V0 + 0
        MOV     R1,#0x0
        MOV     A,R0
        MOV     B,#0x4
        MUL     AB
        XCH     A,R0
        MOV     R2,B
        MOV     B,#0x0
        MUL     AB
        ADD     A,R2
        MOV     R2,A
        MOV     B,#0x4
        MOV     A,R1
        MUL     AB
        ADD     A,R2
        MOV     R1,A
        MOV     A,R0
        ADD     A,#(zdpMsgProcs & 0xff)
        MOV     DPL,A
        MOV     A,R1
        ADDC    A,#((zdpMsgProcs >> 8) & 0xff)
        MOV     DPH,A
        CLR     A
        MOVC    A,@A+DPTR
        MOV     R0,A
        MOV     A,#0x1
        MOVC    A,@A+DPTR
        MOV     R1,A
        MOV     A,#-0x1
        XRL     A,R0
        JNZ     ??ZDP_IncomingData_1
        MOV     A,#-0x1
        XRL     A,R1
??ZDP_IncomingData_1:
        JZ      ??ZDP_IncomingData_2
// 1695   {
// 1696     if ( zdpMsgProcs[x].clusterID == inMsg.clusterID )
        MOV     R0,?V0 + 0
        MOV     R1,#0x0
        MOV     A,R0
        MOV     B,#0x4
        MUL     AB
        XCH     A,R0
        MOV     R2,B
        MOV     B,#0x0
        MUL     AB
        ADD     A,R2
        MOV     R2,A
        MOV     B,#0x4
        MOV     A,R1
        MUL     AB
        ADD     A,R2
        MOV     R1,A
        MOV     A,R0
        ADD     A,#(zdpMsgProcs & 0xff)
        MOV     DPL,A
        MOV     A,R1
        ADDC    A,#((zdpMsgProcs >> 8) & 0xff)
        MOV     DPH,A
        CLR     A
        MOVC    A,@A+DPTR
        MOV     R0,A
        MOV     A,#0x1
        MOVC    A,@A+DPTR
        MOV     R1,A
        MOV     A,#0xc
        LCALL   ?XSTACK_DISP0_8
        MOVX    A,@DPTR
        XRL     A,R0
        JNZ     ??ZDP_IncomingData_3
        INC     DPTR
        MOVX    A,@DPTR
        XRL     A,R1
??ZDP_IncomingData_3:
        JNZ     ??ZDP_IncomingData_4
// 1697     {
// 1698       zdpMsgProcs[x].pFn( &inMsg );
        ; Setup parameters for indirect call
        MOV     DPL,?XSP + 0
        MOV     DPH,?XSP + 1
        MOV     R2,DPL
        MOV     R3,DPH
        MOV     R0,?V0 + 0
        MOV     R1,#0x0
        MOV     A,R0
        MOV     B,#0x4
        MUL     AB
        XCH     A,R0
        MOV     R4,B
        MOV     B,#0x0
        MUL     AB
        ADD     A,R4
        MOV     R4,A
        MOV     B,#0x4
        MOV     A,R1
        MUL     AB
        ADD     A,R4
        MOV     R1,A
        MOV     A,R0
        ADD     A,#((zdpMsgProcs + 2) & 0xff)
        MOV     DPL,A
        MOV     A,R1
        ADDC    A,#(((zdpMsgProcs + 2) >> 8) & 0xff)
        MOV     DPH,A
        CLR     A
        MOVC    A,@A+DPTR
        PUSH    A
        MOV     A,#0x1
        MOVC    A,@A+DPTR
        MOV     DPH,A
        POP     DPL
        LCALL   ?CALL_IND
// 1699       return;
        SJMP    ??ZDP_IncomingData_5
// 1700     }
// 1701     x++;
??ZDP_IncomingData_4:
        INC     ?V0 + 0
        LJMP    ??ZDP_IncomingData_0 & 0xFFFF
// 1702   }
// 1703 
// 1704   // Handle unhandled messages
// 1705   if ( !handled )
??ZDP_IncomingData_2:
        MOV     A,?V0 + 1
        JNZ     ??ZDP_IncomingData_5
// 1706     ZDApp_InMsgCB( &inMsg );
        ; Setup parameters for call to function ZDApp_InMsgCB
        MOV     DPL,?XSP + 0
        MOV     DPH,?XSP + 1
        MOV     R2,DPL
        MOV     R3,DPH
        LCALL   ??ZDApp_InMsgCB?relay
??ZDP_IncomingData_5:
        MOV     A,#0x13
        LCALL   ?DEALLOC_XSTACK8
        CFI CFA_XSP16 add(XSP16, 10)
        MOV     R7,#0x2
        LJMP    ?BANKED_LEAVE_XDATA
        CFI EndBlock cfiBlock15
// 1707 }

        RSEG XDATA_ID:CODE:NOROOT(0)
        DATA
`?<Initializer for ZDP_TmpBuf>`:
        DW ZDP_Buf + 1H

        RSEG BANK_RELAYS:CODE:REORDER:NOROOT(0)
??fillAndSend?relay:
        LCALL   ?BDISPATCH
        DATA
        DC24    fillAndSend

        RSEG BANK_RELAYS:CODE:REORDER:NOROOT(0)
??ZDP_SendData?relay:
        LCALL   ?BDISPATCH
        DATA
        DC24    ZDP_SendData

        RSEG BANK_RELAYS:CODE:REORDER:NOROOT(0)
??ZDP_NwkAddrReq?relay:
        LCALL   ?BDISPATCH
        DATA
        DC24    ZDP_NwkAddrReq

        RSEG BANK_RELAYS:CODE:REORDER:NOROOT(0)
??ZDP_IEEEAddrReq?relay:
        LCALL   ?BDISPATCH
        DATA
        DC24    ZDP_IEEEAddrReq

        RSEG BANK_RELAYS:CODE:REORDER:NOROOT(0)
??ZDP_MatchDescReq?relay:
        LCALL   ?BDISPATCH
        DATA
        DC24    ZDP_MatchDescReq

        RSEG BANK_RELAYS:CODE:REORDER:NOROOT(0)
??zdpProcessAddrReq?relay:
        LCALL   ?BDISPATCH
        DATA
        DC24    zdpProcessAddrReq

        RSEG BANK_RELAYS:CODE:REORDER:NOROOT(0)
??ZDP_NodeDescMsg?relay:
        LCALL   ?BDISPATCH
        DATA
        DC24    ZDP_NodeDescMsg

        RSEG BANK_RELAYS:CODE:REORDER:NOROOT(0)
??ZDP_PowerDescMsg?relay:
        LCALL   ?BDISPATCH
        DATA
        DC24    ZDP_PowerDescMsg

        RSEG BANK_RELAYS:CODE:REORDER:NOROOT(0)
??ZDP_SimpleDescMsg?relay:
        LCALL   ?BDISPATCH
        DATA
        DC24    ZDP_SimpleDescMsg

        RSEG BANK_RELAYS:CODE:REORDER:NOROOT(0)
??ZDP_EPRsp?relay:
        LCALL   ?BDISPATCH
        DATA
        DC24    ZDP_EPRsp

        RSEG BANK_RELAYS:CODE:REORDER:NOROOT(0)
??ZDP_GenericRsp?relay:
        LCALL   ?BDISPATCH
        DATA
        DC24    ZDP_GenericRsp

        RSEG BANK_RELAYS:CODE:REORDER:NOROOT(0)
??ZDP_EndDeviceBindReq?relay:
        LCALL   ?BDISPATCH
        DATA
        DC24    ZDP_EndDeviceBindReq

        RSEG BANK_RELAYS:CODE:REORDER:NOROOT(0)
??ZDO_RegisterForZDOMsg?relay:
        LCALL   ?BDISPATCH
        DATA
        DC24    ZDO_RegisterForZDOMsg

        RSEG BANK_RELAYS:CODE:REORDER:NOROOT(0)
??ZDO_RemoveRegisteredCB?relay:
        LCALL   ?BDISPATCH
        DATA
        DC24    ZDO_RemoveRegisteredCB

        RSEG BANK_RELAYS:CODE:REORDER:NOROOT(0)
??ZDO_SendMsgCBs?relay:
        LCALL   ?BDISPATCH
        DATA
        DC24    ZDO_SendMsgCBs

        RSEG BANK_RELAYS:CODE:REORDER:NOROOT(0)
??ZDP_IncomingData?relay:
        LCALL   ?BDISPATCH
        DATA
        DC24    ZDP_IncomingData

        END
// 1708 
// 1709 /*********************************************************************
// 1710 *********************************************************************/
// 1711 
// 
// 5 653 bytes in segment BANKED_CODE
//    96 bytes in segment BANK_RELAYS
//    33 bytes in segment CODE_C
//     2 bytes in segment XDATA_I
//     2 bytes in segment XDATA_ID
//    84 bytes in segment XDATA_Z
// 
// 5 784 bytes of CODE  memory
//    86 bytes of XDATA memory
//
//Errors: none
//Warnings: none
