###############################################################################
#                                                                             #
# IAR 8051 C/C++ Compiler V7.30B/W32                    19/Mar/2013  19:57:56 #
# Copyright 2004-2007 IAR Systems. All rights reserved.                       #
#                                                                             #
#    Core               =  plain                                              #
#    Code model         =  banked                                             #
#    Data model         =  large                                              #
#    Calling convention =  xdata reentrant                                    #
#    Constant location  =  data                                               #
#    Dptr setup         =  1,16                                               #
#    Source file        =  C:\Texas Instruments\ZStack-1.4.3-1.2.1\Components #
#                          \hal\target\CC2430EB\hal_timer.c                   #
#    Command line       =  -f "C:\Texas Instruments\ZStack-1.4.3-1.2.1\Projec #
#                          ts\zstack\Samples\cc2430-zstack-adxl345\CC2430DB\. #
#                          .\..\..\Tools\CC2430DB\f8wEndev.cfg" (-DCPU32MHZ   #
#                          -DFORCE_MAC_NEAR -DROOT=__near_func                #
#                          -DMAC_OPT_FFD=0 -DBLINK_LEDS "-DCONST=const        #
#                          __code" -DGENERIC=__generic) -f "C:\Texas          #
#                          Instruments\ZStack-1.4.3-1.2.1\Projects\zstack\Sam #
#                          ples\cc2430-zstack-adxl345\CC2430DB\..\..\..\Tools #
#                          \CC2430DB\f8wConfig.cfg" (-DSECURE=0               #
#                          -DDEFAULT_CHANLIST=0x00000800                      #
#                          -DZDAPP_CONFIG_PAN_ID=0xFFFF                       #
#                          -DNWK_START_DELAY=100 -DEXTENDED_JOINING_RANDOM_MA #
#                          SK=0x007F -DBEACON_REQUEST_DELAY=100               #
#                          -DBEACON_REQ_DELAY_MASK=0x00FF                     #
#                          -DROUTE_EXPIRY_TIME=30 -DAPSC_ACK_WAIT_DURATION_PO #
#                          LLED=3000 -DNWK_INDIRECT_MSG_TIMEOUT=7             #
#                          -DMAX_RREQ_ENTRIES=10 -DAPSC_MAX_FRAME_RETRIES=3   #
#                          -DNWK_MAX_DATA_RETRIES=2                           #
#                          -DMAX_POLL_FAILURE_RETRIES=2 -DMAX_BCAST=9         #
#                          -DAPS_MAX_GROUPS=16 -DMAX_RTG_ENTRIES=20           #
#                          -DNWK_MAX_BINDING_ENTRIES=10                       #
#                          -DMAX_BINDING_CLUSTER_IDS=5 "-DDEFAULT_KEY={0x01,  #
#                          0x03, 0x05, 0x07, 0x09, 0x0B, 0x0D, 0x0F, 0x00,    #
#                          0x02, 0x04, 0x06, 0x08, 0x0A, 0x0C, 0x0D}"         #
#                          -DRFD_RCVC_ALWAYS_ON=FALSE -DPOLL_RATE=1000        #
#                          -DQUEUED_POLL_RATE=100 -DRESPONSE_POLL_RATE=100)   #
#                          -DREJOIN_POLL_RATE=440 "C:\Texas                   #
#                          Instruments\ZStack-1.4.3-1.2.1\Components\hal\targ #
#                          et\CC2430EB\hal_timer.c" -D CC2430EB -D AXD_END    #
#                          -D AXD_END_B -D NWK_AUTO_POLL -D REFLECTOR -D      #
#                          xZTOOL_P1 -D xMT_TASK -D xMT_ZDO_FUNC -D           #
#                          xLCD_SUPPORTED=DEBUG -D xPOWER_SAVING -lC          #
#                          "C:\Texas Instruments\ZStack-1.4.3-1.2.1\Projects\ #
#                          zstack\Samples\cc2430-zstack-adxl345\CC2430DB\ENDD #
#                          evice2EB\List\" -lA "C:\Texas                      #
#                          Instruments\ZStack-1.4.3-1.2.1\Projects\zstack\Sam #
#                          ples\cc2430-zstack-adxl345\CC2430DB\ENDDevice2EB\L #
#                          ist\" --diag_suppress Pe001,Pa010 --diag_remark    #
#                          pe550 -o "C:\Texas Instruments\ZStack-1.4.3-1.2.1\ #
#                          Projects\zstack\Samples\cc2430-zstack-adxl345\CC24 #
#                          30DB\ENDDevice2EB\Obj\" -e --require_prototypes    #
#                          -z2 --no_cse --no_unroll --no_inline               #
#                          --no_code_motion --no_tbaa --debug --core=plain    #
#                          --dptr=16,1 --data_model=large                     #
#                          --code_model=banked --calling_convention=xdata_ree #
#                          ntrant --place_constants=data --nr_virtual_regs 8  #
#                          -I "C:\Texas Instruments\ZStack-1.4.3-1.2.1\Projec #
#                          ts\zstack\Samples\cc2430-zstack-adxl345\CC2430DB\" #
#                           -I "C:\Texas Instruments\ZStack-1.4.3-1.2.1\Proje #
#                          cts\zstack\Samples\cc2430-zstack-adxl345\CC2430DB\ #
#                          ..\SOURCE\" -I "C:\Texas                           #
#                          Instruments\ZStack-1.4.3-1.2.1\Projects\zstack\Sam #
#                          ples\cc2430-zstack-adxl345\CC2430DB\..\Drivers\"   #
#                          -I "C:\Texas Instruments\ZStack-1.4.3-1.2.1\Projec #
#                          ts\zstack\Samples\cc2430-zstack-adxl345\CC2430DB\. #
#                          .\..\..\ZMAIN\TI2430DB\" -I "C:\Texas              #
#                          Instruments\ZStack-1.4.3-1.2.1\Projects\zstack\Sam #
#                          ples\cc2430-zstack-adxl345\CC2430DB\..\..\..\..\.. #
#                          \COMPONENTS\MT\" -I "C:\Texas                      #
#                          Instruments\ZStack-1.4.3-1.2.1\Projects\zstack\Sam #
#                          ples\cc2430-zstack-adxl345\CC2430DB\..\..\..\..\.. #
#                          \COMPONENTS\HAL\INCLUDE\" -I "C:\Texas             #
#                          Instruments\ZStack-1.4.3-1.2.1\Projects\zstack\Sam #
#                          ples\cc2430-zstack-adxl345\CC2430DB\..\..\..\..\.. #
#                          \COMPONENTS\HAL\TARGET\CC2430EB\" -I "C:\Texas     #
#                          Instruments\ZStack-1.4.3-1.2.1\Projects\zstack\Sam #
#                          ples\cc2430-zstack-adxl345\CC2430DB\..\..\..\..\.. #
#                          \COMPONENTS\OSAL\MCU\CCSOC\" -I "C:\Texas          #
#                          Instruments\ZStack-1.4.3-1.2.1\Projects\zstack\Sam #
#                          ples\cc2430-zstack-adxl345\CC2430DB\..\..\..\..\.. #
#                          \COMPONENTS\OSAL\INCLUDE\" -I "C:\Texas            #
#                          Instruments\ZStack-1.4.3-1.2.1\Projects\zstack\Sam #
#                          ples\cc2430-zstack-adxl345\CC2430DB\..\..\..\..\.. #
#                          \COMPONENTS\STACK\AF\" -I "C:\Texas                #
#                          Instruments\ZStack-1.4.3-1.2.1\Projects\zstack\Sam #
#                          ples\cc2430-zstack-adxl345\CC2430DB\..\..\..\..\.. #
#                          \COMPONENTS\STACK\NWK\" -I "C:\Texas               #
#                          Instruments\ZStack-1.4.3-1.2.1\Projects\zstack\Sam #
#                          ples\cc2430-zstack-adxl345\CC2430DB\..\..\..\..\.. #
#                          \COMPONENTS\STACK\SEC\" -I "C:\Texas               #
#                          Instruments\ZStack-1.4.3-1.2.1\Projects\zstack\Sam #
#                          ples\cc2430-zstack-adxl345\CC2430DB\..\..\..\..\.. #
#                          \COMPONENTS\STACK\SYS\" -I "C:\Texas               #
#                          Instruments\ZStack-1.4.3-1.2.1\Projects\zstack\Sam #
#                          ples\cc2430-zstack-adxl345\CC2430DB\..\..\..\..\.. #
#                          \COMPONENTS\STACK\ZDO\" -I "C:\Texas               #
#                          Instruments\ZStack-1.4.3-1.2.1\Projects\zstack\Sam #
#                          ples\cc2430-zstack-adxl345\CC2430DB\..\..\..\..\.. #
#                          \COMPONENTS\ZMAC\F8W\" -I "C:\Texas                #
#                          Instruments\ZStack-1.4.3-1.2.1\Projects\zstack\Sam #
#                          ples\cc2430-zstack-adxl345\CC2430DB\..\..\..\..\.. #
#                          \COMPONENTS\ZMAC\" -I "C:\Texas                    #
#                          Instruments\ZStack-1.4.3-1.2.1\Projects\zstack\Sam #
#                          ples\cc2430-zstack-adxl345\CC2430DB\..\..\..\..\.. #
#                          \COMPONENTS\SERVICES\SADDR\" -I "C:\Texas          #
#                          Instruments\ZStack-1.4.3-1.2.1\Projects\zstack\Sam #
#                          ples\cc2430-zstack-adxl345\CC2430DB\..\..\..\..\.. #
#                          \COMPONENTS\SERVICES\SDATA\" -I "C:\Texas          #
#                          Instruments\ZStack-1.4.3-1.2.1\Projects\zstack\Sam #
#                          ples\cc2430-zstack-adxl345\CC2430DB\..\..\..\..\.. #
#                          \COMPONENTS\MAC\INCLUDE\" -I "C:\Texas             #
#                          Instruments\ZStack-1.4.3-1.2.1\Projects\zstack\Sam #
#                          ples\cc2430-zstack-adxl345\CC2430DB\..\..\..\..\.. #
#                          \COMPONENTS\MAC\HIGH_LEVEL\" -I "C:\Texas          #
#                          Instruments\ZStack-1.4.3-1.2.1\Projects\zstack\Sam #
#                          ples\cc2430-zstack-adxl345\CC2430DB\..\..\..\..\.. #
#                          \COMPONENTS\MAC\LOW_LEVEL\SRF03\" -I "C:\Texas     #
#                          Instruments\ZStack-1.4.3-1.2.1\Projects\zstack\Sam #
#                          ples\cc2430-zstack-adxl345\CC2430DB\..\..\..\..\.. #
#                          \COMPONENTS\MAC\LOW_LEVEL\SRF03\SINGLE_CHIP\" -I   #
#                          "C:\Program Files\IAR Systems\Embedded Workbench   #
#                          4.0 Evaluation version\8051\INC\" -I "C:\Program   #
#                          Files\IAR Systems\Embedded Workbench 4.0           #
#                          Evaluation version\8051\INC\CLIB\"                 #
#    List file          =  C:\Texas Instruments\ZStack-1.4.3-1.2.1\Projects\z #
#                          stack\Samples\cc2430-zstack-adxl345\CC2430DB\ENDDe #
#                          vice2EB\List\hal_timer.lst                         #
#    Object file        =  C:\Texas Instruments\ZStack-1.4.3-1.2.1\Projects\z #
#                          stack\Samples\cc2430-zstack-adxl345\CC2430DB\ENDDe #
#                          vice2EB\Obj\hal_timer.r51                          #
#                                                                             #
#                                                                             #
###############################################################################

C:\Texas Instruments\ZStack-1.4.3-1.2.1\Components\hal\target\CC2430EB\hal_timer.c
      1          /**************************************************************************************************
      2            Filename:       hal_timer.c
      3            Revised:        $Date: 2007-11-01 08:44:53 -0700 (Thu, 01 Nov 2007) $
      4            Revision:       $Revision: 15821 $
      5          
      6            Description:   This file contains the interface to the Timer Service.
      7          
      8          
      9            Copyright 2006-2007 Texas Instruments Incorporated. All rights reserved.
     10          
     11            IMPORTANT: Your use of this Software is limited to those specific rights
     12            granted under the terms of a software license agreement between the user
     13            who downloaded the software, his/her employer (which must be your employer)
     14            and Texas Instruments Incorporated (the "License").  You may not use this
     15            Software unless you agree to abide by the terms of the License. The License
     16            limits your use, and you acknowledge, that the Software may not be modified,
     17            copied or distributed unless embedded on a Texas Instruments microcontroller
     18            or used solely and exclusively in conjunction with a Texas Instruments radio
     19            frequency transceiver, which is integrated into your product.  Other than for
     20            the foregoing purpose, you may not use, reproduce, copy, prepare derivative
     21            works of, modify, distribute, perform, display or sell this Software and/or
     22            its documentation for any purpose.
     23          
     24            YOU FURTHER ACKNOWLEDGE AND AGREE THAT THE SOFTWARE AND DOCUMENTATION ARE
     25            PROVIDED “AS IS” WITHOUT WARRANTY OF ANY KIND, EITHER EXPRESS OR IMPLIED, 
     26            INCLUDING WITHOUT LIMITATION, ANY WARRANTY OF MERCHANTABILITY, TITLE, 
     27            NON-INFRINGEMENT AND FITNESS FOR A PARTICULAR PURPOSE. IN NO EVENT SHALL
     28            TEXAS INSTRUMENTS OR ITS LICENSORS BE LIABLE OR OBLIGATED UNDER CONTRACT,
     29            NEGLIGENCE, STRICT LIABILITY, CONTRIBUTION, BREACH OF WARRANTY, OR OTHER
     30            LEGAL EQUITABLE THEORY ANY DIRECT OR INDIRECT DAMAGES OR EXPENSES
     31            INCLUDING BUT NOT LIMITED TO ANY INCIDENTAL, SPECIAL, INDIRECT, PUNITIVE
     32            OR CONSEQUENTIAL DAMAGES, LOST PROFITS OR LOST DATA, COST OF PROCUREMENT
     33            OF SUBSTITUTE GOODS, TECHNOLOGY, SERVICES, OR ANY CLAIMS BY THIRD PARTIES
     34            (INCLUDING BUT NOT LIMITED TO ANY DEFENSE THEREOF), OR OTHER SIMILAR COSTS.
     35          
     36            Should you have any questions regarding your right to use this Software,
     37            contact Texas Instruments Incorporated at www.TI.com. 
     38          **************************************************************************************************/
     39          /*********************************************************************
     40           NOTE: The following mapping is done between the logical timer
     41                 names defined in HAL_TIMER.H and the physical HW timer.
     42          
     43                 HAL_TIMER_0 --> HW Timer 3  (8-bits)
     44                 HAL_TIMER_2 --> HW Timer 4  (8-bits)
     45                 HAL_TIMER_3 --> HW Timer 1  (16-bits)
     46          
     47           NOTE: The timer code assumes only one channel, CHANNEL 0, is used
     48                 for each timer.  There is currently no support for other
     49                 channels.
     50          
     51           NOTE: Only Output Compare Mode is supported.  There is no provision
     52                 to support Input Capture Mode.
     53          
     54           NOTE: There is no support to map the output of the timers to a
     55                 physical I/O pin
     56          
     57          *********************************************************************/
     58          /*********************************************************************
     59           * INCLUDES
     60           */
     61          #include  "hal_mcu.h"

   \                                 In  segment SFR_AN, at 0xb8
   \   union <unnamed> volatile __sfr _A_IEN1
   \                     _A_IEN1:
   \   000000                DS 1

   \                                 In  segment SFR_AN, at 0xcb
   \   unsigned char volatile __sfr T3CTL
   \                     T3CTL:
   \   000000                DS 1

   \                                 In  segment SFR_AN, at 0xcc
   \   unsigned char volatile __sfr T3CCTL0
   \                     T3CCTL0:
   \   000000                DS 1

   \                                 In  segment SFR_AN, at 0xce
   \   unsigned char volatile __sfr T3CCTL1
   \                     T3CCTL1:
   \   000000                DS 1

   \                                 In  segment SFR_AN, at 0xd8
   \   union <unnamed> volatile __sfr _A_TIMIF
   \                     _A_TIMIF:
   \   000000                DS 1

   \                                 In  segment SFR_AN, at 0xe4
   \   unsigned char volatile __sfr T1CTL
   \                     T1CTL:
   \   000000                DS 1

   \                                 In  segment SFR_AN, at 0xe5
   \   unsigned char volatile __sfr T1CCTL0
   \                     T1CCTL0:
   \   000000                DS 1

   \                                 In  segment SFR_AN, at 0xe6
   \   unsigned char volatile __sfr T1CCTL1
   \                     T1CCTL1:
   \   000000                DS 1

   \                                 In  segment SFR_AN, at 0xe7
   \   unsigned char volatile __sfr T1CCTL2
   \                     T1CCTL2:
   \   000000                DS 1

   \                                 In  segment SFR_AN, at 0xeb
   \   unsigned char volatile __sfr T4CTL
   \                     T4CTL:
   \   000000                DS 1

   \                                 In  segment SFR_AN, at 0xec
   \   unsigned char volatile __sfr T4CCTL0
   \                     T4CCTL0:
   \   000000                DS 1

   \                                 In  segment SFR_AN, at 0xee
   \   unsigned char volatile __sfr T4CCTL1
   \                     T4CCTL1:
   \   000000                DS 1
     62          #include  "hal_defs.h"
     63          #include  "hal_types.h"
     64          #include  "hal_timer.h"
     65          
     66          /*********************************************************************
     67           * MACROS
     68           */
     69          
     70          /*********************************************************************
     71           * CONSTANTS
     72           */
     73          #define HW_TIMER_1        0x00
     74          #define HW_TIMER_3        0x01
     75          #define HW_TIMER_4        0x02
     76          #define HW_TIMER_INVALID  0x03
     77          #define HW_TIMER_MAX      0x03
     78          
     79          #define IEN1_T1IE     0x02    /* Timer1 Interrupt Enable */
     80          #define IEN1_T3IE     0x08    /* Timer3 Interrupt Enable */
     81          #define IEN1_T4IE     0x10    /* Timer4 Interrupt Enable */
     82          
     83          #define T1CTL_CH2IF   0x80
     84          #define T1CTL_CH1IF   0x40
     85          #define T1CTL_CH0IF   0x20
     86          #define T1CTL_OVFIF   0x10
     87          
     88          #define TIMIF_T1OVFIM 0x40
     89          #define TIMIF_T4CH1IF 0x20
     90          #define TIMIF_T4CH0IF 0x10
     91          #define TIMIF_T4OVFIF 0x08
     92          #define TIMIF_T3CH1IF 0x04
     93          #define TIMIF_T3CH0IF 0x02
     94          #define TIMIF_T3OVFIF 0x01
     95          
     96          #define T34CTL_OVFIM  0x80
     97          
     98          #define T134CCTL_IM         0x40    /* Interrupt Mask */
     99          #define T134CCTL_CMP_BITS   0x38    /* Bits[5:3] == CMP[2:0] */
    100          #define T134CCTL_MODE       0x04    /* Capture(0)/Compare(1) mode */
    101          #define T134CCTL_CAP_BITS   0x03    /* Bits[1:0] == CAP[1:0] */
    102          
    103          #define T134CCTL_CMP_OC     0x18    /* Set output on compare, clear at 0 */
    104          #define T134CCTL_CAP_RE     0x01    /* Set input capture on rising edge */
    105          
    106          /* Timer clock pre-scaler definitions for 16bit timer1 */
    107          #define HAL_TIMER1_16_TC_DIV1     0x00  /* No clock pre-scaling */
    108          #define HAL_TIMER1_16_TC_DIV8     0x04  /* Clock pre-scaled by 8 */
    109          #define HAL_TIMER1_16_TC_DIV32    0x08  /* Clock pre-scaled by 32 */
    110          #define HAL_TIMER1_16_TC_DIV128   0x0c  /* Clock pre-scaled by 128 */
    111          #define HAL_TIMER1_16_TC_BITS     0x0c  /* Bits 3:2 */
    112          
    113          /* Timer clock pre-scaler definitions for 8bit timer3 and timer4 */
    114          #define HAL_TIMER34_8_TC_DIV1     0x00  /* No clock pre-scaling */
    115          #define HAL_TIMER34_8_TC_DIV2     0x20  /* Clock pre-scaled by 2 */
    116          #define HAL_TIMER34_8_TC_DIV4     0x40  /* Clock pre-scaled by 4 */
    117          #define HAL_TIMER34_8_TC_DIV8     0x60  /* Clock pre-scaled by 8 */
    118          #define HAL_TIMER34_8_TC_DIV16    0x80  /* Clock pre-scaled by 16 */
    119          #define HAL_TIMER34_8_TC_DIV32    0xA0  /* Clock pre-scaled by 32 */
    120          #define HAL_TIMER34_8_TC_DIV64    0xC0  /* Clock pre-scaled by 64 */
    121          #define HAL_TIMER34_8_TC_DIV128   0xE0  /* Clock pre-scaled by 128 */
    122          #define HAL_TIMER34_8_TC_BITS     0xE0  /* Bits 7:5 */
    123          
    124          /* Operation Mode definitions */
    125          #define HAL_TIMER1_OPMODE_STOP      0x00  /* Free Running Mode, Count from 0 to Max */
    126          #define HAL_TIMER1_OPMODE_FREERUN   0x01  /* Free Running Mode, Count from 0 to Max */
    127          #define HAL_TIMER1_OPMODE_MODULO    0x02  /* Modulo Mode, Count from 0 to CompareValue */
    128          #define HAL_TIMER1_OPMODE_BITS      0x03  /* Bits 1:0 */
    129          
    130          #define HAL_TIMER34_START           0x10  /* Timer3 and Timer4 have separate Start bit */
    131          #define HAL_TIMER34_OPMODE_FREERUN  0x00  /* Free Running Mode, Count from 0 to Max */
    132          #define HAL_TIMER34_OPMODE_MODULO   0x02  /* Modulo Mode, Count from 0 to CompareValue */
    133          #define HAL_TIMER34_OPMODE_BITS     0x03  /* Bits 1:0 */
    134          
    135          #define HAL_TIMER_MODE_STOP         0x03
    136          
    137          /* Prescale settings */
    138          #define HAL_TIMER1_16_PRESCALE      HAL_TIMER1_16_TC_DIV128
    139          #define HAL_TIMER1_16_PRESCALE_VAL  128
    140          #define HAL_TIMER3_8_PRESCALE       HAL_TIMER34_8_TC_DIV128
    141          #define HAL_TIMER3_8_PRESCALE_VAL   128
    142          #define HAL_TIMER4_8_PRESCALE       HAL_TIMER34_8_TC_DIV128
    143          #define HAL_TIMER4_8_PRESCALE_VAL   128
    144          
    145          /* Clock settings */
    146          #define HAL_TIMER_16MHZ           16
    147          #define HAL_TIMER_32MHZ           32
    148          
    149          /* Default all timers to use channel 0 */
    150          #define TCHN_T1CCTL   &(X_T1CCTL0)
    151          #define TCHN_T1CCL    &(X_T1CC0L)
    152          #define TCHN_T1CCH    &(X_T1CC0H)
    153          #define TCNH_T1OVF    &(X_TIMIF)
    154          #define TCHN_T1OVFBIT TIMIF_T1OVFIM
    155          #define TCHN_T1INTBIT IEN1_T1IE
    156          
    157          #define TCHN_T3CCTL   &(X_T3CCTL0)
    158          #define TCHN_T3CCL    &(X_T3CC0)
    159          #define TCHN_T3CCH    &(X_T3CC0)
    160          #define TCNH_T3OVF    &(X_T3CTL)
    161          #define TCHN_T3OVFBIT T34CTL_OVFIM
    162          #define TCHN_T3INTBIT IEN1_T3IE
    163          
    164          #define TCHN_T4CCTL   &(X_T4CCTL0)
    165          #define TCHN_T4CCL    &(X_T4CC0)
    166          #define TCHN_T4CCH    &(X_T4CC0)
    167          #define TCNH_T4OVF    &(X_T4CTL)
    168          #define TCHN_T4OVFBIT T34CTL_OVFIM
    169          #define TCHN_T4INTBIT IEN1_T4IE
    170          
    171          /*********************************************************************
    172           * TYPEDEFS
    173           */
    174          typedef struct
    175          {
    176            bool configured;
    177            bool intEnable;
    178            uint8 opMode;
    179            uint8 channel;
    180            uint8 channelMode;
    181            uint8 prescale;
    182            uint8 prescaleVal;
    183            uint8 clock;
    184            halTimerCBack_t callBackFunc;
    185          } halTimerSettings_t;
    186          
    187          typedef struct
    188          {
    189            uint8 volatile XDATA *TxCCTL;
    190            uint8 volatile XDATA *TxCCH;
    191            uint8 volatile XDATA *TxCCL;
    192            uint8 volatile XDATA *TxOVF;
    193            uint8 ovfbit;
    194            uint8 intbit;
    195          } halTimerChannel_t;
    196          
    197          /*********************************************************************
    198           * GLOBAL VARIABLES
    199           */

   \                                 In  segment XDATA_Z, align 1, keep-with-next
    200          static halTimerSettings_t halTimerRecord[HW_TIMER_MAX];
   \                     halTimerRecord:
   \   000000                DS 30
   \   00001E                REQUIRE __INIT_XDATA_Z

   \                                 In  segment XDATA_Z, align 1, keep-with-next
    201          static halTimerChannel_t  halTimerChannel[HW_TIMER_MAX];
   \                     halTimerChannel:
   \   000000                DS 30
   \   00001E                REQUIRE __INIT_XDATA_Z
    202          
    203          /*********************************************************************
    204           * FUNCTIONS - External
    205           */
    206          
    207          /*********************************************************************
    208           * FUNCTIONS - Local
    209           */
    210          uint8 halTimerSetCount (uint8 cc2430id, uint32 timePerTick);
    211          uint8 halTimerSetPrescale (uint8 cc2430id, uint8 prescale);
    212          uint8 halTimerSetOpMode (uint8 cc2430id, uint8 opMode);
    213          uint8 halTimerSetChannelMode (uint8 cc2430id, uint8 channelMode);
    214          void halTimerSendCallBack (uint8 timerId, uint8 channel, uint8 channelMode);
    215          uint8 halTimerRemap (uint8 timerId);
    216          void halProcessTimer1 (void);
    217          void halProcessTimer3 (void);
    218          void halProcessTimer4 (void);
    219          
    220          
    221          /*********************************************************************
    222           * FUNCTIONS - API
    223           */
    224          
    225          /*********************************************************************
    226           * @fn      HalTimerInit
    227           *
    228           * @brief   Initialize Timer Service
    229           *
    230           * @param   None
    231           *
    232           * @return  None
    233           */

   \                                 In  segment BANKED_CODE, align 1, keep-with-next
    234          void HalTimerInit (void)
   \                     HalTimerInit:
    235          {
   \   000000   C082         PUSH    DPL
   \   000002   C083         PUSH    DPH
   \   000004                ; Saved register size: 2
   \   000004                ; Auto size: 0
    236            T1CCTL0 = 0;    /* Make sure interrupts are disabled */
   \   000004   75E500       MOV     0xe5,#0x0
    237            T1CCTL1 = 0;    /* Make sure interrupts are disabled */
   \   000007   75E600       MOV     0xe6,#0x0
    238            T1CCTL2 = 0;    /* Make sure interrupts are disabled */
   \   00000A   75E700       MOV     0xe7,#0x0
    239            T3CCTL0 = 0;    /* Make sure interrupts are disabled */
   \   00000D   75CC00       MOV     0xcc,#0x0
    240            T3CCTL1 = 0;    /* Make sure interrupts are disabled */
   \   000010   75CE00       MOV     0xce,#0x0
    241            T4CCTL0 = 0;    /* Make sure interrupts are disabled */
   \   000013   75EC00       MOV     0xec,#0x0
    242            T4CCTL1 = 0;    /* Make sure interrupts are disabled */
   \   000016   75EE00       MOV     0xee,#0x0
    243          
    244            /* Setup prescale & clock for timer0 */
    245            halTimerRecord[HW_TIMER_1].prescale    = HAL_TIMER1_16_PRESCALE;
   \   000019   740C         MOV     A,#0xc
   \   00001B   90....       MOV     DPTR,#(halTimerRecord + 5)
   \   00001E   F0           MOVX    @DPTR,A
    246            halTimerRecord[HW_TIMER_1].clock       = HAL_TIMER_32MHZ;
   \   00001F   7420         MOV     A,#0x20
   \   000021   90....       MOV     DPTR,#(halTimerRecord + 7)
   \   000024   F0           MOVX    @DPTR,A
    247            halTimerRecord[HW_TIMER_1].prescaleVal = HAL_TIMER1_16_PRESCALE_VAL;
   \   000025   7480         MOV     A,#-0x80
   \   000027   90....       MOV     DPTR,#(halTimerRecord + 6)
   \   00002A   F0           MOVX    @DPTR,A
    248          
    249            /* Setup prescale & clock for timer2 */
    250            halTimerRecord[HW_TIMER_3].prescale    = HAL_TIMER3_8_PRESCALE;
   \   00002B   74E0         MOV     A,#-0x20
   \   00002D   90....       MOV     DPTR,#(halTimerRecord + 15)
   \   000030   F0           MOVX    @DPTR,A
    251            halTimerRecord[HW_TIMER_3].clock       = HAL_TIMER_32MHZ;
   \   000031   7420         MOV     A,#0x20
   \   000033   90....       MOV     DPTR,#(halTimerRecord + 17)
   \   000036   F0           MOVX    @DPTR,A
    252            halTimerRecord[HW_TIMER_3].prescaleVal = HAL_TIMER3_8_PRESCALE_VAL;
   \   000037   7480         MOV     A,#-0x80
   \   000039   90....       MOV     DPTR,#(halTimerRecord + 16)
   \   00003C   F0           MOVX    @DPTR,A
    253          
    254            /* Setup prescale & clock for timer3 */
    255            halTimerRecord[HW_TIMER_4].prescale    = HAL_TIMER4_8_PRESCALE;
   \   00003D   74E0         MOV     A,#-0x20
   \   00003F   90....       MOV     DPTR,#(halTimerRecord + 25)
   \   000042   F0           MOVX    @DPTR,A
    256            halTimerRecord[HW_TIMER_4].clock       = HAL_TIMER_32MHZ;
   \   000043   7420         MOV     A,#0x20
   \   000045   90....       MOV     DPTR,#(halTimerRecord + 27)
   \   000048   F0           MOVX    @DPTR,A
    257            halTimerRecord[HW_TIMER_4].prescaleVal = HAL_TIMER4_8_PRESCALE_VAL;
   \   000049   7480         MOV     A,#-0x80
   \   00004B   90....       MOV     DPTR,#(halTimerRecord + 26)
   \   00004E   F0           MOVX    @DPTR,A
    258          
    259            /* Setup Timer1 Channel structure */
    260            halTimerChannel[HW_TIMER_1].TxCCTL =  TCHN_T1CCTL;
   \   00004F   90....       MOV     DPTR,#halTimerChannel
   \   000052   74E5         MOV     A,#-0x1b
   \   000054   F0           MOVX    @DPTR,A
   \   000055   A3           INC     DPTR
   \   000056   74DF         MOV     A,#-0x21
   \   000058   F0           MOVX    @DPTR,A
    261            halTimerChannel[HW_TIMER_1].TxCCL =   TCHN_T1CCL;
   \   000059   90....       MOV     DPTR,#(halTimerChannel + 4)
   \   00005C   74DA         MOV     A,#-0x26
   \   00005E   F0           MOVX    @DPTR,A
   \   00005F   A3           INC     DPTR
   \   000060   74DF         MOV     A,#-0x21
   \   000062   F0           MOVX    @DPTR,A
    262            halTimerChannel[HW_TIMER_1].TxCCH =   TCHN_T1CCH;
   \   000063   90....       MOV     DPTR,#(halTimerChannel + 2)
   \   000066   74DB         MOV     A,#-0x25
   \   000068   F0           MOVX    @DPTR,A
   \   000069   A3           INC     DPTR
   \   00006A   74DF         MOV     A,#-0x21
   \   00006C   F0           MOVX    @DPTR,A
    263            halTimerChannel[HW_TIMER_1].TxOVF =   TCNH_T1OVF;
   \   00006D   90....       MOV     DPTR,#(halTimerChannel + 6)
   \   000070   74D8         MOV     A,#-0x28
   \   000072   F0           MOVX    @DPTR,A
   \   000073   A3           INC     DPTR
   \   000074   74DF         MOV     A,#-0x21
   \   000076   F0           MOVX    @DPTR,A
    264            halTimerChannel[HW_TIMER_1].ovfbit =  TCHN_T1OVFBIT;
   \   000077   7440         MOV     A,#0x40
   \   000079   90....       MOV     DPTR,#(halTimerChannel + 8)
   \   00007C   F0           MOVX    @DPTR,A
    265            halTimerChannel[HW_TIMER_1].intbit =  TCHN_T1INTBIT;
   \   00007D   7402         MOV     A,#0x2
   \   00007F   90....       MOV     DPTR,#(halTimerChannel + 9)
   \   000082   F0           MOVX    @DPTR,A
    266          
    267            /* Setup Timer3 Channel structure */
    268            halTimerChannel[HW_TIMER_3].TxCCTL =  TCHN_T3CCTL;
   \   000083   90....       MOV     DPTR,#(halTimerChannel + 10)
   \   000086   74CC         MOV     A,#-0x34
   \   000088   F0           MOVX    @DPTR,A
   \   000089   A3           INC     DPTR
   \   00008A   74DF         MOV     A,#-0x21
   \   00008C   F0           MOVX    @DPTR,A
    269            halTimerChannel[HW_TIMER_3].TxCCL =   TCHN_T3CCL;
   \   00008D   90....       MOV     DPTR,#(halTimerChannel + 14)
   \   000090   74CD         MOV     A,#-0x33
   \   000092   F0           MOVX    @DPTR,A
   \   000093   A3           INC     DPTR
   \   000094   74DF         MOV     A,#-0x21
   \   000096   F0           MOVX    @DPTR,A
    270            halTimerChannel[HW_TIMER_3].TxCCH =   TCHN_T3CCH;
   \   000097   90....       MOV     DPTR,#(halTimerChannel + 12)
   \   00009A   74CD         MOV     A,#-0x33
   \   00009C   F0           MOVX    @DPTR,A
   \   00009D   A3           INC     DPTR
   \   00009E   74DF         MOV     A,#-0x21
   \   0000A0   F0           MOVX    @DPTR,A
    271            halTimerChannel[HW_TIMER_3].TxOVF =   TCNH_T3OVF;
   \   0000A1   90....       MOV     DPTR,#(halTimerChannel + 16)
   \   0000A4   74CB         MOV     A,#-0x35
   \   0000A6   F0           MOVX    @DPTR,A
   \   0000A7   A3           INC     DPTR
   \   0000A8   74DF         MOV     A,#-0x21
   \   0000AA   F0           MOVX    @DPTR,A
    272            halTimerChannel[HW_TIMER_3].ovfbit =  TCHN_T3OVFBIT;
   \   0000AB   7480         MOV     A,#-0x80
   \   0000AD   90....       MOV     DPTR,#(halTimerChannel + 18)
   \   0000B0   F0           MOVX    @DPTR,A
    273            halTimerChannel[HW_TIMER_3].intbit =  TCHN_T3INTBIT;
   \   0000B1   7408         MOV     A,#0x8
   \   0000B3   90....       MOV     DPTR,#(halTimerChannel + 19)
   \   0000B6   F0           MOVX    @DPTR,A
    274          
    275            /* Setup Timer4 Channel structure */
    276            halTimerChannel[HW_TIMER_4].TxCCTL =  TCHN_T4CCTL;
   \   0000B7   90....       MOV     DPTR,#(halTimerChannel + 20)
   \   0000BA   74EC         MOV     A,#-0x14
   \   0000BC   F0           MOVX    @DPTR,A
   \   0000BD   A3           INC     DPTR
   \   0000BE   74DF         MOV     A,#-0x21
   \   0000C0   F0           MOVX    @DPTR,A
    277            halTimerChannel[HW_TIMER_4].TxCCL =   TCHN_T4CCL;
   \   0000C1   90....       MOV     DPTR,#(halTimerChannel + 24)
   \   0000C4   74ED         MOV     A,#-0x13
   \   0000C6   F0           MOVX    @DPTR,A
   \   0000C7   A3           INC     DPTR
   \   0000C8   74DF         MOV     A,#-0x21
   \   0000CA   F0           MOVX    @DPTR,A
    278            halTimerChannel[HW_TIMER_4].TxCCH =   TCHN_T4CCH;
   \   0000CB   90....       MOV     DPTR,#(halTimerChannel + 22)
   \   0000CE   74ED         MOV     A,#-0x13
   \   0000D0   F0           MOVX    @DPTR,A
   \   0000D1   A3           INC     DPTR
   \   0000D2   74DF         MOV     A,#-0x21
   \   0000D4   F0           MOVX    @DPTR,A
    279            halTimerChannel[HW_TIMER_4].TxOVF =   TCNH_T4OVF;
   \   0000D5   90....       MOV     DPTR,#(halTimerChannel + 26)
   \   0000D8   74EB         MOV     A,#-0x15
   \   0000DA   F0           MOVX    @DPTR,A
   \   0000DB   A3           INC     DPTR
   \   0000DC   74DF         MOV     A,#-0x21
   \   0000DE   F0           MOVX    @DPTR,A
    280            halTimerChannel[HW_TIMER_4].ovfbit =  TCHN_T4OVFBIT;
   \   0000DF   7480         MOV     A,#-0x80
   \   0000E1   90....       MOV     DPTR,#(halTimerChannel + 28)
   \   0000E4   F0           MOVX    @DPTR,A
    281            halTimerChannel[HW_TIMER_4].intbit =  TCHN_T4INTBIT;
   \   0000E5   7410         MOV     A,#0x10
   \   0000E7   90....       MOV     DPTR,#(halTimerChannel + 29)
   \   0000EA   F0           MOVX    @DPTR,A
    282          }
   \   0000EB   D083         POP     DPH
   \   0000ED   D082         POP     DPL
   \   0000EF   02....       LJMP    ?BRET
   \   0000F2                REQUIRE T3CCTL0
   \   0000F2                REQUIRE T3CCTL1
   \   0000F2                REQUIRE T1CCTL0
   \   0000F2                REQUIRE T1CCTL1
   \   0000F2                REQUIRE T1CCTL2
   \   0000F2                REQUIRE T4CCTL0
   \   0000F2                REQUIRE T4CCTL1
    283          
    284          /***************************************************************************************************
    285           * @fn      HalTimerConfig
    286           *
    287           * @brief   Configure the Timer Serivce
    288           *
    289           * @param   timerId - Id of the timer
    290           *          opMode  - Operation mode
    291           *          channel - Channel where the counter operates on
    292           *          channelMode - Mode of that channel
    293           *          prescale - Prescale of the clock
    294           *          cBack - Pointer to the callback function
    295           *
    296           * @return  Status of the configuration
    297           ***************************************************************************************************/

   \                                 In  segment BANKED_CODE, align 1, keep-with-next
    298          uint8 HalTimerConfig (uint8 timerId, uint8 opMode, uint8 channel, uint8 channelMode,
   \                     HalTimerConfig:
    299                                bool intEnable, halTimerCBack_t cBack)
    300          {
   \   000000   74F2         MOV     A,#-0xe
   \   000002   12....       LCALL   ?BANKED_ENTER_XDATA
   \   000005                ; Saved register size: 14
   \   000005                ; Auto size: 0
   \   000005   89..         MOV     ?V0 + 0,R1
   \   000007   8A..         MOV     ?V0 + 1,R2
   \   000009   8B..         MOV     ?V0 + 2,R3
   \   00000B   8C..         MOV     ?V0 + 3,R4
   \   00000D   8D..         MOV     ?V0 + 4,R5
   \   00000F   740E         MOV     A,#0xe
   \   000011   12....       LCALL   ?XSTACK_DISP0_8
   \   000014   E0           MOVX    A,@DPTR
   \   000015   FE           MOV     R6,A
   \   000016   A3           INC     DPTR
   \   000017   E0           MOVX    A,@DPTR
   \   000018   FF           MOV     R7,A
    301            uint8 hwtimerid;
    302          
    303            hwtimerid = halTimerRemap (timerId);
   \   000019                ; Setup parameters for call to function halTimerRemap
   \   000019   A9..         MOV     R1,?V0 + 0
   \   00001B   12....       LCALL   ??halTimerRemap?relay
   \   00001E   E9           MOV     A,R1
   \   00001F   F5..         MOV     ?V0 + 5,A
    304          
    305            if ((opMode & HAL_TIMER_MODE_MASK) && (timerId < HAL_TIMER_MAX) &&
    306                (channelMode & HAL_TIMER_CHANNEL_MASK) && (channel & HAL_TIMER_CHANNEL_MASK))
   \   000021   7403         MOV     A,#0x3
   \   000023   55..         ANL     A,?V0 + 1
   \   000025   7003         JNZ     $+5
   \   000027   02....       LJMP    ??HalTimerConfig_0 & 0xFFFF
   \   00002A   E5..         MOV     A,?V0 + 0
   \   00002C   C3           CLR     C
   \   00002D   9404         SUBB    A,#0x4
   \   00002F   4003         JC      $+5
   \   000031   02....       LJMP    ??HalTimerConfig_0 & 0xFFFF
   \   000034   740F         MOV     A,#0xf
   \   000036   55..         ANL     A,?V0 + 3
   \   000038   7003         JNZ     $+5
   \   00003A   02....       LJMP    ??HalTimerConfig_0 & 0xFFFF
   \   00003D   740F         MOV     A,#0xf
   \   00003F   55..         ANL     A,?V0 + 2
   \   000041   7003         JNZ     $+5
   \   000043   02....       LJMP    ??HalTimerConfig_0 & 0xFFFF
    307            {
    308              halTimerRecord[hwtimerid].configured    = TRUE;
   \   000046   7401         MOV     A,#0x1
   \   000048   C0E0         PUSH    A
   \   00004A   A8..         MOV     R0,?V0 + 5
   \   00004C   7900         MOV     R1,#0x0
   \   00004E   E8           MOV     A,R0
   \   00004F   75F00A       MOV     B,#0xa
   \   000052   A4           MUL     AB
   \   000053   C8           XCH     A,R0
   \   000054   AAF0         MOV     R2,B
   \   000056   75F000       MOV     B,#0x0
   \   000059   A4           MUL     AB
   \   00005A   2A           ADD     A,R2
   \   00005B   FA           MOV     R2,A
   \   00005C   75F00A       MOV     B,#0xa
   \   00005F   E9           MOV     A,R1
   \   000060   A4           MUL     AB
   \   000061   2A           ADD     A,R2
   \   000062   F9           MOV     R1,A
   \   000063   E8           MOV     A,R0
   \   000064   24..         ADD     A,#(halTimerRecord & 0xff)
   \   000066   F582         MOV     DPL,A
   \   000068   E9           MOV     A,R1
   \   000069   34..         ADDC    A,#((halTimerRecord >> 8) & 0xff)
   \   00006B   F583         MOV     DPH,A
   \   00006D   D0E0         POP     A
   \   00006F   F0           MOVX    @DPTR,A
    309              halTimerRecord[hwtimerid].opMode        = opMode;
   \   000070   A8..         MOV     R0,?V0 + 5
   \   000072   7900         MOV     R1,#0x0
   \   000074   E8           MOV     A,R0
   \   000075   75F00A       MOV     B,#0xa
   \   000078   A4           MUL     AB
   \   000079   C8           XCH     A,R0
   \   00007A   AAF0         MOV     R2,B
   \   00007C   75F000       MOV     B,#0x0
   \   00007F   A4           MUL     AB
   \   000080   2A           ADD     A,R2
   \   000081   FA           MOV     R2,A
   \   000082   75F00A       MOV     B,#0xa
   \   000085   E9           MOV     A,R1
   \   000086   A4           MUL     AB
   \   000087   2A           ADD     A,R2
   \   000088   F9           MOV     R1,A
   \   000089   E8           MOV     A,R0
   \   00008A   24..         ADD     A,#((halTimerRecord + 2) & 0xff)
   \   00008C   F582         MOV     DPL,A
   \   00008E   E9           MOV     A,R1
   \   00008F   34..         ADDC    A,#(((halTimerRecord + 2) >> 8) & 0xff)
   \   000091   F583         MOV     DPH,A
   \   000093   E5..         MOV     A,?V0 + 1
   \   000095   F0           MOVX    @DPTR,A
    310              halTimerRecord[hwtimerid].channel       = channel;
   \   000096   A8..         MOV     R0,?V0 + 5
   \   000098   7900         MOV     R1,#0x0
   \   00009A   E8           MOV     A,R0
   \   00009B   75F00A       MOV     B,#0xa
   \   00009E   A4           MUL     AB
   \   00009F   C8           XCH     A,R0
   \   0000A0   AAF0         MOV     R2,B
   \   0000A2   75F000       MOV     B,#0x0
   \   0000A5   A4           MUL     AB
   \   0000A6   2A           ADD     A,R2
   \   0000A7   FA           MOV     R2,A
   \   0000A8   75F00A       MOV     B,#0xa
   \   0000AB   E9           MOV     A,R1
   \   0000AC   A4           MUL     AB
   \   0000AD   2A           ADD     A,R2
   \   0000AE   F9           MOV     R1,A
   \   0000AF   E8           MOV     A,R0
   \   0000B0   24..         ADD     A,#((halTimerRecord + 3) & 0xff)
   \   0000B2   F582         MOV     DPL,A
   \   0000B4   E9           MOV     A,R1
   \   0000B5   34..         ADDC    A,#(((halTimerRecord + 3) >> 8) & 0xff)
   \   0000B7   F583         MOV     DPH,A
   \   0000B9   E5..         MOV     A,?V0 + 2
   \   0000BB   F0           MOVX    @DPTR,A
    311              halTimerRecord[hwtimerid].channelMode   = channelMode;
   \   0000BC   A8..         MOV     R0,?V0 + 5
   \   0000BE   7900         MOV     R1,#0x0
   \   0000C0   E8           MOV     A,R0
   \   0000C1   75F00A       MOV     B,#0xa
   \   0000C4   A4           MUL     AB
   \   0000C5   C8           XCH     A,R0
   \   0000C6   AAF0         MOV     R2,B
   \   0000C8   75F000       MOV     B,#0x0
   \   0000CB   A4           MUL     AB
   \   0000CC   2A           ADD     A,R2
   \   0000CD   FA           MOV     R2,A
   \   0000CE   75F00A       MOV     B,#0xa
   \   0000D1   E9           MOV     A,R1
   \   0000D2   A4           MUL     AB
   \   0000D3   2A           ADD     A,R2
   \   0000D4   F9           MOV     R1,A
   \   0000D5   E8           MOV     A,R0
   \   0000D6   24..         ADD     A,#((halTimerRecord + 4) & 0xff)
   \   0000D8   F582         MOV     DPL,A
   \   0000DA   E9           MOV     A,R1
   \   0000DB   34..         ADDC    A,#(((halTimerRecord + 4) >> 8) & 0xff)
   \   0000DD   F583         MOV     DPH,A
   \   0000DF   E5..         MOV     A,?V0 + 3
   \   0000E1   F0           MOVX    @DPTR,A
    312              halTimerRecord[hwtimerid].intEnable     = intEnable;
   \   0000E2   A8..         MOV     R0,?V0 + 5
   \   0000E4   7900         MOV     R1,#0x0
   \   0000E6   E8           MOV     A,R0
   \   0000E7   75F00A       MOV     B,#0xa
   \   0000EA   A4           MUL     AB
   \   0000EB   C8           XCH     A,R0
   \   0000EC   AAF0         MOV     R2,B
   \   0000EE   75F000       MOV     B,#0x0
   \   0000F1   A4           MUL     AB
   \   0000F2   2A           ADD     A,R2
   \   0000F3   FA           MOV     R2,A
   \   0000F4   75F00A       MOV     B,#0xa
   \   0000F7   E9           MOV     A,R1
   \   0000F8   A4           MUL     AB
   \   0000F9   2A           ADD     A,R2
   \   0000FA   F9           MOV     R1,A
   \   0000FB   E8           MOV     A,R0
   \   0000FC   24..         ADD     A,#((halTimerRecord + 1) & 0xff)
   \   0000FE   F582         MOV     DPL,A
   \   000100   E9           MOV     A,R1
   \   000101   34..         ADDC    A,#(((halTimerRecord + 1) >> 8) & 0xff)
   \   000103   F583         MOV     DPH,A
   \   000105   E5..         MOV     A,?V0 + 4
   \   000107   F0           MOVX    @DPTR,A
    313              halTimerRecord[hwtimerid].callBackFunc  = cBack;
   \   000108   EE           MOV     A,R6
   \   000109   F8           MOV     R0,A
   \   00010A   EF           MOV     A,R7
   \   00010B   F9           MOV     R1,A
   \   00010C   AA..         MOV     R2,?V0 + 5
   \   00010E   7B00         MOV     R3,#0x0
   \   000110   EA           MOV     A,R2
   \   000111   75F00A       MOV     B,#0xa
   \   000114   A4           MUL     AB
   \   000115   CA           XCH     A,R2
   \   000116   ACF0         MOV     R4,B
   \   000118   75F000       MOV     B,#0x0
   \   00011B   A4           MUL     AB
   \   00011C   2C           ADD     A,R4
   \   00011D   FC           MOV     R4,A
   \   00011E   75F00A       MOV     B,#0xa
   \   000121   EB           MOV     A,R3
   \   000122   A4           MUL     AB
   \   000123   2C           ADD     A,R4
   \   000124   FB           MOV     R3,A
   \   000125   EA           MOV     A,R2
   \   000126   24..         ADD     A,#((halTimerRecord + 8) & 0xff)
   \   000128   F582         MOV     DPL,A
   \   00012A   EB           MOV     A,R3
   \   00012B   34..         ADDC    A,#(((halTimerRecord + 8) >> 8) & 0xff)
   \   00012D   F583         MOV     DPH,A
   \   00012F   E8           MOV     A,R0
   \   000130   F0           MOVX    @DPTR,A
   \   000131   A3           INC     DPTR
   \   000132   E9           MOV     A,R1
   \   000133   F0           MOVX    @DPTR,A
    314            }
    315            else
    316            {
    317              return HAL_TIMER_PARAMS_ERROR;
    318            }
    319            return HAL_TIMER_OK;
   \   000134   7900         MOV     R1,#0x0
   \   000136   8002         SJMP    ??HalTimerConfig_1
   \                     ??HalTimerConfig_0:
   \   000138   7902         MOV     R1,#0x2
   \                     ??HalTimerConfig_1:
   \   00013A   7F06         MOV     R7,#0x6
   \   00013C   02....       LJMP    ?BANKED_LEAVE_XDATA
    320          }
    321          
    322          
    323          /***************************************************************************************************
    324           * @fn      HalTimerStart
    325           *
    326           * @brief   Start the Timer Service
    327           *
    328           * @param   timerId      - ID of the timer
    329           *          timerPerTick - number of micro sec per tick, (ticks x prescale) / clock = usec/tick
    330           *
    331           * @return  Status - OK or Not OK
    332           ***************************************************************************************************/

   \                                 In  segment BANKED_CODE, align 1, keep-with-next
    333          uint8 HalTimerStart (uint8 timerId, uint32 timePerTick)
   \                     HalTimerStart:
    334          {
   \   000000   74F4         MOV     A,#-0xc
   \   000002   12....       LCALL   ?BANKED_ENTER_XDATA
   \   000005                ; Saved register size: 12
   \   000005                ; Auto size: 0
   \   000005   E9           MOV     A,R1
   \   000006   8A..         MOV     ?V0 + 0,R2
   \   000008   8B..         MOV     ?V0 + 1,R3
   \   00000A   8C..         MOV     ?V0 + 2,R4
   \   00000C   8D..         MOV     ?V0 + 3,R5
    335            uint8 hwtimerid;
    336          
    337            hwtimerid = halTimerRemap (timerId);
   \   00000E                ; Setup parameters for call to function halTimerRemap
   \   00000E   F9           MOV     R1,A
   \   00000F   12....       LCALL   ??halTimerRemap?relay
   \   000012   E9           MOV     A,R1
   \   000013   FE           MOV     R6,A
    338          
    339            if (halTimerRecord[hwtimerid].configured)
   \   000014   EE           MOV     A,R6
   \   000015   F8           MOV     R0,A
   \   000016   7900         MOV     R1,#0x0
   \   000018   E8           MOV     A,R0
   \   000019   75F00A       MOV     B,#0xa
   \   00001C   A4           MUL     AB
   \   00001D   C8           XCH     A,R0
   \   00001E   AAF0         MOV     R2,B
   \   000020   75F000       MOV     B,#0x0
   \   000023   A4           MUL     AB
   \   000024   2A           ADD     A,R2
   \   000025   FA           MOV     R2,A
   \   000026   75F00A       MOV     B,#0xa
   \   000029   E9           MOV     A,R1
   \   00002A   A4           MUL     AB
   \   00002B   2A           ADD     A,R2
   \   00002C   F9           MOV     R1,A
   \   00002D   E8           MOV     A,R0
   \   00002E   24..         ADD     A,#(halTimerRecord & 0xff)
   \   000030   F582         MOV     DPL,A
   \   000032   E9           MOV     A,R1
   \   000033   34..         ADDC    A,#((halTimerRecord >> 8) & 0xff)
   \   000035   F583         MOV     DPH,A
   \   000037   E0           MOVX    A,@DPTR
   \   000038   7003         JNZ     $+5
   \   00003A   02....       LJMP    ??HalTimerStart_0 & 0xFFFF
    340            {
    341              halTimerSetCount (hwtimerid, timePerTick);
   \   00003D                ; Setup parameters for call to function halTimerSetCount
   \   00003D   AA..         MOV     R2,?V0 + 0
   \   00003F   AB..         MOV     R3,?V0 + 1
   \   000041   AC..         MOV     R4,?V0 + 2
   \   000043   AD..         MOV     R5,?V0 + 3
   \   000045   EE           MOV     A,R6
   \   000046   F9           MOV     R1,A
   \   000047   12....       LCALL   ??halTimerSetCount?relay
    342              halTimerSetPrescale (hwtimerid, halTimerRecord[hwtimerid].prescale);
   \   00004A                ; Setup parameters for call to function halTimerSetPrescale
   \   00004A   EE           MOV     A,R6
   \   00004B   F8           MOV     R0,A
   \   00004C   7900         MOV     R1,#0x0
   \   00004E   E8           MOV     A,R0
   \   00004F   75F00A       MOV     B,#0xa
   \   000052   A4           MUL     AB
   \   000053   C8           XCH     A,R0
   \   000054   AAF0         MOV     R2,B
   \   000056   75F000       MOV     B,#0x0
   \   000059   A4           MUL     AB
   \   00005A   2A           ADD     A,R2
   \   00005B   FA           MOV     R2,A
   \   00005C   75F00A       MOV     B,#0xa
   \   00005F   E9           MOV     A,R1
   \   000060   A4           MUL     AB
   \   000061   2A           ADD     A,R2
   \   000062   F9           MOV     R1,A
   \   000063   E8           MOV     A,R0
   \   000064   24..         ADD     A,#((halTimerRecord + 5) & 0xff)
   \   000066   F582         MOV     DPL,A
   \   000068   E9           MOV     A,R1
   \   000069   34..         ADDC    A,#(((halTimerRecord + 5) >> 8) & 0xff)
   \   00006B   F583         MOV     DPH,A
   \   00006D   E0           MOVX    A,@DPTR
   \   00006E   FA           MOV     R2,A
   \   00006F   EE           MOV     A,R6
   \   000070   F9           MOV     R1,A
   \   000071   12....       LCALL   ??halTimerSetPrescale?relay
    343              halTimerSetOpMode (hwtimerid, halTimerRecord[hwtimerid].opMode);
   \   000074                ; Setup parameters for call to function halTimerSetOpMode
   \   000074   EE           MOV     A,R6
   \   000075   F8           MOV     R0,A
   \   000076   7900         MOV     R1,#0x0
   \   000078   E8           MOV     A,R0
   \   000079   75F00A       MOV     B,#0xa
   \   00007C   A4           MUL     AB
   \   00007D   C8           XCH     A,R0
   \   00007E   AAF0         MOV     R2,B
   \   000080   75F000       MOV     B,#0x0
   \   000083   A4           MUL     AB
   \   000084   2A           ADD     A,R2
   \   000085   FA           MOV     R2,A
   \   000086   75F00A       MOV     B,#0xa
   \   000089   E9           MOV     A,R1
   \   00008A   A4           MUL     AB
   \   00008B   2A           ADD     A,R2
   \   00008C   F9           MOV     R1,A
   \   00008D   E8           MOV     A,R0
   \   00008E   24..         ADD     A,#((halTimerRecord + 2) & 0xff)
   \   000090   F582         MOV     DPL,A
   \   000092   E9           MOV     A,R1
   \   000093   34..         ADDC    A,#(((halTimerRecord + 2) >> 8) & 0xff)
   \   000095   F583         MOV     DPH,A
   \   000097   E0           MOVX    A,@DPTR
   \   000098   FA           MOV     R2,A
   \   000099   EE           MOV     A,R6
   \   00009A   F9           MOV     R1,A
   \   00009B   12....       LCALL   ??halTimerSetOpMode?relay
    344              halTimerSetChannelMode (hwtimerid, halTimerRecord[hwtimerid].channelMode);
   \   00009E                ; Setup parameters for call to function halTimerSetChannelMode
   \   00009E   EE           MOV     A,R6
   \   00009F   F8           MOV     R0,A
   \   0000A0   7900         MOV     R1,#0x0
   \   0000A2   E8           MOV     A,R0
   \   0000A3   75F00A       MOV     B,#0xa
   \   0000A6   A4           MUL     AB
   \   0000A7   C8           XCH     A,R0
   \   0000A8   AAF0         MOV     R2,B
   \   0000AA   75F000       MOV     B,#0x0
   \   0000AD   A4           MUL     AB
   \   0000AE   2A           ADD     A,R2
   \   0000AF   FA           MOV     R2,A
   \   0000B0   75F00A       MOV     B,#0xa
   \   0000B3   E9           MOV     A,R1
   \   0000B4   A4           MUL     AB
   \   0000B5   2A           ADD     A,R2
   \   0000B6   F9           MOV     R1,A
   \   0000B7   E8           MOV     A,R0
   \   0000B8   24..         ADD     A,#((halTimerRecord + 4) & 0xff)
   \   0000BA   F582         MOV     DPL,A
   \   0000BC   E9           MOV     A,R1
   \   0000BD   34..         ADDC    A,#(((halTimerRecord + 4) >> 8) & 0xff)
   \   0000BF   F583         MOV     DPH,A
   \   0000C1   E0           MOVX    A,@DPTR
   \   0000C2   FA           MOV     R2,A
   \   0000C3   EE           MOV     A,R6
   \   0000C4   F9           MOV     R1,A
   \   0000C5   12....       LCALL   ??halTimerSetChannelMode?relay
    345          
    346              if (hwtimerid == HW_TIMER_3)
   \   0000C8   7401         MOV     A,#0x1
   \   0000CA   6E           XRL     A,R6
   \   0000CB   7003         JNZ     ??HalTimerStart_1
    347              {
    348                T3CTL |= HAL_TIMER34_START;
   \   0000CD   43CB10       ORL     0xcb,#0x10
    349              }
    350              if (hwtimerid == HW_TIMER_4)
   \                     ??HalTimerStart_1:
   \   0000D0   7402         MOV     A,#0x2
   \   0000D2   6E           XRL     A,R6
   \   0000D3   7003         JNZ     ??HalTimerStart_2
    351              {
    352                T4CTL |= HAL_TIMER34_START;
   \   0000D5   43EB10       ORL     0xeb,#0x10
    353              }
    354              HalTimerInterruptEnable (hwtimerid, halTimerRecord[hwtimerid].channelMode,
    355                                       halTimerRecord[hwtimerid].intEnable);
   \                     ??HalTimerStart_2:
   \   0000D8                ; Setup parameters for call to function HalTimerInterruptEnable
   \   0000D8   EE           MOV     A,R6
   \   0000D9   F8           MOV     R0,A
   \   0000DA   7900         MOV     R1,#0x0
   \   0000DC   E8           MOV     A,R0
   \   0000DD   75F00A       MOV     B,#0xa
   \   0000E0   A4           MUL     AB
   \   0000E1   C8           XCH     A,R0
   \   0000E2   AAF0         MOV     R2,B
   \   0000E4   75F000       MOV     B,#0x0
   \   0000E7   A4           MUL     AB
   \   0000E8   2A           ADD     A,R2
   \   0000E9   FA           MOV     R2,A
   \   0000EA   75F00A       MOV     B,#0xa
   \   0000ED   E9           MOV     A,R1
   \   0000EE   A4           MUL     AB
   \   0000EF   2A           ADD     A,R2
   \   0000F0   F9           MOV     R1,A
   \   0000F1   E8           MOV     A,R0
   \   0000F2   24..         ADD     A,#((halTimerRecord + 1) & 0xff)
   \   0000F4   F582         MOV     DPL,A
   \   0000F6   E9           MOV     A,R1
   \   0000F7   34..         ADDC    A,#(((halTimerRecord + 1) >> 8) & 0xff)
   \   0000F9   F583         MOV     DPH,A
   \   0000FB   E0           MOVX    A,@DPTR
   \   0000FC   FB           MOV     R3,A
   \   0000FD   EE           MOV     A,R6
   \   0000FE   F8           MOV     R0,A
   \   0000FF   7900         MOV     R1,#0x0
   \   000101   E8           MOV     A,R0
   \   000102   75F00A       MOV     B,#0xa
   \   000105   A4           MUL     AB
   \   000106   C8           XCH     A,R0
   \   000107   AAF0         MOV     R2,B
   \   000109   75F000       MOV     B,#0x0
   \   00010C   A4           MUL     AB
   \   00010D   2A           ADD     A,R2
   \   00010E   FA           MOV     R2,A
   \   00010F   75F00A       MOV     B,#0xa
   \   000112   E9           MOV     A,R1
   \   000113   A4           MUL     AB
   \   000114   2A           ADD     A,R2
   \   000115   F9           MOV     R1,A
   \   000116   E8           MOV     A,R0
   \   000117   24..         ADD     A,#((halTimerRecord + 4) & 0xff)
   \   000119   F582         MOV     DPL,A
   \   00011B   E9           MOV     A,R1
   \   00011C   34..         ADDC    A,#(((halTimerRecord + 4) >> 8) & 0xff)
   \   00011E   F583         MOV     DPH,A
   \   000120   E0           MOVX    A,@DPTR
   \   000121   FA           MOV     R2,A
   \   000122   EE           MOV     A,R6
   \   000123   F9           MOV     R1,A
   \   000124   12....       LCALL   ??HalTimerInterruptEnable?relay
    356            }
    357            else
    358            {
    359              return HAL_TIMER_NOT_CONFIGURED;
    360            }
    361            return HAL_TIMER_OK;
   \   000127   7900         MOV     R1,#0x0
   \   000129   8002         SJMP    ??HalTimerStart_3
   \                     ??HalTimerStart_0:
   \   00012B   7903         MOV     R1,#0x3
   \                     ??HalTimerStart_3:
   \   00012D   7F04         MOV     R7,#0x4
   \   00012F   02....       LJMP    ?BANKED_LEAVE_XDATA
   \   000132                REQUIRE T3CTL
   \   000132                REQUIRE T4CTL
    362          }
    363          
    364          /***************************************************************************************************
    365           * @fn      HalTimerTick
    366           *
    367           * @brief   Check the counter for expired counter.
    368           *
    369           * @param   None
    370           *
    371           * @return  None
    372           ***************************************************************************************************/

   \                                 In  segment BANKED_CODE, align 1, keep-with-next
    373          void HalTimerTick (void)
   \                     HalTimerTick:
    374          {
   \   000000   C082         PUSH    DPL
   \   000002   C083         PUSH    DPH
   \   000004                ; Saved register size: 2
   \   000004                ; Auto size: 0
    375            if (!halTimerRecord[HW_TIMER_1].intEnable)
   \   000004   90....       MOV     DPTR,#(halTimerRecord + 1)
   \   000007   E0           MOVX    A,@DPTR
   \   000008   7003         JNZ     ??HalTimerTick_0
    376            {
    377              halProcessTimer1 ();
   \   00000A                ; Setup parameters for call to function halProcessTimer1
   \   00000A   12....       LCALL   ??halProcessTimer1?relay
    378            }
    379          
    380            if (!halTimerRecord[HW_TIMER_3].intEnable)
   \                     ??HalTimerTick_0:
   \   00000D   90....       MOV     DPTR,#(halTimerRecord + 11)
   \   000010   E0           MOVX    A,@DPTR
   \   000011   7003         JNZ     ??HalTimerTick_1
    381            {
    382              halProcessTimer3 ();
   \   000013                ; Setup parameters for call to function halProcessTimer3
   \   000013   12....       LCALL   ??halProcessTimer3?relay
    383            }
    384          
    385            if (!halTimerRecord[HW_TIMER_4].intEnable)
   \                     ??HalTimerTick_1:
   \   000016   90....       MOV     DPTR,#(halTimerRecord + 21)
   \   000019   E0           MOVX    A,@DPTR
   \   00001A   7003         JNZ     ??HalTimerTick_2
    386            {
    387              halProcessTimer4 ();
   \   00001C                ; Setup parameters for call to function halProcessTimer4
   \   00001C   12....       LCALL   ??halProcessTimer4?relay
    388            }
    389          }
   \                     ??HalTimerTick_2:
   \   00001F   D083         POP     DPH
   \   000021   D082         POP     DPL
   \   000023   02....       LJMP    ?BRET
    390          
    391          /***************************************************************************************************
    392           * @fn      HalTimerStop
    393           *
    394           * @brief   Stop the Timer Service
    395           *
    396           * @param   timerId - ID of the timer
    397           *
    398           * @return  Status - OK or Not OK
    399           ***************************************************************************************************/

   \                                 In  segment BANKED_CODE, align 1, keep-with-next
    400          uint8 HalTimerStop (uint8 timerId)
   \                     HalTimerStop:
    401          {
   \   000000   74F7         MOV     A,#-0x9
   \   000002   12....       LCALL   ?BANKED_ENTER_XDATA
   \   000005                ; Saved register size: 9
   \   000005                ; Auto size: 0
   \   000005   E9           MOV     A,R1
    402            uint8 hwtimerid;
    403          
    404            hwtimerid = halTimerRemap (timerId);
   \   000006                ; Setup parameters for call to function halTimerRemap
   \   000006   F9           MOV     R1,A
   \   000007   12....       LCALL   ??halTimerRemap?relay
   \   00000A   E9           MOV     A,R1
    405          
    406            switch (hwtimerid)
   \   00000B   12....       LCALL   ?UC_SWITCH_DENSE
   \                     `?<Jumptable for HalTimerStop>_0`:
   \   00000E   00           DB        0
   \   00000F   02           DB        2
   \   000010   ....         DW        ??HalTimerStop_0
   \   000012   ....         DW        ??HalTimerStop_1
   \   000014   ....         DW        ??HalTimerStop_2
   \   000016   ....         DW        ??HalTimerStop_3
    407            {
    408              case HW_TIMER_1:
    409                halTimerSetOpMode(HW_TIMER_1, HAL_TIMER_MODE_STOP);
   \                     ??HalTimerStop_1:
   \   000018                ; Setup parameters for call to function halTimerSetOpMode
   \   000018   7A03         MOV     R2,#0x3
   \   00001A   7900         MOV     R1,#0x0
   \   00001C   12....       LCALL   ??halTimerSetOpMode?relay
   \   00001F   800E         SJMP    ??HalTimerStop_4
    410                break;
    411              case HW_TIMER_3:
    412                T3CTL &= ~(HAL_TIMER34_START);
   \                     ??HalTimerStop_2:
   \   000021   53CBEF       ANL     0xcb,#0xef
   \   000024   8009         SJMP    ??HalTimerStop_4
    413                break;
    414              case HW_TIMER_4:
    415                T4CTL &= ~(HAL_TIMER34_START);
   \                     ??HalTimerStop_3:
   \   000026   53EBEF       ANL     0xeb,#0xef
   \   000029   8004         SJMP    ??HalTimerStop_4
    416                break;
    417              default:
    418                return HAL_TIMER_INVALID_ID;
   \                     ??HalTimerStop_0:
   \   00002B   7904         MOV     R1,#0x4
   \   00002D   8002         SJMP    ??HalTimerStop_5
    419            }
    420            return HAL_TIMER_OK;
   \                     ??HalTimerStop_4:
   \   00002F   7900         MOV     R1,#0x0
   \                     ??HalTimerStop_5:
   \   000031   7F01         MOV     R7,#0x1
   \   000033   02....       LJMP    ?BANKED_LEAVE_XDATA
   \   000036                REQUIRE T3CTL
   \   000036                REQUIRE T4CTL
    421          }
    422          
    423          /***************************************************************************************************
    424           * @fn      halTimerSetCount
    425           *
    426           * @brief   Stop the Timer Service
    427           *
    428           * @param   hwtimerid - ID of the timer
    429           *          timerPerTick - Number micro sec per ticks
    430           *
    431           * @return  Status - OK or Not OK
    432           ***************************************************************************************************/

   \                                 In  segment BANKED_CODE, align 1, keep-with-next
    433          uint8 halTimerSetCount (uint8 hwtimerid, uint32 timePerTick)
   \                     halTimerSetCount:
    434          {
   \   000000   74F0         MOV     A,#-0x10
   \   000002   12....       LCALL   ?BANKED_ENTER_XDATA
   \   000005                ; Saved register size: 16
   \   000005                ; Auto size: 4
   \   000005   74FC         MOV     A,#-0x4
   \   000007   12....       LCALL   ?ALLOC_XSTACK8
   \   00000A   85..82       MOV     DPL,?XSP + 0
   \   00000D   85..83       MOV     DPH,?XSP + 1
   \   000010   EA           MOV     A,R2
   \   000011   F0           MOVX    @DPTR,A
   \   000012   A3           INC     DPTR
   \   000013   EB           MOV     A,R3
   \   000014   F0           MOVX    @DPTR,A
   \   000015   A3           INC     DPTR
   \   000016   EC           MOV     A,R4
   \   000017   F0           MOVX    @DPTR,A
   \   000018   A3           INC     DPTR
   \   000019   ED           MOV     A,R5
   \   00001A   F0           MOVX    @DPTR,A
   \   00001B   E9           MOV     A,R1
   \   00001C   FC           MOV     R4,A
    435            uint16  count;
    436            uint8   high, low;
    437          
    438            /* Load count = ((sec/tick) x clock) / prescale */
    439            count = (uint16)((timePerTick * halTimerRecord[hwtimerid].clock) / halTimerRecord[hwtimerid].prescaleVal);
   \   00001D   85..82       MOV     DPL,?XSP + 0
   \   000020   85..83       MOV     DPH,?XSP + 1
   \   000023   78..         MOV     R0,#?V0 + 0
   \   000025   12....       LCALL   ?L_MOV_X
   \   000028   EC           MOV     A,R4
   \   000029   F8           MOV     R0,A
   \   00002A   7900         MOV     R1,#0x0
   \   00002C   E8           MOV     A,R0
   \   00002D   75F00A       MOV     B,#0xa
   \   000030   A4           MUL     AB
   \   000031   C8           XCH     A,R0
   \   000032   AFF0         MOV     R7,B
   \   000034   75F000       MOV     B,#0x0
   \   000037   A4           MUL     AB
   \   000038   2F           ADD     A,R7
   \   000039   FF           MOV     R7,A
   \   00003A   75F00A       MOV     B,#0xa
   \   00003D   E9           MOV     A,R1
   \   00003E   A4           MUL     AB
   \   00003F   2F           ADD     A,R7
   \   000040   F9           MOV     R1,A
   \   000041   E8           MOV     A,R0
   \   000042   24..         ADD     A,#((halTimerRecord + 7) & 0xff)
   \   000044   F582         MOV     DPL,A
   \   000046   E9           MOV     A,R1
   \   000047   34..         ADDC    A,#(((halTimerRecord + 7) >> 8) & 0xff)
   \   000049   F583         MOV     DPH,A
   \   00004B   E0           MOVX    A,@DPTR
   \   00004C   F5..         MOV     ?V0 + 4,A
   \   00004E   E4           CLR     A
   \   00004F   F5..         MOV     ?V0 + 5,A
   \   000051   F5..         MOV     ?V0 + 6,A
   \   000053   F5..         MOV     ?V0 + 7,A
   \   000055   78..         MOV     R0,#?V0 + 0
   \   000057   79..         MOV     R1,#?V0 + 4
   \   000059   12....       LCALL   ?L_MUL
   \   00005C   EC           MOV     A,R4
   \   00005D   F8           MOV     R0,A
   \   00005E   7900         MOV     R1,#0x0
   \   000060   E8           MOV     A,R0
   \   000061   75F00A       MOV     B,#0xa
   \   000064   A4           MUL     AB
   \   000065   C8           XCH     A,R0
   \   000066   AFF0         MOV     R7,B
   \   000068   75F000       MOV     B,#0x0
   \   00006B   A4           MUL     AB
   \   00006C   2F           ADD     A,R7
   \   00006D   FF           MOV     R7,A
   \   00006E   75F00A       MOV     B,#0xa
   \   000071   E9           MOV     A,R1
   \   000072   A4           MUL     AB
   \   000073   2F           ADD     A,R7
   \   000074   F9           MOV     R1,A
   \   000075   E8           MOV     A,R0
   \   000076   24..         ADD     A,#((halTimerRecord + 6) & 0xff)
   \   000078   F582         MOV     DPL,A
   \   00007A   E9           MOV     A,R1
   \   00007B   34..         ADDC    A,#(((halTimerRecord + 6) >> 8) & 0xff)
   \   00007D   F583         MOV     DPH,A
   \   00007F   E0           MOVX    A,@DPTR
   \   000080   F5..         MOV     ?V0 + 4,A
   \   000082   E4           CLR     A
   \   000083   F5..         MOV     ?V0 + 5,A
   \   000085   F5..         MOV     ?V0 + 6,A
   \   000087   F5..         MOV     ?V0 + 7,A
   \   000089   78..         MOV     R0,#?V0 + 0
   \   00008B   79..         MOV     R1,#?V0 + 4
   \   00008D   12....       LCALL   ?UL_DIV_MOD
   \   000090   AA..         MOV     R2,?V0 + 0
    440            high = (uint8) (count >> 8);
    441            low = (uint8) count;
   \   000092   EA           MOV     A,R2
   \   000093   FD           MOV     R5,A
    442          
    443            *(halTimerChannel[hwtimerid].TxCCH) = high;
   \   000094   EC           MOV     A,R4
   \   000095   F8           MOV     R0,A
   \   000096   7900         MOV     R1,#0x0
   \   000098   E8           MOV     A,R0
   \   000099   75F00A       MOV     B,#0xa
   \   00009C   A4           MUL     AB
   \   00009D   C8           XCH     A,R0
   \   00009E   AFF0         MOV     R7,B
   \   0000A0   75F000       MOV     B,#0x0
   \   0000A3   A4           MUL     AB
   \   0000A4   2F           ADD     A,R7
   \   0000A5   FF           MOV     R7,A
   \   0000A6   75F00A       MOV     B,#0xa
   \   0000A9   E9           MOV     A,R1
   \   0000AA   A4           MUL     AB
   \   0000AB   2F           ADD     A,R7
   \   0000AC   F9           MOV     R1,A
   \   0000AD   E8           MOV     A,R0
   \   0000AE   24..         ADD     A,#((halTimerChannel + 2) & 0xff)
   \   0000B0   F582         MOV     DPL,A
   \   0000B2   E9           MOV     A,R1
   \   0000B3   34..         ADDC    A,#(((halTimerChannel + 2) >> 8) & 0xff)
   \   0000B5   F583         MOV     DPH,A
   \   0000B7   E0           MOVX    A,@DPTR
   \   0000B8   F8           MOV     R0,A
   \   0000B9   A3           INC     DPTR
   \   0000BA   E0           MOVX    A,@DPTR
   \   0000BB   F583         MOV     DPH,A
   \   0000BD   8882         MOV     DPL,R0
   \   0000BF   E5..         MOV     A,?V0 + 1
   \   0000C1   F0           MOVX    @DPTR,A
    444            *(halTimerChannel[hwtimerid].TxCCL) = low;
   \   0000C2   ED           MOV     A,R5
   \   0000C3   C0E0         PUSH    A
   \   0000C5   EC           MOV     A,R4
   \   0000C6   F8           MOV     R0,A
   \   0000C7   7900         MOV     R1,#0x0
   \   0000C9   E8           MOV     A,R0
   \   0000CA   75F00A       MOV     B,#0xa
   \   0000CD   A4           MUL     AB
   \   0000CE   C8           XCH     A,R0
   \   0000CF   AFF0         MOV     R7,B
   \   0000D1   75F000       MOV     B,#0x0
   \   0000D4   A4           MUL     AB
   \   0000D5   2F           ADD     A,R7
   \   0000D6   FF           MOV     R7,A
   \   0000D7   75F00A       MOV     B,#0xa
   \   0000DA   E9           MOV     A,R1
   \   0000DB   A4           MUL     AB
   \   0000DC   2F           ADD     A,R7
   \   0000DD   F9           MOV     R1,A
   \   0000DE   E8           MOV     A,R0
   \   0000DF   24..         ADD     A,#((halTimerChannel + 4) & 0xff)
   \   0000E1   F582         MOV     DPL,A
   \   0000E3   E9           MOV     A,R1
   \   0000E4   34..         ADDC    A,#(((halTimerChannel + 4) >> 8) & 0xff)
   \   0000E6   F583         MOV     DPH,A
   \   0000E8   E0           MOVX    A,@DPTR
   \   0000E9   F8           MOV     R0,A
   \   0000EA   A3           INC     DPTR
   \   0000EB   E0           MOVX    A,@DPTR
   \   0000EC   F583         MOV     DPH,A
   \   0000EE   8882         MOV     DPL,R0
   \   0000F0   D0E0         POP     A
   \   0000F2   F0           MOVX    @DPTR,A
    445          
    446            return HAL_TIMER_OK;
   \   0000F3   7900         MOV     R1,#0x0
   \   0000F5   7404         MOV     A,#0x4
   \   0000F7   12....       LCALL   ?DEALLOC_XSTACK8
   \   0000FA   7F08         MOV     R7,#0x8
   \   0000FC   02....       LJMP    ?BANKED_LEAVE_XDATA
    447          }
    448          
    449          /***************************************************************************************************
    450           * @fn      halTimerSetPrescale
    451           *
    452           * @brief   Stop the Timer Service
    453           *
    454           * @param   hwtimerid - ID of the timer
    455           *          prescale - Prescale of the clock
    456           *
    457           * @return  Status - OK or Not OK
    458           ***************************************************************************************************/

   \                                 In  segment BANKED_CODE, align 1, keep-with-next
    459          uint8 halTimerSetPrescale (uint8 hwtimerid, uint8 prescale)
   \                     halTimerSetPrescale:
    460          {
   \   000000   C082         PUSH    DPL
   \   000002   C083         PUSH    DPH
   \   000004                ; Saved register size: 2
   \   000004                ; Auto size: 0
   \   000004   E9           MOV     A,R1
    461            switch (hwtimerid)
   \   000005   12....       LCALL   ?UC_SWITCH_DENSE
   \                     `?<Jumptable for halTimerSetPrescale>_0`:
   \   000008   00           DB        0
   \   000009   02           DB        2
   \   00000A   ....         DW        ??halTimerSetPrescale_0
   \   00000C   ....         DW        ??halTimerSetPrescale_1
   \   00000E   ....         DW        ??halTimerSetPrescale_2
   \   000010   ....         DW        ??halTimerSetPrescale_3
    462            {
    463              case HW_TIMER_1:
    464                T1CTL &= ~(HAL_TIMER1_16_TC_BITS);
   \                     ??halTimerSetPrescale_1:
   \   000012   53E4F3       ANL     0xe4,#0xf3
   \   000015   E5E4         MOV     A,0xe4
    465                T1CTL |= prescale;
   \   000017   EA           MOV     A,R2
   \   000018   45E4         ORL     A,0xe4
   \   00001A   F5E4         MOV     0xe4,A
   \   00001C   801C         SJMP    ??halTimerSetPrescale_4
    466                break;
    467              case HW_TIMER_3:
    468                T3CTL &= ~(HAL_TIMER34_8_TC_BITS);
   \                     ??halTimerSetPrescale_2:
   \   00001E   53CB1F       ANL     0xcb,#0x1f
   \   000021   E5CB         MOV     A,0xcb
    469                T3CTL |= prescale;
   \   000023   EA           MOV     A,R2
   \   000024   45CB         ORL     A,0xcb
   \   000026   F5CB         MOV     0xcb,A
   \   000028   8010         SJMP    ??halTimerSetPrescale_4
    470                break;
    471              case HW_TIMER_4:
    472                T4CTL &= ~(HAL_TIMER34_8_TC_BITS);
   \                     ??halTimerSetPrescale_3:
   \   00002A   53EB1F       ANL     0xeb,#0x1f
   \   00002D   E5EB         MOV     A,0xeb
    473                T4CTL |= prescale;
   \   00002F   EA           MOV     A,R2
   \   000030   45EB         ORL     A,0xeb
   \   000032   F5EB         MOV     0xeb,A
   \   000034   8004         SJMP    ??halTimerSetPrescale_4
    474                break;
    475              default:
    476                return HAL_TIMER_INVALID_ID;
   \                     ??halTimerSetPrescale_0:
   \   000036   7904         MOV     R1,#0x4
   \   000038   8002         SJMP    ??halTimerSetPrescale_5
    477            }
    478            return HAL_TIMER_OK;
   \                     ??halTimerSetPrescale_4:
   \   00003A   7900         MOV     R1,#0x0
   \                     ??halTimerSetPrescale_5:
   \   00003C   D083         POP     DPH
   \   00003E   D082         POP     DPL
   \   000040   02....       LJMP    ?BRET
   \   000043                REQUIRE T3CTL
   \   000043                REQUIRE T1CTL
   \   000043                REQUIRE T4CTL
    479          }
    480          
    481          /***************************************************************************************************
    482           * @fn      halTimerSetOpMode
    483           *
    484           * @brief   Setup operate modes
    485           *
    486           * @param   hwtimerid - ID of the timer
    487           *          opMode - operation mode of the timer
    488           *
    489           * @return  Status - OK or Not OK
    490           ***************************************************************************************************/

   \                                 In  segment BANKED_CODE, align 1, keep-with-next
    491          uint8 halTimerSetOpMode (uint8 hwtimerid, uint8 opMode)
   \                     halTimerSetOpMode:
    492          {
   \   000000   C082         PUSH    DPL
   \   000002   C083         PUSH    DPH
   \   000004                ; Saved register size: 2
   \   000004                ; Auto size: 0
   \   000004   E9           MOV     A,R1
   \   000005   FB           MOV     R3,A
    493            /* Load Waveform Generation Mode */
    494            switch (opMode)
   \   000006   EA           MOV     A,R2
   \   000007   12....       LCALL   ?UC_SWITCH_DENSE
   \                     `?<Jumptable for halTimerSetOpMode>_0`:
   \   00000A   01           DB        1
   \   00000B   02           DB        2
   \   00000C   ....         DW        ??halTimerSetOpMode_0
   \   00000E   ....         DW        ??halTimerSetOpMode_1
   \   000010   ....         DW        ??halTimerSetOpMode_2
   \   000012   ....         DW        ??halTimerSetOpMode_3
    495            {
    496              case HAL_TIMER_MODE_NORMAL:
    497                switch (hwtimerid)
   \                     ??halTimerSetOpMode_1:
   \   000014   EB           MOV     A,R3
   \   000015   12....       LCALL   ?UC_SWITCH_DENSE
   \                     `?<Jumptable for halTimerSetOpMode>_1`:
   \   000018   00           DB        0
   \   000019   02           DB        2
   \   00001A   ....         DW        ??halTimerSetOpMode_4
   \   00001C   ....         DW        ??halTimerSetOpMode_5
   \   00001E   ....         DW        ??halTimerSetOpMode_6
   \   000020   ....         DW        ??halTimerSetOpMode_7
    498                {
    499                  case HW_TIMER_1:
    500                    T1CTL &= ~(HAL_TIMER1_OPMODE_BITS);
   \                     ??halTimerSetOpMode_5:
   \   000022   53E4FC       ANL     0xe4,#0xfc
   \   000025   E5E4         MOV     A,0xe4
    501                    T1CTL |= HAL_TIMER1_OPMODE_FREERUN;
   \   000027   43E401       ORL     0xe4,#0x1
   \   00002A   8059         SJMP    ??halTimerSetOpMode_8
    502                    break;
    503                  case HW_TIMER_3:
    504                    T3CTL &= ~(HAL_TIMER34_OPMODE_BITS);
   \                     ??halTimerSetOpMode_6:
   \   00002C   53CBFC       ANL     0xcb,#0xfc
   \   00002F   E5CB         MOV     A,0xcb
    505                    T3CTL |= HAL_TIMER34_OPMODE_FREERUN;
   \   000031   85CBCB       MOV     0xcb,0xcb
   \   000034   804F         SJMP    ??halTimerSetOpMode_8
    506                    break;
    507                  case HW_TIMER_4:
    508                    T4CTL &= ~(HAL_TIMER34_OPMODE_BITS);
   \                     ??halTimerSetOpMode_7:
   \   000036   53EBFC       ANL     0xeb,#0xfc
   \   000039   E5EB         MOV     A,0xeb
    509                    T4CTL |= HAL_TIMER34_OPMODE_FREERUN;
   \   00003B   85EBEB       MOV     0xeb,0xeb
   \   00003E   8045         SJMP    ??halTimerSetOpMode_8
    510                    break;
    511                  default:
    512                    return HAL_TIMER_INVALID_ID;
   \                     ??halTimerSetOpMode_4:
   \   000040   7904         MOV     R1,#0x4
   \   000042   8043         SJMP    ??halTimerSetOpMode_9
    513                }
    514                break;
    515          
    516              case HAL_TIMER_MODE_CTC:
    517                switch (hwtimerid)
   \                     ??halTimerSetOpMode_2:
   \   000044   EB           MOV     A,R3
   \   000045   12....       LCALL   ?UC_SWITCH_DENSE
   \                     `?<Jumptable for halTimerSetOpMode>_2`:
   \   000048   00           DB        0
   \   000049   02           DB        2
   \   00004A   ....         DW        ??halTimerSetOpMode_10
   \   00004C   ....         DW        ??halTimerSetOpMode_11
   \   00004E   ....         DW        ??halTimerSetOpMode_12
   \   000050   ....         DW        ??halTimerSetOpMode_13
    518                {
    519                  case HW_TIMER_1:
    520                    T1CTL &= ~(HAL_TIMER1_OPMODE_BITS);
   \                     ??halTimerSetOpMode_11:
   \   000052   53E4FC       ANL     0xe4,#0xfc
   \   000055   E5E4         MOV     A,0xe4
    521                    T1CTL |= HAL_TIMER1_OPMODE_MODULO;
   \   000057   43E402       ORL     0xe4,#0x2
   \   00005A   8029         SJMP    ??halTimerSetOpMode_8
    522                    break;
    523                  case HW_TIMER_3:
    524                    T3CTL &= ~(HAL_TIMER34_OPMODE_BITS);
   \                     ??halTimerSetOpMode_12:
   \   00005C   53CBFC       ANL     0xcb,#0xfc
   \   00005F   E5CB         MOV     A,0xcb
    525                    T3CTL |= HAL_TIMER34_OPMODE_MODULO;
   \   000061   43CB02       ORL     0xcb,#0x2
   \   000064   801F         SJMP    ??halTimerSetOpMode_8
    526                    break;
    527                  case HW_TIMER_4:
    528                    T4CTL &= ~(HAL_TIMER34_OPMODE_BITS);
   \                     ??halTimerSetOpMode_13:
   \   000066   53EBFC       ANL     0xeb,#0xfc
   \   000069   E5EB         MOV     A,0xeb
    529                    T4CTL |= HAL_TIMER34_OPMODE_MODULO;
   \   00006B   43EB02       ORL     0xeb,#0x2
   \   00006E   8015         SJMP    ??halTimerSetOpMode_8
    530                    break;
    531                  default:
    532                    return HAL_TIMER_INVALID_ID;
   \                     ??halTimerSetOpMode_10:
   \   000070   7904         MOV     R1,#0x4
   \   000072   8013         SJMP    ??halTimerSetOpMode_9
    533                }
    534                break;
    535          
    536              case HAL_TIMER_MODE_STOP:
    537                if (hwtimerid == HW_TIMER_1)
   \                     ??halTimerSetOpMode_3:
   \   000074   EB           MOV     A,R3
   \   000075   700E         JNZ     ??halTimerSetOpMode_8
    538                {
    539                  T1CTL &= ~(HAL_TIMER1_OPMODE_BITS);
   \   000077   53E4FC       ANL     0xe4,#0xfc
   \   00007A   E5E4         MOV     A,0xe4
    540                  T1CTL |= HAL_TIMER1_OPMODE_STOP;
   \   00007C   85E4E4       MOV     0xe4,0xe4
   \   00007F   8004         SJMP    ??halTimerSetOpMode_8
    541                }
    542                break;
    543          
    544              default:
    545                return HAL_TIMER_INVALID_OP_MODE;
   \                     ??halTimerSetOpMode_0:
   \   000081   7906         MOV     R1,#0x6
   \   000083   8002         SJMP    ??halTimerSetOpMode_9
    546            }
    547            return HAL_TIMER_OK;
   \                     ??halTimerSetOpMode_8:
   \   000085   7900         MOV     R1,#0x0
   \                     ??halTimerSetOpMode_9:
   \   000087   D083         POP     DPH
   \   000089   D082         POP     DPL
   \   00008B   02....       LJMP    ?BRET
   \   00008E                REQUIRE T3CTL
   \   00008E                REQUIRE T1CTL
   \   00008E                REQUIRE T4CTL
    548          }
    549          
    550          /***************************************************************************************************
    551           * @fn      halTimerSetChannelMode
    552           *
    553           * @brief   Setup channel modes.  Currently, only output compare mode is supported.  Input capture
    554           *          mode is NOT supported.  Additionally, mapping timer channel inputs/outputs to I/O pins
    555           *          is NOT supported.
    556           *
    557           * @param   hwtimerid - ID of the timer
    558           *          channelMode - channel mode of the timer
    559           *
    560           * @return  Status - OK or Not OK
    561           ***************************************************************************************************/

   \                                 In  segment BANKED_CODE, align 1, keep-with-next
    562          uint8 halTimerSetChannelMode (uint8 hwtimerid, uint8 channelMode)
   \                     halTimerSetChannelMode:
    563          {
   \   000000   C082         PUSH    DPL
   \   000002   C083         PUSH    DPH
   \   000004                ; Saved register size: 2
   \   000004                ; Auto size: 0
   \   000004   E9           MOV     A,R1
   \   000005   FC           MOV     R4,A
    564            switch (channelMode)
   \   000006   EA           MOV     A,R2
   \   000007   12....       LCALL   ?UC_SWITCH_DENSE
   \                     `?<Jumptable for halTimerSetChannelMode>_0`:
   \   00000A   01           DB        1
   \   00000B   01           DB        1
   \   00000C   ....         DW        ??halTimerSetChannelMode_0
   \   00000E   ....         DW        ??halTimerSetChannelMode_1
   \   000010   ....         DW        ??halTimerSetChannelMode_2
    565            {
    566              case HAL_TIMER_CH_MODE_OUTPUT_COMPARE:
    567                *(halTimerChannel[hwtimerid].TxCCTL) &= ~(T134CCTL_CMP_BITS);
   \                     ??halTimerSetChannelMode_2:
   \   000012   EC           MOV     A,R4
   \   000013   F8           MOV     R0,A
   \   000014   7900         MOV     R1,#0x0
   \   000016   E8           MOV     A,R0
   \   000017   75F00A       MOV     B,#0xa
   \   00001A   A4           MUL     AB
   \   00001B   C8           XCH     A,R0
   \   00001C   ABF0         MOV     R3,B
   \   00001E   75F000       MOV     B,#0x0
   \   000021   A4           MUL     AB
   \   000022   2B           ADD     A,R3
   \   000023   FB           MOV     R3,A
   \   000024   75F00A       MOV     B,#0xa
   \   000027   E9           MOV     A,R1
   \   000028   A4           MUL     AB
   \   000029   2B           ADD     A,R3
   \   00002A   F9           MOV     R1,A
   \   00002B   E8           MOV     A,R0
   \   00002C   24..         ADD     A,#(halTimerChannel & 0xff)
   \   00002E   F582         MOV     DPL,A
   \   000030   E9           MOV     A,R1
   \   000031   34..         ADDC    A,#((halTimerChannel >> 8) & 0xff)
   \   000033   F583         MOV     DPH,A
   \   000035   E0           MOVX    A,@DPTR
   \   000036   F8           MOV     R0,A
   \   000037   A3           INC     DPTR
   \   000038   E0           MOVX    A,@DPTR
   \   000039   F583         MOV     DPH,A
   \   00003B   8882         MOV     DPL,R0
   \   00003D   E0           MOVX    A,@DPTR
   \   00003E   54C7         ANL     A,#0xc7
   \   000040   F0           MOVX    @DPTR,A
    568                *(halTimerChannel[hwtimerid].TxCCTL) |= (T134CCTL_CMP_OC | T134CCTL_MODE);
   \   000041   EC           MOV     A,R4
   \   000042   F8           MOV     R0,A
   \   000043   7900         MOV     R1,#0x0
   \   000045   E8           MOV     A,R0
   \   000046   75F00A       MOV     B,#0xa
   \   000049   A4           MUL     AB
   \   00004A   C8           XCH     A,R0
   \   00004B   ABF0         MOV     R3,B
   \   00004D   75F000       MOV     B,#0x0
   \   000050   A4           MUL     AB
   \   000051   2B           ADD     A,R3
   \   000052   FB           MOV     R3,A
   \   000053   75F00A       MOV     B,#0xa
   \   000056   E9           MOV     A,R1
   \   000057   A4           MUL     AB
   \   000058   2B           ADD     A,R3
   \   000059   F9           MOV     R1,A
   \   00005A   E8           MOV     A,R0
   \   00005B   24..         ADD     A,#(halTimerChannel & 0xff)
   \   00005D   F582         MOV     DPL,A
   \   00005F   E9           MOV     A,R1
   \   000060   34..         ADDC    A,#((halTimerChannel >> 8) & 0xff)
   \   000062   F583         MOV     DPH,A
   \   000064   E0           MOVX    A,@DPTR
   \   000065   F8           MOV     R0,A
   \   000066   A3           INC     DPTR
   \   000067   E0           MOVX    A,@DPTR
   \   000068   F583         MOV     DPH,A
   \   00006A   8882         MOV     DPL,R0
   \   00006C   E0           MOVX    A,@DPTR
   \   00006D   441C         ORL     A,#0x1c
   \   00006F   F0           MOVX    @DPTR,A
   \   000070   8004         SJMP    ??halTimerSetChannelMode_1
    569                break;
    570          
    571              case HAL_TIMER_CH_MODE_INPUT_CAPTURE:       /* Not Supported */
    572          /*
    573                *(halTimerChannel[hwtimerid].TxCCTL) &= ~(T134CCTL_CAP_BITS | T134CCTL_MODE);
    574                *(halTimerChannel[hwtimerid].TxCCTL) |= T134CCTL_CAP_RE;
    575          */
    576                break;
    577          
    578              default:
    579                return HAL_TIMER_INVALID_CH_MODE;
   \                     ??halTimerSetChannelMode_0:
   \   000072   7905         MOV     R1,#0x5
   \   000074   8002         SJMP    ??halTimerSetChannelMode_3
    580            }
    581            return HAL_TIMER_OK;
   \                     ??halTimerSetChannelMode_1:
   \   000076   7900         MOV     R1,#0x0
   \                     ??halTimerSetChannelMode_3:
   \   000078   D083         POP     DPH
   \   00007A   D082         POP     DPL
   \   00007C   02....       LJMP    ?BRET
    582          }
    583          
    584          /***************************************************************************************************
    585           * @fn      HalTimerInterruptEnable
    586           *
    587           * @brief   Setup operate modes
    588           *
    589           * @param   hwtimerid - ID of the timer
    590           *          channelMode - channel mode
    591           *          enable - TRUE or FALSE
    592           *
    593           * @return  Status - OK or Not OK
    594           ***************************************************************************************************/

   \                                 In  segment BANKED_CODE, align 1, keep-with-next
    595          uint8 HalTimerInterruptEnable (uint8 hwtimerid, uint8 channelMode, bool enable)
   \                     HalTimerInterruptEnable:
    596          {
   \   000000   74F7         MOV     A,#-0x9
   \   000002   12....       LCALL   ?BANKED_ENTER_XDATA
   \   000005                ; Saved register size: 9
   \   000005                ; Auto size: 0
   \   000005   E9           MOV     A,R1
   \   000006   FC           MOV     R4,A
    597            switch (channelMode)
   \   000007   EA           MOV     A,R2
   \   000008   12....       LCALL   ?UC_SWITCH_SPARSE
   \                     `?<Jumptable for HalTimerInterruptEnable>_0`:
   \   00000B   01           DB        1
   \   00000C   01           DB        1
   \   00000D   02           DB        2
   \   00000E   ....         DW        ??HalTimerInterruptEnable_0
   \   000010   01           DB        1
   \   000011   04           DB        4
   \   000012   ....         DW        ??HalTimerInterruptEnable_1
   \   000014   ....         DW        ??HalTimerInterruptEnable_2
    598            {
    599              case HAL_TIMER_CH_MODE_OVERFLOW:
    600          
    601                if (enable)
   \                     ??HalTimerInterruptEnable_1:
   \   000016   EB           MOV     A,R3
   \   000017   6056         JZ      ??HalTimerInterruptEnable_3
    602                {
    603                  *(halTimerChannel[hwtimerid].TxOVF) |= halTimerChannel[hwtimerid].ovfbit;
   \   000019   EC           MOV     A,R4
   \   00001A   F8           MOV     R0,A
   \   00001B   7900         MOV     R1,#0x0
   \   00001D   E8           MOV     A,R0
   \   00001E   75F00A       MOV     B,#0xa
   \   000021   A4           MUL     AB
   \   000022   C8           XCH     A,R0
   \   000023   ADF0         MOV     R5,B
   \   000025   75F000       MOV     B,#0x0
   \   000028   A4           MUL     AB
   \   000029   2D           ADD     A,R5
   \   00002A   FD           MOV     R5,A
   \   00002B   75F00A       MOV     B,#0xa
   \   00002E   E9           MOV     A,R1
   \   00002F   A4           MUL     AB
   \   000030   2D           ADD     A,R5
   \   000031   F9           MOV     R1,A
   \   000032   E8           MOV     A,R0
   \   000033   24..         ADD     A,#((halTimerChannel + 8) & 0xff)
   \   000035   F582         MOV     DPL,A
   \   000037   E9           MOV     A,R1
   \   000038   34..         ADDC    A,#(((halTimerChannel + 8) >> 8) & 0xff)
   \   00003A   F583         MOV     DPH,A
   \   00003C   E0           MOVX    A,@DPTR
   \   00003D   FE           MOV     R6,A
   \   00003E   EC           MOV     A,R4
   \   00003F   F8           MOV     R0,A
   \   000040   7900         MOV     R1,#0x0
   \   000042   E8           MOV     A,R0
   \   000043   75F00A       MOV     B,#0xa
   \   000046   A4           MUL     AB
   \   000047   C8           XCH     A,R0
   \   000048   ADF0         MOV     R5,B
   \   00004A   75F000       MOV     B,#0x0
   \   00004D   A4           MUL     AB
   \   00004E   2D           ADD     A,R5
   \   00004F   FD           MOV     R5,A
   \   000050   75F00A       MOV     B,#0xa
   \   000053   E9           MOV     A,R1
   \   000054   A4           MUL     AB
   \   000055   2D           ADD     A,R5
   \   000056   F9           MOV     R1,A
   \   000057   E8           MOV     A,R0
   \   000058   24..         ADD     A,#((halTimerChannel + 6) & 0xff)
   \   00005A   F582         MOV     DPL,A
   \   00005C   E9           MOV     A,R1
   \   00005D   34..         ADDC    A,#(((halTimerChannel + 6) >> 8) & 0xff)
   \   00005F   F583         MOV     DPH,A
   \   000061   E0           MOVX    A,@DPTR
   \   000062   F8           MOV     R0,A
   \   000063   A3           INC     DPTR
   \   000064   E0           MOVX    A,@DPTR
   \   000065   F583         MOV     DPH,A
   \   000067   8882         MOV     DPL,R0
   \   000069   E0           MOVX    A,@DPTR
   \   00006A   4E           ORL     A,R6
   \   00006B   F0           MOVX    @DPTR,A
   \   00006C   02....       LJMP    ??HalTimerInterruptEnable_4 & 0xFFFF
    604                }
    605                else
    606                {
    607                  *(halTimerChannel[hwtimerid].TxOVF) &= ~(halTimerChannel[hwtimerid].ovfbit);
   \                     ??HalTimerInterruptEnable_3:
   \   00006F   EC           MOV     A,R4
   \   000070   F8           MOV     R0,A
   \   000071   7900         MOV     R1,#0x0
   \   000073   E8           MOV     A,R0
   \   000074   75F00A       MOV     B,#0xa
   \   000077   A4           MUL     AB
   \   000078   C8           XCH     A,R0
   \   000079   ADF0         MOV     R5,B
   \   00007B   75F000       MOV     B,#0x0
   \   00007E   A4           MUL     AB
   \   00007F   2D           ADD     A,R5
   \   000080   FD           MOV     R5,A
   \   000081   75F00A       MOV     B,#0xa
   \   000084   E9           MOV     A,R1
   \   000085   A4           MUL     AB
   \   000086   2D           ADD     A,R5
   \   000087   F9           MOV     R1,A
   \   000088   E8           MOV     A,R0
   \   000089   24..         ADD     A,#((halTimerChannel + 8) & 0xff)
   \   00008B   F582         MOV     DPL,A
   \   00008D   E9           MOV     A,R1
   \   00008E   34..         ADDC    A,#(((halTimerChannel + 8) >> 8) & 0xff)
   \   000090   F583         MOV     DPH,A
   \   000092   E0           MOVX    A,@DPTR
   \   000093   F4           CPL     A
   \   000094   FE           MOV     R6,A
   \   000095   EC           MOV     A,R4
   \   000096   F8           MOV     R0,A
   \   000097   7900         MOV     R1,#0x0
   \   000099   E8           MOV     A,R0
   \   00009A   75F00A       MOV     B,#0xa
   \   00009D   A4           MUL     AB
   \   00009E   C8           XCH     A,R0
   \   00009F   ADF0         MOV     R5,B
   \   0000A1   75F000       MOV     B,#0x0
   \   0000A4   A4           MUL     AB
   \   0000A5   2D           ADD     A,R5
   \   0000A6   FD           MOV     R5,A
   \   0000A7   75F00A       MOV     B,#0xa
   \   0000AA   E9           MOV     A,R1
   \   0000AB   A4           MUL     AB
   \   0000AC   2D           ADD     A,R5
   \   0000AD   F9           MOV     R1,A
   \   0000AE   E8           MOV     A,R0
   \   0000AF   24..         ADD     A,#((halTimerChannel + 6) & 0xff)
   \   0000B1   F582         MOV     DPL,A
   \   0000B3   E9           MOV     A,R1
   \   0000B4   34..         ADDC    A,#(((halTimerChannel + 6) >> 8) & 0xff)
   \   0000B6   F583         MOV     DPH,A
   \   0000B8   E0           MOVX    A,@DPTR
   \   0000B9   F8           MOV     R0,A
   \   0000BA   A3           INC     DPTR
   \   0000BB   E0           MOVX    A,@DPTR
   \   0000BC   F583         MOV     DPH,A
   \   0000BE   8882         MOV     DPL,R0
   \   0000C0   E0           MOVX    A,@DPTR
   \   0000C1   5E           ANL     A,R6
   \   0000C2   F0           MOVX    @DPTR,A
   \   0000C3   8069         SJMP    ??HalTimerInterruptEnable_4
    608                }
    609                break;
    610          
    611              case HAL_TIMER_CH_MODE_OUTPUT_COMPARE:
    612              case HAL_TIMER_CH_MODE_INPUT_CAPTURE:
    613          
    614                if (enable)
   \                     ??HalTimerInterruptEnable_0:
   \   0000C5   EB           MOV     A,R3
   \   0000C6   6031         JZ      ??HalTimerInterruptEnable_5
    615                {
    616                  *(halTimerChannel[hwtimerid].TxCCTL) |= T134CCTL_IM;
   \   0000C8   EC           MOV     A,R4
   \   0000C9   F8           MOV     R0,A
   \   0000CA   7900         MOV     R1,#0x0
   \   0000CC   E8           MOV     A,R0
   \   0000CD   75F00A       MOV     B,#0xa
   \   0000D0   A4           MUL     AB
   \   0000D1   C8           XCH     A,R0
   \   0000D2   ADF0         MOV     R5,B
   \   0000D4   75F000       MOV     B,#0x0
   \   0000D7   A4           MUL     AB
   \   0000D8   2D           ADD     A,R5
   \   0000D9   FD           MOV     R5,A
   \   0000DA   75F00A       MOV     B,#0xa
   \   0000DD   E9           MOV     A,R1
   \   0000DE   A4           MUL     AB
   \   0000DF   2D           ADD     A,R5
   \   0000E0   F9           MOV     R1,A
   \   0000E1   E8           MOV     A,R0
   \   0000E2   24..         ADD     A,#(halTimerChannel & 0xff)
   \   0000E4   F582         MOV     DPL,A
   \   0000E6   E9           MOV     A,R1
   \   0000E7   34..         ADDC    A,#((halTimerChannel >> 8) & 0xff)
   \   0000E9   F583         MOV     DPH,A
   \   0000EB   E0           MOVX    A,@DPTR
   \   0000EC   F8           MOV     R0,A
   \   0000ED   A3           INC     DPTR
   \   0000EE   E0           MOVX    A,@DPTR
   \   0000EF   F583         MOV     DPH,A
   \   0000F1   8882         MOV     DPL,R0
   \   0000F3   E0           MOVX    A,@DPTR
   \   0000F4   D2E6         SETB    0xE0 /* A   */.6
   \   0000F6   F0           MOVX    @DPTR,A
   \   0000F7   8035         SJMP    ??HalTimerInterruptEnable_4
    617                }
    618                else
    619                {
    620                  *(halTimerChannel[hwtimerid].TxCCTL) &= ~(T134CCTL_IM);
   \                     ??HalTimerInterruptEnable_5:
   \   0000F9   EC           MOV     A,R4
   \   0000FA   F8           MOV     R0,A
   \   0000FB   7900         MOV     R1,#0x0
   \   0000FD   E8           MOV     A,R0
   \   0000FE   75F00A       MOV     B,#0xa
   \   000101   A4           MUL     AB
   \   000102   C8           XCH     A,R0
   \   000103   ADF0         MOV     R5,B
   \   000105   75F000       MOV     B,#0x0
   \   000108   A4           MUL     AB
   \   000109   2D           ADD     A,R5
   \   00010A   FD           MOV     R5,A
   \   00010B   75F00A       MOV     B,#0xa
   \   00010E   E9           MOV     A,R1
   \   00010F   A4           MUL     AB
   \   000110   2D           ADD     A,R5
   \   000111   F9           MOV     R1,A
   \   000112   E8           MOV     A,R0
   \   000113   24..         ADD     A,#(halTimerChannel & 0xff)
   \   000115   F582         MOV     DPL,A
   \   000117   E9           MOV     A,R1
   \   000118   34..         ADDC    A,#((halTimerChannel >> 8) & 0xff)
   \   00011A   F583         MOV     DPH,A
   \   00011C   E0           MOVX    A,@DPTR
   \   00011D   F8           MOV     R0,A
   \   00011E   A3           INC     DPTR
   \   00011F   E0           MOVX    A,@DPTR
   \   000120   F583         MOV     DPH,A
   \   000122   8882         MOV     DPL,R0
   \   000124   E0           MOVX    A,@DPTR
   \   000125   C2E6         CLR     0xE0 /* A   */.6
   \   000127   F0           MOVX    @DPTR,A
   \   000128   8004         SJMP    ??HalTimerInterruptEnable_4
    621                }
    622                break;
    623          
    624              default:
    625                return HAL_TIMER_INVALID_CH_MODE;
   \                     ??HalTimerInterruptEnable_2:
   \   00012A   7905         MOV     R1,#0x5
   \   00012C   807B         SJMP    ??HalTimerInterruptEnable_6
    626            }
    627          
    628            if (halTimerRecord[hwtimerid].intEnable)
   \                     ??HalTimerInterruptEnable_4:
   \   00012E   EC           MOV     A,R4
   \   00012F   F8           MOV     R0,A
   \   000130   7900         MOV     R1,#0x0
   \   000132   E8           MOV     A,R0
   \   000133   75F00A       MOV     B,#0xa
   \   000136   A4           MUL     AB
   \   000137   C8           XCH     A,R0
   \   000138   ADF0         MOV     R5,B
   \   00013A   75F000       MOV     B,#0x0
   \   00013D   A4           MUL     AB
   \   00013E   2D           ADD     A,R5
   \   00013F   FD           MOV     R5,A
   \   000140   75F00A       MOV     B,#0xa
   \   000143   E9           MOV     A,R1
   \   000144   A4           MUL     AB
   \   000145   2D           ADD     A,R5
   \   000146   F9           MOV     R1,A
   \   000147   E8           MOV     A,R0
   \   000148   24..         ADD     A,#((halTimerRecord + 1) & 0xff)
   \   00014A   F582         MOV     DPL,A
   \   00014C   E9           MOV     A,R1
   \   00014D   34..         ADDC    A,#(((halTimerRecord + 1) >> 8) & 0xff)
   \   00014F   F583         MOV     DPH,A
   \   000151   E0           MOVX    A,@DPTR
   \   000152   602A         JZ      ??HalTimerInterruptEnable_7
    629            {
    630              IEN1 |= halTimerChannel[hwtimerid].intbit;
   \   000154   EC           MOV     A,R4
   \   000155   F8           MOV     R0,A
   \   000156   7900         MOV     R1,#0x0
   \   000158   E8           MOV     A,R0
   \   000159   75F00A       MOV     B,#0xa
   \   00015C   A4           MUL     AB
   \   00015D   C8           XCH     A,R0
   \   00015E   ADF0         MOV     R5,B
   \   000160   75F000       MOV     B,#0x0
   \   000163   A4           MUL     AB
   \   000164   2D           ADD     A,R5
   \   000165   FD           MOV     R5,A
   \   000166   75F00A       MOV     B,#0xa
   \   000169   E9           MOV     A,R1
   \   00016A   A4           MUL     AB
   \   00016B   2D           ADD     A,R5
   \   00016C   F9           MOV     R1,A
   \   00016D   E8           MOV     A,R0
   \   00016E   24..         ADD     A,#((halTimerChannel + 9) & 0xff)
   \   000170   F582         MOV     DPL,A
   \   000172   E9           MOV     A,R1
   \   000173   34..         ADDC    A,#(((halTimerChannel + 9) >> 8) & 0xff)
   \   000175   F583         MOV     DPH,A
   \   000177   E0           MOVX    A,@DPTR
   \   000178   45B8         ORL     A,0xb8
   \   00017A   F5B8         MOV     0xb8,A
   \   00017C   8029         SJMP    ??HalTimerInterruptEnable_8
    631            }
    632            else
    633            {
    634              IEN1 &= ~(halTimerChannel[hwtimerid].intbit);
   \                     ??HalTimerInterruptEnable_7:
   \   00017E   EC           MOV     A,R4
   \   00017F   F8           MOV     R0,A
   \   000180   7900         MOV     R1,#0x0
   \   000182   E8           MOV     A,R0
   \   000183   75F00A       MOV     B,#0xa
   \   000186   A4           MUL     AB
   \   000187   C8           XCH     A,R0
   \   000188   ADF0         MOV     R5,B
   \   00018A   75F000       MOV     B,#0x0
   \   00018D   A4           MUL     AB
   \   00018E   2D           ADD     A,R5
   \   00018F   FD           MOV     R5,A
   \   000190   75F00A       MOV     B,#0xa
   \   000193   E9           MOV     A,R1
   \   000194   A4           MUL     AB
   \   000195   2D           ADD     A,R5
   \   000196   F9           MOV     R1,A
   \   000197   E8           MOV     A,R0
   \   000198   24..         ADD     A,#((halTimerChannel + 9) & 0xff)
   \   00019A   F582         MOV     DPL,A
   \   00019C   E9           MOV     A,R1
   \   00019D   34..         ADDC    A,#(((halTimerChannel + 9) >> 8) & 0xff)
   \   00019F   F583         MOV     DPH,A
   \   0001A1   E0           MOVX    A,@DPTR
   \   0001A2   F4           CPL     A
   \   0001A3   55B8         ANL     A,0xb8
   \   0001A5   F5B8         MOV     0xb8,A
    635            }
    636            return HAL_TIMER_OK;
   \                     ??HalTimerInterruptEnable_8:
   \   0001A7   7900         MOV     R1,#0x0
   \                     ??HalTimerInterruptEnable_6:
   \   0001A9   7F01         MOV     R7,#0x1
   \   0001AB   02....       LJMP    ?BANKED_LEAVE_XDATA
   \   0001AE                REQUIRE _A_IEN1
    637          }
    638          
    639          /***************************************************************************************************
    640           * @fn      halTimerSendCallBack
    641           *
    642           * @brief   Send Callback back to the caller
    643           *
    644           * @param   timerId - ID of the timer
    645           *          channel - channel where the interrupt occurs
    646           *          channelMode - channel mode
    647           *
    648           *
    649           * @return  None
    650           ***************************************************************************************************/

   \                                 In  segment BANKED_CODE, align 1, keep-with-next
    651          void halTimerSendCallBack (uint8 timerId, uint8 channel, uint8 channelMode)
   \                     halTimerSendCallBack:
    652          {
   \   000000   74F5         MOV     A,#-0xb
   \   000002   12....       LCALL   ?BANKED_ENTER_XDATA
   \   000005                ; Saved register size: 11
   \   000005                ; Auto size: 0
   \   000005   89..         MOV     ?V0 + 1,R1
   \   000007   8A..         MOV     ?V0 + 2,R2
   \   000009   EB           MOV     A,R3
   \   00000A   FF           MOV     R7,A
    653            uint8 hwtimerid;
    654          
    655            hwtimerid = halTimerRemap (timerId);
   \   00000B                ; Setup parameters for call to function halTimerRemap
   \   00000B   A9..         MOV     R1,?V0 + 1
   \   00000D   12....       LCALL   ??halTimerRemap?relay
   \   000010   E9           MOV     A,R1
   \   000011   F5..         MOV     ?V0 + 0,A
    656          
    657            if (halTimerRecord[hwtimerid].callBackFunc)
   \   000013   A8..         MOV     R0,?V0 + 0
   \   000015   7900         MOV     R1,#0x0
   \   000017   E8           MOV     A,R0
   \   000018   75F00A       MOV     B,#0xa
   \   00001B   A4           MUL     AB
   \   00001C   C8           XCH     A,R0
   \   00001D   AAF0         MOV     R2,B
   \   00001F   75F000       MOV     B,#0x0
   \   000022   A4           MUL     AB
   \   000023   2A           ADD     A,R2
   \   000024   FA           MOV     R2,A
   \   000025   75F00A       MOV     B,#0xa
   \   000028   E9           MOV     A,R1
   \   000029   A4           MUL     AB
   \   00002A   2A           ADD     A,R2
   \   00002B   F9           MOV     R1,A
   \   00002C   E8           MOV     A,R0
   \   00002D   24..         ADD     A,#((halTimerRecord + 8) & 0xff)
   \   00002F   F582         MOV     DPL,A
   \   000031   E9           MOV     A,R1
   \   000032   34..         ADDC    A,#(((halTimerRecord + 8) >> 8) & 0xff)
   \   000034   F583         MOV     DPH,A
   \   000036   E0           MOVX    A,@DPTR
   \   000037   6400         XRL     A,#0x0
   \   000039   7004         JNZ     ??halTimerSendCallBack_0
   \   00003B   A3           INC     DPTR
   \   00003C   E0           MOVX    A,@DPTR
   \   00003D   6400         XRL     A,#0x0
   \                     ??halTimerSendCallBack_0:
   \   00003F   6034         JZ      ??halTimerSendCallBack_1
    658              (halTimerRecord[hwtimerid].callBackFunc) (timerId, channel, channelMode);
   \   000041                ; Setup parameters for indirect call
   \   000041   EF           MOV     A,R7
   \   000042   FB           MOV     R3,A
   \   000043   AA..         MOV     R2,?V0 + 2
   \   000045   A9..         MOV     R1,?V0 + 1
   \   000047   AC..         MOV     R4,?V0 + 0
   \   000049   7D00         MOV     R5,#0x0
   \   00004B   EC           MOV     A,R4
   \   00004C   75F00A       MOV     B,#0xa
   \   00004F   A4           MUL     AB
   \   000050   CC           XCH     A,R4
   \   000051   AEF0         MOV     R6,B
   \   000053   75F000       MOV     B,#0x0
   \   000056   A4           MUL     AB
   \   000057   2E           ADD     A,R6
   \   000058   FE           MOV     R6,A
   \   000059   75F00A       MOV     B,#0xa
   \   00005C   ED           MOV     A,R5
   \   00005D   A4           MUL     AB
   \   00005E   2E           ADD     A,R6
   \   00005F   FD           MOV     R5,A
   \   000060   EC           MOV     A,R4
   \   000061   24..         ADD     A,#((halTimerRecord + 8) & 0xff)
   \   000063   F582         MOV     DPL,A
   \   000065   ED           MOV     A,R5
   \   000066   34..         ADDC    A,#(((halTimerRecord + 8) >> 8) & 0xff)
   \   000068   F583         MOV     DPH,A
   \   00006A   E0           MOVX    A,@DPTR
   \   00006B   F8           MOV     R0,A
   \   00006C   A3           INC     DPTR
   \   00006D   E0           MOVX    A,@DPTR
   \   00006E   F583         MOV     DPH,A
   \   000070   8882         MOV     DPL,R0
   \   000072   12....       LCALL   ?CALL_IND
    659          }
   \                     ??halTimerSendCallBack_1:
   \   000075   7F03         MOV     R7,#0x3
   \   000077   02....       LJMP    ?BANKED_LEAVE_XDATA
    660          
    661          /***************************************************************************************************
    662           * @fn      halTimerRemap
    663           *
    664           * @brief   Maps API HAL_TIMER_ID to HW Timer ID.
    665           *          HAL_TIMER_0 --> HW Timer 3
    666           *          HAL_TIMER_2 --> HW Timer 4
    667           *          HAL_TIMER_3 --> HW Timer 1
    668           *
    669           * @param   timerId - ID of the timer
    670           *
    671           * @return  HW timer ID
    672           ***************************************************************************************************/

   \                                 In  segment BANKED_CODE, align 1, keep-with-next
    673          uint8 halTimerRemap (uint8 timerId)
   \                     halTimerRemap:
    674          {
   \   000000   C082         PUSH    DPL
   \   000002   C083         PUSH    DPH
   \   000004                ; Saved register size: 2
   \   000004                ; Auto size: 0
   \   000004   E9           MOV     A,R1
    675            switch (timerId)
   \   000005   12....       LCALL   ?UC_SWITCH_DENSE
   \                     `?<Jumptable for halTimerRemap>_0`:
   \   000008   00           DB        0
   \   000009   03           DB        3
   \   00000A   ....         DW        ??halTimerRemap_0
   \   00000C   ....         DW        ??halTimerRemap_1
   \   00000E   ....         DW        ??halTimerRemap_0
   \   000010   ....         DW        ??halTimerRemap_2
   \   000012   ....         DW        ??halTimerRemap_3
    676            {
    677              case HAL_TIMER_0:
    678                return HW_TIMER_3;
   \                     ??halTimerRemap_1:
   \   000014   7901         MOV     R1,#0x1
   \   000016   800A         SJMP    ??halTimerRemap_4
    679              case HAL_TIMER_2:
    680                return HW_TIMER_4;
   \                     ??halTimerRemap_2:
   \   000018   7902         MOV     R1,#0x2
   \   00001A   8006         SJMP    ??halTimerRemap_4
    681              case HAL_TIMER_3:
    682                return HW_TIMER_1;
   \                     ??halTimerRemap_3:
   \   00001C   7900         MOV     R1,#0x0
   \   00001E   8002         SJMP    ??halTimerRemap_4
    683              default:
    684                return HW_TIMER_INVALID;
   \                     ??halTimerRemap_0:
   \   000020   7903         MOV     R1,#0x3
   \                     ??halTimerRemap_4:
   \   000022   D083         POP     DPH
   \   000024   D082         POP     DPL
   \   000026   02....       LJMP    ?BRET
    685            }
    686          }
    687          
    688          /***************************************************************************************************
    689           * @fn      halProcessTimer1
    690           *
    691           * @brief   Processes Timer 1 Events.
    692           *
    693           * @param
    694           *
    695           * @return
    696           ***************************************************************************************************/

   \                                 In  segment BANKED_CODE, align 1, keep-with-next
    697          void halProcessTimer1 (void)
   \                     halProcessTimer1:
    698          {
   \   000000   C082         PUSH    DPL
   \   000002   C083         PUSH    DPH
   \   000004                ; Saved register size: 2
   \   000004                ; Auto size: 0
    699            if (halTimerRecord[halTimerRemap(HAL_TIMER_3)].channelMode == HAL_TIMER_CH_MODE_OUTPUT_COMPARE)
   \   000004                ; Setup parameters for call to function halTimerRemap
   \   000004   7903         MOV     R1,#0x3
   \   000006   12....       LCALL   ??halTimerRemap?relay
   \   000009   E9           MOV     A,R1
   \   00000A   F8           MOV     R0,A
   \   00000B   7900         MOV     R1,#0x0
   \   00000D   E8           MOV     A,R0
   \   00000E   75F00A       MOV     B,#0xa
   \   000011   A4           MUL     AB
   \   000012   C8           XCH     A,R0
   \   000013   AAF0         MOV     R2,B
   \   000015   75F000       MOV     B,#0x0
   \   000018   A4           MUL     AB
   \   000019   2A           ADD     A,R2
   \   00001A   FA           MOV     R2,A
   \   00001B   75F00A       MOV     B,#0xa
   \   00001E   E9           MOV     A,R1
   \   00001F   A4           MUL     AB
   \   000020   2A           ADD     A,R2
   \   000021   F9           MOV     R1,A
   \   000022   E8           MOV     A,R0
   \   000023   24..         ADD     A,#((halTimerRecord + 4) & 0xff)
   \   000025   F582         MOV     DPL,A
   \   000027   E9           MOV     A,R1
   \   000028   34..         ADDC    A,#(((halTimerRecord + 4) >> 8) & 0xff)
   \   00002A   F583         MOV     DPH,A
   \   00002C   E0           MOVX    A,@DPTR
   \   00002D   6402         XRL     A,#0x2
   \   00002F   7038         JNZ     ??halProcessTimer1_0
    700            {
    701              if (T1CTL & T1CTL_CH0IF)
   \   000031   E5E4         MOV     A,0xe4
   \   000033   A2E5         MOV     C,0xE0 /* A   */.5
   \   000035   500C         JNC     ??halProcessTimer1_1
    702              {
    703                T1CTL &= ~(T1CTL_CH0IF);
   \   000037   53E4DF       ANL     0xe4,#0xdf
    704                halTimerSendCallBack (HAL_TIMER_3, HAL_TIMER_CHANNEL_A, HAL_TIMER_CH_MODE_OUTPUT_COMPARE);
   \   00003A                ; Setup parameters for call to function halTimerSendCallBack
   \   00003A   7B02         MOV     R3,#0x2
   \   00003C   7A02         MOV     R2,#0x2
   \   00003E   7903         MOV     R1,#0x3
   \   000040   12....       LCALL   ??halTimerSendCallBack?relay
    705              }
    706              if (T1CTL & T1CTL_CH1IF)
   \                     ??halProcessTimer1_1:
   \   000043   E5E4         MOV     A,0xe4
   \   000045   A2E6         MOV     C,0xE0 /* A   */.6
   \   000047   500C         JNC     ??halProcessTimer1_2
    707              {
    708                T1CTL &= ~(T1CTL_CH1IF);
   \   000049   53E4BF       ANL     0xe4,#0xbf
    709                halTimerSendCallBack (HAL_TIMER_3, HAL_TIMER_CHANNEL_B, HAL_TIMER_CH_MODE_OUTPUT_COMPARE);
   \   00004C                ; Setup parameters for call to function halTimerSendCallBack
   \   00004C   7B02         MOV     R3,#0x2
   \   00004E   7A04         MOV     R2,#0x4
   \   000050   7903         MOV     R1,#0x3
   \   000052   12....       LCALL   ??halTimerSendCallBack?relay
    710              }
    711              if (T1CTL & T1CTL_CH2IF)
   \                     ??halProcessTimer1_2:
   \   000055   E5E4         MOV     A,0xe4
   \   000057   A2E7         MOV     C,0xE0 /* A   */.7
   \   000059   504D         JNC     ??halProcessTimer1_3
    712              {
    713                T1CTL &= ~(T1CTL_CH2IF);
   \   00005B   53E47F       ANL     0xe4,#0x7f
    714                halTimerSendCallBack (HAL_TIMER_3, HAL_TIMER_CHANNEL_C, HAL_TIMER_CH_MODE_OUTPUT_COMPARE);
   \   00005E                ; Setup parameters for call to function halTimerSendCallBack
   \   00005E   7B02         MOV     R3,#0x2
   \   000060   7A08         MOV     R2,#0x8
   \   000062   7903         MOV     R1,#0x3
   \   000064   12....       LCALL   ??halTimerSendCallBack?relay
   \   000067   803F         SJMP    ??halProcessTimer1_3
    715              }
    716            }
    717            else if (halTimerRecord[halTimerRemap(HAL_TIMER_3)].channelMode == HAL_TIMER_CH_MODE_OVERFLOW)
   \                     ??halProcessTimer1_0:
   \   000069                ; Setup parameters for call to function halTimerRemap
   \   000069   7903         MOV     R1,#0x3
   \   00006B   12....       LCALL   ??halTimerRemap?relay
   \   00006E   E9           MOV     A,R1
   \   00006F   F8           MOV     R0,A
   \   000070   7900         MOV     R1,#0x0
   \   000072   E8           MOV     A,R0
   \   000073   75F00A       MOV     B,#0xa
   \   000076   A4           MUL     AB
   \   000077   C8           XCH     A,R0
   \   000078   AAF0         MOV     R2,B
   \   00007A   75F000       MOV     B,#0x0
   \   00007D   A4           MUL     AB
   \   00007E   2A           ADD     A,R2
   \   00007F   FA           MOV     R2,A
   \   000080   75F00A       MOV     B,#0xa
   \   000083   E9           MOV     A,R1
   \   000084   A4           MUL     AB
   \   000085   2A           ADD     A,R2
   \   000086   F9           MOV     R1,A
   \   000087   E8           MOV     A,R0
   \   000088   24..         ADD     A,#((halTimerRecord + 4) & 0xff)
   \   00008A   F582         MOV     DPL,A
   \   00008C   E9           MOV     A,R1
   \   00008D   34..         ADDC    A,#(((halTimerRecord + 4) >> 8) & 0xff)
   \   00008F   F583         MOV     DPH,A
   \   000091   E0           MOVX    A,@DPTR
   \   000092   6404         XRL     A,#0x4
   \   000094   7012         JNZ     ??halProcessTimer1_3
    718            {
    719              if (T1CTL & T1CTL_OVFIF)
   \   000096   E5E4         MOV     A,0xe4
   \   000098   A2E4         MOV     C,0xE0 /* A   */.4
   \   00009A   500C         JNC     ??halProcessTimer1_3
    720              {
    721                T1CTL &= ~(T1CTL_OVFIF);
   \   00009C   53E4EF       ANL     0xe4,#0xef
    722                halTimerSendCallBack (HAL_TIMER_3, HAL_TIMER_CHANNEL_SINGLE, HAL_TIMER_CH_MODE_OVERFLOW);
   \   00009F                ; Setup parameters for call to function halTimerSendCallBack
   \   00009F   7B04         MOV     R3,#0x4
   \   0000A1   7A01         MOV     R2,#0x1
   \   0000A3   7903         MOV     R1,#0x3
   \   0000A5   12....       LCALL   ??halTimerSendCallBack?relay
    723              }
    724            }
    725          }
   \                     ??halProcessTimer1_3:
   \   0000A8   D083         POP     DPH
   \   0000AA   D082         POP     DPL
   \   0000AC   02....       LJMP    ?BRET
   \   0000AF                REQUIRE T1CTL
    726          
    727          /***************************************************************************************************
    728           * @fn      halProcessTimer3
    729           *
    730           * @brief   Processes Timer 3 Events.
    731           *
    732           * @param
    733           *
    734           * @return
    735           ***************************************************************************************************/

   \                                 In  segment BANKED_CODE, align 1, keep-with-next
    736          void halProcessTimer3 (void)
   \                     halProcessTimer3:
    737          {
   \   000000   C082         PUSH    DPL
   \   000002   C083         PUSH    DPH
   \   000004                ; Saved register size: 2
   \   000004                ; Auto size: 0
    738            if (halTimerRecord[halTimerRemap(HAL_TIMER_0)].channelMode == HAL_TIMER_CH_MODE_OUTPUT_COMPARE)
   \   000004                ; Setup parameters for call to function halTimerRemap
   \   000004   7900         MOV     R1,#0x0
   \   000006   12....       LCALL   ??halTimerRemap?relay
   \   000009   E9           MOV     A,R1
   \   00000A   F8           MOV     R0,A
   \   00000B   7900         MOV     R1,#0x0
   \   00000D   E8           MOV     A,R0
   \   00000E   75F00A       MOV     B,#0xa
   \   000011   A4           MUL     AB
   \   000012   C8           XCH     A,R0
   \   000013   AAF0         MOV     R2,B
   \   000015   75F000       MOV     B,#0x0
   \   000018   A4           MUL     AB
   \   000019   2A           ADD     A,R2
   \   00001A   FA           MOV     R2,A
   \   00001B   75F00A       MOV     B,#0xa
   \   00001E   E9           MOV     A,R1
   \   00001F   A4           MUL     AB
   \   000020   2A           ADD     A,R2
   \   000021   F9           MOV     R1,A
   \   000022   E8           MOV     A,R0
   \   000023   24..         ADD     A,#((halTimerRecord + 4) & 0xff)
   \   000025   F582         MOV     DPL,A
   \   000027   E9           MOV     A,R1
   \   000028   34..         ADDC    A,#(((halTimerRecord + 4) >> 8) & 0xff)
   \   00002A   F583         MOV     DPH,A
   \   00002C   E0           MOVX    A,@DPTR
   \   00002D   6402         XRL     A,#0x2
   \   00002F   7020         JNZ     ??halProcessTimer3_0
    739            {
    740              if (TIMIF & TIMIF_T3CH0IF)
   \   000031   A2D9         MOV     C,0xd8.1
   \   000033   500B         JNC     ??halProcessTimer3_1
    741              {
    742                TIMIF &= ~(TIMIF_T3CH0IF);
   \   000035   C2D9         CLR     0xd8.1
    743                halTimerSendCallBack (HAL_TIMER_0, HAL_TIMER_CHANNEL_A, HAL_TIMER_CH_MODE_OUTPUT_COMPARE);
   \   000037                ; Setup parameters for call to function halTimerSendCallBack
   \   000037   7B02         MOV     R3,#0x2
   \   000039   7A02         MOV     R2,#0x2
   \   00003B   7900         MOV     R1,#0x0
   \   00003D   12....       LCALL   ??halTimerSendCallBack?relay
    744              }
    745              if (TIMIF & TIMIF_T3CH1IF)
   \                     ??halProcessTimer3_1:
   \   000040   A2DA         MOV     C,0xd8.2
   \   000042   5049         JNC     ??halProcessTimer3_2
    746              {
    747                TIMIF &= ~(TIMIF_T3CH1IF);
   \   000044   C2DA         CLR     0xd8.2
    748                halTimerSendCallBack (HAL_TIMER_0, HAL_TIMER_CHANNEL_B, HAL_TIMER_CH_MODE_OUTPUT_COMPARE);
   \   000046                ; Setup parameters for call to function halTimerSendCallBack
   \   000046   7B02         MOV     R3,#0x2
   \   000048   7A04         MOV     R2,#0x4
   \   00004A   7900         MOV     R1,#0x0
   \   00004C   12....       LCALL   ??halTimerSendCallBack?relay
   \   00004F   803C         SJMP    ??halProcessTimer3_2
    749              }
    750            }
    751            else if (halTimerRecord[halTimerRemap(HAL_TIMER_0)].channelMode == HAL_TIMER_CH_MODE_OVERFLOW)
   \                     ??halProcessTimer3_0:
   \   000051                ; Setup parameters for call to function halTimerRemap
   \   000051   7900         MOV     R1,#0x0
   \   000053   12....       LCALL   ??halTimerRemap?relay
   \   000056   E9           MOV     A,R1
   \   000057   F8           MOV     R0,A
   \   000058   7900         MOV     R1,#0x0
   \   00005A   E8           MOV     A,R0
   \   00005B   75F00A       MOV     B,#0xa
   \   00005E   A4           MUL     AB
   \   00005F   C8           XCH     A,R0
   \   000060   AAF0         MOV     R2,B
   \   000062   75F000       MOV     B,#0x0
   \   000065   A4           MUL     AB
   \   000066   2A           ADD     A,R2
   \   000067   FA           MOV     R2,A
   \   000068   75F00A       MOV     B,#0xa
   \   00006B   E9           MOV     A,R1
   \   00006C   A4           MUL     AB
   \   00006D   2A           ADD     A,R2
   \   00006E   F9           MOV     R1,A
   \   00006F   E8           MOV     A,R0
   \   000070   24..         ADD     A,#((halTimerRecord + 4) & 0xff)
   \   000072   F582         MOV     DPL,A
   \   000074   E9           MOV     A,R1
   \   000075   34..         ADDC    A,#(((halTimerRecord + 4) >> 8) & 0xff)
   \   000077   F583         MOV     DPH,A
   \   000079   E0           MOVX    A,@DPTR
   \   00007A   6404         XRL     A,#0x4
   \   00007C   700F         JNZ     ??halProcessTimer3_2
    752            {
    753              if (TIMIF & TIMIF_T3OVFIF)
   \   00007E   A2D8         MOV     C,0xd8.0
   \   000080   500B         JNC     ??halProcessTimer3_2
    754              {
    755                TIMIF &= ~(TIMIF_T3OVFIF);
   \   000082   C2D8         CLR     0xd8.0
    756                halTimerSendCallBack (HAL_TIMER_0, HAL_TIMER_CHANNEL_SINGLE, HAL_TIMER_CH_MODE_OVERFLOW);
   \   000084                ; Setup parameters for call to function halTimerSendCallBack
   \   000084   7B04         MOV     R3,#0x4
   \   000086   7A01         MOV     R2,#0x1
   \   000088   7900         MOV     R1,#0x0
   \   00008A   12....       LCALL   ??halTimerSendCallBack?relay
    757              }
    758            }
    759          }
   \                     ??halProcessTimer3_2:
   \   00008D   D083         POP     DPH
   \   00008F   D082         POP     DPL
   \   000091   02....       LJMP    ?BRET
   \   000094                REQUIRE _A_TIMIF
    760          
    761          /***************************************************************************************************
    762           * @fn      halProcessTimer4
    763           *
    764           * @brief   Processes Timer 4 Events.
    765           *
    766           * @param
    767           *
    768           * @return
    769           ***************************************************************************************************/

   \                                 In  segment BANKED_CODE, align 1, keep-with-next
    770          void halProcessTimer4 (void)
   \                     halProcessTimer4:
    771          {
   \   000000   C082         PUSH    DPL
   \   000002   C083         PUSH    DPH
   \   000004                ; Saved register size: 2
   \   000004                ; Auto size: 0
    772            if (halTimerRecord[halTimerRemap(HAL_TIMER_2)].channelMode == HAL_TIMER_CH_MODE_OUTPUT_COMPARE)
   \   000004                ; Setup parameters for call to function halTimerRemap
   \   000004   7902         MOV     R1,#0x2
   \   000006   12....       LCALL   ??halTimerRemap?relay
   \   000009   E9           MOV     A,R1
   \   00000A   F8           MOV     R0,A
   \   00000B   7900         MOV     R1,#0x0
   \   00000D   E8           MOV     A,R0
   \   00000E   75F00A       MOV     B,#0xa
   \   000011   A4           MUL     AB
   \   000012   C8           XCH     A,R0
   \   000013   AAF0         MOV     R2,B
   \   000015   75F000       MOV     B,#0x0
   \   000018   A4           MUL     AB
   \   000019   2A           ADD     A,R2
   \   00001A   FA           MOV     R2,A
   \   00001B   75F00A       MOV     B,#0xa
   \   00001E   E9           MOV     A,R1
   \   00001F   A4           MUL     AB
   \   000020   2A           ADD     A,R2
   \   000021   F9           MOV     R1,A
   \   000022   E8           MOV     A,R0
   \   000023   24..         ADD     A,#((halTimerRecord + 4) & 0xff)
   \   000025   F582         MOV     DPL,A
   \   000027   E9           MOV     A,R1
   \   000028   34..         ADDC    A,#(((halTimerRecord + 4) >> 8) & 0xff)
   \   00002A   F583         MOV     DPH,A
   \   00002C   E0           MOVX    A,@DPTR
   \   00002D   6402         XRL     A,#0x2
   \   00002F   7020         JNZ     ??halProcessTimer4_0
    773            {
    774              if (TIMIF & TIMIF_T4CH0IF)
   \   000031   A2DC         MOV     C,0xd8.4
   \   000033   500B         JNC     ??halProcessTimer4_1
    775              {
    776                TIMIF &= ~(TIMIF_T4CH0IF);
   \   000035   C2DC         CLR     0xd8.4
    777                halTimerSendCallBack (HAL_TIMER_2, HAL_TIMER_CHANNEL_A, HAL_TIMER_CH_MODE_OUTPUT_COMPARE);
   \   000037                ; Setup parameters for call to function halTimerSendCallBack
   \   000037   7B02         MOV     R3,#0x2
   \   000039   7A02         MOV     R2,#0x2
   \   00003B   7902         MOV     R1,#0x2
   \   00003D   12....       LCALL   ??halTimerSendCallBack?relay
    778              }
    779              if (TIMIF & TIMIF_T4CH1IF)
   \                     ??halProcessTimer4_1:
   \   000040   A2DD         MOV     C,0xd8.5
   \   000042   5049         JNC     ??halProcessTimer4_2
    780              {
    781                TIMIF &= ~(TIMIF_T4CH1IF);
   \   000044   C2DD         CLR     0xd8.5
    782                halTimerSendCallBack (HAL_TIMER_2, HAL_TIMER_CHANNEL_B, HAL_TIMER_CH_MODE_OUTPUT_COMPARE);
   \   000046                ; Setup parameters for call to function halTimerSendCallBack
   \   000046   7B02         MOV     R3,#0x2
   \   000048   7A04         MOV     R2,#0x4
   \   00004A   7902         MOV     R1,#0x2
   \   00004C   12....       LCALL   ??halTimerSendCallBack?relay
   \   00004F   803C         SJMP    ??halProcessTimer4_2
    783              }
    784            }
    785            else if (halTimerRecord[halTimerRemap(HAL_TIMER_2)].channelMode == HAL_TIMER_CH_MODE_OVERFLOW)
   \                     ??halProcessTimer4_0:
   \   000051                ; Setup parameters for call to function halTimerRemap
   \   000051   7902         MOV     R1,#0x2
   \   000053   12....       LCALL   ??halTimerRemap?relay
   \   000056   E9           MOV     A,R1
   \   000057   F8           MOV     R0,A
   \   000058   7900         MOV     R1,#0x0
   \   00005A   E8           MOV     A,R0
   \   00005B   75F00A       MOV     B,#0xa
   \   00005E   A4           MUL     AB
   \   00005F   C8           XCH     A,R0
   \   000060   AAF0         MOV     R2,B
   \   000062   75F000       MOV     B,#0x0
   \   000065   A4           MUL     AB
   \   000066   2A           ADD     A,R2
   \   000067   FA           MOV     R2,A
   \   000068   75F00A       MOV     B,#0xa
   \   00006B   E9           MOV     A,R1
   \   00006C   A4           MUL     AB
   \   00006D   2A           ADD     A,R2
   \   00006E   F9           MOV     R1,A
   \   00006F   E8           MOV     A,R0
   \   000070   24..         ADD     A,#((halTimerRecord + 4) & 0xff)
   \   000072   F582         MOV     DPL,A
   \   000074   E9           MOV     A,R1
   \   000075   34..         ADDC    A,#(((halTimerRecord + 4) >> 8) & 0xff)
   \   000077   F583         MOV     DPH,A
   \   000079   E0           MOVX    A,@DPTR
   \   00007A   6404         XRL     A,#0x4
   \   00007C   700F         JNZ     ??halProcessTimer4_2
    786            if (TIMIF & TIMIF_T4OVFIF)
   \   00007E   A2DB         MOV     C,0xd8.3
   \   000080   500B         JNC     ??halProcessTimer4_2
    787            {
    788              TIMIF &= ~(TIMIF_T4OVFIF);
   \   000082   C2DB         CLR     0xd8.3
    789              halTimerSendCallBack (HAL_TIMER_2, HAL_TIMER_CHANNEL_SINGLE, HAL_TIMER_CH_MODE_OVERFLOW);
   \   000084                ; Setup parameters for call to function halTimerSendCallBack
   \   000084   7B04         MOV     R3,#0x4
   \   000086   7A01         MOV     R2,#0x1
   \   000088   7902         MOV     R1,#0x2
   \   00008A   12....       LCALL   ??halTimerSendCallBack?relay
    790            }
    791          }
   \                     ??halProcessTimer4_2:
   \   00008D   D083         POP     DPH
   \   00008F   D082         POP     DPL
   \   000091   02....       LJMP    ?BRET
   \   000094                REQUIRE _A_TIMIF
    792          
    793          /***************************************************************************************************
    794           *                                    INTERRUPT SERVICE ROUTINE
    795           ***************************************************************************************************/
    796          
    797          /**************************************************************************************************
    798           * @fn      halTimer1Isr
    799           *
    800           * @brief   Timer 1 ISR
    801           *
    802           * @param
    803           *
    804           * @return
    805           **************************************************************************************************/

   \                                 In  segment NEAR_CODE, align 1, keep-with-next
    806          HAL_ISR_FUNCTION( halTimer1Isr, T1_VECTOR )
   \                     halTimer1Isr:
    807          {
   \   000000   C0E0         PUSH    A
   \   000002   74F2         MOV     A,#-0xe
   \   000004   12....       LCALL   ?INTERRUPT_ENTER_XSP
   \   000007                ; Saved register size: 15
   \   000007                ; Auto size: 0
    808            halProcessTimer1 ();
   \   000007                ; Setup parameters for call to function halProcessTimer1
   \   000007   12....       LCALL   ??halProcessTimer1?relay
    809          }
   \   00000A   7F01         MOV     R7,#0x1
   \   00000C   02....       LJMP    ?INTERRUPT_LEAVE_XSP
    810          
    811          /**************************************************************************************************
    812           * @fn      halTimer3Isr
    813           *
    814           * @brief   Timer 3 ISR
    815           *
    816           * @param
    817           *
    818           * @return
    819           **************************************************************************************************/

   \                                 In  segment NEAR_CODE, align 1, keep-with-next
    820          HAL_ISR_FUNCTION( halTimer3Isr, T3_VECTOR )
   \                     halTimer3Isr:
    821          {
   \   000000   C0E0         PUSH    A
   \   000002   74F2         MOV     A,#-0xe
   \   000004   12....       LCALL   ?INTERRUPT_ENTER_XSP
   \   000007                ; Saved register size: 15
   \   000007                ; Auto size: 0
    822            halProcessTimer3 ();
   \   000007                ; Setup parameters for call to function halProcessTimer3
   \   000007   12....       LCALL   ??halProcessTimer3?relay
    823          }
   \   00000A   7F01         MOV     R7,#0x1
   \   00000C   02....       LJMP    ?INTERRUPT_LEAVE_XSP
    824          
    825          /**************************************************************************************************
    826           * @fn      halTimer4Isr
    827           *
    828           * @brief   Timer 4 ISR
    829           *
    830           * @param
    831           *
    832           * @return
    833           **************************************************************************************************/

   \                                 In  segment NEAR_CODE, align 1, keep-with-next
    834          HAL_ISR_FUNCTION( halTimer4Isr, T4_VECTOR )
   \                     halTimer4Isr:
    835          {
   \   000000   C0E0         PUSH    A
   \   000002   74F2         MOV     A,#-0xe
   \   000004   12....       LCALL   ?INTERRUPT_ENTER_XSP
   \   000007                ; Saved register size: 15
   \   000007                ; Auto size: 0
    836            halProcessTimer4 ();
   \   000007                ; Setup parameters for call to function halProcessTimer4
   \   000007   12....       LCALL   ??halProcessTimer4?relay
    837          }
   \   00000A   7F01         MOV     R7,#0x1
   \   00000C   02....       LJMP    ?INTERRUPT_LEAVE_XSP

   \                                 In  segment INTVEC, offset 0x4b, root
   \                     `??halTimer1Isr??INTVEC 75`:
   \   00004B   02....       LJMP       (halTimer1Isr)

   \                                 In  segment INTVEC, offset 0x5b, root
   \                     `??halTimer3Isr??INTVEC 91`:
   \   00005B   02....       LJMP       (halTimer3Isr)

   \                                 In  segment INTVEC, offset 0x63, root
   \                     `??halTimer4Isr??INTVEC 99`:
   \   000063   02....       LJMP       (halTimer4Isr)

   \                                 In  segment BANK_RELAYS, align 1
   \                     ??HalTimerInit?relay:
   \   000000   12....       LCALL   ?BDISPATCH
   \   000003   ......       DC24    HalTimerInit

   \                                 In  segment BANK_RELAYS, align 1
   \                     ??HalTimerConfig?relay:
   \   000000   12....       LCALL   ?BDISPATCH
   \   000003   ......       DC24    HalTimerConfig

   \                                 In  segment BANK_RELAYS, align 1
   \                     ??HalTimerStart?relay:
   \   000000   12....       LCALL   ?BDISPATCH
   \   000003   ......       DC24    HalTimerStart

   \                                 In  segment BANK_RELAYS, align 1
   \                     ??HalTimerTick?relay:
   \   000000   12....       LCALL   ?BDISPATCH
   \   000003   ......       DC24    HalTimerTick

   \                                 In  segment BANK_RELAYS, align 1
   \                     ??HalTimerStop?relay:
   \   000000   12....       LCALL   ?BDISPATCH
   \   000003   ......       DC24    HalTimerStop

   \                                 In  segment BANK_RELAYS, align 1
   \                     ??halTimerSetCount?relay:
   \   000000   12....       LCALL   ?BDISPATCH
   \   000003   ......       DC24    halTimerSetCount

   \                                 In  segment BANK_RELAYS, align 1
   \                     ??halTimerSetPrescale?relay:
   \   000000   12....       LCALL   ?BDISPATCH
   \   000003   ......       DC24    halTimerSetPrescale

   \                                 In  segment BANK_RELAYS, align 1
   \                     ??halTimerSetOpMode?relay:
   \   000000   12....       LCALL   ?BDISPATCH
   \   000003   ......       DC24    halTimerSetOpMode

   \                                 In  segment BANK_RELAYS, align 1
   \                     ??halTimerSetChannelMode?relay:
   \   000000   12....       LCALL   ?BDISPATCH
   \   000003   ......       DC24    halTimerSetChannelMode

   \                                 In  segment BANK_RELAYS, align 1
   \                     ??HalTimerInterruptEnable?relay:
   \   000000   12....       LCALL   ?BDISPATCH
   \   000003   ......       DC24    HalTimerInterruptEnable

   \                                 In  segment BANK_RELAYS, align 1
   \                     ??halTimerSendCallBack?relay:
   \   000000   12....       LCALL   ?BDISPATCH
   \   000003   ......       DC24    halTimerSendCallBack

   \                                 In  segment BANK_RELAYS, align 1
   \                     ??halTimerRemap?relay:
   \   000000   12....       LCALL   ?BDISPATCH
   \   000003   ......       DC24    halTimerRemap

   \                                 In  segment BANK_RELAYS, align 1
   \                     ??halProcessTimer1?relay:
   \   000000   12....       LCALL   ?BDISPATCH
   \   000003   ......       DC24    halProcessTimer1

   \                                 In  segment BANK_RELAYS, align 1
   \                     ??halProcessTimer3?relay:
   \   000000   12....       LCALL   ?BDISPATCH
   \   000003   ......       DC24    halProcessTimer3

   \                                 In  segment BANK_RELAYS, align 1
   \                     ??halProcessTimer4?relay:
   \   000000   12....       LCALL   ?BDISPATCH
   \   000003   ......       DC24    halProcessTimer4
    838          
    839          /***************************************************************************************************
    840          ***************************************************************************************************/
    841          

   Maximum stack usage in bytes:

     Function                     ISTACK PSTACK XSTACK
     --------                     ------ ------ ------
     HalTimerConfig                   1      0     16
       -> halTimerRemap               0      0     28
     HalTimerInit                     2      0      0
     HalTimerInterruptEnable          0      0     21
     HalTimerStart                    0      0     12
       -> halTimerRemap               0      0     24
       -> halTimerSetCount            0      0     24
       -> halTimerSetPrescale         0      0     24
       -> halTimerSetOpMode           0      0     24
       -> halTimerSetChannelMode      0      0     24
       -> HalTimerInterruptEnable     0      0     24
     HalTimerStop                     0      0      9
       -> halTimerRemap               0      0     18
       -> halTimerSetOpMode           0      0     18
     HalTimerTick                     2      0      0
       -> halProcessTimer1            4      0      0
       -> halProcessTimer3            4      0      0
       -> halProcessTimer4            4      0      0
     halProcessTimer1                 2      0      0
       -> halTimerRemap               4      0      0
       -> halTimerSendCallBack        4      0      0
       -> halTimerSendCallBack        4      0      0
       -> halTimerSendCallBack        4      0      0
       -> halTimerRemap               4      0      0
       -> halTimerSendCallBack        4      0      0
     halProcessTimer3                 2      0      0
       -> halTimerRemap               4      0      0
       -> halTimerSendCallBack        4      0      0
       -> halTimerSendCallBack        4      0      0
       -> halTimerRemap               4      0      0
       -> halTimerSendCallBack        4      0      0
     halProcessTimer4                 2      0      0
       -> halTimerRemap               4      0      0
       -> halTimerSendCallBack        4      0      0
       -> halTimerSendCallBack        4      0      0
       -> halTimerRemap               4      0      0
       -> halTimerSendCallBack        4      0      0
     halTimer1Isr                    15      0      0
       -> halProcessTimer1           30      0      0
     halTimer3Isr                    15      0      0
       -> halProcessTimer3           30      0      0
     halTimer4Isr                    15      0      0
       -> halProcessTimer4           30      0      0
     halTimerRemap                    2      0     14
     halTimerSendCallBack             0      0     11
       -> halTimerRemap               0      0     22
     halTimerSetChannelMode           2      0     12
     halTimerSetCount                 1      0     32
     halTimerSetOpMode                2      0     12
     halTimerSetPrescale              2      0     12


   Segment part sizes:

     Function/Label                 Bytes
     --------------                 -----
     _A_IEN1                           1
     T3CTL                             1
     T3CCTL0                           1
     T3CCTL1                           1
     _A_TIMIF                          1
     T1CTL                             1
     T1CCTL0                           1
     T1CCTL1                           1
     T1CCTL2                           1
     T4CTL                             1
     T4CCTL0                           1
     T4CCTL1                           1
     halTimerRecord                   30
     halTimerChannel                  30
     HalTimerInit                    242
     HalTimerConfig                  319
     HalTimerStart                   306
     HalTimerTick                     38
     HalTimerStop                     54
     halTimerSetCount                255
     halTimerSetPrescale              67
     halTimerSetOpMode               142
     halTimerSetChannelMode          127
     HalTimerInterruptEnable         430
     halTimerSendCallBack            122
     halTimerRemap                    41
     halProcessTimer1                175
     halProcessTimer3                148
     halProcessTimer4                148
     halTimer1Isr                     15
     halTimer3Isr                     15
     halTimer4Isr                     15
     ??halTimer1Isr??INTVEC 75         3
     ??halTimer3Isr??INTVEC 91         3
     ??halTimer4Isr??INTVEC 99         3
     ??HalTimerInit?relay              6
     ??HalTimerConfig?relay            6
     ??HalTimerStart?relay             6
     ??HalTimerTick?relay              6
     ??HalTimerStop?relay              6
     ??halTimerSetCount?relay          6
     ??halTimerSetPrescale?relay       6
     ??halTimerSetOpMode?relay         6
     ??halTimerSetChannelMode?relay    6
     ??HalTimerInterruptEnable?relay
                                       6
     ??halTimerSendCallBack?relay      6
     ??halTimerRemap?relay             6
     ??halProcessTimer1?relay          6
     ??halProcessTimer3?relay          6
     ??halProcessTimer4?relay          6

 
 2 614 bytes in segment BANKED_CODE
    90 bytes in segment BANK_RELAYS
     9 bytes in segment INTVEC
    45 bytes in segment NEAR_CODE
    12 bytes in segment SFR_AN
    60 bytes in segment XDATA_Z
 
 2 749 bytes of CODE  memory (+  9 bytes shared)
     0 bytes of DATA  memory (+ 12 bytes shared)
    60 bytes of XDATA memory

Errors: none
Warnings: none
