///////////////////////////////////////////////////////////////////////////////
//                                                                            /
// IAR 8051 C/C++ Compiler V7.30B/W32                   20/Dec/2012  21:41:06 /
// Copyright 2004-2007 IAR Systems. All rights reserved.                      /
//                                                                            /
//    Core               =  plain                                             /
//    Code model         =  banked                                            /
//    Data model         =  large                                             /
//    Calling convention =  xdata reentrant                                   /
//    Constant location  =  data                                              /
//    Dptr setup         =  1,16                                              /
//    Source file        =  C:\Texas Instruments\ZStack-1.4.3-1.2.1\Component /
//                          s\hal\target\CC2430DB\hal_lcd.c                   /
//    Command line       =  -f "C:\Texas Instruments\ZStack-1.4.3-1.2.1\Proje /
//                          cts\zstack\Samples\AXDApp\CC2430DB\..\..\..\Tools /
//                          \CC2430DB\f8wEndev.cfg" (-DCPU32MHZ               /
//                          -DFORCE_MAC_NEAR -DROOT=__near_func               /
//                          -DMAC_OPT_FFD=0 -DBLINK_LEDS "-DCONST=const       /
//                          __code" -DGENERIC=__generic) -f "C:\Texas         /
//                          Instruments\ZStack-1.4.3-1.2.1\Projects\zstack\Sa /
//                          mples\AXDApp\CC2430DB\..\..\..\Tools\CC2430DB\f8w /
//                          Config.cfg" (-DSECURE=0                           /
//                          -DDEFAULT_CHANLIST=0x00000800                     /
//                          -DZDAPP_CONFIG_PAN_ID=0xFFFF                      /
//                          -DNWK_START_DELAY=100 -DEXTENDED_JOINING_RANDOM_M /
//                          ASK=0x007F -DBEACON_REQUEST_DELAY=100             /
//                          -DBEACON_REQ_DELAY_MASK=0x00FF                    /
//                          -DROUTE_EXPIRY_TIME=30 -DAPSC_ACK_WAIT_DURATION_P /
//                          OLLED=3000 -DNWK_INDIRECT_MSG_TIMEOUT=7           /
//                          -DMAX_RREQ_ENTRIES=10 -DAPSC_MAX_FRAME_RETRIES=3  /
//                          -DNWK_MAX_DATA_RETRIES=2                          /
//                          -DMAX_POLL_FAILURE_RETRIES=2 -DMAX_BCAST=9        /
//                          -DAPS_MAX_GROUPS=16 -DMAX_RTG_ENTRIES=20          /
//                          -DNWK_MAX_BINDING_ENTRIES=10                      /
//                          -DMAX_BINDING_CLUSTER_IDS=5                       /
//                          "-DDEFAULT_KEY={0x01, 0x03, 0x05, 0x07, 0x09,     /
//                          0x0B, 0x0D, 0x0F, 0x00, 0x02, 0x04, 0x06, 0x08,   /
//                          0x0A, 0x0C, 0x0D}" -DRFD_RCVC_ALWAYS_ON=FALSE     /
//                          -DPOLL_RATE=1000 -DQUEUED_POLL_RATE=100           /
//                          -DRESPONSE_POLL_RATE=100) -DREJOIN_POLL_RATE=440  /
//                          "C:\Texas Instruments\ZStack-1.4.3-1.2.1\Componen /
//                          ts\hal\target\CC2430DB\hal_lcd.c" -D CC2430DB -D  /
//                          NWK_AUTO_POLL -D REFLECTOR -D xZTOOL_P2 -D        /
//                          xMT_TASK -D xMT_ZDO_FUNC -D xLCD_SUPPORTED=DEBUG  /
//                          -D xPOWER_SAVING -lC "C:\Texas                    /
//                          Instruments\ZStack-1.4.3-1.2.1\Projects\zstack\Sa /
//                          mples\AXDApp\CC2430DB\EndDeviceDB\List\" -lA      /
//                          "C:\Texas Instruments\ZStack-1.4.3-1.2.1\Projects /
//                          \zstack\Samples\AXDApp\CC2430DB\EndDeviceDB\List\ /
//                          " --diag_suppress Pe001,Pa010 --diag_remark       /
//                          pe550 -o "C:\Texas Instruments\ZStack-1.4.3-1.2.1 /
//                          \Projects\zstack\Samples\AXDApp\CC2430DB\EndDevic /
//                          eDB\Obj\" -e --require_prototypes -z9             /
//                          --no_code_motion --debug --core=plain             /
//                          --dptr=16,1 --data_model=large                    /
//                          --code_model=banked --calling_convention=xdata_re /
//                          entrant --place_constants=data --nr_virtual_regs  /
//                          8 -I "C:\Texas Instruments\ZStack-1.4.3-1.2.1\Pro /
//                          jects\zstack\Samples\AXDApp\CC2430DB\" -I         /
//                          "C:\Texas Instruments\ZStack-1.4.3-1.2.1\Projects /
//                          \zstack\Samples\AXDApp\CC2430DB\..\SOURCE\" -I    /
//                          "C:\Texas Instruments\ZStack-1.4.3-1.2.1\Projects /
//                          \zstack\Samples\AXDApp\CC2430DB\..\Drivers\" -I   /
//                          "C:\Texas Instruments\ZStack-1.4.3-1.2.1\Projects /
//                          \zstack\Samples\AXDApp\CC2430DB\..\..\..\ZMAIN\TI /
//                          2430DB\" -I "C:\Texas Instruments\ZStack-1.4.3-1. /
//                          2.1\Projects\zstack\Samples\AXDApp\CC2430DB\..\.. /
//                          \..\..\..\COMPONENTS\MT\" -I "C:\Texas            /
//                          Instruments\ZStack-1.4.3-1.2.1\Projects\zstack\Sa /
//                          mples\AXDApp\CC2430DB\..\..\..\..\..\COMPONENTS\H /
//                          AL\INCLUDE\" -I "C:\Texas                         /
//                          Instruments\ZStack-1.4.3-1.2.1\Projects\zstack\Sa /
//                          mples\AXDApp\CC2430DB\..\..\..\..\..\COMPONENTS\H /
//                          AL\TARGET\CC2430DB\" -I "C:\Texas                 /
//                          Instruments\ZStack-1.4.3-1.2.1\Projects\zstack\Sa /
//                          mples\AXDApp\CC2430DB\..\..\..\..\..\COMPONENTS\O /
//                          SAL\MCU\CCSOC\" -I "C:\Texas                      /
//                          Instruments\ZStack-1.4.3-1.2.1\Projects\zstack\Sa /
//                          mples\AXDApp\CC2430DB\..\..\..\..\..\COMPONENTS\O /
//                          SAL\INCLUDE\" -I "C:\Texas                        /
//                          Instruments\ZStack-1.4.3-1.2.1\Projects\zstack\Sa /
//                          mples\AXDApp\CC2430DB\..\..\..\..\..\COMPONENTS\S /
//                          TACK\AF\" -I "C:\Texas Instruments\ZStack-1.4.3-1 /
//                          .2.1\Projects\zstack\Samples\AXDApp\CC2430DB\..\. /
//                          .\..\..\..\COMPONENTS\STACK\NWK\" -I "C:\Texas    /
//                          Instruments\ZStack-1.4.3-1.2.1\Projects\zstack\Sa /
//                          mples\AXDApp\CC2430DB\..\..\..\..\..\COMPONENTS\S /
//                          TACK\SEC\" -I "C:\Texas                           /
//                          Instruments\ZStack-1.4.3-1.2.1\Projects\zstack\Sa /
//                          mples\AXDApp\CC2430DB\..\..\..\..\..\COMPONENTS\S /
//                          TACK\SYS\" -I "C:\Texas                           /
//                          Instruments\ZStack-1.4.3-1.2.1\Projects\zstack\Sa /
//                          mples\AXDApp\CC2430DB\..\..\..\..\..\COMPONENTS\S /
//                          TACK\ZDO\" -I "C:\Texas                           /
//                          Instruments\ZStack-1.4.3-1.2.1\Projects\zstack\Sa /
//                          mples\AXDApp\CC2430DB\..\..\..\..\..\COMPONENTS\Z /
//                          MAC\F8W\" -I "C:\Texas Instruments\ZStack-1.4.3-1 /
//                          .2.1\Projects\zstack\Samples\AXDApp\CC2430DB\..\. /
//                          .\..\..\..\COMPONENTS\ZMAC\" -I "C:\Texas         /
//                          Instruments\ZStack-1.4.3-1.2.1\Projects\zstack\Sa /
//                          mples\AXDApp\CC2430DB\..\..\..\..\..\COMPONENTS\S /
//                          ERVICES\SADDR\" -I "C:\Texas                      /
//                          Instruments\ZStack-1.4.3-1.2.1\Projects\zstack\Sa /
//                          mples\AXDApp\CC2430DB\..\..\..\..\..\COMPONENTS\S /
//                          ERVICES\SDATA\" -I "C:\Texas                      /
//                          Instruments\ZStack-1.4.3-1.2.1\Projects\zstack\Sa /
//                          mples\AXDApp\CC2430DB\..\..\..\..\..\COMPONENTS\M /
//                          AC\INCLUDE\" -I "C:\Texas                         /
//                          Instruments\ZStack-1.4.3-1.2.1\Projects\zstack\Sa /
//                          mples\AXDApp\CC2430DB\..\..\..\..\..\COMPONENTS\M /
//                          AC\HIGH_LEVEL\" -I "C:\Texas                      /
//                          Instruments\ZStack-1.4.3-1.2.1\Projects\zstack\Sa /
//                          mples\AXDApp\CC2430DB\..\..\..\..\..\COMPONENTS\M /
//                          AC\LOW_LEVEL\SRF03\" -I "C:\Texas                 /
//                          Instruments\ZStack-1.4.3-1.2.1\Projects\zstack\Sa /
//                          mples\AXDApp\CC2430DB\..\..\..\..\..\COMPONENTS\M /
//                          AC\LOW_LEVEL\SRF03\SINGLE_CHIP\" -I "C:\Program   /
//                          Files\IAR Systems\Embedded Workbench 4.0          /
//                          Evaluation version\8051\INC\" -I "C:\Program      /
//                          Files\IAR Systems\Embedded Workbench 4.0          /
//                          Evaluation version\8051\INC\CLIB\"                /
//    List file          =  C:\Texas Instruments\ZStack-1.4.3-1.2.1\Projects\ /
//                          zstack\Samples\AXDApp\CC2430DB\EndDeviceDB\List\h /
//                          al_lcd.s51                                        /
//                                                                            /
//                                                                            /
///////////////////////////////////////////////////////////////////////////////

        NAME hal_lcd

        RTMODEL "__calling_convention", "xdata_reentrant"
        RTMODEL "__code_model", "banked"
        RTMODEL "__core", "plain"
        RTMODEL "__data_model", "large"
        RTMODEL "__dptr_size", "16"
        RTMODEL "__extended_stack", "disabled"
        RTMODEL "__location_for_constants", "data"
        RTMODEL "__number_of_dptrs", "1"
        RTMODEL "__rt_version", "1"

        RSEG DOVERLAY:DATA:NOROOT(0)
        RSEG IOVERLAY:IDATA:NOROOT(0)
        RSEG ISTACK:IDATA:NOROOT(0)
        RSEG PSTACK:XDATA:NOROOT(0)
        RSEG XSTACK:XDATA:NOROOT(0)

        EXTERN ?ALLOC_XSTACK8
        EXTERN ?BANKED_ENTER_XDATA
        EXTERN ?BANKED_LEAVE_XDATA
        EXTERN ?BDISPATCH
        EXTERN ?BRET
        EXTERN ?DEALLOC_XSTACK8
        EXTERN ?PUSH_XSTACK_I_THREE
        EXTERN ?PUSH_XSTACK_I_TWO
        EXTERN ?V0
        EXTERN ?XSP
        EXTERN ?XSTACK_DISP0_8
        EXTERN __INIT_XDATA_I

        PUBLIC ??HalLcdDisplayPercentBar?relay
        FUNCTION ??HalLcdDisplayPercentBar?relay,0203H
        PUBLIC ??HalLcdInit?relay
        FUNCTION ??HalLcdInit?relay,0203H
        PUBLIC ??HalLcdWriteScreen?relay
        FUNCTION ??HalLcdWriteScreen?relay,0203H
        PUBLIC ??HalLcdWriteString?relay
        FUNCTION ??HalLcdWriteString?relay,0203H
        PUBLIC ??HalLcdWriteStringValue?relay
        FUNCTION ??HalLcdWriteStringValue?relay,0203H
        PUBLIC ??HalLcdWriteStringValueValue?relay
        FUNCTION ??HalLcdWriteStringValueValue?relay,0203H
        PUBLIC ??HalLcdWriteValue?relay
        FUNCTION ??HalLcdWriteValue?relay,0203H
        PUBLIC HalLcdDisplayPercentBar
        FUNCTION HalLcdDisplayPercentBar,021203H
        ARGFRAME XSTACK, 0, STACK
        LOCFRAME ISTACK, 1, STACK
        LOCFRAME XSTACK, 32, STACK
        PUBLIC HalLcdInit
        FUNCTION HalLcdInit,0203H
        ARGFRAME XSTACK, 0, STACK
        PUBLIC HalLcdWriteScreen
        FUNCTION HalLcdWriteScreen,0203H
        ARGFRAME XSTACK, 0, STACK
        PUBLIC HalLcdWriteString
        FUNCTION HalLcdWriteString,0203H
        ARGFRAME XSTACK, 0, STACK
        PUBLIC HalLcdWriteStringValue
        FUNCTION HalLcdWriteStringValue,021203H
        ARGFRAME XSTACK, 1, STACK
        LOCFRAME ISTACK, 1, STACK
        LOCFRAME XSTACK, 42, STACK
        PUBLIC HalLcdWriteStringValueValue
        FUNCTION HalLcdWriteStringValueValue,021203H
        ARGFRAME XSTACK, 4, STACK
        LOCFRAME ISTACK, 1, STACK
        LOCFRAME XSTACK, 44, STACK
        PUBLIC HalLcdWriteValue
        FUNCTION HalLcdWriteValue,021203H
        ARGFRAME XSTACK, 1, STACK
        LOCFRAME XSTACK, 41, STACK
        
        CFI Names cfiNames0
        CFI StackFrame CFA_SP SP DATA
        CFI StackFrame CFA_PSP16 PSP16 XDATA
        CFI StackFrame CFA_XSP16 XSP16 XDATA
        CFI StaticOverlayFrame CFA_IOVERLAY IOVERLAY
        CFI StaticOverlayFrame CFA_DOVERLAY DOVERLAY
        CFI Resource `PSW.CY`:1, `B.BR0`:1, `B.BR1`:1, `B.BR2`:1, `B.BR3`:1
        CFI Resource `B.BR4`:1, `B.BR5`:1, `B.BR6`:1, `B.BR7`:1, `VB.BR8`:1
        CFI Resource `VB.BR9`:1, `VB.BR10`:1, `VB.BR11`:1, `VB.BR12`:1
        CFI Resource `VB.BR13`:1, `VB.BR14`:1, `VB.BR15`:1, VB:8, B:8, A:8
        CFI Resource PSW:8, DPL0:8, DPH0:8, R0:8, R1:8, R2:8, R3:8, R4:8, R5:8
        CFI Resource R6:8, R7:8, V0:8, V1:8, V2:8, V3:8, V4:8, V5:8, V6:8, V7:8
        CFI Resource SP:8, PSPH:8, PSPL:8, PSP16:16, XSPH:8, XSPL:8, XSP16:16
        CFI VirtualResource ?RET:24
        CFI Resource ?BRET_EXT:8
        CFI VirtualResource ?RET_HIGH:8, ?RET_LOW:8
        CFI ResourceParts PSP16 PSPH, PSPL
        CFI ResourceParts XSP16 XSPH, XSPL
        CFI ResourceParts ?RET ?BRET_EXT, ?RET_HIGH, ?RET_LOW
        CFI EndNames cfiNames0
        
        CFI Common cfiCommon0 Using cfiNames0
        CFI CodeAlign 1
        CFI DataAlign -1
        CFI ReturnAddress ?RET CODE
        CFI CFA_DOVERLAY Used
        CFI CFA_IOVERLAY Used
        CFI CFA_SP SP+-3
        CFI CFA_PSP16 PSP16+0
        CFI CFA_XSP16 XSP16+0
        CFI `PSW.CY` SameValue
        CFI `B.BR0` SameValue
        CFI `B.BR1` SameValue
        CFI `B.BR2` SameValue
        CFI `B.BR3` SameValue
        CFI `B.BR4` SameValue
        CFI `B.BR5` SameValue
        CFI `B.BR6` SameValue
        CFI `B.BR7` SameValue
        CFI `VB.BR8` SameValue
        CFI `VB.BR9` SameValue
        CFI `VB.BR10` SameValue
        CFI `VB.BR11` SameValue
        CFI `VB.BR12` SameValue
        CFI `VB.BR13` SameValue
        CFI `VB.BR14` SameValue
        CFI `VB.BR15` SameValue
        CFI VB SameValue
        CFI B Undefined
        CFI A Undefined
        CFI PSW SameValue
        CFI DPL0 SameValue
        CFI DPH0 SameValue
        CFI R0 Undefined
        CFI R1 Undefined
        CFI R2 Undefined
        CFI R3 Undefined
        CFI R4 Undefined
        CFI R5 Undefined
        CFI R6 SameValue
        CFI R7 SameValue
        CFI V0 SameValue
        CFI V1 SameValue
        CFI V2 SameValue
        CFI V3 SameValue
        CFI V4 SameValue
        CFI V5 SameValue
        CFI V6 SameValue
        CFI V7 SameValue
        CFI PSPH Undefined
        CFI PSPL Undefined
        CFI XSPH Undefined
        CFI XSPL Undefined
        CFI ?RET Concat
        CFI ?BRET_EXT Frame(CFA_SP, 3)
        CFI ?RET_HIGH Frame(CFA_SP, 2)
        CFI ?RET_LOW Frame(CFA_SP, 1)
        CFI EndCommon cfiCommon0
        
        
        CFI Common cfiCommon1 Using cfiNames0
        CFI CodeAlign 1
        CFI DataAlign -1
        CFI ReturnAddress ?RET CODE
        CFI CFA_DOVERLAY Used
        CFI CFA_IOVERLAY Used
        CFI CFA_SP SP+-2
        CFI CFA_PSP16 PSP16+0
        CFI CFA_XSP16 XSP16+0
        CFI `PSW.CY` SameValue
        CFI `B.BR0` SameValue
        CFI `B.BR1` SameValue
        CFI `B.BR2` SameValue
        CFI `B.BR3` SameValue
        CFI `B.BR4` SameValue
        CFI `B.BR5` SameValue
        CFI `B.BR6` SameValue
        CFI `B.BR7` SameValue
        CFI `VB.BR8` SameValue
        CFI `VB.BR9` SameValue
        CFI `VB.BR10` SameValue
        CFI `VB.BR11` SameValue
        CFI `VB.BR12` SameValue
        CFI `VB.BR13` SameValue
        CFI `VB.BR14` SameValue
        CFI `VB.BR15` SameValue
        CFI VB SameValue
        CFI B SameValue
        CFI A SameValue
        CFI PSW SameValue
        CFI DPL0 SameValue
        CFI DPH0 SameValue
        CFI R0 SameValue
        CFI R1 SameValue
        CFI R2 SameValue
        CFI R3 SameValue
        CFI R4 SameValue
        CFI R5 SameValue
        CFI R6 SameValue
        CFI R7 SameValue
        CFI V0 SameValue
        CFI V1 SameValue
        CFI V2 SameValue
        CFI V3 SameValue
        CFI V4 SameValue
        CFI V5 SameValue
        CFI V6 SameValue
        CFI V7 SameValue
        CFI PSPH Undefined
        CFI PSPL Undefined
        CFI XSPH Undefined
        CFI XSPL Undefined
        CFI ?RET Concat
        CFI ?BRET_EXT SameValue
        CFI ?RET_HIGH Frame(CFA_SP, 2)
        CFI ?RET_LOW Frame(CFA_SP, 1)
        CFI EndCommon cfiCommon1
        
_ltoa               SYMBOL "_ltoa"
osal_strlen         SYMBOL "osal_strlen"
osal_memcpy         SYMBOL "osal_memcpy"
??_ltoa?relay       SYMBOL "?relay", _ltoa
??osal_memcpy?relay SYMBOL "?relay", osal_memcpy
??osal_strlen?relay SYMBOL "?relay", osal_strlen
HalLcdDisplayPercentBar SYMBOL "HalLcdDisplayPercentBar"
??HalLcdDisplayPercentBar?relay SYMBOL "?relay", HalLcdDisplayPercentBar
HalLcdInit          SYMBOL "HalLcdInit"
??HalLcdInit?relay  SYMBOL "?relay", HalLcdInit
HalLcdWriteScreen   SYMBOL "HalLcdWriteScreen"
??HalLcdWriteScreen?relay SYMBOL "?relay", HalLcdWriteScreen
HalLcdWriteString   SYMBOL "HalLcdWriteString"
??HalLcdWriteString?relay SYMBOL "?relay", HalLcdWriteString
HalLcdWriteStringValue SYMBOL "HalLcdWriteStringValue"
??HalLcdWriteStringValue?relay SYMBOL "?relay", HalLcdWriteStringValue
HalLcdWriteStringValueValue SYMBOL "HalLcdWriteStringValueValue"
??HalLcdWriteStringValueValue?relay SYMBOL "?relay", HalLcdWriteStringValueValue
HalLcdWriteValue    SYMBOL "HalLcdWriteValue"
??HalLcdWriteValue?relay SYMBOL "?relay", HalLcdWriteValue

        EXTERN _ltoa
        FUNCTION _ltoa,0202H
        ARGFRAME ISTACK, 0, STACK
        ARGFRAME PSTACK, 0, STACK
        ARGFRAME XSTACK, 43, STACK
        ARGFRAME IOVERLAY, 0, STATIC
        ARGFRAME DOVERLAY, 0, STATIC
        EXTERN osal_strlen
        FUNCTION osal_strlen,0202H
        ARGFRAME ISTACK, 0, STACK
        ARGFRAME PSTACK, 0, STACK
        ARGFRAME XSTACK, 41, STACK
        ARGFRAME IOVERLAY, 0, STATIC
        ARGFRAME DOVERLAY, 0, STATIC
        EXTERN osal_memcpy
        FUNCTION osal_memcpy,0202H
        ARGFRAME ISTACK, 0, STACK
        ARGFRAME PSTACK, 0, STACK
        ARGFRAME XSTACK, 44, STACK
        ARGFRAME IOVERLAY, 0, STATIC
        ARGFRAME DOVERLAY, 0, STATIC
        EXTERN ??_ltoa?relay
        FUNCTION ??_ltoa?relay,00H
        EXTERN ??osal_memcpy?relay
        FUNCTION ??osal_memcpy?relay,00H
        EXTERN ??osal_strlen?relay
        FUNCTION ??osal_strlen?relay,00H

// C:\Texas Instruments\ZStack-1.4.3-1.2.1\Components\hal\target\CC2430DB\hal_lcd.c
//    1 /**************************************************************************************************
//    2   Filename:       hal_lcd.c
//    3   Revised:        $Date: 2007-11-01 08:44:53 -0700 (Thu, 01 Nov 2007) $
//    4   Revision:       $Revision: 15821 $
//    5 
//    6   Description:    This file contains the interface to the HAL LCD Service.
//    7 
//    8 
//    9   Copyright 2006-2007 Texas Instruments Incorporated. All rights reserved.
//   10 
//   11   IMPORTANT: Your use of this Software is limited to those specific rights
//   12   granted under the terms of a software license agreement between the user
//   13   who downloaded the software, his/her employer (which must be your employer)
//   14   and Texas Instruments Incorporated (the "License").  You may not use this
//   15   Software unless you agree to abide by the terms of the License. The License
//   16   limits your use, and you acknowledge, that the Software may not be modified,
//   17   copied or distributed unless embedded on a Texas Instruments microcontroller
//   18   or used solely and exclusively in conjunction with a Texas Instruments radio
//   19   frequency transceiver, which is integrated into your product.  Other than for
//   20   the foregoing purpose, you may not use, reproduce, copy, prepare derivative
//   21   works of, modify, distribute, perform, display or sell this Software and/or
//   22   its documentation for any purpose.
//   23 
//   24   YOU FURTHER ACKNOWLEDGE AND AGREE THAT THE SOFTWARE AND DOCUMENTATION ARE
//   25   PROVIDED “AS IS” WITHOUT WARRANTY OF ANY KIND, EITHER EXPRESS OR IMPLIED, 
//   26   INCLUDING WITHOUT LIMITATION, ANY WARRANTY OF MERCHANTABILITY, TITLE, 
//   27   NON-INFRINGEMENT AND FITNESS FOR A PARTICULAR PURPOSE. IN NO EVENT SHALL
//   28   TEXAS INSTRUMENTS OR ITS LICENSORS BE LIABLE OR OBLIGATED UNDER CONTRACT,
//   29   NEGLIGENCE, STRICT LIABILITY, CONTRIBUTION, BREACH OF WARRANTY, OR OTHER
//   30   LEGAL EQUITABLE THEORY ANY DIRECT OR INDIRECT DAMAGES OR EXPENSES
//   31   INCLUDING BUT NOT LIMITED TO ANY INCIDENTAL, SPECIAL, INDIRECT, PUNITIVE
//   32   OR CONSEQUENTIAL DAMAGES, LOST PROFITS OR LOST DATA, COST OF PROCUREMENT
//   33   OF SUBSTITUTE GOODS, TECHNOLOGY, SERVICES, OR ANY CLAIMS BY THIRD PARTIES
//   34   (INCLUDING BUT NOT LIMITED TO ANY DEFENSE THEREOF), OR OTHER SIMILAR COSTS.
//   35 
//   36   Should you have any questions regarding your right to use this Software,
//   37   contact Texas Instruments Incorporated at www.TI.com. 
//   38 **************************************************************************************************/
//   39 
//   40 /**************************************************************************************************
//   41  *                                           INCLUDES
//   42  **************************************************************************************************/
//   43 #include "hal_types.h"
//   44 #include "hal_lcd.h"
//   45 #include "OSAL.h"
//   46 #include "OnBoard.h"
//   47 
//   48 #ifdef ZTOOL_PORT
//   49   #include "DebugTrace.h"
//   50 #endif
//   51 
//   52 /**************************************************************************************************
//   53  *                                          CONSTANTS
//   54  **************************************************************************************************/
//   55 #define LCD_MAX_BUF 25
//   56 
//   57 // General I/O definitions
//   58 #define IO_GIO  0  // General purpose I/O
//   59 #define IO_PER  1  // Peripheral function
//   60 #define IO_IN   0  // Input pin
//   61 #define IO_OUT  1  // Output pin
//   62 #define IO_PUD  0  // Pullup/pulldn input
//   63 #define IO_TRI  1  // Tri-state input
//   64 #define IO_PUP  0  // Pull-up input pin
//   65 #define IO_PDN  1  // Pull-down input pin
//   66 
//   67 // LCD port/bit definitions
//   68 #define LCD_CLK_PORT  2
//   69 #define LCD_CLK_PIN   0  // P2_0
//   70 #define LCD_DATA_PORT 1
//   71 #define LCD_DATA_PIN  2  // P1_2
//   72 
//   73 /* LCD Line Address */
//   74 #define LCD_LINE1_ADDR  0x80
//   75 #define LCD_LINE2_ADDR  0xC0
//   76 
//   77 // LCD device definitions
//   78 #define LCD_ADDR  0x76  // SM-Bus address of the LCD controller
//   79 #define CH1_ADDR  0x08
//   80 #define LCD_RS_0  0x00  // RS = 0 => selects instruction register for write/busy flag
//   81 #define LCD_RS_1  0x40  // RS = 1 => selects the data register for both read and write
//   82 
//   83 /**************************************************************************************************
//   84  *                                           MACROS
//   85  **************************************************************************************************/
//   86 
//   87 // Removed to allow PNAME macro to expand -
//   88 // Problem: in ioCC2430.h, #define P PSW_bit.P
//   89 #undef P
//   90 
//   91   /* I/O PORT CONFIGURATION */
//   92 #define CAT1(x,y) x##y  // Concatenates 2 strings
//   93 #define CAT2(x,y) CAT1(x,y)  // Forces evaluation of CAT1
//   94 
//   95 // LCD port I/O defintions
//   96 // Builds I/O port name: PNAME(1,INP) ==> P1INP
//   97 #define PNAME(y,z) CAT2(P,CAT2(y,z))
//   98 // Builds I/O bit name: BNAME(1,2) ==> P1_2
//   99 #define BNAME(port,pin) CAT2(CAT2(P,port),CAT2(_,pin))
//  100 
//  101 #define LCD_SCL BNAME(LCD_CLK_PORT, LCD_CLK_PIN)
//  102 #define LCD_SDA BNAME(LCD_DATA_PORT, LCD_DATA_PIN)
//  103 
//  104 // LCD port I/O defintions
//  105 #define LCD_SCL BNAME(LCD_CLK_PORT, LCD_CLK_PIN)
//  106 #define LCD_SDA BNAME(LCD_DATA_PORT, LCD_DATA_PIN)
//  107 
//  108 #define IO_DIR_PORT_PIN(port, pin, dir) \ 
//  109 {\ 
//  110   if ( dir == IO_OUT ) \ 
//  111     PNAME(port,DIR) |= (1<<(pin)); \ 
//  112   else \ 
//  113     PNAME(port,DIR) &= ~(1<<(pin)); \ 
//  114 }
//  115 
//  116 #define LCD_DATA_HIGH()\ 
//  117 { \ 
//  118   IO_DIR_PORT_PIN(LCD_DATA_PORT, LCD_DATA_PIN, IO_IN); \ 
//  119 }
//  120 
//  121 #define LCD_DATA_LOW() \ 
//  122 { \ 
//  123   IO_DIR_PORT_PIN(LCD_DATA_PORT, LCD_DATA_PIN, IO_OUT); \ 
//  124   LCD_SDA = 0;\ 
//  125 }
//  126 
//  127 #define IO_FUNC_PORT_PIN(port, pin, func) \ 
//  128 { \ 
//  129   if( port < 2 ) \ 
//  130   { \ 
//  131     if ( func == IO_PER ) \ 
//  132       PNAME(port,SEL) |= (1<<(pin)); \ 
//  133     else \ 
//  134       PNAME(port,SEL) &= ~(1<<(pin)); \ 
//  135   } \ 
//  136   else \ 
//  137   { \ 
//  138     if ( func == IO_PER ) \ 
//  139       P2SEL |= (1<<(pin>>1)); \ 
//  140     else \ 
//  141       P2SEL &= ~(1<<(pin>>1)); \ 
//  142   } \ 
//  143 }
//  144 
//  145 #define IO_IMODE_PORT_PIN(port, pin, mode) \ 
//  146 { \ 
//  147   if ( mode == IO_TRI ) \ 
//  148     PNAME(port,INP) |= (1<<(pin)); \ 
//  149   else \ 
//  150     PNAME(port,INP) &= ~(1<<(pin)); \ 
//  151 }
//  152 
//  153 #define IO_PUD_PORT(port, dir) \ 
//  154 { \ 
//  155   if ( dir == IO_PDN ) \ 
//  156     P2INP |= (1<<(port+5)); \ 
//  157   else \ 
//  158     P2INP &= ~(1<<(port+5)); \ 
//  159 }
//  160 
//  161 /**************************************************************************************************
//  162  *                                          TYPEDEFS
//  163  **************************************************************************************************/
//  164 
//  165 
//  166 /**************************************************************************************************
//  167  *                                       GLOBAL VARIABLES
//  168  **************************************************************************************************/
//  169 #ifdef LCD_HW
//  170 static uint8 *Lcd_Line1;
//  171 #endif
//  172 
//  173 /**************************************************************************************************
//  174  *                                       FUNCTIONS - API
//  175  **************************************************************************************************/
//  176 #if (defined LCD_HW) && (HAL_LCD == TRUE)
//  177 static void initLcd( void );
//  178 static void initSmb( void );
//  179 static void lcdUpdateLine( uint8 line, uint8 *pLine );
//  180 static byte lcdConvertChar( byte aChar );
//  181 static void smbSend( uint8 *buffer, uint8 len );
//  182 static bool smbSendByte( uint8 dByte );
//  183 static void smbWrite( bool dBit );
//  184 static void smbClock( bool dir );
//  185 static void smbStart( void );
//  186 static void smbStop( void );
//  187 static void smbWait( void );
//  188 #endif
//  189 
//  190 /**************************************************************************************************
//  191  * @fn      HalLcdInit
//  192  *
//  193  * @brief   Initilize LCD Service
//  194  *
//  195  * @param   init - pointer to void that contains the initialized value
//  196  *
//  197  * @return  None
//  198  **************************************************************************************************/

        RSEG BANKED_CODE:CODE:NOROOT(0)
//  199 void HalLcdInit(void)
HalLcdInit:
        CFI Block cfiBlock0 Using cfiCommon0
        CFI Function HalLcdInit
//  200 {
        ; Saved register size: 0
        ; Auto size: 0
//  201 #if (HAL_LCD == TRUE)
//  202 
//  203 #ifdef LCD_HW
//  204   Lcd_Line1 = NULL;
//  205   initLcd();
//  206 #endif
//  207 
//  208 #endif /* HAL_LCD */
//  209 
//  210 }
        LJMP    ?BRET
        CFI EndBlock cfiBlock0
//  211 
//  212 /*************************************************************************************************
//  213  *                    LCD EMULATION FUNCTIONS
//  214  *
//  215  * Some evaluation boards are equipped with Liquid Crystal Displays
//  216  * (LCD) which may be used to display diagnostic information. These
//  217  * functions provide LCD emulation, sending the diagnostic strings
//  218  * to Z-Tool via the RS232 serial port. These functions are enabled
//  219  * when the "LCD_SUPPORTED" compiler flag is placed in the makefile.
//  220  *
//  221  * Most applications update both lines (1 and 2) of the LCD whenever
//  222  * text is posted to the device. This emulator assumes that line 1 is
//  223  * updated first (saved locally) and the formatting and send operation
//  224  * is triggered by receipt of line 2. Nothing will be transmitted if
//  225  * only line 1 is updated.
//  226  *
//  227  *************************************************************************************************/
//  228 
//  229 
//  230 /**************************************************************************************************
//  231  * @fn      HalLcdWriteString
//  232  *
//  233  * @brief   Write a string to the LCD
//  234  *
//  235  * @param   str    - pointer to the string that will be displayed
//  236  *          option - display options
//  237  *
//  238  * @return  None
//  239  **************************************************************************************************/

        RSEG BANKED_CODE:CODE:NOROOT(0)
//  240 void HalLcdWriteString ( char *str, uint8 option)
HalLcdWriteString:
        CFI Block cfiBlock1 Using cfiCommon0
        CFI Function HalLcdWriteString
//  241 {
        ; Saved register size: 0
        ; Auto size: 0
//  242 #if (HAL_LCD == TRUE)
//  243 
//  244 #ifdef LCD_SD
//  245   byte x;
//  246   byte bln;
//  247   byte sln;
//  248   char *buf;
//  249 
//  250   if ( Lcd_Line1 == NULL )
//  251   {
//  252     // Set up system start-up message
//  253     Lcd_Line1 = osal_mem_alloc( MAX_LCD_CHARS+1 );
//  254     HalLcdWriteString( "Figure8 Wireless", HAL_LCD_LINE_1 );
//  255   }
//  256 
//  257   sln = (byte)osal_strlen( str );
//  258 
//  259   // Check boundries
//  260   if ( sln > MAX_LCD_CHARS )
//  261     sln = MAX_LCD_CHARS;
//  262 
//  263   if ( option == HAL_LCD_LINE_1 ) {
//  264     // Line 1 gets saved for later
//  265     osal_memcpy( Lcd_Line1, str, sln );
//  266     Lcd_Line1[sln] = '\0';
//  267   }
//  268   else {
//  269     // Line 2 triggers action
//  270     x = (byte)osal_strlen( (char*)Lcd_Line1 );
//  271     bln = x + 1 + sln + 1;
//  272     buf = osal_mem_alloc( bln );
//  273     if ( buf != NULL ) {
//  274       // Concatenate strings
//  275       osal_memcpy( buf, Lcd_Line1, x );
//  276       buf[x++] = ' ';
//  277       osal_memcpy( &buf[x], str, sln );
//  278       buf[x+sln] = '\0';
//  279       // Send it out
//  280 #ifdef ZTOOL_PORT
//  281       debug_str( (byte*)buf );
//  282 #endif
//  283       osal_mem_free( buf );
//  284     }
//  285   }
//  286 #endif // LCD_SD
//  287 
//  288 #ifdef LCD_HW
//  289   lcdUpdateLine( option, (byte*)str );
//  290 #endif
//  291 
//  292 #endif /* HAL_LCD */
//  293 
//  294 }
        LJMP    ?BRET
        CFI EndBlock cfiBlock1
//  295 
//  296 /**************************************************************************************************
//  297  * @fn      HalLcdWriteValue
//  298  *
//  299  * @brief   Write a value to the LCD
//  300  *
//  301  * @param   value  - value that will be displayed
//  302  *          radix  - 8, 10, 16
//  303  *          option - display options
//  304  *
//  305  * @return  None
//  306  **************************************************************************************************/

        RSEG BANKED_CODE:CODE:NOROOT(0)
//  307 void HalLcdWriteValue ( uint32 value, const uint8 radix, uint8 option)
HalLcdWriteValue:
        CFI Block cfiBlock2 Using cfiCommon0
        CFI Function HalLcdWriteValue
//  308 {
        FUNCALL HalLcdWriteValue, _ltoa
        LOCFRAME ISTACK, 0, STACK
        LOCFRAME PSTACK, 0, STACK
        LOCFRAME XSTACK, 41, STACK
        LOCFRAME IOVERLAY, 0, STATIC
        LOCFRAME DOVERLAY, 0, STATIC
        ARGFRAME ISTACK, 0, STACK
        ARGFRAME PSTACK, 0, STACK
        ARGFRAME XSTACK, 41, STACK
        ARGFRAME IOVERLAY, 0, STATIC
        ARGFRAME DOVERLAY, 0, STATIC
        MOV     A,#-0xe
        LCALL   ?BANKED_ENTER_XDATA
        CFI DPH0 load(1, XDATA, add(CFA_XSP16, literal(-1)))
        CFI DPL0 load(1, XDATA, add(CFA_XSP16, literal(-2)))
        CFI ?BRET_EXT load(1, XDATA, add(CFA_XSP16, literal(-3)))
        CFI ?RET_HIGH load(1, XDATA, add(CFA_XSP16, literal(-4)))
        CFI ?RET_LOW load(1, XDATA, add(CFA_XSP16, literal(-5)))
        CFI R7 load(1, XDATA, add(CFA_XSP16, literal(-6)))
        CFI V5 load(1, XDATA, add(CFA_XSP16, literal(-7)))
        CFI V4 load(1, XDATA, add(CFA_XSP16, literal(-8)))
        CFI V3 load(1, XDATA, add(CFA_XSP16, literal(-9)))
        CFI V2 load(1, XDATA, add(CFA_XSP16, literal(-10)))
        CFI V1 load(1, XDATA, add(CFA_XSP16, literal(-11)))
        CFI V0 load(1, XDATA, add(CFA_XSP16, literal(-12)))
        CFI VB load(1, XDATA, add(CFA_XSP16, literal(-13)))
        CFI R6 load(1, XDATA, add(CFA_XSP16, literal(-14)))
        CFI CFA_SP SP+0
        CFI CFA_XSP16 add(XSP16, 14)
        ; Saved register size: 14
        ; Auto size: 25
        MOV     A,#-0x19
        LCALL   ?ALLOC_XSTACK8
        CFI CFA_XSP16 add(XSP16, 39)
//  309 #if (HAL_LCD == TRUE)
//  310   uint8 buf[LCD_MAX_BUF];
//  311 
//  312   _ltoa( value, &buf[0], radix );
        ; Setup parameters for call to function _ltoa
        MOV     DPL,?XSP + 0
        MOV     DPH,?XSP + 1
        MOV     ?V0 + 4,DPL
        MOV     ?V0 + 5,DPH
        MOV     R0,#?V0 + 4
        LCALL   ?PUSH_XSTACK_I_TWO
        CFI CFA_XSP16 add(XSP16, 41)
        LCALL   ??Subroutine1_1 & 0xFFFF
        CFI EndBlock cfiBlock2
??CrossCallReturnLabel_6:
        REQUIRE ?Subroutine5
        ; // Fall through to label ?Subroutine5
//  313   HalLcdWriteString( (char*)buf, option );
//  314 #endif /* HAL_LCD */
//  315 }

        RSEG BANKED_CODE:CODE:NOROOT(0)
?Subroutine5:
        CFI Block cfiBlock3 Using cfiCommon0
        CFI NoFunction
        CFI CFA_SP SP+0
        CFI CFA_XSP16 add(XSP16, 41)
        CFI VB load(1, XDATA, add(CFA_XSP16, literal(-13)))
        CFI DPL0 load(1, XDATA, add(CFA_XSP16, literal(-2)))
        CFI DPH0 load(1, XDATA, add(CFA_XSP16, literal(-1)))
        CFI R6 load(1, XDATA, add(CFA_XSP16, literal(-14)))
        CFI R7 load(1, XDATA, add(CFA_XSP16, literal(-6)))
        CFI V0 load(1, XDATA, add(CFA_XSP16, literal(-12)))
        CFI V1 load(1, XDATA, add(CFA_XSP16, literal(-11)))
        CFI V2 load(1, XDATA, add(CFA_XSP16, literal(-10)))
        CFI V3 load(1, XDATA, add(CFA_XSP16, literal(-9)))
        CFI V4 load(1, XDATA, add(CFA_XSP16, literal(-8)))
        CFI V5 load(1, XDATA, add(CFA_XSP16, literal(-7)))
        CFI ?BRET_EXT load(1, XDATA, add(CFA_XSP16, literal(-3)))
        CFI ?RET_HIGH load(1, XDATA, add(CFA_XSP16, literal(-4)))
        CFI ?RET_LOW load(1, XDATA, add(CFA_XSP16, literal(-5)))
        LCALL   ?DEALLOC_XSTACK8
        CFI CFA_XSP16 add(XSP16, 39)
        MOV     A,#0x19
        LCALL   ?DEALLOC_XSTACK8
        CFI CFA_XSP16 add(XSP16, 14)
        MOV     R7,#0x6
        LJMP    ?BANKED_LEAVE_XDATA
        CFI EndBlock cfiBlock3
//  316 
//  317 /**************************************************************************************************
//  318  * @fn      HalLcdWriteScreen
//  319  *
//  320  * @brief   Write a value to the LCD
//  321  *
//  322  * @param   line1  - string that will be displayed on line 1
//  323  *          line2  - string that will be displayed on line 2
//  324  *
//  325  * @return  None
//  326  **************************************************************************************************/

        RSEG BANKED_CODE:CODE:NOROOT(0)
//  327 void HalLcdWriteScreen( char *line1, char *line2 )
HalLcdWriteScreen:
        CFI Block cfiBlock4 Using cfiCommon0
        CFI Function HalLcdWriteScreen
//  328 {
        ; Saved register size: 0
        ; Auto size: 0
//  329 #if (HAL_LCD == TRUE)
//  330   HalLcdWriteString( line1, HAL_LCD_LINE_1 );
//  331   HalLcdWriteString( line2, HAL_LCD_LINE_2 );
//  332 #endif /* HAL_LCD */
//  333 }
        LJMP    ?BRET
        CFI EndBlock cfiBlock4
//  334 
//  335 /**************************************************************************************************
//  336  * @fn      HalLcdWriteStringValue
//  337  *
//  338  * @brief   Write a string followed by a value to the LCD
//  339  *
//  340  * @param   title  -
//  341  *          value  -
//  342  *          format -
//  343  *          line   -
//  344  *
//  345  * @return  None
//  346  **************************************************************************************************/

        RSEG BANKED_CODE:CODE:NOROOT(0)
//  347 void HalLcdWriteStringValue( char *title, uint16 value, uint8 format, uint8 line )
HalLcdWriteStringValue:
        CFI Block cfiBlock5 Using cfiCommon0
        CFI Function HalLcdWriteStringValue
//  348 {
        FUNCALL HalLcdWriteStringValue, osal_strlen
        LOCFRAME ISTACK, 0, STACK
        LOCFRAME PSTACK, 0, STACK
        LOCFRAME XSTACK, 39, STACK
        LOCFRAME IOVERLAY, 0, STATIC
        LOCFRAME DOVERLAY, 0, STATIC
        ARGFRAME ISTACK, 0, STACK
        ARGFRAME PSTACK, 0, STACK
        ARGFRAME XSTACK, 39, STACK
        ARGFRAME IOVERLAY, 0, STATIC
        ARGFRAME DOVERLAY, 0, STATIC
        FUNCALL HalLcdWriteStringValue, osal_memcpy
        LOCFRAME ISTACK, 0, STACK
        LOCFRAME PSTACK, 0, STACK
        LOCFRAME XSTACK, 42, STACK
        LOCFRAME IOVERLAY, 0, STATIC
        LOCFRAME DOVERLAY, 0, STATIC
        ARGFRAME ISTACK, 0, STACK
        ARGFRAME PSTACK, 0, STACK
        ARGFRAME XSTACK, 42, STACK
        ARGFRAME IOVERLAY, 0, STATIC
        ARGFRAME DOVERLAY, 0, STATIC
        FUNCALL HalLcdWriteStringValue, _ltoa
        LOCFRAME ISTACK, 0, STACK
        LOCFRAME PSTACK, 0, STACK
        LOCFRAME XSTACK, 41, STACK
        LOCFRAME IOVERLAY, 0, STATIC
        LOCFRAME DOVERLAY, 0, STATIC
        ARGFRAME ISTACK, 0, STACK
        ARGFRAME PSTACK, 0, STACK
        ARGFRAME XSTACK, 41, STACK
        ARGFRAME IOVERLAY, 0, STATIC
        ARGFRAME DOVERLAY, 0, STATIC
        MOV     A,#-0xe
        LCALL   ?BANKED_ENTER_XDATA
        CFI DPH0 load(1, XDATA, add(CFA_XSP16, literal(-1)))
        CFI DPL0 load(1, XDATA, add(CFA_XSP16, literal(-2)))
        CFI ?BRET_EXT load(1, XDATA, add(CFA_XSP16, literal(-3)))
        CFI ?RET_HIGH load(1, XDATA, add(CFA_XSP16, literal(-4)))
        CFI ?RET_LOW load(1, XDATA, add(CFA_XSP16, literal(-5)))
        CFI R7 load(1, XDATA, add(CFA_XSP16, literal(-6)))
        CFI V5 load(1, XDATA, add(CFA_XSP16, literal(-7)))
        CFI V4 load(1, XDATA, add(CFA_XSP16, literal(-8)))
        CFI V3 load(1, XDATA, add(CFA_XSP16, literal(-9)))
        CFI V2 load(1, XDATA, add(CFA_XSP16, literal(-10)))
        CFI V1 load(1, XDATA, add(CFA_XSP16, literal(-11)))
        CFI V0 load(1, XDATA, add(CFA_XSP16, literal(-12)))
        CFI VB load(1, XDATA, add(CFA_XSP16, literal(-13)))
        CFI R6 load(1, XDATA, add(CFA_XSP16, literal(-14)))
        CFI CFA_SP SP+0
        CFI CFA_XSP16 add(XSP16, 14)
        ; Saved register size: 14
        ; Auto size: 25
        MOV     A,#-0x19
        LCALL   ?ALLOC_XSTACK8
        CFI CFA_XSP16 add(XSP16, 39)
        MOV     ?V0 + 0,R2
        MOV     ?V0 + 1,R3
        MOV     A,R4
        MOV     R6,A
        MOV     A,R5
        MOV     R7,A
        MOV     ?V0 + 3,R1
//  349 #if (HAL_LCD == TRUE)
//  350   uint8 tmpLen;
//  351   uint8 buf[LCD_MAX_BUF];
//  352   uint32 err;
//  353 
//  354   tmpLen = (uint8)osal_strlen( (char*)title );
        ; Setup parameters for call to function osal_strlen
        LCALL   ?Subroutine3 & 0xFFFF
//  355   osal_memcpy( buf, title, tmpLen );
??CrossCallReturnLabel_9:
        ; Setup parameters for call to function osal_memcpy
        MOV     ?V0 + 2,#0x0
        MOV     R0,#?V0 + 0
        LCALL   ?PUSH_XSTACK_I_THREE
        CFI CFA_XSP16 add(XSP16, 42)
        MOV     A,R2
        MOV     R4,A
        MOV     R5,#0x0
        MOV     A,#0x3
        LCALL   ?XSTACK_DISP0_8
        MOV     R2,DPL
        MOV     R3,DPH
        LCALL   ??osal_memcpy?relay
        MOV     A,#0x3
        LCALL   ?DEALLOC_XSTACK8
        CFI CFA_XSP16 add(XSP16, 39)
//  356   buf[tmpLen] = ' ';
        MOV     DPL,?XSP + 0
        MOV     DPH,?XSP + 1
        MOV     A,DPL
        ADD     A,?V0 + 4
        MOV     DPL,A
        MOV     A,DPH
        ADDC    A,#0x0
        MOV     DPH,A
        MOV     A,#0x20
        MOVX    @DPTR,A
//  357   err = (uint32)(value);
//  358   _ltoa( err, &buf[tmpLen+1], format );
        ; Setup parameters for call to function _ltoa
        INC     DPTR
        MOV     ?V0 + 0,DPL
        MOV     ?V0 + 1,DPH
        MOV     R0,#?V0 + 0
        LCALL   ?PUSH_XSTACK_I_TWO
        CFI CFA_XSP16 add(XSP16, 41)
        LCALL   ?Subroutine1 & 0xFFFF
??CrossCallReturnLabel_2:
        SJMP    ?Subroutine5
        CFI EndBlock cfiBlock5
//  359   HalLcdWriteString( (char*)buf, line );		
//  360 #endif /* HAL_LCD */
//  361 }
//  362 
//  363 /**************************************************************************************************
//  364  * @fn      HalLcdWriteStringValue
//  365  *
//  366  * @brief   Write a string followed by a value to the LCD
//  367  *
//  368  * @param   title   -
//  369  *          value1  -
//  370  *          format1 -
//  371  *          value2  -
//  372  *          format2 -
//  373  *          line    -
//  374  *
//  375  * @return  None
//  376  **************************************************************************************************/

        RSEG BANKED_CODE:CODE:NOROOT(0)
//  377 void HalLcdWriteStringValueValue( char *title, uint16 value1, uint8 format1,
HalLcdWriteStringValueValue:
        CFI Block cfiBlock6 Using cfiCommon0
        CFI Function HalLcdWriteStringValueValue
//  378                                   uint16 value2, byte format2, uint8 line )
//  379 {
        FUNCALL HalLcdWriteStringValueValue, osal_strlen
        LOCFRAME ISTACK, 0, STACK
        LOCFRAME PSTACK, 0, STACK
        LOCFRAME XSTACK, 41, STACK
        LOCFRAME IOVERLAY, 0, STATIC
        LOCFRAME DOVERLAY, 0, STATIC
        ARGFRAME ISTACK, 0, STACK
        ARGFRAME PSTACK, 0, STACK
        ARGFRAME XSTACK, 41, STACK
        ARGFRAME IOVERLAY, 0, STATIC
        ARGFRAME DOVERLAY, 0, STATIC
        FUNCALL HalLcdWriteStringValueValue, osal_memcpy
        LOCFRAME ISTACK, 0, STACK
        LOCFRAME PSTACK, 0, STACK
        LOCFRAME XSTACK, 44, STACK
        LOCFRAME IOVERLAY, 0, STATIC
        LOCFRAME DOVERLAY, 0, STATIC
        ARGFRAME ISTACK, 0, STACK
        ARGFRAME PSTACK, 0, STACK
        ARGFRAME XSTACK, 44, STACK
        ARGFRAME IOVERLAY, 0, STATIC
        ARGFRAME DOVERLAY, 0, STATIC
        FUNCALL HalLcdWriteStringValueValue, _ltoa
        LOCFRAME ISTACK, 0, STACK
        LOCFRAME PSTACK, 0, STACK
        LOCFRAME XSTACK, 43, STACK
        LOCFRAME IOVERLAY, 0, STATIC
        LOCFRAME DOVERLAY, 0, STATIC
        ARGFRAME ISTACK, 0, STACK
        ARGFRAME PSTACK, 0, STACK
        ARGFRAME XSTACK, 43, STACK
        ARGFRAME IOVERLAY, 0, STATIC
        ARGFRAME DOVERLAY, 0, STATIC
        FUNCALL HalLcdWriteStringValueValue, osal_strlen
        LOCFRAME ISTACK, 0, STACK
        LOCFRAME PSTACK, 0, STACK
        LOCFRAME XSTACK, 41, STACK
        LOCFRAME IOVERLAY, 0, STATIC
        LOCFRAME DOVERLAY, 0, STATIC
        ARGFRAME ISTACK, 0, STACK
        ARGFRAME PSTACK, 0, STACK
        ARGFRAME XSTACK, 41, STACK
        ARGFRAME IOVERLAY, 0, STATIC
        ARGFRAME DOVERLAY, 0, STATIC
        FUNCALL HalLcdWriteStringValueValue, _ltoa
        LOCFRAME ISTACK, 0, STACK
        LOCFRAME PSTACK, 0, STACK
        LOCFRAME XSTACK, 43, STACK
        LOCFRAME IOVERLAY, 0, STATIC
        LOCFRAME DOVERLAY, 0, STATIC
        ARGFRAME ISTACK, 0, STACK
        ARGFRAME PSTACK, 0, STACK
        ARGFRAME XSTACK, 43, STACK
        ARGFRAME IOVERLAY, 0, STATIC
        ARGFRAME DOVERLAY, 0, STATIC
        MOV     A,#-0x10
        LCALL   ?BANKED_ENTER_XDATA
        CFI DPH0 load(1, XDATA, add(CFA_XSP16, literal(-1)))
        CFI DPL0 load(1, XDATA, add(CFA_XSP16, literal(-2)))
        CFI ?BRET_EXT load(1, XDATA, add(CFA_XSP16, literal(-3)))
        CFI ?RET_HIGH load(1, XDATA, add(CFA_XSP16, literal(-4)))
        CFI ?RET_LOW load(1, XDATA, add(CFA_XSP16, literal(-5)))
        CFI R7 load(1, XDATA, add(CFA_XSP16, literal(-6)))
        CFI V7 load(1, XDATA, add(CFA_XSP16, literal(-7)))
        CFI V6 load(1, XDATA, add(CFA_XSP16, literal(-8)))
        CFI V5 load(1, XDATA, add(CFA_XSP16, literal(-9)))
        CFI V4 load(1, XDATA, add(CFA_XSP16, literal(-10)))
        CFI V3 load(1, XDATA, add(CFA_XSP16, literal(-11)))
        CFI V2 load(1, XDATA, add(CFA_XSP16, literal(-12)))
        CFI V1 load(1, XDATA, add(CFA_XSP16, literal(-13)))
        CFI V0 load(1, XDATA, add(CFA_XSP16, literal(-14)))
        CFI VB load(1, XDATA, add(CFA_XSP16, literal(-15)))
        CFI R6 load(1, XDATA, add(CFA_XSP16, literal(-16)))
        CFI CFA_SP SP+0
        CFI CFA_XSP16 add(XSP16, 16)
        ; Saved register size: 16
        ; Auto size: 25
        MOV     A,#-0x19
        LCALL   ?ALLOC_XSTACK8
        CFI CFA_XSP16 add(XSP16, 41)
        MOV     ?V0 + 0,R2
        MOV     ?V0 + 1,R3
        MOV     A,R4
        MOV     R6,A
        MOV     A,R5
        MOV     R7,A
        MOV     ?V0 + 3,R1
        MOV     A,#0x29
        LCALL   ?XSTACK_DISP0_8
        MOVX    A,@DPTR
        MOV     ?V0 + 6,A
        INC     DPTR
        MOVX    A,@DPTR
        MOV     ?V0 + 7,A
//  380 #if (HAL_LCD == TRUE)
//  381   uint8 tmpLen;
//  382   uint8 buf[LCD_MAX_BUF];
//  383   uint32 err;
//  384 
//  385   tmpLen = (uint8)osal_strlen( (char*)title );
        ; Setup parameters for call to function osal_strlen
        LCALL   ?Subroutine3 & 0xFFFF
//  386   if ( tmpLen )
??CrossCallReturnLabel_10:
        JZ      ??HalLcdWriteStringValueValue_0
//  387   {
//  388     osal_memcpy( buf, title, tmpLen );
        ; Setup parameters for call to function osal_memcpy
        MOV     ?V0 + 2,#0x0
        MOV     R0,#?V0 + 0
        LCALL   ?PUSH_XSTACK_I_THREE
        CFI CFA_XSP16 add(XSP16, 44)
        MOV     A,R2
        MOV     ?V0 + 0,A
        MOV     R4,A
        MOV     R5,#0x0
        MOV     A,#0x3
        LCALL   ?XSTACK_DISP0_8
        MOV     R2,DPL
        MOV     R3,DPH
        LCALL   ??osal_memcpy?relay
        MOV     A,#0x3
        LCALL   ?DEALLOC_XSTACK8
        CFI CFA_XSP16 add(XSP16, 41)
//  389     buf[tmpLen++] = ' ';
        LCALL   ?Subroutine0 & 0xFFFF
??CrossCallReturnLabel_0:
        INC     ?V0 + 4
//  390   }
//  391 
//  392   err = (uint32)(value1);
//  393   _ltoa( err, &buf[tmpLen], format1 );
??HalLcdWriteStringValueValue_0:
        ; Setup parameters for call to function _ltoa
        MOV     DPL,?XSP + 0
        MOV     DPH,?XSP + 1
        MOV     A,DPL
        ADD     A,?V0 + 4
        MOV     ?V0 + 0,A
        MOV     A,DPH
        ADDC    A,#0x0
        MOV     ?V0 + 1,A
        MOV     R0,#?V0 + 0
        LCALL   ?PUSH_XSTACK_I_TWO
        CFI CFA_XSP16 add(XSP16, 43)
        LCALL   ?Subroutine1 & 0xFFFF
??CrossCallReturnLabel_3:
        LCALL   ?DEALLOC_XSTACK8
        CFI CFA_XSP16 add(XSP16, 41)
//  394   tmpLen = (uint8)osal_strlen( (char*)buf );
        ; Setup parameters for call to function osal_strlen
        MOV     DPL,?XSP + 0
        MOV     DPH,?XSP + 1
        MOV     R2,DPL
        MOV     R3,DPH
        LCALL   ?Subroutine3 & 0xFFFF
//  395 
//  396   buf[tmpLen++] = ',';
??CrossCallReturnLabel_11:
        MOV     ?V0 + 0,A
        LCALL   ?Subroutine2 & 0xFFFF
??CrossCallReturnLabel_7:
        MOV     A,#0x2c
        MOVX    @DPTR,A
        INC     ?V0 + 4
//  397   buf[tmpLen++] = ' ';
        MOV     ?V0 + 0,?V0 + 4
        LCALL   ?Subroutine0 & 0xFFFF
//  398   err = (uint32)(value2);
//  399   _ltoa( err, &buf[tmpLen], format2 );
??CrossCallReturnLabel_1:
        ; Setup parameters for call to function _ltoa
        MOV     A,#0x1
        ADD     A,?V0 + 4
        MOV     R0,A
        MOV     DPL,?XSP + 0
        MOV     DPH,?XSP + 1
        MOV     A,DPL
        ADD     A,R0
        MOV     ?V0 + 0,A
        MOV     A,DPH
        ADDC    A,#0x0
        MOV     ?V0 + 1,A
        MOV     R0,#?V0 + 0
        LCALL   ?PUSH_XSTACK_I_TWO
        CFI CFA_XSP16 add(XSP16, 43)
        MOV     A,#0x2d
        LCALL   ?XSTACK_DISP0_8
        MOVX    A,@DPTR
        MOV     R1,A
        MOV     R2,?V0 + 6
        MOV     R3,?V0 + 7
        LCALL   ??Subroutine1_0 & 0xFFFF
??CrossCallReturnLabel_4:
        LCALL   ?DEALLOC_XSTACK8
        CFI CFA_XSP16 add(XSP16, 41)
//  400 
//  401   HalLcdWriteString( (char *)buf, line );		
//  402 #endif /* HAL_LCD */
//  403 }
        MOV     A,#0x19
        LCALL   ?DEALLOC_XSTACK8
        CFI CFA_XSP16 add(XSP16, 16)
        MOV     R7,#0x8
        LJMP    ?BANKED_LEAVE_XDATA
        CFI EndBlock cfiBlock6

        RSEG BANKED_CODE:CODE:NOROOT(0)
?Subroutine3:
        CFI Block cfiCond7 Using cfiCommon0
        CFI NoFunction
        CFI Conditional ??CrossCallReturnLabel_9
        CFI R6 load(1, XDATA, add(CFA_XSP16, literal(-14)))
        CFI VB load(1, XDATA, add(CFA_XSP16, literal(-13)))
        CFI V0 load(1, XDATA, add(CFA_XSP16, literal(-12)))
        CFI V1 load(1, XDATA, add(CFA_XSP16, literal(-11)))
        CFI V2 load(1, XDATA, add(CFA_XSP16, literal(-10)))
        CFI V3 load(1, XDATA, add(CFA_XSP16, literal(-9)))
        CFI V4 load(1, XDATA, add(CFA_XSP16, literal(-8)))
        CFI V5 load(1, XDATA, add(CFA_XSP16, literal(-7)))
        CFI R7 load(1, XDATA, add(CFA_XSP16, literal(-6)))
        CFI ?RET_LOW load(1, XDATA, add(CFA_XSP16, literal(-5)))
        CFI ?RET_HIGH load(1, XDATA, add(CFA_XSP16, literal(-4)))
        CFI ?BRET_EXT load(1, XDATA, add(CFA_XSP16, literal(-3)))
        CFI DPL0 load(1, XDATA, add(CFA_XSP16, literal(-2)))
        CFI DPH0 load(1, XDATA, add(CFA_XSP16, literal(-1)))
        CFI CFA_SP SP+0
        CFI CFA_XSP16 add(XSP16, 39)
        CFI Block cfiCond8 Using cfiCommon0
        CFI (cfiCond8) NoFunction
        CFI (cfiCond8) Conditional ??CrossCallReturnLabel_10
        CFI (cfiCond8) R6 load(1, XDATA, add(CFA_XSP16, literal(-16)))
        CFI (cfiCond8) VB load(1, XDATA, add(CFA_XSP16, literal(-15)))
        CFI (cfiCond8) V0 load(1, XDATA, add(CFA_XSP16, literal(-14)))
        CFI (cfiCond8) V1 load(1, XDATA, add(CFA_XSP16, literal(-13)))
        CFI (cfiCond8) V2 load(1, XDATA, add(CFA_XSP16, literal(-12)))
        CFI (cfiCond8) V3 load(1, XDATA, add(CFA_XSP16, literal(-11)))
        CFI (cfiCond8) V4 load(1, XDATA, add(CFA_XSP16, literal(-10)))
        CFI (cfiCond8) V5 load(1, XDATA, add(CFA_XSP16, literal(-9)))
        CFI (cfiCond8) V6 load(1, XDATA, add(CFA_XSP16, literal(-8)))
        CFI (cfiCond8) V7 load(1, XDATA, add(CFA_XSP16, literal(-7)))
        CFI (cfiCond8) R7 load(1, XDATA, add(CFA_XSP16, literal(-6)))
        CFI (cfiCond8) ?RET_LOW load(1, XDATA, add(CFA_XSP16, literal(-5)))
        CFI (cfiCond8) ?RET_HIGH load(1, XDATA, add(CFA_XSP16, literal(-4)))
        CFI (cfiCond8) ?BRET_EXT load(1, XDATA, add(CFA_XSP16, literal(-3)))
        CFI (cfiCond8) DPL0 load(1, XDATA, add(CFA_XSP16, literal(-2)))
        CFI (cfiCond8) DPH0 load(1, XDATA, add(CFA_XSP16, literal(-1)))
        CFI (cfiCond8) CFA_SP SP+0
        CFI (cfiCond8) CFA_XSP16 add(XSP16, 41)
        CFI Block cfiCond9 Using cfiCommon0
        CFI (cfiCond9) NoFunction
        CFI (cfiCond9) Conditional ??CrossCallReturnLabel_11
        CFI (cfiCond9) R6 load(1, XDATA, add(CFA_XSP16, literal(-16)))
        CFI (cfiCond9) VB load(1, XDATA, add(CFA_XSP16, literal(-15)))
        CFI (cfiCond9) V0 load(1, XDATA, add(CFA_XSP16, literal(-14)))
        CFI (cfiCond9) V1 load(1, XDATA, add(CFA_XSP16, literal(-13)))
        CFI (cfiCond9) V2 load(1, XDATA, add(CFA_XSP16, literal(-12)))
        CFI (cfiCond9) V3 load(1, XDATA, add(CFA_XSP16, literal(-11)))
        CFI (cfiCond9) V4 load(1, XDATA, add(CFA_XSP16, literal(-10)))
        CFI (cfiCond9) V5 load(1, XDATA, add(CFA_XSP16, literal(-9)))
        CFI (cfiCond9) V6 load(1, XDATA, add(CFA_XSP16, literal(-8)))
        CFI (cfiCond9) V7 load(1, XDATA, add(CFA_XSP16, literal(-7)))
        CFI (cfiCond9) R7 load(1, XDATA, add(CFA_XSP16, literal(-6)))
        CFI (cfiCond9) ?RET_LOW load(1, XDATA, add(CFA_XSP16, literal(-5)))
        CFI (cfiCond9) ?RET_HIGH load(1, XDATA, add(CFA_XSP16, literal(-4)))
        CFI (cfiCond9) ?BRET_EXT load(1, XDATA, add(CFA_XSP16, literal(-3)))
        CFI (cfiCond9) DPL0 load(1, XDATA, add(CFA_XSP16, literal(-2)))
        CFI (cfiCond9) DPH0 load(1, XDATA, add(CFA_XSP16, literal(-1)))
        CFI (cfiCond9) CFA_SP SP+0
        CFI (cfiCond9) CFA_XSP16 add(XSP16, 41)
        CFI Block cfiPicker10 Using cfiCommon1
        CFI (cfiPicker10) NoFunction
        CFI (cfiPicker10) Picker
        LCALL   ??osal_strlen?relay
        MOV     A,R2
        MOV     ?V0 + 4,A
        RET
        CFI EndBlock cfiCond7
        CFI EndBlock cfiCond8
        CFI EndBlock cfiCond9
        CFI EndBlock cfiPicker10

        RSEG BANKED_CODE:CODE:NOROOT(0)
?Subroutine0:
        CFI Block cfiCond11 Using cfiCommon0
        CFI NoFunction
        CFI Conditional ??CrossCallReturnLabel_0
        CFI R6 load(1, XDATA, add(CFA_XSP16, literal(-16)))
        CFI VB load(1, XDATA, add(CFA_XSP16, literal(-15)))
        CFI V0 load(1, XDATA, add(CFA_XSP16, literal(-14)))
        CFI V1 load(1, XDATA, add(CFA_XSP16, literal(-13)))
        CFI V2 load(1, XDATA, add(CFA_XSP16, literal(-12)))
        CFI V3 load(1, XDATA, add(CFA_XSP16, literal(-11)))
        CFI V4 load(1, XDATA, add(CFA_XSP16, literal(-10)))
        CFI V5 load(1, XDATA, add(CFA_XSP16, literal(-9)))
        CFI V6 load(1, XDATA, add(CFA_XSP16, literal(-8)))
        CFI V7 load(1, XDATA, add(CFA_XSP16, literal(-7)))
        CFI R7 load(1, XDATA, add(CFA_XSP16, literal(-6)))
        CFI ?RET_LOW load(1, XDATA, add(CFA_XSP16, literal(-5)))
        CFI ?RET_HIGH load(1, XDATA, add(CFA_XSP16, literal(-4)))
        CFI ?BRET_EXT load(1, XDATA, add(CFA_XSP16, literal(-3)))
        CFI DPL0 load(1, XDATA, add(CFA_XSP16, literal(-2)))
        CFI DPH0 load(1, XDATA, add(CFA_XSP16, literal(-1)))
        CFI CFA_SP SP+0
        CFI CFA_XSP16 add(XSP16, 41)
        CFI Block cfiCond12 Using cfiCommon0
        CFI (cfiCond12) NoFunction
        CFI (cfiCond12) Conditional ??CrossCallReturnLabel_1
        CFI (cfiCond12) R6 load(1, XDATA, add(CFA_XSP16, literal(-16)))
        CFI (cfiCond12) VB load(1, XDATA, add(CFA_XSP16, literal(-15)))
        CFI (cfiCond12) V0 load(1, XDATA, add(CFA_XSP16, literal(-14)))
        CFI (cfiCond12) V1 load(1, XDATA, add(CFA_XSP16, literal(-13)))
        CFI (cfiCond12) V2 load(1, XDATA, add(CFA_XSP16, literal(-12)))
        CFI (cfiCond12) V3 load(1, XDATA, add(CFA_XSP16, literal(-11)))
        CFI (cfiCond12) V4 load(1, XDATA, add(CFA_XSP16, literal(-10)))
        CFI (cfiCond12) V5 load(1, XDATA, add(CFA_XSP16, literal(-9)))
        CFI (cfiCond12) V6 load(1, XDATA, add(CFA_XSP16, literal(-8)))
        CFI (cfiCond12) V7 load(1, XDATA, add(CFA_XSP16, literal(-7)))
        CFI (cfiCond12) R7 load(1, XDATA, add(CFA_XSP16, literal(-6)))
        CFI (cfiCond12) ?RET_LOW load(1, XDATA, add(CFA_XSP16, literal(-5)))
        CFI (cfiCond12) ?RET_HIGH load(1, XDATA, add(CFA_XSP16, literal(-4)))
        CFI (cfiCond12) ?BRET_EXT load(1, XDATA, add(CFA_XSP16, literal(-3)))
        CFI (cfiCond12) DPL0 load(1, XDATA, add(CFA_XSP16, literal(-2)))
        CFI (cfiCond12) DPH0 load(1, XDATA, add(CFA_XSP16, literal(-1)))
        CFI (cfiCond12) CFA_SP SP+0
        CFI (cfiCond12) CFA_XSP16 add(XSP16, 41)
        CFI Block cfiPicker13 Using cfiCommon1
        CFI (cfiPicker13) NoFunction
        CFI (cfiPicker13) Picker
        LCALL   ?Subroutine4 & 0xFFFF
??CrossCallReturnLabel_12:
        MOV     A,#0x20
        MOVX    @DPTR,A
        RET
        CFI EndBlock cfiCond11
        CFI EndBlock cfiCond12
        CFI EndBlock cfiPicker13
//  404 
//  405 /**************************************************************************************************
//  406  * @fn      HalLcdDisplayPercentBar
//  407  *
//  408  * @brief   Display percentage bar on the LCD
//  409  *
//  410  * @param   title   -
//  411  *          value   -
//  412  *
//  413  * @return  None
//  414  **************************************************************************************************/

        RSEG BANKED_CODE:CODE:NOROOT(0)
//  415 void HalLcdDisplayPercentBar( char *title, uint8 value )
HalLcdDisplayPercentBar:
        CFI Block cfiBlock14 Using cfiCommon0
        CFI Function HalLcdDisplayPercentBar
//  416 {
        FUNCALL HalLcdDisplayPercentBar, osal_memcpy
        LOCFRAME ISTACK, 0, STACK
        LOCFRAME PSTACK, 0, STACK
        LOCFRAME XSTACK, 32, STACK
        LOCFRAME IOVERLAY, 0, STATIC
        LOCFRAME DOVERLAY, 0, STATIC
        ARGFRAME ISTACK, 0, STACK
        ARGFRAME PSTACK, 0, STACK
        ARGFRAME XSTACK, 32, STACK
        ARGFRAME IOVERLAY, 0, STATIC
        ARGFRAME DOVERLAY, 0, STATIC
        FUNCALL HalLcdDisplayPercentBar, _ltoa
        LOCFRAME ISTACK, 0, STACK
        LOCFRAME PSTACK, 0, STACK
        LOCFRAME XSTACK, 31, STACK
        LOCFRAME IOVERLAY, 0, STATIC
        LOCFRAME DOVERLAY, 0, STATIC
        ARGFRAME ISTACK, 0, STACK
        ARGFRAME PSTACK, 0, STACK
        ARGFRAME XSTACK, 31, STACK
        ARGFRAME IOVERLAY, 0, STATIC
        ARGFRAME DOVERLAY, 0, STATIC
        MOV     A,#-0xc
        LCALL   ?BANKED_ENTER_XDATA
        CFI DPH0 load(1, XDATA, add(CFA_XSP16, literal(-1)))
        CFI DPL0 load(1, XDATA, add(CFA_XSP16, literal(-2)))
        CFI ?BRET_EXT load(1, XDATA, add(CFA_XSP16, literal(-3)))
        CFI ?RET_HIGH load(1, XDATA, add(CFA_XSP16, literal(-4)))
        CFI ?RET_LOW load(1, XDATA, add(CFA_XSP16, literal(-5)))
        CFI R7 load(1, XDATA, add(CFA_XSP16, literal(-6)))
        CFI V3 load(1, XDATA, add(CFA_XSP16, literal(-7)))
        CFI V2 load(1, XDATA, add(CFA_XSP16, literal(-8)))
        CFI V1 load(1, XDATA, add(CFA_XSP16, literal(-9)))
        CFI V0 load(1, XDATA, add(CFA_XSP16, literal(-10)))
        CFI VB load(1, XDATA, add(CFA_XSP16, literal(-11)))
        CFI R6 load(1, XDATA, add(CFA_XSP16, literal(-12)))
        CFI CFA_SP SP+0
        CFI CFA_XSP16 add(XSP16, 12)
        ; Saved register size: 12
        ; Auto size: 17
        MOV     A,#-0x11
        LCALL   ?ALLOC_XSTACK8
        CFI CFA_XSP16 add(XSP16, 29)
        MOV     A,R1
        MOV     R6,A
//  417 #if (HAL_LCD == TRUE)
//  418   uint8 percent;
//  419   uint8 leftOver;
//  420   uint8 buf[17];
//  421   uint32 err;
//  422   uint8 x;
//  423 
//  424   /* Write the title: */
//  425   HalLcdWriteString( title, HAL_LCD_LINE_1 );
//  426 
//  427   if ( value > 100 )
        CLR     C
        SUBB    A,#0x65
        JC      ??HalLcdDisplayPercentBar_0
//  428     value = 100;
        MOV     R6,#0x64
//  429 
//  430   /* convert to blocks */
//  431   percent = (byte)(value / 10);
??HalLcdDisplayPercentBar_0:
        MOV     B,#0xa
        MOV     A,R6
        DIV     AB
        MOV     ?V0 + 3,A
//  432   leftOver = (byte)(value % 10);
        MOV     A,R6
        MOV     B,#0xa
        DIV     AB
        MOV     R7,B
//  433 
//  434   /* Make window */
//  435   osal_memcpy( buf, "[          ]  ", 15 );
        ; Setup parameters for call to function osal_memcpy
        MOV     ?V0 + 0,#(`?<Constant "[          ]  ">` & 0xff)
        MOV     ?V0 + 1,#((`?<Constant "[          ]  ">` >> 8) & 0xff)
        MOV     ?V0 + 2,#0x0
        MOV     R0,#?V0 + 0
        LCALL   ?PUSH_XSTACK_I_THREE
        CFI CFA_XSP16 add(XSP16, 32)
        MOV     R4,#0xf
        MOV     R5,#0x0
        MOV     A,#0x3
        LCALL   ?XSTACK_DISP0_8
        MOV     R2,DPL
        MOV     R3,DPH
        LCALL   ??osal_memcpy?relay
        MOV     A,#0x3
        LCALL   ?DEALLOC_XSTACK8
        CFI CFA_XSP16 add(XSP16, 29)
//  436 
//  437   for ( x = 0; x < percent; x ++ )
        SJMP    ??HalLcdDisplayPercentBar_1
//  438   {
//  439     buf[1+x] = '>';
??HalLcdDisplayPercentBar_2:
        MOV     ?V0 + 0,?V0 + 2
        LCALL   ?Subroutine2 & 0xFFFF
??CrossCallReturnLabel_8:
        INC     DPTR
        MOV     A,#0x3e
        MOVX    @DPTR,A
//  440   }
        INC     ?V0 + 2
??HalLcdDisplayPercentBar_1:
        MOV     A,?V0 + 2
        CLR     C
        SUBB    A,?V0 + 3
        JC      ??HalLcdDisplayPercentBar_2
//  441 
//  442   if ( leftOver >= 5 )
        MOV     A,R7
        CLR     C
        SUBB    A,#0x5
        JC      ??HalLcdDisplayPercentBar_3
//  443     buf[1+x] = '+';
        MOV     DPL,?XSP + 0
        MOV     DPH,?XSP + 1
        MOV     A,DPL
        ADD     A,?V0 + 2
        MOV     DPL,A
        MOV     A,DPH
        ADDC    A,#0x0
        MOV     DPH,A
        INC     DPTR
        MOV     A,#0x2b
        MOVX    @DPTR,A
//  444 
//  445   err = (uint32)value;
//  446   _ltoa( err, (uint8*)&buf[13], 10 );
??HalLcdDisplayPercentBar_3:
        ; Setup parameters for call to function _ltoa
        MOV     A,#0xd
        LCALL   ?XSTACK_DISP0_8
        MOV     ?V0 + 0,DPL
        MOV     ?V0 + 1,DPH
        MOV     R0,#?V0 + 0
        LCALL   ?PUSH_XSTACK_I_TWO
        CFI CFA_XSP16 add(XSP16, 31)
        MOV     R1,#0xa
        MOV     A,R6
        MOV     R2,A
        MOV     R3,#0x0
        LCALL   ??Subroutine1_0 & 0xFFFF
??CrossCallReturnLabel_5:
        LCALL   ?DEALLOC_XSTACK8
        CFI CFA_XSP16 add(XSP16, 29)
//  447 
//  448   HalLcdWriteString( (char*)buf, HAL_LCD_LINE_2 );
//  449 #endif /* HAL_LCD */
//  450 }
        MOV     A,#0x11
        LCALL   ?DEALLOC_XSTACK8
        CFI CFA_XSP16 add(XSP16, 12)
        MOV     R7,#0x4
        LJMP    ?BANKED_LEAVE_XDATA
        CFI EndBlock cfiBlock14

        RSEG BANKED_CODE:CODE:NOROOT(0)
?Subroutine2:
        CFI Block cfiCond15 Using cfiCommon0
        CFI NoFunction
        CFI Conditional ??CrossCallReturnLabel_7
        CFI R6 load(1, XDATA, add(CFA_XSP16, literal(-16)))
        CFI VB load(1, XDATA, add(CFA_XSP16, literal(-15)))
        CFI V0 load(1, XDATA, add(CFA_XSP16, literal(-14)))
        CFI V1 load(1, XDATA, add(CFA_XSP16, literal(-13)))
        CFI V2 load(1, XDATA, add(CFA_XSP16, literal(-12)))
        CFI V3 load(1, XDATA, add(CFA_XSP16, literal(-11)))
        CFI V4 load(1, XDATA, add(CFA_XSP16, literal(-10)))
        CFI V5 load(1, XDATA, add(CFA_XSP16, literal(-9)))
        CFI V6 load(1, XDATA, add(CFA_XSP16, literal(-8)))
        CFI V7 load(1, XDATA, add(CFA_XSP16, literal(-7)))
        CFI R7 load(1, XDATA, add(CFA_XSP16, literal(-6)))
        CFI ?RET_LOW load(1, XDATA, add(CFA_XSP16, literal(-5)))
        CFI ?RET_HIGH load(1, XDATA, add(CFA_XSP16, literal(-4)))
        CFI ?BRET_EXT load(1, XDATA, add(CFA_XSP16, literal(-3)))
        CFI DPL0 load(1, XDATA, add(CFA_XSP16, literal(-2)))
        CFI DPH0 load(1, XDATA, add(CFA_XSP16, literal(-1)))
        CFI CFA_SP SP+0
        CFI CFA_XSP16 add(XSP16, 41)
        CFI Block cfiCond16 Using cfiCommon0
        CFI (cfiCond16) NoFunction
        CFI (cfiCond16) Conditional ??CrossCallReturnLabel_8
        CFI (cfiCond16) R6 load(1, XDATA, add(CFA_XSP16, literal(-12)))
        CFI (cfiCond16) VB load(1, XDATA, add(CFA_XSP16, literal(-11)))
        CFI (cfiCond16) V0 load(1, XDATA, add(CFA_XSP16, literal(-10)))
        CFI (cfiCond16) V1 load(1, XDATA, add(CFA_XSP16, literal(-9)))
        CFI (cfiCond16) V2 load(1, XDATA, add(CFA_XSP16, literal(-8)))
        CFI (cfiCond16) V3 load(1, XDATA, add(CFA_XSP16, literal(-7)))
        CFI (cfiCond16) R7 load(1, XDATA, add(CFA_XSP16, literal(-6)))
        CFI (cfiCond16) ?RET_LOW load(1, XDATA, add(CFA_XSP16, literal(-5)))
        CFI (cfiCond16) ?RET_HIGH load(1, XDATA, add(CFA_XSP16, literal(-4)))
        CFI (cfiCond16) ?BRET_EXT load(1, XDATA, add(CFA_XSP16, literal(-3)))
        CFI (cfiCond16) DPL0 load(1, XDATA, add(CFA_XSP16, literal(-2)))
        CFI (cfiCond16) DPH0 load(1, XDATA, add(CFA_XSP16, literal(-1)))
        CFI (cfiCond16) CFA_SP SP+0
        CFI (cfiCond16) CFA_XSP16 add(XSP16, 29)
        CFI Block cfiPicker17 Using cfiCommon1
        CFI (cfiPicker17) NoFunction
        CFI (cfiPicker17) Picker
        LCALL   ?Subroutine4 & 0xFFFF
??CrossCallReturnLabel_13:
        RET
        CFI EndBlock cfiCond15
        CFI EndBlock cfiCond16
        CFI EndBlock cfiPicker17

        RSEG BANKED_CODE:CODE:NOROOT(0)
?Subroutine4:
        CFI Block cfiCond18 Using cfiCommon0
        CFI NoFunction
        CFI Conditional ??CrossCallReturnLabel_12, ??CrossCallReturnLabel_0
        CFI R6 load(1, XDATA, add(CFA_XSP16, literal(-16)))
        CFI VB load(1, XDATA, add(CFA_XSP16, literal(-15)))
        CFI V0 load(1, XDATA, add(CFA_XSP16, literal(-14)))
        CFI V1 load(1, XDATA, add(CFA_XSP16, literal(-13)))
        CFI V2 load(1, XDATA, add(CFA_XSP16, literal(-12)))
        CFI V3 load(1, XDATA, add(CFA_XSP16, literal(-11)))
        CFI V4 load(1, XDATA, add(CFA_XSP16, literal(-10)))
        CFI V5 load(1, XDATA, add(CFA_XSP16, literal(-9)))
        CFI V6 load(1, XDATA, add(CFA_XSP16, literal(-8)))
        CFI V7 load(1, XDATA, add(CFA_XSP16, literal(-7)))
        CFI R7 load(1, XDATA, add(CFA_XSP16, literal(-6)))
        CFI ?RET_LOW load(1, XDATA, add(CFA_XSP16, literal(-5)))
        CFI ?RET_HIGH load(1, XDATA, add(CFA_XSP16, literal(-4)))
        CFI ?BRET_EXT load(1, XDATA, add(CFA_XSP16, literal(-3)))
        CFI DPL0 load(1, XDATA, add(CFA_XSP16, literal(-2)))
        CFI DPH0 load(1, XDATA, add(CFA_XSP16, literal(-1)))
        CFI CFA_SP SP+0
        CFI CFA_XSP16 add(XSP16, 41)
        CFI Block cfiCond19 Using cfiCommon0
        CFI (cfiCond19) NoFunction
        CFI (cfiCond19) Conditional ??CrossCallReturnLabel_12, ??CrossCallReturnLabel_1
        CFI (cfiCond19) R6 load(1, XDATA, add(CFA_XSP16, literal(-16)))
        CFI (cfiCond19) VB load(1, XDATA, add(CFA_XSP16, literal(-15)))
        CFI (cfiCond19) V0 load(1, XDATA, add(CFA_XSP16, literal(-14)))
        CFI (cfiCond19) V1 load(1, XDATA, add(CFA_XSP16, literal(-13)))
        CFI (cfiCond19) V2 load(1, XDATA, add(CFA_XSP16, literal(-12)))
        CFI (cfiCond19) V3 load(1, XDATA, add(CFA_XSP16, literal(-11)))
        CFI (cfiCond19) V4 load(1, XDATA, add(CFA_XSP16, literal(-10)))
        CFI (cfiCond19) V5 load(1, XDATA, add(CFA_XSP16, literal(-9)))
        CFI (cfiCond19) V6 load(1, XDATA, add(CFA_XSP16, literal(-8)))
        CFI (cfiCond19) V7 load(1, XDATA, add(CFA_XSP16, literal(-7)))
        CFI (cfiCond19) R7 load(1, XDATA, add(CFA_XSP16, literal(-6)))
        CFI (cfiCond19) ?RET_LOW load(1, XDATA, add(CFA_XSP16, literal(-5)))
        CFI (cfiCond19) ?RET_HIGH load(1, XDATA, add(CFA_XSP16, literal(-4)))
        CFI (cfiCond19) ?BRET_EXT load(1, XDATA, add(CFA_XSP16, literal(-3)))
        CFI (cfiCond19) DPL0 load(1, XDATA, add(CFA_XSP16, literal(-2)))
        CFI (cfiCond19) DPH0 load(1, XDATA, add(CFA_XSP16, literal(-1)))
        CFI (cfiCond19) CFA_SP SP+0
        CFI (cfiCond19) CFA_XSP16 add(XSP16, 41)
        CFI Block cfiCond20 Using cfiCommon0
        CFI (cfiCond20) NoFunction
        CFI (cfiCond20) Conditional ??CrossCallReturnLabel_13, ??CrossCallReturnLabel_7
        CFI (cfiCond20) R6 load(1, XDATA, add(CFA_XSP16, literal(-16)))
        CFI (cfiCond20) VB load(1, XDATA, add(CFA_XSP16, literal(-15)))
        CFI (cfiCond20) V0 load(1, XDATA, add(CFA_XSP16, literal(-14)))
        CFI (cfiCond20) V1 load(1, XDATA, add(CFA_XSP16, literal(-13)))
        CFI (cfiCond20) V2 load(1, XDATA, add(CFA_XSP16, literal(-12)))
        CFI (cfiCond20) V3 load(1, XDATA, add(CFA_XSP16, literal(-11)))
        CFI (cfiCond20) V4 load(1, XDATA, add(CFA_XSP16, literal(-10)))
        CFI (cfiCond20) V5 load(1, XDATA, add(CFA_XSP16, literal(-9)))
        CFI (cfiCond20) V6 load(1, XDATA, add(CFA_XSP16, literal(-8)))
        CFI (cfiCond20) V7 load(1, XDATA, add(CFA_XSP16, literal(-7)))
        CFI (cfiCond20) R7 load(1, XDATA, add(CFA_XSP16, literal(-6)))
        CFI (cfiCond20) ?RET_LOW load(1, XDATA, add(CFA_XSP16, literal(-5)))
        CFI (cfiCond20) ?RET_HIGH load(1, XDATA, add(CFA_XSP16, literal(-4)))
        CFI (cfiCond20) ?BRET_EXT load(1, XDATA, add(CFA_XSP16, literal(-3)))
        CFI (cfiCond20) DPL0 load(1, XDATA, add(CFA_XSP16, literal(-2)))
        CFI (cfiCond20) DPH0 load(1, XDATA, add(CFA_XSP16, literal(-1)))
        CFI (cfiCond20) CFA_SP SP+0
        CFI (cfiCond20) CFA_XSP16 add(XSP16, 41)
        CFI Block cfiCond21 Using cfiCommon0
        CFI (cfiCond21) NoFunction
        CFI (cfiCond21) Conditional ??CrossCallReturnLabel_13, ??CrossCallReturnLabel_8
        CFI (cfiCond21) R6 load(1, XDATA, add(CFA_XSP16, literal(-12)))
        CFI (cfiCond21) VB load(1, XDATA, add(CFA_XSP16, literal(-11)))
        CFI (cfiCond21) V0 load(1, XDATA, add(CFA_XSP16, literal(-10)))
        CFI (cfiCond21) V1 load(1, XDATA, add(CFA_XSP16, literal(-9)))
        CFI (cfiCond21) V2 load(1, XDATA, add(CFA_XSP16, literal(-8)))
        CFI (cfiCond21) V3 load(1, XDATA, add(CFA_XSP16, literal(-7)))
        CFI (cfiCond21) R7 load(1, XDATA, add(CFA_XSP16, literal(-6)))
        CFI (cfiCond21) ?RET_LOW load(1, XDATA, add(CFA_XSP16, literal(-5)))
        CFI (cfiCond21) ?RET_HIGH load(1, XDATA, add(CFA_XSP16, literal(-4)))
        CFI (cfiCond21) ?BRET_EXT load(1, XDATA, add(CFA_XSP16, literal(-3)))
        CFI (cfiCond21) DPL0 load(1, XDATA, add(CFA_XSP16, literal(-2)))
        CFI (cfiCond21) DPH0 load(1, XDATA, add(CFA_XSP16, literal(-1)))
        CFI (cfiCond21) CFA_SP SP+0
        CFI (cfiCond21) CFA_XSP16 add(XSP16, 29)
        CFI Block cfiPicker22 Using cfiCommon1
        CFI (cfiPicker22) NoFunction
        CFI (cfiPicker22) Picker
        MOV     DPL,?XSP + 0
        MOV     DPH,?XSP + 1
        MOV     A,DPL
        ADD     A,?V0 + 0
        MOV     DPL,A
        MOV     A,DPH
        ADDC    A,#0x0
        MOV     DPH,A
        RET
        CFI EndBlock cfiCond18
        CFI EndBlock cfiCond19
        CFI EndBlock cfiCond20
        CFI EndBlock cfiCond21
        CFI EndBlock cfiPicker22

        RSEG BANKED_CODE:CODE:NOROOT(0)
?Subroutine1:
        CFI Block cfiCond23 Using cfiCommon0
        CFI NoFunction
        CFI Conditional ??CrossCallReturnLabel_2
        CFI R6 load(1, XDATA, add(CFA_XSP16, literal(-14)))
        CFI VB load(1, XDATA, add(CFA_XSP16, literal(-13)))
        CFI V0 load(1, XDATA, add(CFA_XSP16, literal(-12)))
        CFI V1 load(1, XDATA, add(CFA_XSP16, literal(-11)))
        CFI V2 load(1, XDATA, add(CFA_XSP16, literal(-10)))
        CFI V3 load(1, XDATA, add(CFA_XSP16, literal(-9)))
        CFI V4 load(1, XDATA, add(CFA_XSP16, literal(-8)))
        CFI V5 load(1, XDATA, add(CFA_XSP16, literal(-7)))
        CFI R7 load(1, XDATA, add(CFA_XSP16, literal(-6)))
        CFI ?RET_LOW load(1, XDATA, add(CFA_XSP16, literal(-5)))
        CFI ?RET_HIGH load(1, XDATA, add(CFA_XSP16, literal(-4)))
        CFI ?BRET_EXT load(1, XDATA, add(CFA_XSP16, literal(-3)))
        CFI DPL0 load(1, XDATA, add(CFA_XSP16, literal(-2)))
        CFI DPH0 load(1, XDATA, add(CFA_XSP16, literal(-1)))
        CFI CFA_SP SP+0
        CFI CFA_XSP16 add(XSP16, 41)
        CFI Block cfiCond24 Using cfiCommon0
        CFI (cfiCond24) NoFunction
        CFI (cfiCond24) Conditional ??CrossCallReturnLabel_3
        CFI (cfiCond24) R6 load(1, XDATA, add(CFA_XSP16, literal(-16)))
        CFI (cfiCond24) VB load(1, XDATA, add(CFA_XSP16, literal(-15)))
        CFI (cfiCond24) V0 load(1, XDATA, add(CFA_XSP16, literal(-14)))
        CFI (cfiCond24) V1 load(1, XDATA, add(CFA_XSP16, literal(-13)))
        CFI (cfiCond24) V2 load(1, XDATA, add(CFA_XSP16, literal(-12)))
        CFI (cfiCond24) V3 load(1, XDATA, add(CFA_XSP16, literal(-11)))
        CFI (cfiCond24) V4 load(1, XDATA, add(CFA_XSP16, literal(-10)))
        CFI (cfiCond24) V5 load(1, XDATA, add(CFA_XSP16, literal(-9)))
        CFI (cfiCond24) V6 load(1, XDATA, add(CFA_XSP16, literal(-8)))
        CFI (cfiCond24) V7 load(1, XDATA, add(CFA_XSP16, literal(-7)))
        CFI (cfiCond24) R7 load(1, XDATA, add(CFA_XSP16, literal(-6)))
        CFI (cfiCond24) ?RET_LOW load(1, XDATA, add(CFA_XSP16, literal(-5)))
        CFI (cfiCond24) ?RET_HIGH load(1, XDATA, add(CFA_XSP16, literal(-4)))
        CFI (cfiCond24) ?BRET_EXT load(1, XDATA, add(CFA_XSP16, literal(-3)))
        CFI (cfiCond24) DPL0 load(1, XDATA, add(CFA_XSP16, literal(-2)))
        CFI (cfiCond24) DPH0 load(1, XDATA, add(CFA_XSP16, literal(-1)))
        CFI (cfiCond24) CFA_SP SP+0
        CFI (cfiCond24) CFA_XSP16 add(XSP16, 43)
        CFI Block cfiPicker25 Using cfiCommon1
        CFI (cfiPicker25) NoFunction
        CFI (cfiPicker25) Picker
        MOV     R1,?V0 + 3
        MOV     ?V0 + 0,R6
        MOV     ?V0 + 1,R7
        MOV     R2,?V0 + 0
        MOV     R3,?V0 + 1
        CFI Block cfiCond26 Using cfiCommon0
        CFI (cfiCond26) NoFunction
        CFI (cfiCond26) Conditional ??CrossCallReturnLabel_4
        CFI (cfiCond26) R6 load(1, XDATA, add(CFA_XSP16, literal(-16)))
        CFI (cfiCond26) VB load(1, XDATA, add(CFA_XSP16, literal(-15)))
        CFI (cfiCond26) V0 load(1, XDATA, add(CFA_XSP16, literal(-14)))
        CFI (cfiCond26) V1 load(1, XDATA, add(CFA_XSP16, literal(-13)))
        CFI (cfiCond26) V2 load(1, XDATA, add(CFA_XSP16, literal(-12)))
        CFI (cfiCond26) V3 load(1, XDATA, add(CFA_XSP16, literal(-11)))
        CFI (cfiCond26) V4 load(1, XDATA, add(CFA_XSP16, literal(-10)))
        CFI (cfiCond26) V5 load(1, XDATA, add(CFA_XSP16, literal(-9)))
        CFI (cfiCond26) V6 load(1, XDATA, add(CFA_XSP16, literal(-8)))
        CFI (cfiCond26) V7 load(1, XDATA, add(CFA_XSP16, literal(-7)))
        CFI (cfiCond26) R7 load(1, XDATA, add(CFA_XSP16, literal(-6)))
        CFI (cfiCond26) ?RET_LOW load(1, XDATA, add(CFA_XSP16, literal(-5)))
        CFI (cfiCond26) ?RET_HIGH load(1, XDATA, add(CFA_XSP16, literal(-4)))
        CFI (cfiCond26) ?BRET_EXT load(1, XDATA, add(CFA_XSP16, literal(-3)))
        CFI (cfiCond26) DPL0 load(1, XDATA, add(CFA_XSP16, literal(-2)))
        CFI (cfiCond26) DPH0 load(1, XDATA, add(CFA_XSP16, literal(-1)))
        CFI (cfiCond26) CFA_SP SP+0
        CFI (cfiCond26) CFA_XSP16 add(XSP16, 43)
        CFI Block cfiCond27 Using cfiCommon0
        CFI (cfiCond27) NoFunction
        CFI (cfiCond27) Conditional ??CrossCallReturnLabel_5
        CFI (cfiCond27) R6 load(1, XDATA, add(CFA_XSP16, literal(-12)))
        CFI (cfiCond27) VB load(1, XDATA, add(CFA_XSP16, literal(-11)))
        CFI (cfiCond27) V0 load(1, XDATA, add(CFA_XSP16, literal(-10)))
        CFI (cfiCond27) V1 load(1, XDATA, add(CFA_XSP16, literal(-9)))
        CFI (cfiCond27) V2 load(1, XDATA, add(CFA_XSP16, literal(-8)))
        CFI (cfiCond27) V3 load(1, XDATA, add(CFA_XSP16, literal(-7)))
        CFI (cfiCond27) R7 load(1, XDATA, add(CFA_XSP16, literal(-6)))
        CFI (cfiCond27) ?RET_LOW load(1, XDATA, add(CFA_XSP16, literal(-5)))
        CFI (cfiCond27) ?RET_HIGH load(1, XDATA, add(CFA_XSP16, literal(-4)))
        CFI (cfiCond27) ?BRET_EXT load(1, XDATA, add(CFA_XSP16, literal(-3)))
        CFI (cfiCond27) DPL0 load(1, XDATA, add(CFA_XSP16, literal(-2)))
        CFI (cfiCond27) DPH0 load(1, XDATA, add(CFA_XSP16, literal(-1)))
        CFI (cfiCond27) CFA_SP SP+0
        CFI (cfiCond27) CFA_XSP16 add(XSP16, 31)
??Subroutine1_0:
        MOV     R4,#0x0
        MOV     R5,#0x0
        CFI Block cfiCond28 Using cfiCommon0
        CFI (cfiCond28) NoFunction
        CFI (cfiCond28) Conditional ??CrossCallReturnLabel_6
        CFI (cfiCond28) R6 load(1, XDATA, add(CFA_XSP16, literal(-14)))
        CFI (cfiCond28) VB load(1, XDATA, add(CFA_XSP16, literal(-13)))
        CFI (cfiCond28) V0 load(1, XDATA, add(CFA_XSP16, literal(-12)))
        CFI (cfiCond28) V1 load(1, XDATA, add(CFA_XSP16, literal(-11)))
        CFI (cfiCond28) V2 load(1, XDATA, add(CFA_XSP16, literal(-10)))
        CFI (cfiCond28) V3 load(1, XDATA, add(CFA_XSP16, literal(-9)))
        CFI (cfiCond28) V4 load(1, XDATA, add(CFA_XSP16, literal(-8)))
        CFI (cfiCond28) V5 load(1, XDATA, add(CFA_XSP16, literal(-7)))
        CFI (cfiCond28) R7 load(1, XDATA, add(CFA_XSP16, literal(-6)))
        CFI (cfiCond28) ?RET_LOW load(1, XDATA, add(CFA_XSP16, literal(-5)))
        CFI (cfiCond28) ?RET_HIGH load(1, XDATA, add(CFA_XSP16, literal(-4)))
        CFI (cfiCond28) ?BRET_EXT load(1, XDATA, add(CFA_XSP16, literal(-3)))
        CFI (cfiCond28) DPL0 load(1, XDATA, add(CFA_XSP16, literal(-2)))
        CFI (cfiCond28) DPH0 load(1, XDATA, add(CFA_XSP16, literal(-1)))
        CFI (cfiCond28) CFA_SP SP+0
        CFI (cfiCond28) CFA_XSP16 add(XSP16, 41)
??Subroutine1_1:
        LCALL   ??_ltoa?relay
        MOV     A,#0x2
        RET
        CFI EndBlock cfiCond23
        CFI EndBlock cfiCond24
        CFI EndBlock cfiPicker25
        CFI EndBlock cfiCond26
        CFI EndBlock cfiCond27
        CFI EndBlock cfiCond28

        RSEG XDATA_ID:CODE:NOROOT(0)
        DATA
`?<Initializer for <Constant "[          ]  ">>`:
        DB "[          ]  "

        RSEG BANK_RELAYS:CODE:REORDER:NOROOT(0)
??HalLcdInit?relay:
        LCALL   ?BDISPATCH
        DATA
        DC24    HalLcdInit

        RSEG BANK_RELAYS:CODE:REORDER:NOROOT(0)
??HalLcdWriteString?relay:
        LCALL   ?BDISPATCH
        DATA
        DC24    HalLcdWriteString

        RSEG BANK_RELAYS:CODE:REORDER:NOROOT(0)
??HalLcdWriteValue?relay:
        LCALL   ?BDISPATCH
        DATA
        DC24    HalLcdWriteValue

        RSEG BANK_RELAYS:CODE:REORDER:NOROOT(0)
??HalLcdWriteScreen?relay:
        LCALL   ?BDISPATCH
        DATA
        DC24    HalLcdWriteScreen

        RSEG BANK_RELAYS:CODE:REORDER:NOROOT(0)
??HalLcdWriteStringValue?relay:
        LCALL   ?BDISPATCH
        DATA
        DC24    HalLcdWriteStringValue

        RSEG BANK_RELAYS:CODE:REORDER:NOROOT(0)
??HalLcdWriteStringValueValue?relay:
        LCALL   ?BDISPATCH
        DATA
        DC24    HalLcdWriteStringValueValue

        RSEG BANK_RELAYS:CODE:REORDER:NOROOT(0)
??HalLcdDisplayPercentBar?relay:
        LCALL   ?BDISPATCH
        DATA
        DC24    HalLcdDisplayPercentBar

        RSEG XDATA_I:XDATA:NOROOT(0)
        DATA
`?<Constant "[          ]  ">`:
        DS 15
        REQUIRE `?<Initializer for <Constant "[          ]  ">>`
        REQUIRE __INIT_XDATA_I

        END
//  451 
//  452 #if (defined LCD_HW) && (HAL_LCD == TRUE)
//  453 /*********************************************************************
//  454  * @fn      initLcd
//  455  * @brief   Initializes LCD I/O bus and LCD device
//  456  * @param   void
//  457  * @return  void
//  458  */
//  459 static void initLcd( void )
//  460 {
//  461   uint8 buffer[8];
//  462 
//  463   // Initialize the serial I/O bus
//  464   initSmb();
//  465 
//  466   // Load LCD initialization message
//  467   buffer[0] = LCD_ADDR;
//  468   buffer[1] = LCD_RS_0;  // Instruction Register
//  469   buffer[2] = 0x0C;      // Display control         D =  1:      Display On
//  470   //                                                C =  0:      Cursor Off
//  471   //                                                B =  0:      Cursor character blink off
//  472   buffer[3] = 0x21;      // Function set            H =  1:      Use extended instruction set
//  473   buffer[4] = 0xA0;      // Set DDRAM address       ADD = 0x20
//  474   buffer[5] = 0x07;      // Display configuration   P =  1:      Column data right to left
//  475   //                                                Q =  1:      Row data, bottom to top
//  476   buffer[6] = 0x34;      // Function set            DL=  0:      4 bits
//  477   //                                                M =  1:      2-line by 16 display
//  478   //                                                SL=  0:      MUX1:18
//  479   //                                                H =  0:      Use basic instruction set
//  480   buffer[7] = 0x01;      // Clearing display
//  481 
//  482   // Send message to LCD device
//  483   smbSend( buffer, 8 );
//  484 
//  485 }
//  486 
//  487 /*********************************************************************
//  488  * @fn      lcdUpdateLine
//  489  * @brief   Updates one line of the LCD display
//  490  * @param   line - LCD line numberptr to string going to LCD line 1
//  491  * @param   p2 - ptr to string going to LCD line 2
//  492  * @return  void
//  493  */
//  494 static void lcdUpdateLine( uint8 line, uint8 *pLine )
//  495 {
//  496   uint8 i;
//  497   uint8 chr;
//  498   uint8 addr;
//  499   uint8 *buffer;
//  500 
//  501   if ( line == HAL_LCD_LINE_1 )
//  502     addr = LCD_LINE1_ADDR;
//  503   else
//  504     addr = LCD_LINE2_ADDR;
//  505 
//  506   // Get a buffer to work with
//  507   buffer = osal_mem_alloc( 2+HAL_LCD_MAX_CHARS );
//  508   if ( buffer != NULL )
//  509   {
//  510     // Build and send control string
//  511     buffer[0] = LCD_ADDR;
//  512     buffer[1] = LCD_RS_0;
//  513     buffer[2] = addr;
//  514     smbSend( buffer, 3 );
//  515 
//  516     // Build and send message string
//  517     buffer[0] = LCD_ADDR;
//  518     buffer[1] = LCD_RS_1;
//  519     // Convert and save message bytes
//  520     for( i = 2; i < 2+HAL_LCD_MAX_CHARS; i++ )
//  521     {
//  522       chr = *pLine++;
//  523       if ( chr == '\0' )
//  524       {
//  525         chr = lcdConvertChar( ' ' );
//  526         break;
//  527       }
//  528       else
//  529         buffer[i] = lcdConvertChar( chr );
//  530     }
//  531 
//  532     // Fill remainder of line with blanks
//  533     for( ; i < 2+HAL_LCD_MAX_CHARS; i++ )
//  534       buffer[i] = chr;
//  535 
//  536     // Put it on the display
//  537     smbSend( buffer, 2+HAL_LCD_MAX_CHARS );
//  538 
//  539     // Give back buffer memory
//  540     osal_mem_free( buffer );
//  541   }
//  542 }
//  543 
//  544 /*********************************************************************
//  545  * @fn      lcdConvertChar
//  546  * @brief   Converts an ASCII character to an LCD character (R sheet)
//  547  * @param   aChar - ASCII character
//  548  * @return  lChar - LCD character
//  549  */
//  550 static byte lcdConvertChar( byte aChar )
//  551 {
//  552   uint8 lChar;
//  553 
//  554   if ((aChar >= 'a') && (aChar <= 'z'))
//  555     // Lower case
//  556     lChar = aChar + ('a' - 0xE1);
//  557   else if ((aChar >= 'A') && (aChar <= 'Z'))
//  558     // Upper case
//  559     lChar = aChar + ('A' - 0xC1);
//  560   else if (((aChar >= ' ') && (aChar <= '#')) ||
//  561            ((aChar >= '%') && (aChar <= '?')))
//  562     // Sonme symbols
//  563     lChar = aChar + (' ' - 0xA0);
//  564   else
//  565   {
//  566     switch ( aChar )
//  567     {
//  568       case '$':
//  569          lChar = 0x82;
//  570          break;
//  571       case '§':
//  572          lChar = 0xDF;
//  573          break;
//  574       case '£':
//  575          lChar = 0x81;
//  576          break;
//  577       case '@':
//  578          lChar = 0x80;
//  579          break;
//  580       case '[':
//  581          lChar = 0x8A;
//  582          break;
//  583       case ']':
//  584          lChar = 0x54;
//  585          break;
//  586       case '_':
//  587          lChar = 0x5A;
//  588          break;
//  589       case 'æ':
//  590          lChar = 0x9D;
//  591          break;
//  592       case 'ø':
//  593          lChar = 0x8C;
//  594          break;
//  595       case 'å':
//  596          lChar = 0x8F;
//  597          break;
//  598       case 'Æ':
//  599          lChar = 0x9C;
//  600          break;
//  601       case 'Ø':
//  602          lChar = 0x8B;
//  603          break;
//  604       case 'Å':
//  605          lChar = 0x8E;
//  606          break;
//  607       case 0x10:
//  608          lChar = 0x10;  // Left arrow
//  609          break;
//  610       case 0x11:
//  611          lChar = 0x20;  // Right arrow
//  612          break;
//  613       case 0x12:
//  614          lChar = 0x12;  // Up arrow
//  615          break;
//  616       case 0x13:
//  617          lChar = 0x30;  // Down arrow
//  618          break;
//  619       default:
//  620          lChar = 0x30;
//  621          break;
//  622     }
//  623   }
//  624 
//  625   return ( lChar );
//  626 }
//  627 
//  628 /*********************************************************************
//  629  * @fn      initSmb
//  630  * @brief   Initializes two-wire serial I/O bus
//  631  * @param   void
//  632  * @return  void
//  633  */
//  634 static void initSmb( void )
//  635 {
//  636   // Set port pins as inputs
//  637   IO_DIR_PORT_PIN( LCD_CLK_PORT, LCD_CLK_PIN, IO_IN );
//  638   IO_DIR_PORT_PIN( LCD_DATA_PORT, LCD_DATA_PIN, IO_IN );
//  639 
//  640   // Set for general I/O operation
//  641   IO_FUNC_PORT_PIN( LCD_CLK_PORT, LCD_CLK_PIN, IO_GIO );
//  642   IO_FUNC_PORT_PIN( LCD_DATA_PORT, LCD_DATA_PIN, IO_GIO );
//  643 
//  644   // Set I/O mode for pull-up/pull-down
//  645   IO_IMODE_PORT_PIN( LCD_CLK_PORT, LCD_CLK_PIN, IO_PUD );
//  646   IO_IMODE_PORT_PIN( LCD_DATA_PORT, LCD_DATA_PIN, IO_PUD );
//  647 
//  648   // Set pins to pull-up
//  649   IO_PUD_PORT( LCD_CLK_PORT, IO_PUP );
//  650   IO_PUD_PORT( LCD_DATA_PORT, IO_PUP );
//  651 }
//  652 
//  653 /*********************************************************************
//  654  * @fn      smbSend
//  655  * @brief   Sends buffer contents to SM-Bus device
//  656  * @param   buffer - ptr to buffered data to send
//  657  * @param   len - number of bytes in buffer
//  658  * @return  void
//  659  */
//  660 static void smbSend( uint8 *buffer, uint8 len )
//  661 {
//  662   uint8 i;
//  663 
//  664   smbStart();
//  665   for ( i = 0; i < len; i++ )
//  666   {
//  667     while ( !smbSendByte( buffer[i] ) );  // Send until ACK received
//  668   }
//  669   smbStop();
//  670 }
//  671 
//  672 /*********************************************************************
//  673  * @fn      smbSendByte
//  674  * @brief   Serialize and send one byte to SM-Bus device
//  675  * @param   dByte - data byte to send
//  676  * @return  ACK status - 0=none, 1=received
//  677  */
//  678 static bool smbSendByte( uint8 dByte )
//  679 {
//  680   uint8 i;
//  681 
//  682   for ( i = 0; i < 8; i++ )
//  683   {
//  684     // Send the MSB
//  685     smbWrite( dByte & 0x80 );
//  686     // Next bit into MSB
//  687     dByte <<= 1;
//  688   }
//  689   smbClock( 0 );
//  690   LCD_DATA_HIGH();
//  691   smbClock( 1 );
//  692 
//  693   return ( !LCD_SDA );  // Return ACK status
//  694 }
//  695 
//  696 /*********************************************************************
//  697  * @fn      smbWrite
//  698  * @brief   Send one bit to SM-Bus device
//  699  * @param   dBit - data bit to clock onto SM-Bus
//  700  * @return  void
//  701  */
//  702 static void smbWrite( bool dBit )
//  703 {
//  704   smbClock( 0 );
//  705   smbWait();
//  706   if ( dBit )
//  707   {
//  708     LCD_DATA_HIGH();
//  709   }
//  710   else
//  711   {
//  712     LCD_DATA_LOW();
//  713   }
//  714   smbClock( 1 );
//  715   smbWait();
//  716 }
//  717 
//  718 /*********************************************************************
//  719  * @fn      smbClock
//  720  * @brief   Clocks the SM-Bus. If a negative edge is going out, the
//  721  *          I/O pin is set as an output and driven low. If a positive
//  722  *          edge is going out, the pin is set as an input and the pin
//  723  *          pull-up drives the line high. This way, the slave device
//  724  *          can hold the node low if longer setup time is desired.
//  725  * @param   dir - clock line direction
//  726  * @return  void
//  727  */
//  728 static void smbClock( bool dir )
//  729 {
//  730   if ( dir )
//  731   {
//  732     IO_DIR_PORT_PIN( LCD_CLK_PORT, LCD_CLK_PIN, IO_IN );
//  733   }
//  734   else
//  735   {
//  736     IO_DIR_PORT_PIN( LCD_CLK_PORT, LCD_CLK_PIN, IO_OUT );
//  737     LCD_SCL = 0;
//  738   }
//  739   smbWait();
//  740 }
//  741 
//  742 /*********************************************************************
//  743  * @fn      smbStart
//  744  * @brief   Initiates SM-Bus communication. Makes sure that both the
//  745  *          clock and data lines of the SM-Bus are high. Then the data
//  746  *          line is set high and clock line is set low to start I/O.
//  747  * @param   void
//  748  * @return  void
//  749  */
//  750 static void smbStart( void )
//  751 {
//  752   // Wait for both clock and data line high
//  753   while ( !( LCD_SCL && LCD_SDA) );
//  754   LCD_DATA_LOW();
//  755   smbWait();
//  756   smbClock( 0 );
//  757 }
//  758 
//  759 /*********************************************************************
//  760  * @fn      smbStop
//  761  * @brief   Terminates SM-Bus communication. Waits unitl the data line
//  762  *          is low and the clock line is high. Then sets the data line
//  763  *          high, keeping the clock line high to stop I/O.
//  764  * @param   void
//  765  * @return  void
//  766  */
//  767 static void smbStop( void )
//  768 {
//  769   // Wait for clock high and data low
//  770   while ( !( LCD_SCL && !LCD_SDA) );
//  771   smbClock( 0 );
//  772   LCD_DATA_HIGH();
//  773   smbWait();
//  774   smbClock( 1 );
//  775 }
//  776 
//  777 /*********************************************************************
//  778  * @fn      smbWait
//  779  * @brief   Wastes a fixed amount of some time.
//  780  * @param   void
//  781  * @return  void
//  782  */
//  783 static void smbWait( void )
//  784 {
//  785   uint8 i = 0x01;
//  786   while ( i-- );
//  787 }
//  788 #endif // LCD_HW & HAL_LCD
//  789 
//  790 /**************************************************************************************************
//  791 **************************************************************************************************/
//  792 
//  793 
//  794 
//  795 
// 
// 539 bytes in segment BANKED_CODE
//  42 bytes in segment BANK_RELAYS
//  15 bytes in segment XDATA_I
//  15 bytes in segment XDATA_ID
// 
// 596 bytes of CODE  memory
//  15 bytes of XDATA memory
//
//Errors: none
//Warnings: none
