###############################################################################
#                                                                             #
# IAR 8051 C/C++ Compiler V7.30B/W32                    20/Dec/2012  21:41:04 #
# Copyright 2004-2007 IAR Systems. All rights reserved.                       #
#                                                                             #
#    Core               =  plain                                              #
#    Code model         =  banked                                             #
#    Data model         =  large                                              #
#    Calling convention =  xdata reentrant                                    #
#    Constant location  =  data                                               #
#    Dptr setup         =  1,16                                               #
#    Source file        =  C:\Texas Instruments\ZStack-1.4.3-1.2.1\Components #
#                          \stack\zdo\ZDObject.c                              #
#    Command line       =  -f "C:\Texas Instruments\ZStack-1.4.3-1.2.1\Projec #
#                          ts\zstack\Samples\AXDApp\CC2430DB\..\..\..\Tools\C #
#                          C2430DB\f8wEndev.cfg" (-DCPU32MHZ                  #
#                          -DFORCE_MAC_NEAR -DROOT=__near_func                #
#                          -DMAC_OPT_FFD=0 -DBLINK_LEDS "-DCONST=const        #
#                          __code" -DGENERIC=__generic) -f "C:\Texas          #
#                          Instruments\ZStack-1.4.3-1.2.1\Projects\zstack\Sam #
#                          ples\AXDApp\CC2430DB\..\..\..\Tools\CC2430DB\f8wCo #
#                          nfig.cfg" (-DSECURE=0 -DDEFAULT_CHANLIST=0x0000080 #
#                          0 -DZDAPP_CONFIG_PAN_ID=0xFFFF                     #
#                          -DNWK_START_DELAY=100 -DEXTENDED_JOINING_RANDOM_MA #
#                          SK=0x007F -DBEACON_REQUEST_DELAY=100               #
#                          -DBEACON_REQ_DELAY_MASK=0x00FF                     #
#                          -DROUTE_EXPIRY_TIME=30 -DAPSC_ACK_WAIT_DURATION_PO #
#                          LLED=3000 -DNWK_INDIRECT_MSG_TIMEOUT=7             #
#                          -DMAX_RREQ_ENTRIES=10 -DAPSC_MAX_FRAME_RETRIES=3   #
#                          -DNWK_MAX_DATA_RETRIES=2                           #
#                          -DMAX_POLL_FAILURE_RETRIES=2 -DMAX_BCAST=9         #
#                          -DAPS_MAX_GROUPS=16 -DMAX_RTG_ENTRIES=20           #
#                          -DNWK_MAX_BINDING_ENTRIES=10                       #
#                          -DMAX_BINDING_CLUSTER_IDS=5 "-DDEFAULT_KEY={0x01,  #
#                          0x03, 0x05, 0x07, 0x09, 0x0B, 0x0D, 0x0F, 0x00,    #
#                          0x02, 0x04, 0x06, 0x08, 0x0A, 0x0C, 0x0D}"         #
#                          -DRFD_RCVC_ALWAYS_ON=FALSE -DPOLL_RATE=1000        #
#                          -DQUEUED_POLL_RATE=100 -DRESPONSE_POLL_RATE=100)   #
#                          -DREJOIN_POLL_RATE=440 "C:\Texas                   #
#                          Instruments\ZStack-1.4.3-1.2.1\Components\stack\zd #
#                          o\ZDObject.c" -D CC2430DB -D NWK_AUTO_POLL -D      #
#                          REFLECTOR -D xZTOOL_P2 -D xMT_TASK -D              #
#                          xMT_ZDO_FUNC -D xLCD_SUPPORTED=DEBUG -D            #
#                          xPOWER_SAVING -lC "C:\Texas                        #
#                          Instruments\ZStack-1.4.3-1.2.1\Projects\zstack\Sam #
#                          ples\AXDApp\CC2430DB\EndDeviceDB\List\" -lA        #
#                          "C:\Texas Instruments\ZStack-1.4.3-1.2.1\Projects\ #
#                          zstack\Samples\AXDApp\CC2430DB\EndDeviceDB\List\"  #
#                          --diag_suppress Pe001,Pa010 --diag_remark pe550    #
#                          -o "C:\Texas Instruments\ZStack-1.4.3-1.2.1\Projec #
#                          ts\zstack\Samples\AXDApp\CC2430DB\EndDeviceDB\Obj\ #
#                          " -e --require_prototypes -z9 --no_code_motion     #
#                          --debug --core=plain --dptr=16,1                   #
#                          --data_model=large --code_model=banked             #
#                          --calling_convention=xdata_reentrant               #
#                          --place_constants=data --nr_virtual_regs 8 -I      #
#                          "C:\Texas Instruments\ZStack-1.4.3-1.2.1\Projects\ #
#                          zstack\Samples\AXDApp\CC2430DB\" -I "C:\Texas      #
#                          Instruments\ZStack-1.4.3-1.2.1\Projects\zstack\Sam #
#                          ples\AXDApp\CC2430DB\..\SOURCE\" -I "C:\Texas      #
#                          Instruments\ZStack-1.4.3-1.2.1\Projects\zstack\Sam #
#                          ples\AXDApp\CC2430DB\..\Drivers\" -I "C:\Texas     #
#                          Instruments\ZStack-1.4.3-1.2.1\Projects\zstack\Sam #
#                          ples\AXDApp\CC2430DB\..\..\..\ZMAIN\TI2430DB\" -I  #
#                          "C:\Texas Instruments\ZStack-1.4.3-1.2.1\Projects\ #
#                          zstack\Samples\AXDApp\CC2430DB\..\..\..\..\..\COMP #
#                          ONENTS\MT\" -I "C:\Texas                           #
#                          Instruments\ZStack-1.4.3-1.2.1\Projects\zstack\Sam #
#                          ples\AXDApp\CC2430DB\..\..\..\..\..\COMPONENTS\HAL #
#                          \INCLUDE\" -I "C:\Texas Instruments\ZStack-1.4.3-1 #
#                          .2.1\Projects\zstack\Samples\AXDApp\CC2430DB\..\.. #
#                          \..\..\..\COMPONENTS\HAL\TARGET\CC2430DB\" -I      #
#                          "C:\Texas Instruments\ZStack-1.4.3-1.2.1\Projects\ #
#                          zstack\Samples\AXDApp\CC2430DB\..\..\..\..\..\COMP #
#                          ONENTS\OSAL\MCU\CCSOC\" -I "C:\Texas               #
#                          Instruments\ZStack-1.4.3-1.2.1\Projects\zstack\Sam #
#                          ples\AXDApp\CC2430DB\..\..\..\..\..\COMPONENTS\OSA #
#                          L\INCLUDE\" -I "C:\Texas                           #
#                          Instruments\ZStack-1.4.3-1.2.1\Projects\zstack\Sam #
#                          ples\AXDApp\CC2430DB\..\..\..\..\..\COMPONENTS\STA #
#                          CK\AF\" -I "C:\Texas Instruments\ZStack-1.4.3-1.2. #
#                          1\Projects\zstack\Samples\AXDApp\CC2430DB\..\..\.. #
#                          \..\..\COMPONENTS\STACK\NWK\" -I "C:\Texas         #
#                          Instruments\ZStack-1.4.3-1.2.1\Projects\zstack\Sam #
#                          ples\AXDApp\CC2430DB\..\..\..\..\..\COMPONENTS\STA #
#                          CK\SEC\" -I "C:\Texas Instruments\ZStack-1.4.3-1.2 #
#                          .1\Projects\zstack\Samples\AXDApp\CC2430DB\..\..\. #
#                          .\..\..\COMPONENTS\STACK\SYS\" -I "C:\Texas        #
#                          Instruments\ZStack-1.4.3-1.2.1\Projects\zstack\Sam #
#                          ples\AXDApp\CC2430DB\..\..\..\..\..\COMPONENTS\STA #
#                          CK\ZDO\" -I "C:\Texas Instruments\ZStack-1.4.3-1.2 #
#                          .1\Projects\zstack\Samples\AXDApp\CC2430DB\..\..\. #
#                          .\..\..\COMPONENTS\ZMAC\F8W\" -I "C:\Texas         #
#                          Instruments\ZStack-1.4.3-1.2.1\Projects\zstack\Sam #
#                          ples\AXDApp\CC2430DB\..\..\..\..\..\COMPONENTS\ZMA #
#                          C\" -I "C:\Texas Instruments\ZStack-1.4.3-1.2.1\Pr #
#                          ojects\zstack\Samples\AXDApp\CC2430DB\..\..\..\..\ #
#                          ..\COMPONENTS\SERVICES\SADDR\" -I "C:\Texas        #
#                          Instruments\ZStack-1.4.3-1.2.1\Projects\zstack\Sam #
#                          ples\AXDApp\CC2430DB\..\..\..\..\..\COMPONENTS\SER #
#                          VICES\SDATA\" -I "C:\Texas                         #
#                          Instruments\ZStack-1.4.3-1.2.1\Projects\zstack\Sam #
#                          ples\AXDApp\CC2430DB\..\..\..\..\..\COMPONENTS\MAC #
#                          \INCLUDE\" -I "C:\Texas Instruments\ZStack-1.4.3-1 #
#                          .2.1\Projects\zstack\Samples\AXDApp\CC2430DB\..\.. #
#                          \..\..\..\COMPONENTS\MAC\HIGH_LEVEL\" -I           #
#                          "C:\Texas Instruments\ZStack-1.4.3-1.2.1\Projects\ #
#                          zstack\Samples\AXDApp\CC2430DB\..\..\..\..\..\COMP #
#                          ONENTS\MAC\LOW_LEVEL\SRF03\" -I "C:\Texas          #
#                          Instruments\ZStack-1.4.3-1.2.1\Projects\zstack\Sam #
#                          ples\AXDApp\CC2430DB\..\..\..\..\..\COMPONENTS\MAC #
#                          \LOW_LEVEL\SRF03\SINGLE_CHIP\" -I "C:\Program      #
#                          Files\IAR Systems\Embedded Workbench 4.0           #
#                          Evaluation version\8051\INC\" -I "C:\Program       #
#                          Files\IAR Systems\Embedded Workbench 4.0           #
#                          Evaluation version\8051\INC\CLIB\"                 #
#    List file          =  C:\Texas Instruments\ZStack-1.4.3-1.2.1\Projects\z #
#                          stack\Samples\AXDApp\CC2430DB\EndDeviceDB\List\ZDO #
#                          bject.lst                                          #
#    Object file        =  C:\Texas Instruments\ZStack-1.4.3-1.2.1\Projects\z #
#                          stack\Samples\AXDApp\CC2430DB\EndDeviceDB\Obj\ZDOb #
#                          ject.r51                                           #
#                                                                             #
#                                                                             #
###############################################################################

C:\Texas Instruments\ZStack-1.4.3-1.2.1\Components\stack\zdo\ZDObject.c
      1          /**************************************************************************************************
      2            Filename:       ZDObject.c
      3            Revised:        $Date: 2007-11-27 10:58:37 -0800 (Tue, 27 Nov 2007) $
      4            Revision:       $Revision: 15969 $
      5          
      6            Description:    This is the Zigbee Device Object.
      7          
      8          
      9            Copyright 2004-2007 Texas Instruments Incorporated. All rights reserved.
     10          
     11            IMPORTANT: Your use of this Software is limited to those specific rights
     12            granted under the terms of a software license agreement between the user
     13            who downloaded the software, his/her employer (which must be your employer)
     14            and Texas Instruments Incorporated (the "License").  You may not use this
     15            Software unless you agree to abide by the terms of the License. The License
     16            limits your use, and you acknowledge, that the Software may not be modified,
     17            copied or distributed unless embedded on a Texas Instruments microcontroller
     18            or used solely and exclusively in conjunction with a Texas Instruments radio
     19            frequency transceiver, which is integrated into your product.  Other than for
     20            the foregoing purpose, you may not use, reproduce, copy, prepare derivative
     21            works of, modify, distribute, perform, display or sell this Software and/or
     22            its documentation for any purpose.
     23          
     24            YOU FURTHER ACKNOWLEDGE AND AGREE THAT THE SOFTWARE AND DOCUMENTATION ARE
     25            PROVIDED “AS IS” WITHOUT WARRANTY OF ANY KIND, EITHER EXPRESS OR IMPLIED,
     26            INCLUDING WITHOUT LIMITATION, ANY WARRANTY OF MERCHANTABILITY, TITLE,
     27            NON-INFRINGEMENT AND FITNESS FOR A PARTICULAR PURPOSE. IN NO EVENT SHALL
     28            TEXAS INSTRUMENTS OR ITS LICENSORS BE LIABLE OR OBLIGATED UNDER CONTRACT,
     29            NEGLIGENCE, STRICT LIABILITY, CONTRIBUTION, BREACH OF WARRANTY, OR OTHER
     30            LEGAL EQUITABLE THEORY ANY DIRECT OR INDIRECT DAMAGES OR EXPENSES
     31            INCLUDING BUT NOT LIMITED TO ANY INCIDENTAL, SPECIAL, INDIRECT, PUNITIVE
     32            OR CONSEQUENTIAL DAMAGES, LOST PROFITS OR LOST DATA, COST OF PROCUREMENT
     33            OF SUBSTITUTE GOODS, TECHNOLOGY, SERVICES, OR ANY CLAIMS BY THIRD PARTIES
     34            (INCLUDING BUT NOT LIMITED TO ANY DEFENSE THEREOF), OR OTHER SIMILAR COSTS.
     35          
     36            Should you have any questions regarding your right to use this Software,
     37            contact Texas Instruments Incorporated at www.TI.com.
     38          **************************************************************************************************/
     39          
     40          /*********************************************************************
     41           * INCLUDES
     42           */
     43          #include "ZComdef.h"
     44          #include "OSAL.h"
     45          #include "OSAL_Nv.h"
     46          #include "rtg.h"
     47          #include "NLMEDE.h"
     48          #include "nwk_globals.h"
     49          #include "APS.h"
     50          #include "APSMEDE.h"
     51          #include "AssocList.h"
     52          #include "BindingTable.h"
     53          #include "AddrMgr.h"
     54          #include "AF.h"
     55          #include "ZDObject.h"
     56          #include "ZDProfile.h"
     57          #include "ZDConfig.h"
     58          #include "ZDSecMgr.h"
     59          #include "ZDApp.h"
     60          #include "nwk_util.h"   // NLME_IsAddressBroadcast()
     61          #include "ZGlobals.h"
     62          
     63          #if defined( LCD_SUPPORTED )
     64            #include "OnBoard.h"
     65          #endif
     66          
     67          /* HAL */
     68          #include "hal_lcd.h"
     69          
     70          /*********************************************************************
     71           * MACROS
     72           */
     73          
     74          /*********************************************************************
     75           * CONSTANTS
     76           */
     77          // NLME Stub Implementations
     78          #define ZDO_ProcessMgmtPermitJoinTimeout NLME_PermitJoiningTimeout
     79          
     80          // Status fields used by ZDO_ProcessMgmtRtgReq
     81          #define ZDO_MGMT_RTG_ENTRY_ACTIVE             0x00
     82          #define ZDO_MGMT_RTG_ENTRY_DISCOVERY_UNDERWAY 0x01
     83          #define ZDO_MGMT_RTG_ENTRY_DISCOVERY_FAILED   0x02
     84          #define ZDO_MGMT_RTG_ENTRY_INACTIVE           0x03
     85          
     86          #if !defined( CACHE_EP_MAX )
     87            #define CACHE_EP_MAX  15
     88          #endif
     89          
     90          /*********************************************************************
     91           * TYPEDEFS
     92           */
     93          #if defined ( REFLECTOR )
     94          typedef struct
     95          {
     96            byte SrcTransSeq;
     97            zAddrType_t SrcAddr;
     98            uint16 LocalCoordinator;
     99            byte epIntf;
    100            uint16 ProfileID;
    101            byte numInClusters;
    102            uint16 *inClusters;
    103            byte numOutClusters;
    104            uint16 *outClusters;
    105            byte SecurityUse;
    106            byte status;
    107          } ZDO_EDBind_t;
    108          #endif // defined ( REFLECTOR )
    109          
    110          #if defined ( ZDO_COORDINATOR )
    111          enum
    112          {
    113            ZDMATCH_INIT,           // Initialized
    114            ZDMATCH_WAIT_REQ,       // Received first request, waiting for second
    115            ZDMATCH_SENDING_BINDS   // Received both requests, sending unbind/binds
    116          };
    117          
    118          enum
    119          {
    120            ZDMATCH_SENDING_NOT,
    121            ZDMATCH_SENDING_UNBIND,
    122            ZDMATCH_SENDING_BIND
    123          };
    124          #endif
    125          
    126          /*********************************************************************
    127           * GLOBAL VARIABLES
    128           */
    129          #if defined ( ZDO_COORDINATOR )
    130            ZDMatchEndDeviceBind_t *matchED = (ZDMatchEndDeviceBind_t *)NULL;
    131          #endif
    132          
    133          /*********************************************************************
    134           * EXTERNAL VARIABLES
    135           */
    136          
    137          /*********************************************************************
    138           * EXTERNAL FUNCTIONS
    139           */
    140          
    141          /*********************************************************************
    142           * LOCAL VARIABLES
    143           */

   \                                 In  segment XDATA_Z, align 1, keep-with-next
    144          static uint16 ZDOBuildBuf[26];  // temp area to build data without allocation
   \                     ZDOBuildBuf:
   \   000000                DS 52
   \   000034                REQUIRE __INIT_XDATA_Z
    145          
    146          #if defined ( REFLECTOR )

   \                                 In  segment XDATA_Z, align 1, keep-with-next
    147          static ZDO_EDBind_t *ZDO_EDBind;     // Null when not used
   \                     ZDO_EDBind:
   \   000000                DS 2
   \   000002                REQUIRE __INIT_XDATA_Z
    148          #endif
    149          
    150          #if defined ( MANAGED_SCAN )
    151            uint32 managedScanNextChannel = 0;
    152            uint32 managedScanChannelMask = 0;
    153            uint8  managedScanTimesPerChannel = 0;
    154          #endif
    155          
    156          /*********************************************************************
    157           * LOCAL FUNCTIONS
    158           */
    159          static void ZDODeviceSetup( void );
    160          #if defined ( MANAGED_SCAN )
    161            static void ZDOManagedScan_Next( void );
    162          #endif
    163          #if defined ( REFLECTOR )
    164            static void ZDO_RemoveEndDeviceBind( void );
    165            static void ZDO_SendEDBindRsp( byte TransSeq, zAddrType_t *dstAddr, byte Status, byte secUse );
    166          #endif
    167          #if defined ( ZDO_COORDINATOR )
    168            static byte ZDO_CompareClusterLists( byte numList1, uint16 *list1,
    169                                          byte numList2, uint16 *list2, uint16 *pMatches );
    170          #endif
    171          #if defined ( ZDO_COORDINATOR )
    172            static void ZDO_RemoveMatchMemory( void );
    173            static uint8 ZDO_CopyMatchInfo( ZDEndDeviceBind_t *destReq, ZDEndDeviceBind_t *srcReq );
    174            static void ZDO_EndDeviceBindMatchTimeoutCB( void );
    175          #endif
    176          uint8 *ZDO_ConvertOTAClusters( uint8 cnt, uint8 *inBuf, uint16 *outList );
    177          
    178          /*********************************************************************
    179           * @fn          ZDO_Init
    180           *
    181           * @brief       ZDObject and ZDProfile initialization.
    182           *
    183           * @param       none
    184           *
    185           * @return      none
    186           */

   \                                 In  segment BANKED_CODE, align 1, keep-with-next
    187          void ZDO_Init( void )
   \                     ZDO_Init:
    188          {
   \   000000   C082         PUSH    DPL
   \   000002   C083         PUSH    DPH
   \   000004                ; Saved register size: 2
   \   000004                ; Auto size: 0
    189            // Initialize ZD items
    190            #if defined ( REFLECTOR )
    191            ZDO_EDBind = NULL;
   \   000004   90....       MOV     DPTR,#ZDO_EDBind
   \   000007   E4           CLR     A
   \   000008   F0           MOVX    @DPTR,A
   \   000009   A3           INC     DPTR
   \   00000A   F0           MOVX    @DPTR,A
    192            #endif
    193          
    194            // Setup the device - type of device to create.
    195            ZDODeviceSetup();
   \   00000B                ; Setup parameters for call to function APS_ReflectorInit
   \   00000B   7901         MOV     R1,#0x1
   \   00000D   12....       LCALL   ??APS_ReflectorInit?relay
   \   000010                ; Setup parameters for call to function NLME_DeviceJoiningInit
   \   000010   12....       LCALL   ??NLME_DeviceJoiningInit?relay
    196          }
   \   000013                REQUIRE ?Subroutine119
   \   000013                ; // Fall through to label ?Subroutine119

   \                                 In  segment BANKED_CODE, align 1, keep-with-next
   \                     ?Subroutine119:
   \   000000   D083         POP     DPH
   \   000002   D082         POP     DPL
   \   000004   02....       LJMP    ?BRET
    197          
    198          #if defined ( MANAGED_SCAN )
    199          /*********************************************************************
    200           * @fn      ZDOManagedScan_Next()
    201           *
    202           * @brief   Setup a managed scan.
    203           *
    204           * @param   none
    205           *
    206           * @return  none
    207           */
    208          static void ZDOManagedScan_Next( void )
    209          {
    210            // Is it the first time
    211            if ( managedScanNextChannel == 0 && managedScanTimesPerChannel == 0 )
    212            {
    213              // Setup the defaults
    214              managedScanNextChannel  = 1;
    215          
    216              while( managedScanNextChannel && (zgDefaultChannelList & managedScanNextChannel) == 0 )
    217                managedScanNextChannel <<= 1;
    218          
    219              managedScanChannelMask = managedScanNextChannel;
    220              managedScanTimesPerChannel = MANAGEDSCAN_TIMES_PRE_CHANNEL;
    221            }
    222            else
    223            {
    224              // Do we need to go to the next channel
    225              if ( managedScanTimesPerChannel == 0 )
    226              {
    227                // Find next active channel
    228                managedScanChannelMask  = managedScanNextChannel;
    229                managedScanTimesPerChannel = MANAGEDSCAN_TIMES_PRE_CHANNEL;
    230              }
    231              else
    232              {
    233                managedScanTimesPerChannel--;
    234          
    235                if ( managedScanTimesPerChannel == 0 )
    236                {
    237                  managedScanNextChannel  <<= 1;
    238                  while( managedScanNextChannel && (zgDefaultChannelList & managedScanNextChannel) == 0 )
    239                    managedScanNextChannel <<= 1;
    240          
    241                  if ( managedScanNextChannel == 0 )
    242                    zdoDiscCounter  = NUM_DISC_ATTEMPTS + 1; // Stop
    243                }
    244              }
    245            }
    246          }
    247          #endif // MANAGED_SCAN
    248          
    249          /*********************************************************************
    250           * @fn      ZDODeviceSetup()
    251           *
    252           * @brief   Call set functions depending on the type of device compiled.
    253           *
    254           * @param   none
    255           *
    256           * @return  none
    257           */
    258          static void ZDODeviceSetup( void )
    259          {
    260          #if defined( ZDO_COORDINATOR )
    261            NLME_CoordinatorInit();
    262          #endif
    263          
    264          #if defined ( REFLECTOR )
    265            #if defined ( ZDO_COORDINATOR )
    266              APS_ReflectorInit( APS_REFLECTOR_PUBLIC );
    267            #else
    268              APS_ReflectorInit( APS_REFLECTOR_PRIVATE );
    269            #endif
    270          #endif
    271          
    272          #if !defined( ZDO_COORDINATOR ) || defined( SOFT_START )
    273            NLME_DeviceJoiningInit();
    274          #endif
    275          }
    276          
    277          /*********************************************************************
    278           * @fn          ZDO_StartDevice
    279           *
    280           * @brief       This function starts a device in a network.
    281           *
    282           * @param       logicalType     - Device type to start
    283           *              startMode       - indicates mode of device startup
    284           *              beaconOrder     - indicates time betwen beacons
    285           *              superframeOrder - indicates length of active superframe
    286           *
    287           * @return      none
    288           */

   \                                 In  segment BANKED_CODE, align 1, keep-with-next
    289          void ZDO_StartDevice( byte logicalType, devStartModes_t startMode, byte beaconOrder, byte superframeOrder )
   \                     ZDO_StartDevice:
    290          {
   \   000000   74F4         MOV     A,#-0xc
   \   000002   12....       LCALL   ?BANKED_ENTER_XDATA
   \   000005                ; Saved register size: 12
   \   000005                ; Auto size: 11
   \   000005   74F5         MOV     A,#-0xb
   \   000007   12....       LCALL   ?ALLOC_XSTACK8
    291            ZStatus_t ret;
    292          
    293            ret = ZUnsupportedMode;
    294          
    295          #if defined(ZDO_COORDINATOR)
    296            if ( logicalType == NODETYPE_COORDINATOR )
    297            {
    298              if ( startMode == MODE_HARD )
    299              {
    300                devState = DEV_COORD_STARTING;
    301                ret = NLME_NetworkFormationRequest( zgConfigPANID, zgDefaultChannelList,
    302                                                    zgDefaultStartingScanDuration, beaconOrder,
    303                                                    superframeOrder, false );
    304              }
    305              else if ( startMode == MODE_RESUME )
    306              {
    307                // Just start the coordinator
    308                devState = DEV_COORD_STARTING;
    309                ret = NLME_StartRouterRequest( beaconOrder, beaconOrder, false );
    310              }
    311              else
    312              {
    313          #if defined( LCD_SUPPORTED )
    314                HalLcdWriteScreen( "StartDevice ERR", "MODE unknown" );
    315          #endif
    316              }
    317            }
    318          #endif  // !ZDO_COORDINATOR
    319          
    320          #if !defined ( ZDO_COORDINATOR ) || defined( SOFT_START )
    321            if ( logicalType == NODETYPE_ROUTER || logicalType == NODETYPE_DEVICE )
   \   00000A   7401         MOV     A,#0x1
   \   00000C   69           XRL     A,R1
   \   00000D   6005         JZ      ??ZDO_StartDevice_0
   \   00000F   7402         MOV     A,#0x2
   \   000011   69           XRL     A,R1
   \   000012   707C         JNZ     ??ZDO_StartDevice_1
    322            {
    323              if ( (startMode == MODE_JOIN) || (startMode == MODE_REJOIN) )
   \                     ??ZDO_StartDevice_0:
   \   000014   EA           MOV     A,R2
   \   000015   6005         JZ      ??ZDO_StartDevice_2
   \   000017   7403         MOV     A,#0x3
   \   000019   6A           XRL     A,R2
   \   00001A   7015         JNZ     ??ZDO_StartDevice_3
    324              {
    325                devState = DEV_NWK_DISC;
   \                     ??ZDO_StartDevice_2:
   \   00001C   7402         MOV     A,#0x2
   \   00001E   12....       LCALL   ?Subroutine20 & 0xFFFF
    326          
    327            #if defined( MANAGED_SCAN )
    328                ZDOManagedScan_Next();
    329                ret = NLME_NetworkDiscoveryRequest( managedScanChannelMask, BEACON_ORDER_15_MSEC );
    330            #else
    331                ret = NLME_NetworkDiscoveryRequest( zgDefaultChannelList, zgDefaultStartingScanDuration );
   \                     ??CrossCallReturnLabel_32:
   \   000021   12....       LCALL   ?L_MOV_X
   \   000024   AA..         MOV     R2,?V0 + 0
   \   000026   AB..         MOV     R3,?V0 + 1
   \   000028   AC..         MOV     R4,?V0 + 2
   \   00002A   AD..         MOV     R5,?V0 + 3
   \   00002C   12....       LCALL   ??NLME_NetworkDiscoveryRequest?relay
   \   00002F   805A         SJMP    ??ZDO_StartDevice_4
    332            #endif
    333              }
    334              else if ( startMode == MODE_RESUME )
   \                     ??ZDO_StartDevice_3:
   \   000031   7401         MOV     A,#0x1
   \   000033   6A           XRL     A,R2
   \   000034   705A         JNZ     ??ZDO_StartDevice_1
    335              {
    336                if ( logicalType == NODETYPE_ROUTER )
   \   000036   7401         MOV     A,#0x1
   \   000038   69           XRL     A,R1
   \   000039   703D         JNZ     ??ZDO_StartDevice_5
    337                {
    338                  ZMacScanCnf_t scanCnf;
    339                  devState = DEV_NWK_ORPHAN;
   \   00003B   740A         MOV     A,#0xa
   \   00003D   90....       MOV     DPTR,#devState
   \   000040   F0           MOVX    @DPTR,A
    340          
    341                  /* if router and nvram is available, fake successful orphan scan */
    342                  scanCnf.hdr.Status = ZSUCCESS;
   \   000041   7401         MOV     A,#0x1
   \   000043   12....       LCALL   ?XSTACK_DISP0_8
   \   000046   E4           CLR     A
   \   000047   F0           MOVX    @DPTR,A
    343                  scanCnf.ScanType = ZMAC_ORPHAN_SCAN;
   \   000048   7402         MOV     A,#0x2
   \   00004A   12....       LCALL   ?XSTACK_DISP0_8
   \   00004D   7403         MOV     A,#0x3
   \   00004F   F0           MOVX    @DPTR,A
    344                  scanCnf.UnscannedChannels = 0;
   \   000050   90....       MOV     DPTR,#__Constant_0
   \   000053   78..         MOV     R0,#?V0 + 0
   \   000055   12....       LCALL   ?L_MOV_X
   \   000058   7404         MOV     A,#0x4
   \   00005A   12....       LCALL   ?XSTACK_DISP0_8
   \   00005D   78..         MOV     R0,#?V0 + 0
   \   00005F   12....       LCALL   ?L_MOV_TO_X
    345                  scanCnf.ResultListSize = 0;
   \   000062   7408         MOV     A,#0x8
   \   000064   12....       LCALL   ?XSTACK_DISP0_8
   \   000067   E4           CLR     A
   \   000068   F0           MOVX    @DPTR,A
    346                  nwk_ScanJoiningOrphan(&scanCnf);
   \   000069                ; Setup parameters for call to function nwk_ScanJoiningOrphan
   \   000069   85..82       MOV     DPL,?XSP + 0
   \   00006C   85..83       MOV     DPH,?XSP + 1
   \   00006F   AA82         MOV     R2,DPL
   \   000071   AB83         MOV     R3,DPH
   \   000073   12....       LCALL   ??nwk_ScanJoiningOrphan?relay
    347          
    348                  ret = ZSuccess;
   \   000076   8028         SJMP    ??ZDO_StartDevice_6
    349                }
    350                else
    351                {
    352                  devState = DEV_NWK_ORPHAN;
   \                     ??ZDO_StartDevice_5:
   \   000078   740A         MOV     A,#0xa
   \   00007A   12....       LCALL   ?Subroutine20 & 0xFFFF
    353                  ret = NLME_OrphanJoinRequest( zgDefaultChannelList,
    354                                                zgDefaultStartingScanDuration );
   \                     ??CrossCallReturnLabel_33:
   \   00007D   12....       LCALL   ?L_MOV_X
   \   000080   AA..         MOV     R2,?V0 + 0
   \   000082   AB..         MOV     R3,?V0 + 1
   \   000084   AC..         MOV     R4,?V0 + 2
   \   000086   AD..         MOV     R5,?V0 + 3
   \   000088   12....       LCALL   ??NLME_OrphanJoinRequest?relay
   \                     ??ZDO_StartDevice_4:
   \   00008B   E9           MOV     A,R1
   \   00008C   FA           MOV     R2,A
    355                }
    356              }
    357              else
    358              {
    359          #if defined( LCD_SUPPORTED )
    360                HalLcdWriteScreen( "StartDevice ERR", "MODE unknown" );
    361          #endif
    362              }
    363            }
    364          #endif  //!ZDO COORDINATOR || SOFT_START
    365          
    366            if ( ret != ZSuccess )
   \   00008D   EA           MOV     A,R2
   \   00008E   6010         JZ      ??ZDO_StartDevice_6
    367              osal_start_timerEx(ZDAppTaskID, ZDO_NETWORK_INIT, NWK_RETRY_DELAY );
   \                     ??ZDO_StartDevice_1:
   \   000090                ; Setup parameters for call to function osal_start_timerEx
   \   000090   7CE8         MOV     R4,#-0x18
   \   000092   7D03         MOV     R5,#0x3
   \   000094   7A01         MOV     R2,#0x1
   \   000096   7B00         MOV     R3,#0x0
   \   000098   90....       MOV     DPTR,#ZDAppTaskID
   \   00009B   E0           MOVX    A,@DPTR
   \   00009C   F9           MOV     R1,A
   \   00009D   12....       LCALL   ??osal_start_timerEx?relay
    368          }
   \                     ??ZDO_StartDevice_6:
   \   0000A0   740B         MOV     A,#0xb
   \   0000A2   80..         SJMP    ?Subroutine120

   \                                 In  segment BANKED_CODE, align 1, keep-with-next
   \                     ?Subroutine20:
   \   000000   90....       MOV     DPTR,#devState
   \   000003   F0           MOVX    @DPTR,A
   \   000004                ; Setup parameters for call to function NLME_NetworkDiscoveryRequest
   \   000004                ; Setup parameters for call to function NLME_OrphanJoinRequest
   \   000004   90....       MOV     DPTR,#zgDefaultStartingScanDuration
   \   000007   E0           MOVX    A,@DPTR
   \   000008   F9           MOV     R1,A
   \   000009   90....       MOV     DPTR,#zgDefaultChannelList
   \   00000C   78..         MOV     R0,#?V0 + 0
   \   00000E   22           RET

   \                                 In  segment BANKED_CODE, align 1, keep-with-next
   \                     ?Subroutine120:
   \   000000   12....       LCALL   ?DEALLOC_XSTACK8
   \                     ??Subroutine120_0:
   \   000003   7F04         MOV     R7,#0x4
   \   000005   02....       LJMP    ?BANKED_LEAVE_XDATA
    369          
    370          /*********************************************************************
    371           * @fn      ZDO_UpdateNwkStatus()
    372           *
    373           * @brief
    374           *
    375           *   This function will send an update message to each registered
    376           *   application endpoint/interface about a network status change.
    377           *
    378           * @param   none
    379           *
    380           * @return  none
    381           */

   \                                 In  segment BANKED_CODE, align 1, keep-with-next
    382          void ZDO_UpdateNwkStatus( devStates_t state )
   \                     ZDO_UpdateNwkStatus:
    383          {
   \   000000   74F4         MOV     A,#-0xc
   \   000002   12....       LCALL   ?BANKED_ENTER_XDATA
   \   000005                ; Saved register size: 12
   \   000005                ; Auto size: 0
   \   000005   89..         MOV     ?V0 + 0,R1
    384            // Endpoint/Interface descriptor list.
    385            epList_t *epDesc = epList;
   \   000007   90....       MOV     DPTR,#epList
   \   00000A   12....       LCALL   ??Subroutine57_0 & 0xFFFF
    386            byte bufLen = sizeof(osal_event_hdr_t);
    387            osal_event_hdr_t *msgPtr;
    388          
    389            ZDAppNwkAddr.addr.shortAddr = NLME_GetShortAddr();
   \                     ??CrossCallReturnLabel_116:
   \   00000D                ; Setup parameters for call to function NLME_GetShortAddr
   \   00000D   12....       LCALL   ??NLME_GetShortAddr?relay
   \   000010   90....       MOV     DPTR,#ZDAppNwkAddr
   \   000013   12....       LCALL   ?Subroutine26 & 0xFFFF
    390            (void)NLME_GetExtAddr();  // Load the saveExtAddr pointer.
   \                     ??CrossCallReturnLabel_47:
   \   000016                ; Setup parameters for call to function NLME_GetExtAddr
   \   000016   12....       LCALL   ??NLME_GetExtAddr?relay
   \   000019   802F         SJMP    ??CrossCallReturnLabel_117
    391          
    392            while ( epDesc )
    393            {
    394              if ( epDesc->epDesc->endPoint != ZDO_EP )
   \                     ??ZDO_UpdateNwkStatus_0:
   \   00001B   8E82         MOV     DPL,R6
   \   00001D   8F83         MOV     DPH,R7
   \   00001F   12....       LCALL   ?Subroutine35 & 0xFFFF
   \                     ??CrossCallReturnLabel_77:
   \   000022   601A         JZ      ??CrossCallReturnLabel_75
    395              {
    396                msgPtr = (osal_event_hdr_t *)osal_msg_allocate( bufLen );
   \   000024                ; Setup parameters for call to function osal_msg_allocate
   \   000024   7A02         MOV     R2,#0x2
   \   000026   7B00         MOV     R3,#0x0
   \   000028   12....       LCALL   ??osal_msg_allocate?relay
    397                if ( msgPtr )
   \   00002B   EA           MOV     A,R2
   \   00002C   7001         JNZ     ??ZDO_UpdateNwkStatus_1
   \   00002E   EB           MOV     A,R3
   \                     ??ZDO_UpdateNwkStatus_1:
   \   00002F   600D         JZ      ??CrossCallReturnLabel_75
    398                {
    399                  msgPtr->event = ZDO_STATE_CHANGE; // Command ID
   \   000031   74D1         MOV     A,#-0x2f
   \   000033   8A82         MOV     DPL,R2
   \   000035   8B83         MOV     DPH,R3
   \   000037   F0           MOVX    @DPTR,A
    400                  msgPtr->status = (byte)state;
   \   000038   12....       LCALL   ?Subroutine90 & 0xFFFF
    401          
    402                  osal_msg_send( *(epDesc->epDesc->task_id), (byte *)msgPtr );
   \                     ??CrossCallReturnLabel_328:
   \   00003B   12....       LCALL   ?Subroutine34 & 0xFFFF
    403                }
    404              }
    405              epDesc = epDesc->nextDesc;
   \                     ??CrossCallReturnLabel_75:
   \   00003E   8E82         MOV     DPL,R6
   \   000040   8F83         MOV     DPH,R7
   \   000042   A3           INC     DPTR
   \   000043   A3           INC     DPTR
   \   000044   A3           INC     DPTR
   \   000045   A3           INC     DPTR
   \   000046   A3           INC     DPTR
   \   000047   12....       LCALL   ??Subroutine57_0 & 0xFFFF
    406            }
   \                     ??CrossCallReturnLabel_117:
   \   00004A   EE           MOV     A,R6
   \   00004B   7001         JNZ     ??ZDO_UpdateNwkStatus_2
   \   00004D   EF           MOV     A,R7
   \                     ??ZDO_UpdateNwkStatus_2:
   \   00004E   70CB         JNZ     ??ZDO_UpdateNwkStatus_0
    407          }
   \   000050   80..         SJMP    ??Subroutine120_0

   \                                 In  segment BANKED_CODE, align 1, keep-with-next
   \                     ?Subroutine26:
   \   000000   EA           MOV     A,R2
   \                     ??Subroutine26_0:
   \   000001   F0           MOVX    @DPTR,A
   \   000002   A3           INC     DPTR
   \   000003   EB           MOV     A,R3
   \   000004   F0           MOVX    @DPTR,A
   \   000005   22           RET

   \                                 In  segment BANKED_CODE, align 1, keep-with-next
   \                     ?Subroutine57:
   \   000000   F583         MOV     DPH,A
   \                     ??Subroutine57_0:
   \   000002   E0           MOVX    A,@DPTR
   \   000003   FE           MOV     R6,A
   \   000004   A3           INC     DPTR
   \   000005   E0           MOVX    A,@DPTR
   \   000006   FF           MOV     R7,A
   \   000007   22           RET

   \                                 In  segment BANKED_CODE, align 1, keep-with-next
   \                     ?Subroutine106:
   \   000000   E0           MOVX    A,@DPTR
   \   000001   F8           MOV     R0,A
   \                     ??Subroutine106_0:
   \   000002   A3           INC     DPTR
   \                     ??Subroutine106_1:
   \   000003   E0           MOVX    A,@DPTR
   \   000004   F583         MOV     DPH,A
   \   000006   8882         MOV     DPL,R0
   \   000008   22           RET

   \                                 In  segment BANKED_CODE, align 1, keep-with-next
   \                     ?Subroutine35:
   \   000000   12....       LCALL   ?Subroutine105 & 0xFFFF
   \                     ??CrossCallReturnLabel_230:
   \   000003   22           RET

   \                                 In  segment BANKED_CODE, align 1, keep-with-next
   \                     ?Subroutine105:
   \   000000   E0           MOVX    A,@DPTR
   \                     ??Subroutine105_0:
   \   000001   F8           MOV     R0,A
   \   000002   A3           INC     DPTR
   \   000003   E0           MOVX    A,@DPTR
   \   000004   F583         MOV     DPH,A
   \   000006   8882         MOV     DPL,R0
   \   000008   E0           MOVX    A,@DPTR
   \   000009   22           RET

   \                                 In  segment BANKED_CODE, align 1, keep-with-next
   \                     ?Subroutine34:
   \   000000   12....       LCALL   ?Subroutine106 & 0xFFFF
   \                     ??CrossCallReturnLabel_233:
   \   000003   A3           INC     DPTR
   \   000004   12....       LCALL   ?Subroutine105 & 0xFFFF
   \                     ??CrossCallReturnLabel_229:
   \   000007   F9           MOV     R1,A
   \   000008   12....       LCALL   ??osal_msg_send?relay
   \   00000B   22           RET

   \                                 In  segment BANKED_CODE, align 1, keep-with-next
   \                     ?Subroutine131:
   \   000000   8E82         MOV     DPL,R6
   \   000002   8F83         MOV     DPH,R7
   \   000004   22           RET

   \                                 In  segment BANKED_CODE, align 1, keep-with-next
   \                     ?Subroutine90:
   \   000000   A3           INC     DPTR
   \   000001   E5..         MOV     A,?V0 + 0
   \                     ??Subroutine90_0:
   \   000003   F0           MOVX    @DPTR,A
   \   000004                ; Setup parameters for call to function osal_msg_send
   \   000004                ; Setup parameters for call to function osal_memcpy
   \   000004   02....       LJMP    ?Subroutine131 & 0xFFFF
    408          
    409          #if defined ( REFLECTOR )
    410          /*********************************************************************
    411           * @fn          ZDO_RemoveEndDeviceBind
    412           *
    413           * @brief       Remove the end device bind
    414           *
    415           * @param  none
    416           *
    417           * @return      none
    418           */
    419          static void ZDO_RemoveEndDeviceBind( void )
    420          {
    421            if ( ZDO_EDBind )
    422            {
    423              // Free the RAM
    424              if ( ZDO_EDBind->inClusters )
    425                osal_mem_free( ZDO_EDBind->inClusters );
    426              if ( ZDO_EDBind->outClusters )
    427                osal_mem_free( ZDO_EDBind->outClusters );
    428              osal_mem_free( ZDO_EDBind );
    429              ZDO_EDBind = NULL;
    430            }
    431          }
    432          #endif // REFLECTOR
    433          
    434          #if defined ( REFLECTOR )
    435          /*********************************************************************
    436           * @fn          ZDO_RemoveEndDeviceBind
    437           *
    438           * @brief       Remove the end device bind
    439           *
    440           * @param  none
    441           *
    442           * @return      none
    443           */
    444          static void ZDO_SendEDBindRsp( byte TransSeq, zAddrType_t *dstAddr, byte Status, byte secUse )
    445          {
    446            ZDP_EndDeviceBindRsp( TransSeq, dstAddr, Status, secUse );
    447          
    448          #if defined( LCD_SUPPORTED )
    449            HalLcdWriteString( "End Device Bind", HAL_LCD_LINE_1 );
    450            if ( Status == ZDP_SUCCESS )
    451              HalLcdWriteString( "Success Sent", HAL_LCD_LINE_2 );
    452            else
    453              HalLcdWriteString( "Timeout", HAL_LCD_LINE_2 );
    454          #endif
    455          
    456          }
    457          #endif // REFLECTOR
    458          
    459          #if defined ( ZDO_COORDINATOR )
    460          /*********************************************************************
    461           * @fn          ZDO_CompareClusterLists
    462           *
    463           * @brief       Compare one list to another list
    464           *
    465           * @param       numList1 - number of items in list 1
    466           * @param       list1 - first list of cluster IDs
    467           * @param       numList2 - number of items in list 2
    468           * @param       list2 - second list of cluster IDs
    469           * @param       pMatches - buffer to put matches
    470           *
    471           * @return      number of matches
    472           */
    473          static byte ZDO_CompareClusterLists( byte numList1, uint16 *list1,
    474                                    byte numList2, uint16 *list2, uint16 *pMatches )
    475          {
    476            byte x, y;
    477            uint16 z;
    478            byte numMatches = 0;
    479          
    480            // Check the first in against the seconds out
    481            for ( x = 0; x < numList1; x++ )
    482            {
    483              for ( y = 0; y < numList2; y++ )
    484              {
    485                z = list2[y];
    486                if ( list1[x] == z )
    487                  pMatches[numMatches++] = z;
    488              }
    489            }
    490          
    491            return ( numMatches );
    492          }
    493          #endif // ZDO_COORDINATOR
    494          
    495          
    496          /*********************************************************************
    497           * Utility functions
    498           */
    499          
    500          /*********************************************************************
    501           * @fn          ZDO_CompareByteLists
    502           *
    503           * @brief       Compares two lists for matches.
    504           *
    505           * @param       ACnt  - number of entries in list A
    506           * @param       AList  - List A
    507           * @param       BCnt  - number of entries in list B
    508           * @param       BList  - List B
    509           *
    510           * @return      true if a match is found
    511           */

   \                                 In  segment BANKED_CODE, align 1, keep-with-next
    512          byte ZDO_AnyClusterMatches( byte ACnt, uint16 *AList, byte BCnt, uint16 *BList )
   \                     ZDO_AnyClusterMatches:
    513          {
   \   000000   74F4         MOV     A,#-0xc
   \   000002   12....       LCALL   ?BANKED_ENTER_XDATA
   \   000005                ; Saved register size: 12
   \   000005                ; Auto size: 0
   \   000005   89..         MOV     ?V0 + 0,R1
   \   000007   8C..         MOV     ?V0 + 1,R4
   \   000009   740C         MOV     A,#0xc
   \   00000B   12....       LCALL   ?XSTACK_DISP0_8
   \   00000E   12....       LCALL   ?Subroutine104 & 0xFFFF
    514            byte x, y;
    515          
    516            for ( x = 0; x < ACnt; x++ )
   \                     ??CrossCallReturnLabel_224:
   \   000011   75..00       MOV     ?V0 + 3,#0x0
   \   000014   8002         SJMP    ??ZDO_AnyClusterMatches_0
   \                     ??ZDO_AnyClusterMatches_1:
   \   000016   05..         INC     ?V0 + 3
   \                     ??ZDO_AnyClusterMatches_0:
   \   000018   E5..         MOV     A,?V0 + 3
   \   00001A   C3           CLR     C
   \   00001B   95..         SUBB    A,?V0 + 0
   \   00001D   503C         JNC     ??ZDO_AnyClusterMatches_2
    517            {
    518              for ( y = 0; y < BCnt; y++ )
   \   00001F   75..00       MOV     ?V0 + 2,#0x0
   \   000022   8002         SJMP    ??ZDO_AnyClusterMatches_3
   \                     ??ZDO_AnyClusterMatches_4:
   \   000024   05..         INC     ?V0 + 2
   \                     ??ZDO_AnyClusterMatches_3:
   \   000026   E5..         MOV     A,?V0 + 2
   \   000028   C3           CLR     C
   \   000029   95..         SUBB    A,?V0 + 1
   \   00002B   50E9         JNC     ??ZDO_AnyClusterMatches_1
    519              {
    520                if ( AList[x] == BList[y] )
   \   00002D   E5..         MOV     A,?V0 + 3
   \   00002F   C3           CLR     C
   \   000030   33           RLC     A
   \   000031   FC           MOV     R4,A
   \   000032   E4           CLR     A
   \   000033   33           RLC     A
   \   000034   FD           MOV     R5,A
   \   000035   EA           MOV     A,R2
   \   000036   2C           ADD     A,R4
   \   000037   F582         MOV     DPL,A
   \   000039   EB           MOV     A,R3
   \   00003A   3D           ADDC    A,R5
   \   00003B   12....       LCALL   ?Subroutine57 & 0xFFFF
   \                     ??CrossCallReturnLabel_118:
   \   00003E   E5..         MOV     A,?V0 + 2
   \   000040   C3           CLR     C
   \   000041   33           RLC     A
   \   000042   FC           MOV     R4,A
   \   000043   E4           CLR     A
   \   000044   33           RLC     A
   \   000045   FD           MOV     R5,A
   \   000046   E8           MOV     A,R0
   \   000047   2C           ADD     A,R4
   \   000048   F582         MOV     DPL,A
   \   00004A   E9           MOV     A,R1
   \   00004B   3D           ADDC    A,R5
   \   00004C   F583         MOV     DPH,A
   \   00004E   E0           MOVX    A,@DPTR
   \   00004F   6E           XRL     A,R6
   \   000050   7003         JNZ     ??ZDO_AnyClusterMatches_5
   \   000052   A3           INC     DPTR
   \   000053   E0           MOVX    A,@DPTR
   \   000054   6F           XRL     A,R7
   \                     ??ZDO_AnyClusterMatches_5:
   \   000055   70CD         JNZ     ??ZDO_AnyClusterMatches_4
    521                {
    522                  return true;
   \   000057   7901         MOV     R1,#0x1
   \   000059   8002         SJMP    ??ZDO_AnyClusterMatches_6
    523                }
    524              }
    525            }
    526          
    527            return false;
   \                     ??ZDO_AnyClusterMatches_2:
   \   00005B   7900         MOV     R1,#0x0
   \                     ??ZDO_AnyClusterMatches_6:
   \   00005D   80..         SJMP    ??Subroutine120_0
    528          }

   \                                 In  segment BANKED_CODE, align 1, keep-with-next
   \                     ?Subroutine104:
   \   000000   E0           MOVX    A,@DPTR
   \   000001   F8           MOV     R0,A
   \   000002   A3           INC     DPTR
   \   000003   E0           MOVX    A,@DPTR
   \   000004   F9           MOV     R1,A
   \   000005   22           RET
    529          
    530          /*********************************************************************
    531           * Callback functions from ZDProfile
    532           */
    533          
    534          /*********************************************************************
    535           * @fn          ZDO_ProcessNodeDescReq
    536           *
    537           * @brief       This function processes and responds to the
    538           *              Node_Desc_req message.
    539           *
    540           * @param       inMsg - incoming message
    541           *
    542           * @return      none
    543           */

   \                                 In  segment BANKED_CODE, align 1, keep-with-next
    544          void ZDO_ProcessNodeDescReq( zdoIncomingMsg_t *inMsg )
   \                     ZDO_ProcessNodeDescReq:
    545          {
   \   000000   74F6         MOV     A,#-0xa
   \   000002   12....       LCALL   ?BANKED_ENTER_XDATA
   \   000005                ; Saved register size: 10
   \   000005                ; Auto size: 0
   \   000005   12....       LCALL   ?Subroutine36 & 0xFFFF
    546            uint16 aoi = BUILD_UINT16( inMsg->asdu[0], inMsg->asdu[1] );
    547            NodeDescriptorFormat_t *desc = NULL;
    548          
    549            if ( aoi == ZDAppNwkAddr.addr.shortAddr )
   \                     ??CrossCallReturnLabel_82:
   \   000008   7003         JNZ     ??ZDO_ProcessNodeDescReq_0
   \   00000A   A3           INC     DPTR
   \   00000B   E0           MOVX    A,@DPTR
   \   00000C   6D           XRL     A,R5
   \                     ??ZDO_ProcessNodeDescReq_0:
   \   00000D   7017         JNZ     ??ZDO_ProcessNodeDescReq_1
    550            {
    551              desc = &ZDO_Config_Node_Descriptor;
    552            }
    553          
    554            if ( desc != NULL )
    555            {
    556              ZDP_NodeDescMsg( inMsg, aoi, desc );
   \   00000F                ; Setup parameters for call to function ZDP_NodeDescMsg
   \   00000F   75....       MOV     ?V0 + 0,#(ZDO_Config_Node_Descriptor & 0xff)
   \   000012   75....       MOV     ?V0 + 1,#((ZDO_Config_Node_Descriptor >> 8) & 0xff)
   \   000015   78..         MOV     R0,#?V0 + 0
   \   000017   12....       LCALL   ?PUSH_XSTACK_I_TWO
   \   00001A   EE           MOV     A,R6
   \   00001B   FA           MOV     R2,A
   \   00001C   12....       LCALL   ??ZDP_NodeDescMsg?relay
   \   00001F   7402         MOV     A,#0x2
   \   000021   12....       LCALL   ?DEALLOC_XSTACK8
   \   000024   801A         SJMP    ??ZDO_ProcessNodeDescReq_2
    557            }
    558            else
    559            {
    560              ZDP_GenericRsp( inMsg->TransSeq, &(inMsg->srcAddr),
    561                        ZDP_INVALID_REQTYPE, aoi, Node_Desc_rsp, inMsg->SecurityUse );
   \                     ??ZDO_ProcessNodeDescReq_1:
   \   000026                ; Setup parameters for call to function ZDP_GenericRsp
   \   000026   75..02       MOV     ?V0 + 0,#0x2
   \   000029   75..80       MOV     ?V0 + 1,#-0x80
   \   00002C   78..         MOV     R0,#?V0 + 0
   \   00002E   12....       LCALL   ?PUSH_XSTACK_I_TWO
   \   000031   8C..         MOV     ?V0 + 0,R4
   \   000033   8D..         MOV     ?V0 + 1,R5
   \   000035   78..         MOV     R0,#?V0 + 0
   \   000037   12....       LCALL   ?PUSH_XSTACK_I_TWO
   \   00003A   12....       LCALL   ?Subroutine32 & 0xFFFF
   \                     ??CrossCallReturnLabel_71:
   \   00003D   12....       LCALL   ?DEALLOC_XSTACK8
    562            }
    563          }
   \                     ??ZDO_ProcessNodeDescReq_2:
   \   000040   80..         SJMP    ??Subroutine133_0

   \                                 In  segment BANKED_CODE, align 1, keep-with-next
   \                     ?Subroutine133:
   \   000000   7402         MOV     A,#0x2
   \   000002   12....       LCALL   ?DEALLOC_XSTACK8
   \                     ??Subroutine133_0:
   \   000005   7F02         MOV     R7,#0x2
   \   000007   02....       LJMP    ?BANKED_LEAVE_XDATA

   \                                 In  segment BANKED_CODE, align 1, keep-with-next
   \                     ?Subroutine36:
   \   000000   EA           MOV     A,R2
   \   000001   FE           MOV     R6,A
   \   000002   EB           MOV     A,R3
   \   000003   FF           MOV     R7,A
   \   000004   12....       LCALL   ?Subroutine107 & 0xFFFF
   \                     ??CrossCallReturnLabel_239:
   \   000007   12....       LCALL   ?Subroutine103 & 0xFFFF
   \                     ??CrossCallReturnLabel_327:
   \   00000A   12....       LCALL   ?Subroutine122 & 0xFFFF
   \                     ??CrossCallReturnLabel_275:
   \   00000D   FC           MOV     R4,A
   \   00000E   E9           MOV     A,R1
   \   00000F   FD           MOV     R5,A
   \   000010   90....       MOV     DPTR,#ZDAppNwkAddr
   \   000013   E0           MOVX    A,@DPTR
   \   000014   6C           XRL     A,R4
   \   000015   22           RET

   \                                 In  segment BANKED_CODE, align 1, keep-with-next
   \                     ?Subroutine103:
   \   000000   3400         ADDC    A,#0x0
   \   000002   F583         MOV     DPH,A
   \   000004   E0           MOVX    A,@DPTR
   \                     ??Subroutine103_0:
   \   000005   F8           MOV     R0,A
   \   000006   A3           INC     DPTR
   \   000007   E0           MOVX    A,@DPTR
   \   000008   F9           MOV     R1,A
   \   000009                REQUIRE ?Subroutine130
   \   000009                ; // Fall through to label ?Subroutine130

   \                                 In  segment BANKED_CODE, align 1, keep-with-next
   \                     ?Subroutine130:
   \   000000   8882         MOV     DPL,R0
   \   000002   8983         MOV     DPH,R1
   \   000004   22           RET

   \                                 In  segment BANKED_CODE, align 1, keep-with-next
   \                     ?Subroutine32:
   \   000000   EE           MOV     A,R6
   \   000001   240E         ADD     A,#0xe
   \   000003   12....       LCALL   ?Subroutine109 & 0xFFFF
   \                     ??CrossCallReturnLabel_242:
   \   000006   FD           MOV     R5,A
   \   000007   7C80         MOV     R4,#-0x80
   \   000009   EE           MOV     A,R6
   \   00000A   2402         ADD     A,#0x2
   \   00000C   FA           MOV     R2,A
   \   00000D   EF           MOV     A,R7
   \   00000E   3400         ADDC    A,#0x0
   \   000010   FB           MOV     R3,A
   \   000011   EE           MOV     A,R6
   \   000012   240F         ADD     A,#0xf
   \   000014   12....       LCALL   ?Subroutine109 & 0xFFFF
   \                     ??CrossCallReturnLabel_243:
   \   000017   F9           MOV     R1,A
   \   000018   12....       LCALL   ??ZDP_GenericRsp?relay
   \   00001B   7404         MOV     A,#0x4
   \   00001D   22           RET

   \                                 In  segment BANKED_CODE, align 1, keep-with-next
   \                     ?Subroutine109:
   \   000000   F582         MOV     DPL,A
   \   000002   EF           MOV     A,R7
   \                     ??Subroutine109_0:
   \   000003   3400         ADDC    A,#0x0
   \   000005   F583         MOV     DPH,A
   \   000007   E0           MOVX    A,@DPTR
   \   000008   22           RET

   \                                 In  segment BANKED_CODE, align 1, keep-with-next
   \                     ?Subroutine107:
   \   000000   EE           MOV     A,R6
   \   000001   2411         ADD     A,#0x11
   \   000003   F582         MOV     DPL,A
   \   000005   EF           MOV     A,R7
   \   000006   22           RET

   \                                 In  segment BANKED_CODE, align 1, keep-with-next
   \                     ?Subroutine122:
   \   000000   E0           MOVX    A,@DPTR
   \   000001   FA           MOV     R2,A
   \   000002   A3           INC     DPTR
   \   000003   E0           MOVX    A,@DPTR
   \   000004   F9           MOV     R1,A
   \   000005   EA           MOV     A,R2
   \   000006   22           RET
    564          
    565          /*********************************************************************
    566           * @fn          ZDO_ProcessPowerDescReq
    567           *
    568           * @brief       This function processes and responds to the
    569           *              Node_Power_req message.
    570           *
    571           * @param       inMsg  - incoming request
    572           *
    573           * @return      none
    574           */

   \                                 In  segment BANKED_CODE, align 1, keep-with-next
    575          void ZDO_ProcessPowerDescReq( zdoIncomingMsg_t *inMsg )
   \                     ZDO_ProcessPowerDescReq:
    576          {
   \   000000   74F6         MOV     A,#-0xa
   \   000002   12....       LCALL   ?BANKED_ENTER_XDATA
   \   000005                ; Saved register size: 10
   \   000005                ; Auto size: 0
   \   000005   12....       LCALL   ?Subroutine36 & 0xFFFF
    577            uint16 aoi = BUILD_UINT16( inMsg->asdu[0], inMsg->asdu[1] );
    578            NodePowerDescriptorFormat_t *desc = NULL;
    579          
    580            if ( aoi == ZDAppNwkAddr.addr.shortAddr )
   \                     ??CrossCallReturnLabel_83:
   \   000008   7003         JNZ     ??ZDO_ProcessPowerDescReq_0
   \   00000A   A3           INC     DPTR
   \   00000B   E0           MOVX    A,@DPTR
   \   00000C   6D           XRL     A,R5
   \                     ??ZDO_ProcessPowerDescReq_0:
   \   00000D   7017         JNZ     ??ZDO_ProcessPowerDescReq_1
    581            {
    582              desc = &ZDO_Config_Power_Descriptor;
    583            }
    584          
    585            if ( desc != NULL )
    586            {
    587              ZDP_PowerDescMsg( inMsg, aoi, desc );
   \   00000F                ; Setup parameters for call to function ZDP_PowerDescMsg
   \   00000F   75....       MOV     ?V0 + 0,#(ZDO_Config_Power_Descriptor & 0xff)
   \   000012   75....       MOV     ?V0 + 1,#((ZDO_Config_Power_Descriptor >> 8) & 0xff)
   \   000015   78..         MOV     R0,#?V0 + 0
   \   000017   12....       LCALL   ?PUSH_XSTACK_I_TWO
   \   00001A   EE           MOV     A,R6
   \   00001B   FA           MOV     R2,A
   \   00001C   12....       LCALL   ??ZDP_PowerDescMsg?relay
   \   00001F   7402         MOV     A,#0x2
   \   000021   12....       LCALL   ?DEALLOC_XSTACK8
   \   000024   801A         SJMP    ??ZDO_ProcessPowerDescReq_2
    588            }
    589            else
    590            {
    591              ZDP_GenericRsp( inMsg->TransSeq, &(inMsg->srcAddr),
    592                        ZDP_INVALID_REQTYPE, aoi, Power_Desc_rsp, inMsg->SecurityUse );
   \                     ??ZDO_ProcessPowerDescReq_1:
   \   000026                ; Setup parameters for call to function ZDP_GenericRsp
   \   000026   75..03       MOV     ?V0 + 0,#0x3
   \   000029   75..80       MOV     ?V0 + 1,#-0x80
   \   00002C   78..         MOV     R0,#?V0 + 0
   \   00002E   12....       LCALL   ?PUSH_XSTACK_I_TWO
   \   000031   8C..         MOV     ?V0 + 0,R4
   \   000033   8D..         MOV     ?V0 + 1,R5
   \   000035   78..         MOV     R0,#?V0 + 0
   \   000037   12....       LCALL   ?PUSH_XSTACK_I_TWO
   \   00003A   12....       LCALL   ?Subroutine32 & 0xFFFF
   \                     ??CrossCallReturnLabel_72:
   \   00003D   12....       LCALL   ?DEALLOC_XSTACK8
    593            }
    594          }
   \                     ??ZDO_ProcessPowerDescReq_2:
   \   000040   80..         SJMP    ??Subroutine133_0
    595          
    596          /*********************************************************************
    597           * @fn          ZDO_ProcessSimpleDescReq
    598           *
    599           * @brief       This function processes and responds to the
    600           *              Simple_Desc_req message.
    601           *
    602           * @param       inMsg - incoming message (request)
    603           *
    604           * @return      none
    605           */

   \                                 In  segment BANKED_CODE, align 1, keep-with-next
    606          void ZDO_ProcessSimpleDescReq( zdoIncomingMsg_t *inMsg )
   \                     ZDO_ProcessSimpleDescReq:
    607          {
   \   000000   74F6         MOV     A,#-0xa
   \   000002   12....       LCALL   ?BANKED_ENTER_XDATA
   \   000005                ; Saved register size: 10
   \   000005                ; Auto size: 2
   \   000005   74FE         MOV     A,#-0x2
   \   000007   12....       LCALL   ?ALLOC_XSTACK8
   \   00000A   EA           MOV     A,R2
   \   00000B   FE           MOV     R6,A
   \   00000C   EB           MOV     A,R3
   \   00000D   FF           MOV     R7,A
    608            SimpleDescriptionFormat_t *sDesc = NULL;
   \   00000E   85..82       MOV     DPL,?XSP + 0
   \   000011   85..83       MOV     DPH,?XSP + 1
   \   000014   E4           CLR     A
   \   000015   F0           MOVX    @DPTR,A
   \   000016   A3           INC     DPTR
   \   000017   F0           MOVX    @DPTR,A
    609            uint16 aoi = BUILD_UINT16( inMsg->asdu[0], inMsg->asdu[1] );
   \   000018   12....       LCALL   ?Subroutine107 & 0xFFFF
   \                     ??CrossCallReturnLabel_236:
   \   00001B   12....       LCALL   ??Subroutine44_0 & 0xFFFF
   \                     ??CrossCallReturnLabel_96:
   \   00001E   FC           MOV     R4,A
   \   00001F   A3           INC     DPTR
   \   000020   E0           MOVX    A,@DPTR
   \   000021   FB           MOV     R3,A
   \   000022   E4           CLR     A
   \   000023   2C           ADD     A,R4
   \   000024   FA           MOV     R2,A
    610            byte endPoint = inMsg->asdu[2];
   \   000025   8882         MOV     DPL,R0
   \   000027   8983         MOV     DPH,R1
   \   000029   A3           INC     DPTR
   \   00002A   A3           INC     DPTR
   \   00002B   E0           MOVX    A,@DPTR
   \   00002C   F9           MOV     R1,A
    611            byte free = false;
   \   00002D   75..00       MOV     ?V0 + 0,#0x0
    612            byte stat = ZDP_SUCCESS;
   \   000030   75..00       MOV     ?V0 + 1,#0x0
    613          
    614            if ( (endPoint == ZDO_EP) || (endPoint > MAX_ENDPOINTS) )
   \   000033   6004         JZ      ??ZDO_ProcessSimpleDescReq_0
   \   000035   94F1         SUBB    A,#-0xf
   \   000037   4005         JC      ??ZDO_ProcessSimpleDescReq_1
    615            {
    616              stat = ZDP_INVALID_EP;
   \                     ??ZDO_ProcessSimpleDescReq_0:
   \   000039   75..82       MOV     ?V0 + 1,#-0x7e
   \   00003C   8031         SJMP    ??ZDO_ProcessSimpleDescReq_2
    617            }
    618            else if ( aoi == ZDAppNwkAddr.addr.shortAddr )
   \                     ??ZDO_ProcessSimpleDescReq_1:
   \   00003E   90....       MOV     DPTR,#ZDAppNwkAddr
   \   000041   E0           MOVX    A,@DPTR
   \   000042   6A           XRL     A,R2
   \   000043   7003         JNZ     ??ZDO_ProcessSimpleDescReq_3
   \   000045   A3           INC     DPTR
   \   000046   E0           MOVX    A,@DPTR
   \   000047   6B           XRL     A,R3
   \                     ??ZDO_ProcessSimpleDescReq_3:
   \   000048   7022         JNZ     ??ZDO_ProcessSimpleDescReq_4
    619            {
    620              free = afFindSimpleDesc( &sDesc, endPoint );
   \   00004A                ; Setup parameters for call to function afFindSimpleDesc
   \   00004A   85..82       MOV     DPL,?XSP + 0
   \   00004D   85..83       MOV     DPH,?XSP + 1
   \   000050   AA82         MOV     R2,DPL
   \   000052   AB83         MOV     R3,DPH
   \   000054   12....       LCALL   ??afFindSimpleDesc?relay
   \   000057   E9           MOV     A,R1
   \   000058   F5..         MOV     ?V0 + 0,A
    621              if ( sDesc == NULL )
   \   00005A   85..82       MOV     DPL,?XSP + 0
   \   00005D   85..83       MOV     DPH,?XSP + 1
   \   000060   E0           MOVX    A,@DPTR
   \   000061   7002         JNZ     ??ZDO_ProcessSimpleDescReq_5
   \   000063   A3           INC     DPTR
   \   000064   E0           MOVX    A,@DPTR
   \                     ??ZDO_ProcessSimpleDescReq_5:
   \   000065   7008         JNZ     ??ZDO_ProcessSimpleDescReq_2
    622              {
    623                stat = ZDP_NOT_ACTIVE;
   \   000067   75..83       MOV     ?V0 + 1,#-0x7d
   \   00006A   8003         SJMP    ??ZDO_ProcessSimpleDescReq_2
    624              }
    625            }
    626            else
    627            {
    628          #if defined ( RTR_NWK )
    629              stat = ZDP_DEVICE_NOT_FOUND;
    630          #else
    631              stat = ZDP_INVALID_REQTYPE;
   \                     ??ZDO_ProcessSimpleDescReq_4:
   \   00006C   75..80       MOV     ?V0 + 1,#-0x80
    632          #endif
    633            }
    634          
    635            ZDP_SimpleDescMsg( inMsg, stat, sDesc );
   \                     ??ZDO_ProcessSimpleDescReq_2:
   \   00006F                ; Setup parameters for call to function ZDP_SimpleDescMsg
   \   00006F   85..82       MOV     DPL,?XSP + 0
   \   000072   85..83       MOV     DPH,?XSP + 1
   \   000075   E0           MOVX    A,@DPTR
   \   000076   FC           MOV     R4,A
   \   000077   A3           INC     DPTR
   \   000078   E0           MOVX    A,@DPTR
   \   000079   FD           MOV     R5,A
   \   00007A   A9..         MOV     R1,?V0 + 1
   \   00007C   EE           MOV     A,R6
   \   00007D   FA           MOV     R2,A
   \   00007E   EF           MOV     A,R7
   \   00007F   FB           MOV     R3,A
   \   000080   12....       LCALL   ??ZDP_SimpleDescMsg?relay
    636          
    637            if ( free )
   \   000083   E5..         MOV     A,?V0 + 0
   \   000085   6009         JZ      ??CrossCallReturnLabel_63
    638            {
    639              osal_mem_free( sDesc );
   \   000087                ; Setup parameters for call to function osal_mem_free
   \   000087   85..82       MOV     DPL,?XSP + 0
   \   00008A   85..83       MOV     DPH,?XSP + 1
   \   00008D   12....       LCALL   ??Subroutine31_0 & 0xFFFF
    640            }
    641          }
   \                     ??CrossCallReturnLabel_63:
   \   000090   02....       LJMP    ?Subroutine133 & 0xFFFF

   \                                 In  segment BANKED_CODE, align 1, keep-with-next
   \                     ?Subroutine44:
   \   000000   12....       LCALL   ?Subroutine108 & 0xFFFF
   \                     ??Subroutine44_0:
   \   000003   12....       LCALL   ?Subroutine103 & 0xFFFF
   \                     ??CrossCallReturnLabel_323:
   \   000006   E0           MOVX    A,@DPTR
   \   000007   22           RET

   \                                 In  segment BANKED_CODE, align 1, keep-with-next
   \                     ?Subroutine98:
   \   000000   E0           MOVX    A,@DPTR
   \   000001   FA           MOV     R2,A
   \   000002   A3           INC     DPTR
   \   000003   E0           MOVX    A,@DPTR
   \   000004   FB           MOV     R3,A
   \   000005   22           RET

   \                                 In  segment BANKED_CODE, align 1, keep-with-next
   \                     ?Subroutine31:
   \   000000   8882         MOV     DPL,R0
   \   000002   8983         MOV     DPH,R1
   \                     ??Subroutine31_0:
   \   000004   12....       LCALL   ?Subroutine98 & 0xFFFF
   \                     ??CrossCallReturnLabel_217:
   \   000007   12....       LCALL   ??osal_mem_free?relay
   \   00000A   22           RET
    642          
    643          /*********************************************************************
    644           * @fn          ZDO_ProcessActiveEPReq
    645           *
    646           * @brief       This function processes and responds to the
    647           *              Active_EP_req message.
    648           *
    649           * @param       inMsg  - incoming message (request)
    650           *
    651           * @return      none
    652           */

   \                                 In  segment BANKED_CODE, align 1, keep-with-next
    653          void ZDO_ProcessActiveEPReq( zdoIncomingMsg_t *inMsg )
   \                     ZDO_ProcessActiveEPReq:
    654          {
   \   000000   74F2         MOV     A,#-0xe
   \   000002   12....       LCALL   ?BANKED_ENTER_XDATA
   \   000005                ; Saved register size: 14
   \   000005                ; Auto size: 0
   \   000005   8A..         MOV     ?V0 + 4,R2
   \   000007   8B..         MOV     ?V0 + 5,R3
    655            byte cnt = 0;
   \   000009   75..00       MOV     ?V0 + 0,#0x0
    656            uint16 aoi;
    657            byte stat = ZDP_SUCCESS;
   \   00000C   75..00       MOV     ?V0 + 1,#0x0
    658          
    659            aoi = BUILD_UINT16( inMsg->asdu[0], inMsg->asdu[1] );
   \   00000F   12....       LCALL   ?Subroutine44 & 0xFFFF
   \                     ??CrossCallReturnLabel_97:
   \   000012   FA           MOV     R2,A
   \   000013   A3           INC     DPTR
   \   000014   E0           MOVX    A,@DPTR
   \   000015   F9           MOV     R1,A
   \   000016   EA           MOV     A,R2
   \   000017   FE           MOV     R6,A
   \   000018   E9           MOV     A,R1
   \   000019   FF           MOV     R7,A
    660          
    661            if ( aoi == NLME_GetShortAddr() )
   \   00001A                ; Setup parameters for call to function NLME_GetShortAddr
   \   00001A   12....       LCALL   ??NLME_GetShortAddr?relay
   \   00001D   EA           MOV     A,R2
   \   00001E   6E           XRL     A,R6
   \   00001F   7002         JNZ     ??ZDO_ProcessActiveEPReq_0
   \   000021   EB           MOV     A,R3
   \   000022   6F           XRL     A,R7
   \                     ??ZDO_ProcessActiveEPReq_0:
   \   000023   7012         JNZ     ??ZDO_ProcessActiveEPReq_1
    662            {
    663              cnt = afNumEndPoints() - 1;  // -1 for ZDO endpoint descriptor
   \   000025                ; Setup parameters for call to function afNumEndPoints
   \   000025   12....       LCALL   ??afNumEndPoints?relay
   \   000028   E9           MOV     A,R1
   \   000029   14           DEC     A
   \   00002A   F5..         MOV     ?V0 + 0,A
    664              afEndPoints( (uint8 *)ZDOBuildBuf, true );
   \   00002C                ; Setup parameters for call to function afEndPoints
   \   00002C   7901         MOV     R1,#0x1
   \   00002E   7A..         MOV     R2,#(ZDOBuildBuf & 0xff)
   \   000030   7B..         MOV     R3,#((ZDOBuildBuf >> 8) & 0xff)
   \   000032   12....       LCALL   ??afEndPoints?relay
   \   000035   8003         SJMP    ??ZDO_ProcessActiveEPReq_2
    665            }
    666            else
    667            {
    668              stat = ZDP_INVALID_REQTYPE;
   \                     ??ZDO_ProcessActiveEPReq_1:
   \   000037   75..80       MOV     ?V0 + 1,#-0x80
    669            }
    670          
    671            ZDP_ActiveEPRsp( inMsg->TransSeq, &(inMsg->srcAddr), stat,
    672                            aoi, cnt, (uint8 *)ZDOBuildBuf, inMsg->SecurityUse );
   \                     ??ZDO_ProcessActiveEPReq_2:
   \   00003A                ; Setup parameters for call to function ZDP_EPRsp
   \   00003A   E5..         MOV     A,?V0 + 4
   \   00003C   240E         ADD     A,#0xe
   \   00003E   F582         MOV     DPL,A
   \   000040   E5..         MOV     A,?V0 + 5
   \   000042   12....       LCALL   ??Subroutine59_0 & 0xFFFF
   \                     ??CrossCallReturnLabel_122:
   \   000045   12....       LCALL   ?PUSH_XSTACK_I_ONE
   \   000048   75....       MOV     ?V0 + 2,#(ZDOBuildBuf & 0xff)
   \   00004B   75....       MOV     ?V0 + 3,#((ZDOBuildBuf >> 8) & 0xff)
   \   00004E   78..         MOV     R0,#?V0 + 2
   \   000050   12....       LCALL   ?PUSH_XSTACK_I_TWO
   \   000053   78..         MOV     R0,#?V0 + 0
   \   000055   12....       LCALL   ?PUSH_XSTACK_I_ONE
   \   000058   8E..         MOV     ?V0 + 2,R6
   \   00005A   8F..         MOV     ?V0 + 3,R7
   \   00005C   78..         MOV     R0,#?V0 + 2
   \   00005E   12....       LCALL   ?PUSH_XSTACK_I_TWO
   \   000061   E5..         MOV     A,?V0 + 1
   \   000063   F5..         MOV     ?V0 + 0,A
   \   000065   78..         MOV     R0,#?V0 + 0
   \   000067   12....       LCALL   ?PUSH_XSTACK_I_ONE
   \   00006A   E5..         MOV     A,?V0 + 4
   \   00006C   2402         ADD     A,#0x2
   \   00006E   FC           MOV     R4,A
   \   00006F   E5..         MOV     A,?V0 + 5
   \   000071   3400         ADDC    A,#0x0
   \   000073   FD           MOV     R5,A
   \   000074   E5..         MOV     A,?V0 + 4
   \   000076   240F         ADD     A,#0xf
   \   000078   F582         MOV     DPL,A
   \   00007A   E5..         MOV     A,?V0 + 5
   \   00007C   12....       LCALL   ??Subroutine71_0 & 0xFFFF
   \                     ??CrossCallReturnLabel_144:
   \   00007F   F9           MOV     R1,A
   \   000080   7A05         MOV     R2,#0x5
   \   000082   7B80         MOV     R3,#-0x80
   \   000084   12....       LCALL   ??ZDP_EPRsp?relay
   \   000087   7407         MOV     A,#0x7
   \   000089   12....       LCALL   ?DEALLOC_XSTACK8
    673          }
   \   00008C   02....       LJMP    ?Subroutine134 & 0xFFFF

   \                                 In  segment BANKED_CODE, align 1, keep-with-next
   \                     ?Subroutine71:
   \   000000   E5..         MOV     A,?V0 + 0
   \   000002   240C         ADD     A,#0xc
   \   000004   F582         MOV     DPL,A
   \   000006   E5..         MOV     A,?V0 + 1
   \                     ??Subroutine71_0:
   \   000008   12....       LCALL   ??Subroutine109_0 & 0xFFFF
   \                     ??CrossCallReturnLabel_246:
   \   00000B   22           RET

   \                                 In  segment BANKED_CODE, align 1, keep-with-next
   \                     ?Subroutine59:
   \   000000   EE           MOV     A,R6
   \   000001   2414         ADD     A,#0x14
   \   000003   F582         MOV     DPL,A
   \   000005   EF           MOV     A,R7
   \                     ??Subroutine59_0:
   \   000006   12....       LCALL   ??Subroutine109_0 & 0xFFFF
   \                     ??CrossCallReturnLabel_244:
   \   000009   F5..         MOV     ?V0 + 2,A
   \   00000B   78..         MOV     R0,#?V0 + 2
   \   00000D   22           RET

   \                                 In  segment BANKED_CODE, align 1, keep-with-next
   \                     ?Subroutine134:
   \   000000   7F06         MOV     R7,#0x6
   \   000002   02....       LJMP    ?BANKED_LEAVE_XDATA

   \                                 In  segment BANKED_CODE, align 1, keep-with-next
   \                     ?Subroutine108:
   \   000000   EA           MOV     A,R2
   \   000001   2411         ADD     A,#0x11
   \   000003   F582         MOV     DPL,A
   \   000005   EB           MOV     A,R3
   \   000006   22           RET
    674          
    675          /*********************************************************************
    676           * @fn          ZDO_ConvertOTAClusters
    677           *
    678           * @brief       This function will convert the over-the-air cluster list
    679           *              format to an internal format.
    680           *
    681           * @param       inMsg  - incoming message (request)
    682           *
    683           * @return      pointer to incremented inBuf
    684           */

   \                                 In  segment BANKED_CODE, align 1, keep-with-next
    685          uint8 *ZDO_ConvertOTAClusters( uint8 cnt, uint8 *inBuf, uint16 *outList )
   \                     ZDO_ConvertOTAClusters:
    686          {
   \   000000   74F5         MOV     A,#-0xb
   \   000002   12....       LCALL   ?BANKED_ENTER_XDATA
   \   000005                ; Saved register size: 11
   \   000005                ; Auto size: 0
   \   000005   E9           MOV     A,R1
   \   000006   FE           MOV     R6,A
    687            uint8 x;
    688            for ( x = 0; x < cnt; x++ )
   \   000007   7F00         MOV     R7,#0x0
   \   000009   8029         SJMP    ??ZDO_ConvertOTAClusters_0
    689            {
    690              // convert ota format to internal
    691              outList[x] = BUILD_UINT16( inBuf[0], inBuf[1] );
   \                     ??ZDO_ConvertOTAClusters_1:
   \   00000B   8A82         MOV     DPL,R2
   \   00000D   8B83         MOV     DPH,R3
   \   00000F   E0           MOVX    A,@DPTR
   \   000010   F5..         MOV     ?V0 + 0,A
   \   000012   A3           INC     DPTR
   \   000013   E0           MOVX    A,@DPTR
   \   000014   F9           MOV     R1,A
   \   000015   E4           CLR     A
   \   000016   25..         ADD     A,?V0 + 0
   \   000018   E9           MOV     A,R1
   \   000019   F5..         MOV     ?V0 + 1,A
   \   00001B   EF           MOV     A,R7
   \   00001C   33           RLC     A
   \   00001D   F8           MOV     R0,A
   \   00001E   E4           CLR     A
   \   00001F   33           RLC     A
   \   000020   F9           MOV     R1,A
   \   000021   EC           MOV     A,R4
   \   000022   28           ADD     A,R0
   \   000023   F582         MOV     DPL,A
   \   000025   ED           MOV     A,R5
   \   000026   39           ADDC    A,R1
   \   000027   F583         MOV     DPH,A
   \   000029   E5..         MOV     A,?V0 + 0
   \   00002B   F0           MOVX    @DPTR,A
   \   00002C   A3           INC     DPTR
   \   00002D   E5..         MOV     A,?V0 + 1
   \   00002F   F0           MOVX    @DPTR,A
    692              inBuf += sizeof( uint16 );
   \   000030   12....       LCALL   ?Subroutine81 & 0xFFFF
    693            }
   \                     ??CrossCallReturnLabel_279:
   \   000033   0F           INC     R7
   \                     ??ZDO_ConvertOTAClusters_0:
   \   000034   EF           MOV     A,R7
   \   000035   C3           CLR     C
   \   000036   9E           SUBB    A,R6
   \   000037   40D2         JC      ??ZDO_ConvertOTAClusters_1
    694            return ( inBuf );
   \   000039   7F03         MOV     R7,#0x3
   \   00003B   02....       LJMP    ?BANKED_LEAVE_XDATA
    695          }

   \                                 In  segment BANKED_CODE, align 1, keep-with-next
   \                     ?Subroutine81:
   \   000000   EA           MOV     A,R2
   \   000001   2402         ADD     A,#0x2
   \   000003                REQUIRE ?Subroutine123
   \   000003                ; // Fall through to label ?Subroutine123

   \                                 In  segment BANKED_CODE, align 1, keep-with-next
   \                     ?Subroutine123:
   \   000000   0A           INC     R2
   \   000001   0A           INC     R2
   \   000002   EB           MOV     A,R3
   \   000003   3400         ADDC    A,#0x0
   \   000005   FB           MOV     R3,A
   \   000006   22           RET
    696          
    697          /*********************************************************************
    698           * @fn          ZDO_ProcessMatchDescReq
    699           *
    700           * @brief       This function processes and responds to the
    701           *              Match_Desc_req message.
    702           *
    703           * @param       inMsg  - incoming message (request)
    704           *
    705           * @return      none
    706           */

   \                                 In  segment BANKED_CODE, align 1, keep-with-next
    707          void ZDO_ProcessMatchDescReq( zdoIncomingMsg_t *inMsg )
   \                     ZDO_ProcessMatchDescReq:
    708          {
   \   000000   74F0         MOV     A,#-0x10
   \   000002   12....       LCALL   ?BANKED_ENTER_XDATA
   \   000005                ; Saved register size: 16
   \   000005                ; Auto size: 11
   \   000005   74F5         MOV     A,#-0xb
   \   000007   12....       LCALL   ?ALLOC_XSTACK8
   \   00000A   7405         MOV     A,#0x5
   \   00000C   12....       LCALL   ?XSTACK_DISP0_8
   \   00000F   12....       LCALL   ?Subroutine26 & 0xFFFF
    709            uint8 epCnt = 0;
   \                     ??CrossCallReturnLabel_48:
   \   000012   7404         MOV     A,#0x4
   \   000014   12....       LCALL   ?XSTACK_DISP0_8
   \   000017   E4           CLR     A
   \   000018   F0           MOVX    @DPTR,A
    710            uint8 numInClusters;
    711            uint16 *inClusters = NULL;
   \   000019   7407         MOV     A,#0x7
   \   00001B   12....       LCALL   ?XSTACK_DISP0_8
   \   00001E   E4           CLR     A
   \   00001F   F0           MOVX    @DPTR,A
   \   000020   A3           INC     DPTR
   \   000021   F0           MOVX    @DPTR,A
    712            uint8 numOutClusters;
    713            uint16 *outClusters = NULL;
   \   000022   7409         MOV     A,#0x9
   \   000024   12....       LCALL   ?XSTACK_DISP0_8
   \   000027   E4           CLR     A
   \   000028   F0           MOVX    @DPTR,A
   \   000029   A3           INC     DPTR
   \   00002A   F0           MOVX    @DPTR,A
    714            epList_t *epDesc;
    715            SimpleDescriptionFormat_t *sDesc = NULL;
    716            uint8 allocated;
    717            uint8 *msg;
    718            uint16 aoi;
    719            uint16 profileID;
    720          
    721            // Parse the incoming message
    722            msg = inMsg->asdu;
   \   00002B   7405         MOV     A,#0x5
   \   00002D   12....       LCALL   ?XSTACK_DISP0_8
   \   000030   E0           MOVX    A,@DPTR
   \   000031   2411         ADD     A,#0x11
   \   000033   12....       LCALL   ?Subroutine52 & 0xFFFF
   \                     ??CrossCallReturnLabel_108:
   \   000036   A3           INC     DPTR
   \   000037   E0           MOVX    A,@DPTR
   \   000038   F5..         MOV     ?V0 + 3,A
    723            aoi = BUILD_UINT16( msg[0], msg[1] );
   \   00003A   85..82       MOV     DPL,?V0 + 2
   \   00003D   F583         MOV     DPH,A
   \   00003F   12....       LCALL   ?Subroutine60 & 0xFFFF
   \                     ??CrossCallReturnLabel_126:
   \   000042   F5..         MOV     ?V0 + 0,A
   \   000044   E9           MOV     A,R1
   \   000045   F5..         MOV     ?V0 + 1,A
    724            profileID = BUILD_UINT16( msg[2], msg[3] );
   \   000047   85..82       MOV     DPL,?V0 + 2
   \   00004A   85..83       MOV     DPH,?V0 + 3
   \   00004D   A3           INC     DPTR
   \   00004E   A3           INC     DPTR
   \   00004F   E0           MOVX    A,@DPTR
   \   000050   FA           MOV     R2,A
   \   000051   85..82       MOV     DPL,?V0 + 2
   \   000054   85..83       MOV     DPH,?V0 + 3
   \   000057   A3           INC     DPTR
   \   000058   A3           INC     DPTR
   \   000059   A3           INC     DPTR
   \   00005A   E0           MOVX    A,@DPTR
   \   00005B   F9           MOV     R1,A
   \   00005C   EA           MOV     A,R2
   \   00005D   FE           MOV     R6,A
   \   00005E   E9           MOV     A,R1
   \   00005F   FF           MOV     R7,A
    725            msg += 4;
   \   000060   E5..         MOV     A,?V0 + 2
   \   000062   2404         ADD     A,#0x4
   \   000064   F5..         MOV     ?V0 + 2,A
   \   000066   E5..         MOV     A,?V0 + 3
   \   000068   3400         ADDC    A,#0x0
   \   00006A   F5..         MOV     ?V0 + 3,A
    726            
    727            if ( ADDR_BCAST_NOT_ME == NLME_IsAddressBroadcast(aoi) )
   \   00006C                ; Setup parameters for call to function NLME_IsAddressBroadcast
   \   00006C   AA..         MOV     R2,?V0 + 0
   \   00006E   AB..         MOV     R3,?V0 + 1
   \   000070   12....       LCALL   ??NLME_IsAddressBroadcast?relay
   \   000073   E9           MOV     A,R1
   \   000074   6401         XRL     A,#0x1
   \   000076   703D         JNZ     ??ZDO_ProcessMatchDescReq_0
    728            {
    729              ZDP_MatchDescRsp( inMsg->TransSeq, &(inMsg->srcAddr), ZDP_INVALID_REQTYPE,
    730                                    ZDAppNwkAddr.addr.shortAddr, 0, NULL, inMsg->SecurityUse );
   \                     ??ZDO_ProcessMatchDescReq_1:
   \   000078                ; Setup parameters for call to function ZDP_EPRsp
   \   000078   7405         MOV     A,#0x5
   \   00007A   12....       LCALL   ?XSTACK_DISP0_8
   \   00007D   12....       LCALL   ?Subroutine41 & 0xFFFF
   \                     ??CrossCallReturnLabel_88:
   \   000080   12....       LCALL   ?PUSH_XSTACK_I_ONE
   \   000083   75..00       MOV     ?V0 + 0,#0x0
   \   000086   75..00       MOV     ?V0 + 1,#0x0
   \   000089   78..         MOV     R0,#?V0 + 0
   \   00008B   12....       LCALL   ?PUSH_XSTACK_I_TWO
   \   00008E   78..         MOV     R0,#?V0 + 0
   \   000090   12....       LCALL   ?PUSH_XSTACK_I_ONE
   \   000093   90....       MOV     DPTR,#ZDAppNwkAddr
   \   000096   12....       LCALL   ?PUSH_XSTACK8_X_TWO
   \   000099   75..80       MOV     ?V0 + 0,#-0x80
   \   00009C   78..         MOV     R0,#?V0 + 0
   \   00009E   12....       LCALL   ?PUSH_XSTACK_I_ONE
   \   0000A1   740C         MOV     A,#0xc
   \   0000A3   12....       LCALL   ?XSTACK_DISP0_8
   \   0000A6   12....       LCALL   ?Subroutine54 & 0xFFFF
   \                     ??CrossCallReturnLabel_114:
   \   0000A9   12....       LCALL   ?XSTACK_DISP0_8
   \   0000AC   12....       LCALL   ?Subroutine33 & 0xFFFF
   \                     ??CrossCallReturnLabel_73:
   \   0000AF   12....       LCALL   ?DEALLOC_XSTACK8
    731              return;
   \   0000B2   02....       LJMP    ??CrossCallReturnLabel_66 & 0xFFFF
    732            }
    733            else if ( (ADDR_NOT_BCAST == NLME_IsAddressBroadcast(aoi)) && (aoi != ZDAppNwkAddr.addr.shortAddr) )
   \                     ??ZDO_ProcessMatchDescReq_0:
   \   0000B5                ; Setup parameters for call to function NLME_IsAddressBroadcast
   \   0000B5   AA..         MOV     R2,?V0 + 0
   \   0000B7   AB..         MOV     R3,?V0 + 1
   \   0000B9   12....       LCALL   ??NLME_IsAddressBroadcast?relay
   \   0000BC   E9           MOV     A,R1
   \   0000BD   700E         JNZ     ??ZDO_ProcessMatchDescReq_2
   \   0000BF   90....       MOV     DPTR,#ZDAppNwkAddr
   \   0000C2   E0           MOVX    A,@DPTR
   \   0000C3   65..         XRL     A,?V0 + 0
   \   0000C5   7004         JNZ     ??ZDO_ProcessMatchDescReq_3
   \   0000C7   A3           INC     DPTR
   \   0000C8   E0           MOVX    A,@DPTR
   \   0000C9   65..         XRL     A,?V0 + 1
   \                     ??ZDO_ProcessMatchDescReq_3:
   \   0000CB   70AB         JNZ     ??ZDO_ProcessMatchDescReq_1
    734            {
    735              ZDP_MatchDescRsp( inMsg->TransSeq, &(inMsg->srcAddr), ZDP_INVALID_REQTYPE,
    736                                       ZDAppNwkAddr.addr.shortAddr, 0, NULL, inMsg->SecurityUse );
    737              return;
    738            }
    739          
    740            numInClusters = *msg++;
   \                     ??ZDO_ProcessMatchDescReq_2:
   \   0000CD   85..82       MOV     DPL,?V0 + 2
   \   0000D0   85..83       MOV     DPH,?V0 + 3
   \   0000D3   E0           MOVX    A,@DPTR
   \   0000D4   F5..         MOV     ?V0 + 7,A
   \   0000D6   A3           INC     DPTR
   \   0000D7   8582..       MOV     ?V0 + 2,DPL
   \   0000DA   8583..       MOV     ?V0 + 3,DPH
    741            if ( numInClusters )
   \   0000DD   6022         JZ      ??ZDO_ProcessMatchDescReq_4
    742            {
    743              inClusters = (uint16*)osal_mem_alloc( numInClusters * sizeof( uint16 ) );
   \   0000DF                ; Setup parameters for call to function osal_mem_alloc
   \   0000DF   C3           CLR     C
   \   0000E0   33           RLC     A
   \   0000E1   FA           MOV     R2,A
   \   0000E2   E4           CLR     A
   \   0000E3   33           RLC     A
   \   0000E4   FB           MOV     R3,A
   \   0000E5   12....       LCALL   ??osal_mem_alloc?relay
   \   0000E8   7407         MOV     A,#0x7
   \   0000EA   12....       LCALL   ?XSTACK_DISP0_8
   \   0000ED   12....       LCALL   ?Subroutine26 & 0xFFFF
    744              msg = ZDO_ConvertOTAClusters( numInClusters, msg, inClusters );
   \                     ??CrossCallReturnLabel_49:
   \   0000F0                ; Setup parameters for call to function ZDO_ConvertOTAClusters
   \   0000F0   7407         MOV     A,#0x7
   \   0000F2   12....       LCALL   ?XSTACK_DISP0_8
   \   0000F5   12....       LCALL   ?Subroutine58 & 0xFFFF
   \                     ??CrossCallReturnLabel_120:
   \   0000F8   A9..         MOV     R1,?V0 + 7
   \   0000FA   12....       LCALL   ??ZDO_ConvertOTAClusters?relay
   \   0000FD   8A..         MOV     ?V0 + 2,R2
   \   0000FF   8B..         MOV     ?V0 + 3,R3
    745            }
    746            numOutClusters = *msg++;
   \                     ??ZDO_ProcessMatchDescReq_4:
   \   000101   85..82       MOV     DPL,?V0 + 2
   \   000104   85..83       MOV     DPH,?V0 + 3
   \   000107   E0           MOVX    A,@DPTR
   \   000108   F5..         MOV     ?V0 + 6,A
   \   00010A   A3           INC     DPTR
   \   00010B   8582..       MOV     ?V0 + 2,DPL
   \   00010E   8583..       MOV     ?V0 + 3,DPH
    747            if ( numOutClusters )
   \   000111   601E         JZ      ??ZDO_ProcessMatchDescReq_5
    748            {
    749              outClusters = (uint16 *)osal_mem_alloc( numOutClusters * sizeof( uint16 ) );
   \   000113                ; Setup parameters for call to function osal_mem_alloc
   \   000113   C3           CLR     C
   \   000114   33           RLC     A
   \   000115   FA           MOV     R2,A
   \   000116   E4           CLR     A
   \   000117   33           RLC     A
   \   000118   FB           MOV     R3,A
   \   000119   12....       LCALL   ??osal_mem_alloc?relay
   \   00011C   7409         MOV     A,#0x9
   \   00011E   12....       LCALL   ?XSTACK_DISP0_8
   \   000121   12....       LCALL   ?Subroutine26 & 0xFFFF
    750              msg = ZDO_ConvertOTAClusters( numOutClusters, msg, outClusters );
   \                     ??CrossCallReturnLabel_50:
   \   000124                ; Setup parameters for call to function ZDO_ConvertOTAClusters
   \   000124   7409         MOV     A,#0x9
   \   000126   12....       LCALL   ?XSTACK_DISP0_8
   \   000129   12....       LCALL   ?Subroutine58 & 0xFFFF
   \                     ??CrossCallReturnLabel_121:
   \   00012C   A9..         MOV     R1,?V0 + 6
   \   00012E   12....       LCALL   ??ZDO_ConvertOTAClusters?relay
    751            }
    752          
    753            // First count the number of endpoints that match.
    754            epDesc = epList;
   \                     ??ZDO_ProcessMatchDescReq_5:
   \   000131   90....       MOV     DPTR,#epList
   \   000134   805B         SJMP    ??CrossCallReturnLabel_100
    755            while ( epDesc )
    756            {
    757              // Don't search endpoint 0 and check if response is allowed
    758              if ( epDesc->epDesc->endPoint != ZDO_EP && (epDesc->flags&eEP_AllowMatch) )
    759              {
    760                if ( epDesc->pfnDescCB )
    761                {
    762                  sDesc = (SimpleDescriptionFormat_t *)epDesc->pfnDescCB( AF_DESCRIPTOR_SIMPLE, epDesc->epDesc->endPoint );
    763                  allocated = TRUE;
    764                }
    765                else
    766                {
    767                  sDesc = epDesc->epDesc->simpleDesc;
    768                  allocated = FALSE;
    769                }
    770          
    771                if ( sDesc && sDesc->AppProfId == profileID )
    772                {
    773                  uint8 *uint8Buf = (uint8 *)ZDOBuildBuf;
    774          
    775                  // If there are no search input/ouput clusters - respond
    776                  if ( ((numInClusters == 0) && (numOutClusters == 0))
    777                      // Are there matching input clusters?
    778                       || (ZDO_AnyClusterMatches( numInClusters, inClusters,
    779                            sDesc->AppNumInClusters, sDesc->pAppInClusterList ))
    780                      // Are there matching output clusters?
    781                       || (ZDO_AnyClusterMatches( numOutClusters, outClusters,
    782                            sDesc->AppNumOutClusters, sDesc->pAppOutClusterList ))     )
    783                  {
    784                    // Notify the endpoint of the match.
    785                    uint8 bufLen = sizeof( ZDO_MatchDescRspSent_t ) + (numOutClusters + numInClusters) * sizeof(uint16);
    786                    ZDO_MatchDescRspSent_t *pRspSent = (ZDO_MatchDescRspSent_t *) osal_msg_allocate( bufLen );
    787          
    788                    if (pRspSent)
    789                    {
    790                      pRspSent->hdr.event = ZDO_MATCH_DESC_RSP_SENT;
    791                      pRspSent->nwkAddr = inMsg->srcAddr.addr.shortAddr;
    792                      pRspSent->numInClusters = numInClusters;
    793                      pRspSent->numOutClusters = numOutClusters;
    794          
    795                      if (numInClusters)
    796                      {
    797                        pRspSent->pInClusters = (uint16*) (pRspSent + 1);
    798                        osal_memcpy(pRspSent->pInClusters, inClusters, numInClusters * sizeof(uint16));
    799                      }
    800                      else
    801                      {
    802                        pRspSent->pInClusters = NULL;
    803                      }
    804          
    805                      if (numOutClusters)
    806                      {
    807                        pRspSent->pOutClusters = (uint16*)(pRspSent + 1) + numInClusters;
    808                        osal_memcpy(pRspSent->pOutClusters, outClusters, numOutClusters * sizeof(uint16));
    809                      }
    810                      else
    811                      {
    812                        pRspSent->pOutClusters = NULL;
   \                     ??ZDO_ProcessMatchDescReq_6:
   \   000136   85..82       MOV     DPL,?V0 + 4
   \   000139   85..83       MOV     DPH,?V0 + 5
   \   00013C   A3           INC     DPTR
   \   00013D   A3           INC     DPTR
   \   00013E   A3           INC     DPTR
   \   00013F   A3           INC     DPTR
   \   000140   A3           INC     DPTR
   \   000141   A3           INC     DPTR
   \   000142   A3           INC     DPTR
   \   000143   A3           INC     DPTR
   \   000144   E4           CLR     A
   \   000145   F0           MOVX    @DPTR,A
   \   000146   A3           INC     DPTR
   \   000147   F0           MOVX    @DPTR,A
    813                      }
    814          
    815                      osal_msg_send( *epDesc->epDesc->task_id, (uint8 *)pRspSent );
   \                     ??ZDO_ProcessMatchDescReq_7:
   \   000148                ; Setup parameters for call to function osal_msg_send
   \   000148   AA..         MOV     R2,?V0 + 4
   \   00014A   AB..         MOV     R3,?V0 + 5
   \   00014C   85..82       MOV     DPL,?XSP + 0
   \   00014F   85..83       MOV     DPH,?XSP + 1
   \   000152   12....       LCALL   ?Subroutine65 & 0xFFFF
   \                     ??CrossCallReturnLabel_135:
   \   000155   12....       LCALL   ?Subroutine34 & 0xFFFF
    816                    }
    817          
    818                    uint8Buf[epCnt++] = sDesc->EndPoint;
   \                     ??CrossCallReturnLabel_76:
   \   000158   7402         MOV     A,#0x2
   \   00015A   12....       LCALL   ?XSTACK_DISP0_8
   \   00015D   12....       LCALL   ?Subroutine35 & 0xFFFF
   \                     ??CrossCallReturnLabel_78:
   \   000160   C0E0         PUSH    A
   \   000162   7404         MOV     A,#0x4
   \   000164   12....       LCALL   ?XSTACK_DISP0_8
   \   000167   E0           MOVX    A,@DPTR
   \   000168   24..         ADD     A,#(ZDOBuildBuf & 0xff)
   \   00016A   F582         MOV     DPL,A
   \   00016C   E4           CLR     A
   \   00016D   34..         ADDC    A,#((ZDOBuildBuf >> 8) & 0xff)
   \   00016F   F583         MOV     DPH,A
   \   000171   D0E0         POP     A
   \   000173   F0           MOVX    @DPTR,A
   \   000174   7404         MOV     A,#0x4
   \   000176   12....       LCALL   ?XSTACK_DISP0_8
   \   000179   E0           MOVX    A,@DPTR
   \   00017A   04           INC     A
   \   00017B   F0           MOVX    @DPTR,A
    819                  }
    820                }
    821          
    822                if ( allocated )
   \                     ??ZDO_ProcessMatchDescReq_8:
   \   00017C   E5..         MOV     A,?V0 + 3
   \   00017E   6008         JZ      ??CrossCallReturnLabel_64
    823                  osal_mem_free( sDesc );
   \   000180                ; Setup parameters for call to function osal_mem_free
   \   000180   7402         MOV     A,#0x2
   \   000182   12....       LCALL   ?XSTACK_DISP0_8
   \   000185   12....       LCALL   ??Subroutine31_0 & 0xFFFF
    824              }
    825              epDesc = epDesc->nextDesc;
   \                     ??CrossCallReturnLabel_64:
   \   000188   85..82       MOV     DPL,?XSP + 0
   \   00018B   85..83       MOV     DPH,?XSP + 1
   \   00018E   12....       LCALL   ?Subroutine47 & 0xFFFF
   \                     ??CrossCallReturnLabel_100:
   \   000191   12....       LCALL   ?Subroutine104 & 0xFFFF
   \                     ??CrossCallReturnLabel_225:
   \   000194   85..82       MOV     DPL,?XSP + 0
   \   000197   85..83       MOV     DPH,?XSP + 1
   \   00019A   12....       LCALL   ??Subroutine10_1 & 0xFFFF
   \                     ??CrossCallReturnLabel_313:
   \   00019D   85..82       MOV     DPL,?XSP + 0
   \   0001A0   85..83       MOV     DPH,?XSP + 1
   \   0001A3   E0           MOVX    A,@DPTR
   \   0001A4   7002         JNZ     ??ZDO_ProcessMatchDescReq_9
   \   0001A6   A3           INC     DPTR
   \   0001A7   E0           MOVX    A,@DPTR
   \                     ??ZDO_ProcessMatchDescReq_9:
   \   0001A8   7003         JNZ     $+5
   \   0001AA   02....       LJMP    ??ZDO_ProcessMatchDescReq_10 & 0xFFFF
   \   0001AD   85..82       MOV     DPL,?XSP + 0
   \   0001B0   85..83       MOV     DPH,?XSP + 1
   \   0001B3   12....       LCALL   ?Subroutine35 & 0xFFFF
   \                     ??CrossCallReturnLabel_79:
   \   0001B6   12....       LCALL   ??Subroutine105_0 & 0xFFFF
   \                     ??CrossCallReturnLabel_228:
   \   0001B9   60CD         JZ      ??CrossCallReturnLabel_64
   \   0001BB   85..82       MOV     DPL,?XSP + 0
   \   0001BE   85..83       MOV     DPH,?XSP + 1
   \   0001C1   12....       LCALL   ?Subroutine51 & 0xFFFF
   \                     ??CrossCallReturnLabel_106:
   \   0001C4   A2E0         MOV     C,0xE0 /* A   */.0
   \   0001C6   50C0         JNC     ??CrossCallReturnLabel_64
   \   0001C8   85..82       MOV     DPL,?XSP + 0
   \   0001CB   85..83       MOV     DPH,?XSP + 1
   \   0001CE   12....       LCALL   ?Subroutine67 & 0xFFFF
   \                     ??CrossCallReturnLabel_137:
   \   0001D1   E0           MOVX    A,@DPTR
   \   0001D2   7002         JNZ     ??ZDO_ProcessMatchDescReq_11
   \   0001D4   A3           INC     DPTR
   \   0001D5   E0           MOVX    A,@DPTR
   \                     ??ZDO_ProcessMatchDescReq_11:
   \   0001D6   85..82       MOV     DPL,?XSP + 0
   \   0001D9   85..83       MOV     DPH,?XSP + 1
   \   0001DC   A3           INC     DPTR
   \   0001DD   6026         JZ      ??ZDO_ProcessMatchDescReq_12
   \   0001DF                ; Setup parameters for indirect call
   \   0001DF   12....       LCALL   ??Subroutine106_1 & 0xFFFF
   \                     ??CrossCallReturnLabel_231:
   \   0001E2   12....       LCALL   ?Subroutine35 & 0xFFFF
   \                     ??CrossCallReturnLabel_80:
   \   0001E5   FA           MOV     R2,A
   \   0001E6   7901         MOV     R1,#0x1
   \   0001E8   85..82       MOV     DPL,?XSP + 0
   \   0001EB   85..83       MOV     DPH,?XSP + 1
   \   0001EE   12....       LCALL   ?Subroutine46 & 0xFFFF
   \                     ??CrossCallReturnLabel_98:
   \   0001F1   F583         MOV     DPH,A
   \   0001F3   8882         MOV     DPL,R0
   \   0001F5   12....       LCALL   ?CALL_IND
   \   0001F8   7402         MOV     A,#0x2
   \   0001FA   12....       LCALL   ?XSTACK_DISP0_8
   \   0001FD   12....       LCALL   ?Subroutine26 & 0xFFFF
   \                     ??CrossCallReturnLabel_51:
   \   000200   75..01       MOV     ?V0 + 3,#0x1
   \   000203   8012         SJMP    ??ZDO_ProcessMatchDescReq_13
   \                     ??ZDO_ProcessMatchDescReq_12:
   \   000205   12....       LCALL   ??Subroutine106_1 & 0xFFFF
   \                     ??CrossCallReturnLabel_232:
   \   000208   12....       LCALL   ?Subroutine46 & 0xFFFF
   \                     ??CrossCallReturnLabel_99:
   \   00020B   F9           MOV     R1,A
   \   00020C   7402         MOV     A,#0x2
   \   00020E   12....       LCALL   ?XSTACK_DISP0_8
   \   000211   12....       LCALL   ??Subroutine10_1 & 0xFFFF
   \                     ??CrossCallReturnLabel_314:
   \   000214   75..00       MOV     ?V0 + 3,#0x0
   \                     ??ZDO_ProcessMatchDescReq_13:
   \   000217   7402         MOV     A,#0x2
   \   000219   12....       LCALL   ?XSTACK_DISP0_8
   \   00021C   E0           MOVX    A,@DPTR
   \   00021D   7002         JNZ     ??ZDO_ProcessMatchDescReq_14
   \   00021F   A3           INC     DPTR
   \   000220   E0           MOVX    A,@DPTR
   \                     ??ZDO_ProcessMatchDescReq_14:
   \   000221   7003         JNZ     $+5
   \   000223   02....       LJMP    ??ZDO_ProcessMatchDescReq_8 & 0xFFFF
   \   000226   7402         MOV     A,#0x2
   \   000228   12....       LCALL   ?XSTACK_DISP0_8
   \   00022B   12....       LCALL   ?Subroutine65 & 0xFFFF
   \                     ??CrossCallReturnLabel_136:
   \   00022E   A3           INC     DPTR
   \   00022F   E0           MOVX    A,@DPTR
   \   000230   6E           XRL     A,R6
   \   000231   7003         JNZ     ??ZDO_ProcessMatchDescReq_15
   \   000233   A3           INC     DPTR
   \   000234   E0           MOVX    A,@DPTR
   \   000235   6F           XRL     A,R7
   \                     ??ZDO_ProcessMatchDescReq_15:
   \   000236   6003         JZ      $+5
   \   000238   02....       LJMP    ??ZDO_ProcessMatchDescReq_8 & 0xFFFF
   \   00023B   E5..         MOV     A,?V0 + 7
   \   00023D   7004         JNZ     ??ZDO_ProcessMatchDescReq_16
   \   00023F   E5..         MOV     A,?V0 + 6
   \   000241   605D         JZ      ??ZDO_ProcessMatchDescReq_17
   \                     ??ZDO_ProcessMatchDescReq_16:
   \   000243                ; Setup parameters for call to function ZDO_AnyClusterMatches
   \   000243   7402         MOV     A,#0x2
   \   000245   12....       LCALL   ?XSTACK_DISP0_8
   \   000248   12....       LCALL   ?Subroutine67 & 0xFFFF
   \                     ??CrossCallReturnLabel_138:
   \   00024B   A3           INC     DPTR
   \   00024C   A3           INC     DPTR
   \   00024D   A3           INC     DPTR
   \   00024E   A3           INC     DPTR
   \   00024F   12....       LCALL   ?PUSH_XSTACK8_X_TWO
   \   000252   7404         MOV     A,#0x4
   \   000254   12....       LCALL   ?XSTACK_DISP0_8
   \   000257   12....       LCALL   ?Subroutine47 & 0xFFFF
   \                     ??CrossCallReturnLabel_101:
   \   00025A   A3           INC     DPTR
   \   00025B   E0           MOVX    A,@DPTR
   \   00025C   FC           MOV     R4,A
   \   00025D   7409         MOV     A,#0x9
   \   00025F   12....       LCALL   ?XSTACK_DISP0_8
   \   000262   12....       LCALL   ?Subroutine98 & 0xFFFF
   \                     ??CrossCallReturnLabel_214:
   \   000265   A9..         MOV     R1,?V0 + 7
   \   000267   12....       LCALL   ??ZDO_AnyClusterMatches?relay
   \   00026A   7402         MOV     A,#0x2
   \   00026C   12....       LCALL   ?DEALLOC_XSTACK8
   \   00026F   E9           MOV     A,R1
   \   000270   702E         JNZ     ??ZDO_ProcessMatchDescReq_17
   \   000272                ; Setup parameters for call to function ZDO_AnyClusterMatches
   \   000272   7402         MOV     A,#0x2
   \   000274   12....       LCALL   ?XSTACK_DISP0_8
   \   000277   12....       LCALL   ?Subroutine45 & 0xFFFF
   \                     ??CrossCallReturnLabel_269:
   \   00027A   A3           INC     DPTR
   \   00027B   12....       LCALL   ?PUSH_XSTACK8_X_TWO
   \   00027E   7404         MOV     A,#0x4
   \   000280   12....       LCALL   ?XSTACK_DISP0_8
   \   000283   12....       LCALL   ?Subroutine45 & 0xFFFF
   \                     ??CrossCallReturnLabel_270:
   \   000286   E0           MOVX    A,@DPTR
   \   000287   FC           MOV     R4,A
   \   000288   740B         MOV     A,#0xb
   \   00028A   12....       LCALL   ?XSTACK_DISP0_8
   \   00028D   12....       LCALL   ?Subroutine98 & 0xFFFF
   \                     ??CrossCallReturnLabel_215:
   \   000290   A9..         MOV     R1,?V0 + 6
   \   000292   12....       LCALL   ??ZDO_AnyClusterMatches?relay
   \   000295   7402         MOV     A,#0x2
   \   000297   12....       LCALL   ?DEALLOC_XSTACK8
   \   00029A   E9           MOV     A,R1
   \   00029B   7003         JNZ     $+5
   \   00029D   02....       LJMP    ??ZDO_ProcessMatchDescReq_8 & 0xFFFF
   \                     ??ZDO_ProcessMatchDescReq_17:
   \   0002A0                ; Setup parameters for call to function osal_msg_allocate
   \   0002A0   E5..         MOV     A,?V0 + 7
   \   0002A2   25..         ADD     A,?V0 + 6
   \   0002A4   C3           CLR     C
   \   0002A5   33           RLC     A
   \   0002A6   240A         ADD     A,#0xa
   \   0002A8   FA           MOV     R2,A
   \   0002A9   7B00         MOV     R3,#0x0
   \   0002AB   12....       LCALL   ??osal_msg_allocate?relay
   \   0002AE   8A..         MOV     ?V0 + 4,R2
   \   0002B0   8B..         MOV     ?V0 + 5,R3
   \   0002B2   EA           MOV     A,R2
   \   0002B3   7001         JNZ     ??ZDO_ProcessMatchDescReq_18
   \   0002B5   EB           MOV     A,R3
   \                     ??ZDO_ProcessMatchDescReq_18:
   \   0002B6   7003         JNZ     $+5
   \   0002B8   02....       LJMP    ??CrossCallReturnLabel_76 & 0xFFFF
   \   0002BB   74D2         MOV     A,#-0x2e
   \   0002BD   8A82         MOV     DPL,R2
   \   0002BF   8B83         MOV     DPH,R3
   \   0002C1   F0           MOVX    @DPTR,A
   \   0002C2   7405         MOV     A,#0x5
   \   0002C4   12....       LCALL   ?XSTACK_DISP0_8
   \   0002C7   12....       LCALL   ?Subroutine51 & 0xFFFF
   \                     ??CrossCallReturnLabel_107:
   \   0002CA   F8           MOV     R0,A
   \   0002CB   A3           INC     DPTR
   \   0002CC   E0           MOVX    A,@DPTR
   \   0002CD   F9           MOV     R1,A
   \   0002CE   8A82         MOV     DPL,R2
   \   0002D0   8B83         MOV     DPH,R3
   \   0002D2   A3           INC     DPTR
   \   0002D3   A3           INC     DPTR
   \   0002D4   12....       LCALL   ??Subroutine10_1 & 0xFFFF
   \                     ??CrossCallReturnLabel_315:
   \   0002D7   8A82         MOV     DPL,R2
   \   0002D9   8B83         MOV     DPH,R3
   \   0002DB   A3           INC     DPTR
   \   0002DC   A3           INC     DPTR
   \   0002DD   A3           INC     DPTR
   \   0002DE   A3           INC     DPTR
   \   0002DF   E5..         MOV     A,?V0 + 7
   \   0002E1   12....       LCALL   ?Subroutine25 & 0xFFFF
   \                     ??CrossCallReturnLabel_43:
   \   0002E4   A3           INC     DPTR
   \   0002E5   A3           INC     DPTR
   \   0002E6   A3           INC     DPTR
   \   0002E7   A3           INC     DPTR
   \   0002E8   A3           INC     DPTR
   \   0002E9   E5..         MOV     A,?V0 + 6
   \   0002EB   F0           MOVX    @DPTR,A
   \   0002EC   E5..         MOV     A,?V0 + 7
   \   0002EE   602E         JZ      ??ZDO_ProcessMatchDescReq_19
   \   0002F0   EA           MOV     A,R2
   \   0002F1   2405         ADD     A,#0x5
   \   0002F3   FA           MOV     R2,A
   \   0002F4   EB           MOV     A,R3
   \   0002F5   3400         ADDC    A,#0x0
   \   0002F7   FB           MOV     R3,A
   \   0002F8   E5..         MOV     A,?V0 + 4
   \   0002FA   240A         ADD     A,#0xa
   \   0002FC   F8           MOV     R0,A
   \   0002FD   E5..         MOV     A,?V0 + 5
   \   0002FF   3400         ADDC    A,#0x0
   \   000301   F9           MOV     R1,A
   \   000302   8A82         MOV     DPL,R2
   \   000304   8B83         MOV     DPH,R3
   \   000306   12....       LCALL   ??Subroutine10_1 & 0xFFFF
   \                     ??CrossCallReturnLabel_316:
   \   000309                ; Setup parameters for call to function osal_memcpy
   \   000309   7407         MOV     A,#0x7
   \   00030B   12....       LCALL   ?XSTACK_DISP0_8
   \   00030E   12....       LCALL   ?Subroutine48 & 0xFFFF
   \                     ??CrossCallReturnLabel_102:
   \   000311   12....       LCALL   ?PUSH_XSTACK_I_THREE
   \   000314   E5..         MOV     A,?V0 + 7
   \   000316   12....       LCALL   ?Subroutine56 & 0xFFFF
   \                     ??CrossCallReturnLabel_304:
   \   000319   12....       LCALL   ?DEALLOC_XSTACK8
   \   00031C   800D         SJMP    ??ZDO_ProcessMatchDescReq_20
   \                     ??ZDO_ProcessMatchDescReq_19:
   \   00031E   8A82         MOV     DPL,R2
   \   000320   8B83         MOV     DPH,R3
   \   000322   A3           INC     DPTR
   \   000323   A3           INC     DPTR
   \   000324   A3           INC     DPTR
   \   000325   A3           INC     DPTR
   \   000326   A3           INC     DPTR
   \   000327   E4           CLR     A
   \   000328   F0           MOVX    @DPTR,A
   \   000329   A3           INC     DPTR
   \   00032A   F0           MOVX    @DPTR,A
   \                     ??ZDO_ProcessMatchDescReq_20:
   \   00032B   E5..         MOV     A,?V0 + 6
   \   00032D   7003         JNZ     $+5
   \   00032F   02....       LJMP    ??ZDO_ProcessMatchDescReq_6 & 0xFFFF
   \   000332   E5..         MOV     A,?V0 + 4
   \   000334   2408         ADD     A,#0x8
   \   000336   FA           MOV     R2,A
   \   000337   E5..         MOV     A,?V0 + 5
   \   000339   3400         ADDC    A,#0x0
   \   00033B   FB           MOV     R3,A
   \   00033C   E5..         MOV     A,?V0 + 7
   \   00033E   C3           CLR     C
   \   00033F   33           RLC     A
   \   000340   F8           MOV     R0,A
   \   000341   E4           CLR     A
   \   000342   33           RLC     A
   \   000343   F9           MOV     R1,A
   \   000344   E5..         MOV     A,?V0 + 4
   \   000346   28           ADD     A,R0
   \   000347   F8           MOV     R0,A
   \   000348   E5..         MOV     A,?V0 + 5
   \   00034A   39           ADDC    A,R1
   \   00034B   F9           MOV     R1,A
   \   00034C   740A         MOV     A,#0xa
   \   00034E   28           ADD     A,R0
   \   00034F   F8           MOV     R0,A
   \   000350   E4           CLR     A
   \   000351   39           ADDC    A,R1
   \   000352   F9           MOV     R1,A
   \   000353   8A82         MOV     DPL,R2
   \   000355   8B83         MOV     DPH,R3
   \   000357   12....       LCALL   ??Subroutine10_1 & 0xFFFF
   \                     ??CrossCallReturnLabel_317:
   \   00035A                ; Setup parameters for call to function osal_memcpy
   \   00035A   7409         MOV     A,#0x9
   \   00035C   12....       LCALL   ?XSTACK_DISP0_8
   \   00035F   12....       LCALL   ?Subroutine48 & 0xFFFF
   \                     ??CrossCallReturnLabel_103:
   \   000362   12....       LCALL   ?PUSH_XSTACK_I_THREE
   \   000365   E5..         MOV     A,?V0 + 6
   \   000367   12....       LCALL   ?Subroutine56 & 0xFFFF
   \                     ??CrossCallReturnLabel_305:
   \   00036A   12....       LCALL   ?DEALLOC_XSTACK8
   \   00036D   02....       LJMP    ??ZDO_ProcessMatchDescReq_7 & 0xFFFF
    826            }
    827          
    828            // Send the message only if at least one match found.
    829            if ( epCnt )
   \                     ??ZDO_ProcessMatchDescReq_10:
   \   000370   7404         MOV     A,#0x4
   \   000372   12....       LCALL   ?XSTACK_DISP0_8
   \   000375   E0           MOVX    A,@DPTR
   \   000376   6042         JZ      ??ZDO_ProcessMatchDescReq_21
    830            {
    831              if ( ZSuccess == ZDP_MatchDescRsp( inMsg->TransSeq, &(inMsg->srcAddr), ZDP_SUCCESS,
    832                        ZDAppNwkAddr.addr.shortAddr, epCnt, (uint8 *)ZDOBuildBuf, inMsg->SecurityUse ) )
   \   000378                ; Setup parameters for call to function ZDP_EPRsp
   \   000378   7405         MOV     A,#0x5
   \   00037A   12....       LCALL   ?XSTACK_DISP0_8
   \   00037D   12....       LCALL   ?Subroutine41 & 0xFFFF
   \                     ??CrossCallReturnLabel_89:
   \   000380   12....       LCALL   ?PUSH_XSTACK_I_ONE
   \   000383   75....       MOV     ?V0 + 0,#(ZDOBuildBuf & 0xff)
   \   000386   75....       MOV     ?V0 + 1,#((ZDOBuildBuf >> 8) & 0xff)
   \   000389   78..         MOV     R0,#?V0 + 0
   \   00038B   12....       LCALL   ?PUSH_XSTACK_I_TWO
   \   00038E   7407         MOV     A,#0x7
   \   000390   12....       LCALL   ?XSTACK_DISP0_8
   \   000393   E0           MOVX    A,@DPTR
   \   000394   F5..         MOV     ?V0 + 0,A
   \   000396   78..         MOV     R0,#?V0 + 0
   \   000398   12....       LCALL   ?PUSH_XSTACK_I_ONE
   \   00039B   90....       MOV     DPTR,#ZDAppNwkAddr
   \   00039E   12....       LCALL   ?PUSH_XSTACK8_X_TWO
   \   0003A1   75..00       MOV     ?V0 + 0,#0x0
   \   0003A4   78..         MOV     R0,#?V0 + 0
   \   0003A6   12....       LCALL   ?PUSH_XSTACK_I_ONE
   \   0003A9   740C         MOV     A,#0xc
   \   0003AB   12....       LCALL   ?XSTACK_DISP0_8
   \   0003AE   12....       LCALL   ?Subroutine54 & 0xFFFF
   \                     ??CrossCallReturnLabel_115:
   \   0003B1   12....       LCALL   ?XSTACK_DISP0_8
   \   0003B4   12....       LCALL   ?Subroutine33 & 0xFFFF
   \                     ??CrossCallReturnLabel_74:
   \   0003B7   12....       LCALL   ?DEALLOC_XSTACK8
    833              {
    834          #if defined( LCD_SUPPORTED )
    835                HalLcdWriteScreen( "Match Desc Req", "Rsp Sent" );
    836          #endif
    837              }
    838            }
    839            else
    840            {
    841          #if defined( LCD_SUPPORTED )
    842              HalLcdWriteScreen( "Match Desc Req", "Non Matched" );
    843          #endif
    844            }
    845            
    846            if ( inClusters )
   \                     ??ZDO_ProcessMatchDescReq_21:
   \   0003BA   7407         MOV     A,#0x7
   \   0003BC   12....       LCALL   ?XSTACK_DISP0_8
   \   0003BF   E0           MOVX    A,@DPTR
   \   0003C0   7002         JNZ     ??ZDO_ProcessMatchDescReq_22
   \   0003C2   A3           INC     DPTR
   \   0003C3   E0           MOVX    A,@DPTR
   \                     ??ZDO_ProcessMatchDescReq_22:
   \   0003C4   6008         JZ      ??CrossCallReturnLabel_65
    847              osal_mem_free( inClusters );
   \   0003C6                ; Setup parameters for call to function osal_mem_free
   \   0003C6   7407         MOV     A,#0x7
   \   0003C8   12....       LCALL   ?XSTACK_DISP0_8
   \   0003CB   12....       LCALL   ??Subroutine31_0 & 0xFFFF
    848            if ( outClusters )
   \                     ??CrossCallReturnLabel_65:
   \   0003CE   7409         MOV     A,#0x9
   \   0003D0   12....       LCALL   ?XSTACK_DISP0_8
   \   0003D3   E0           MOVX    A,@DPTR
   \   0003D4   7002         JNZ     ??ZDO_ProcessMatchDescReq_23
   \   0003D6   A3           INC     DPTR
   \   0003D7   E0           MOVX    A,@DPTR
   \                     ??ZDO_ProcessMatchDescReq_23:
   \   0003D8   6008         JZ      ??CrossCallReturnLabel_66
    849              osal_mem_free( outClusters );
   \   0003DA                ; Setup parameters for call to function osal_mem_free
   \   0003DA   7409         MOV     A,#0x9
   \   0003DC   12....       LCALL   ?XSTACK_DISP0_8
   \   0003DF   12....       LCALL   ??Subroutine31_0 & 0xFFFF
   \                     ??CrossCallReturnLabel_66:
   \   0003E2   740B         MOV     A,#0xb
   \   0003E4   12....       LCALL   ?DEALLOC_XSTACK8
   \   0003E7   02....       LJMP    ??Subroutine135_0 & 0xFFFF
    850          }

   \                                 In  segment BANKED_CODE, align 1, keep-with-next
   \                     ?Subroutine67:
   \   000000   12....       LCALL   ??Subroutine106_0 & 0xFFFF
   \                     ??CrossCallReturnLabel_235:
   \   000003   A3           INC     DPTR
   \   000004   A3           INC     DPTR
   \   000005   A3           INC     DPTR
   \   000006   22           RET

   \                                 In  segment BANKED_CODE, align 1, keep-with-next
   \                     ?Subroutine65:
   \   000000   12....       LCALL   ?Subroutine106 & 0xFFFF
   \                     ??CrossCallReturnLabel_234:
   \   000003   22           RET

   \                                 In  segment BANKED_CODE, align 1, keep-with-next
   \                     ?Subroutine58:
   \   000000   E0           MOVX    A,@DPTR
   \   000001   FC           MOV     R4,A
   \   000002   A3           INC     DPTR
   \   000003   E0           MOVX    A,@DPTR
   \   000004   FD           MOV     R5,A
   \   000005   AA..         MOV     R2,?V0 + 2
   \   000007   AB..         MOV     R3,?V0 + 3
   \   000009   22           RET

   \                                 In  segment BANKED_CODE, align 1, keep-with-next
   \                     ?Subroutine56:
   \   000000   C3           CLR     C
   \   000001   33           RLC     A
   \   000002   FC           MOV     R4,A
   \   000003   E4           CLR     A
   \   000004   33           RLC     A
   \   000005   FD           MOV     R5,A
   \   000006   8A82         MOV     DPL,R2
   \   000008   8B83         MOV     DPH,R3
   \   00000A   12....       LCALL   ?Subroutine98 & 0xFFFF
   \                     ??CrossCallReturnLabel_219:
   \   00000D                REQUIRE ?Subroutine128
   \   00000D                ; // Fall through to label ?Subroutine128

   \                                 In  segment BANKED_CODE, align 1, keep-with-next
   \                     ?Subroutine128:
   \   000000   12....       LCALL   ??osal_memcpy?relay
   \   000003   7403         MOV     A,#0x3
   \   000005   22           RET

   \                                 In  segment BANKED_CODE, align 1, keep-with-next
   \                     ?Subroutine54:
   \   000000   E0           MOVX    A,@DPTR
   \   000001   2402         ADD     A,#0x2
   \   000003   FC           MOV     R4,A
   \   000004   A3           INC     DPTR
   \   000005   E0           MOVX    A,@DPTR
   \   000006   3400         ADDC    A,#0x0
   \   000008   FD           MOV     R5,A
   \   000009   740C         MOV     A,#0xc
   \   00000B   22           RET

   \                                 In  segment BANKED_CODE, align 1, keep-with-next
   \                     ?Subroutine51:
   \   000000   12....       LCALL   ?Subroutine102 & 0xFFFF
   \                     ??CrossCallReturnLabel_223:
   \   000003   E0           MOVX    A,@DPTR
   \   000004   22           RET

   \                                 In  segment BANKED_CODE, align 1, keep-with-next
   \                     ?Subroutine48:
   \   000000   E0           MOVX    A,@DPTR
   \   000001   F5..         MOV     ?V0 + 0,A
   \   000003   A3           INC     DPTR
   \   000004   E0           MOVX    A,@DPTR
   \   000005   F5..         MOV     ?V0 + 1,A
   \   000007   75..00       MOV     ?V0 + 2,#0x0
   \   00000A   78..         MOV     R0,#?V0 + 0
   \   00000C   22           RET

   \                                 In  segment BANKED_CODE, align 1, keep-with-next
   \                     ?Subroutine47:
   \   000000   12....       LCALL   ?Subroutine97 & 0xFFFF
   \                     ??CrossCallReturnLabel_213:
   \   000003   22           RET

   \                                 In  segment BANKED_CODE, align 1, keep-with-next
   \                     ?Subroutine97:
   \   000000   12....       LCALL   ?Subroutine116 & 0xFFFF
   \                     ??CrossCallReturnLabel_259:
   \   000003   A3           INC     DPTR
   \   000004   A3           INC     DPTR
   \   000005   A3           INC     DPTR
   \   000006   22           RET

   \                                 In  segment BANKED_CODE, align 1, keep-with-next
   \                     ?Subroutine46:
   \   000000   12....       LCALL   ?Subroutine102 & 0xFFFF
   \                     ??CrossCallReturnLabel_222:
   \   000003   A3           INC     DPTR
   \   000004   E0           MOVX    A,@DPTR
   \   000005   F8           MOV     R0,A
   \   000006   A3           INC     DPTR
   \   000007   E0           MOVX    A,@DPTR
   \   000008   22           RET

   \                                 In  segment BANKED_CODE, align 1, keep-with-next
   \                     ?Subroutine102:
   \   000000   12....       LCALL   ?Subroutine116 & 0xFFFF
   \                     ??CrossCallReturnLabel_260:
   \   000003   22           RET

   \                                 In  segment BANKED_CODE, align 1, keep-with-next
   \                     ?Subroutine116:
   \   000000   E0           MOVX    A,@DPTR
   \   000001   F8           MOV     R0,A
   \   000002   A3           INC     DPTR
   \   000003   E0           MOVX    A,@DPTR
   \   000004   F583         MOV     DPH,A
   \   000006   8882         MOV     DPL,R0
   \   000008   A3           INC     DPTR
   \   000009   A3           INC     DPTR
   \   00000A   22           RET

   \                                 In  segment BANKED_CODE, align 1, keep-with-next
   \                     ?Subroutine45:
   \   000000   12....       LCALL   ?Subroutine97 & 0xFFFF
   \                     ??CrossCallReturnLabel_212:
   \   000003   02....       LJMP    ??Subroutine121_2 & 0xFFFF

   \                                 In  segment BANKED_CODE, align 1, keep-with-next
   \                     ?Subroutine41:
   \   000000   E0           MOVX    A,@DPTR
   \   000001   240E         ADD     A,#0xe
   \   000003   12....       LCALL   ?Subroutine95 & 0xFFFF
   \                     ??CrossCallReturnLabel_206:
   \   000006   F5..         MOV     ?V0 + 0,A
   \   000008   78..         MOV     R0,#?V0 + 0
   \   00000A   22           RET

   \                                 In  segment BANKED_CODE, align 1, keep-with-next
   \                     ?Subroutine33:
   \   000000   E0           MOVX    A,@DPTR
   \   000001   240F         ADD     A,#0xf
   \   000003   12....       LCALL   ?Subroutine95 & 0xFFFF
   \                     ??CrossCallReturnLabel_205:
   \   000006   F9           MOV     R1,A
   \   000007   7A06         MOV     R2,#0x6
   \   000009   7B80         MOV     R3,#-0x80
   \   00000B   12....       LCALL   ??ZDP_EPRsp?relay
   \   00000E   7407         MOV     A,#0x7
   \   000010   22           RET

   \                                 In  segment BANKED_CODE, align 1, keep-with-next
   \                     ?Subroutine95:
   \   000000   F8           MOV     R0,A
   \                     ??Subroutine95_0:
   \   000001   A3           INC     DPTR
   \   000002   E0           MOVX    A,@DPTR
   \   000003   12....       LCALL   ?Subroutine117 & 0xFFFF
   \                     ??CrossCallReturnLabel_293:
   \   000006   22           RET

   \                                 In  segment BANKED_CODE, align 1, keep-with-next
   \                     ?Subroutine117:
   \   000000   3400         ADDC    A,#0x0
   \   000002   F9           MOV     R1,A
   \   000003                REQUIRE ?Subroutine125
   \   000003                ; // Fall through to label ?Subroutine125

   \                                 In  segment BANKED_CODE, align 1, keep-with-next
   \                     ?Subroutine125:
   \   000000   8882         MOV     DPL,R0
   \   000002   8983         MOV     DPH,R1
   \   000004   E0           MOVX    A,@DPTR
   \   000005   22           RET

   \                                 In  segment BANKED_CODE, align 1, keep-with-next
   \                     ?Subroutine121:
   \   000000   A3           INC     DPTR
   \                     ??Subroutine121_0:
   \   000001   A3           INC     DPTR
   \                     ??Subroutine121_1:
   \   000002   A3           INC     DPTR
   \                     ??Subroutine121_2:
   \   000003   A3           INC     DPTR
   \   000004   A3           INC     DPTR
   \   000005   A3           INC     DPTR
   \   000006   A3           INC     DPTR
   \   000007   22           RET

   \                                 In  segment BANKED_CODE, align 1, keep-with-next
   \                     ?Subroutine52:
   \   000000   12....       LCALL   ?Subroutine95 & 0xFFFF
   \                     ??CrossCallReturnLabel_207:
   \   000003   F5..         MOV     ?V0 + 2,A
   \   000005   22           RET

   \                                 In  segment BANKED_CODE, align 1, keep-with-next
   \                     ?Subroutine60:
   \   000000   12....       LCALL   ?Subroutine122 & 0xFFFF
   \                     ??CrossCallReturnLabel_278:
   \   000003   22           RET

   \                                 In  segment BANKED_CODE, align 1, keep-with-next
   \                     ?Subroutine129:
   \   000000   F0           MOVX    @DPTR,A
   \   000001   A3           INC     DPTR
   \   000002   E9           MOV     A,R1
   \   000003   F0           MOVX    @DPTR,A
   \   000004   22           RET

   \                                 In  segment BANKED_CODE, align 1, keep-with-next
   \                     ?Subroutine25:
   \   000000   12....       LCALL   ?Subroutine94 & 0xFFFF
   \                     ??CrossCallReturnLabel_202:
   \   000003   A3           INC     DPTR
   \   000004   22           RET

   \                                 In  segment BANKED_CODE, align 1, keep-with-next
   \                     ?Subroutine94:
   \   000000   F0           MOVX    @DPTR,A
   \   000001   8A82         MOV     DPL,R2
   \   000003   8B83         MOV     DPH,R3
   \   000005   A3           INC     DPTR
   \   000006   22           RET

   \                                 In  segment BANKED_CODE, align 1, keep-with-next
   \                     ?Subroutine135:
   \   000000   AA..         MOV     R2,?V0 + 6
   \   000002   AB..         MOV     R3,?V0 + 7
   \                     ??Subroutine135_0:
   \   000004   7F08         MOV     R7,#0x8
   \   000006   02....       LJMP    ?BANKED_LEAVE_XDATA

   \                                 In  segment BANKED_CODE, align 1, keep-with-next
   \                     ?Subroutine10:
   \   000000   F8           MOV     R0,A
   \   000001   E5..         MOV     A,?V0 + 1
   \   000003   4F           ORL     A,R7
   \                     ??Subroutine10_0:
   \   000004   F9           MOV     R1,A
   \   000005   8C82         MOV     DPL,R4
   \   000007   8D83         MOV     DPH,R5
   \                     ??Subroutine10_1:
   \   000009   E8           MOV     A,R0
   \   00000A   02....       LJMP    ?Subroutine129 & 0xFFFF
    851          
    852          /*********************************************************************
    853           * @fn      ZDO_ProcessBindUnbindReq()
    854           *
    855           * @brief   Called to process a Bind or Unbind Request message.
    856           *
    857           * @param   inMsg  - incoming message (request)
    858           * @param   pReq - place to put parsed information
    859           *
    860           * @return  none
    861           */

   \                                 In  segment BANKED_CODE, align 1, keep-with-next
    862          void ZDO_ProcessBindUnbindReq( zdoIncomingMsg_t *inMsg, ZDO_BindUnbindReq_t *pReq )
   \                     ZDO_ProcessBindUnbindReq:
    863          {
   \   000000   74F4         MOV     A,#-0xc
   \   000002   12....       LCALL   ?BANKED_ENTER_XDATA
   \   000005                ; Saved register size: 12
   \   000005                ; Auto size: 12
   \   000005   74F4         MOV     A,#-0xc
   \   000007   12....       LCALL   ?ALLOC_XSTACK8
   \   00000A   8A..         MOV     ?V0 + 0,R2
   \   00000C   8B..         MOV     ?V0 + 1,R3
   \   00000E   EC           MOV     A,R4
   \   00000F   FE           MOV     R6,A
   \   000010   ED           MOV     A,R5
   \   000011   FF           MOV     R7,A
    864            zAddrType_t SourceAddr;       // Binding Source addres
    865            byte bindStat;
    866          
    867            SourceAddr.addrMode = Addr64Bit;
   \   000012   740B         MOV     A,#0xb
   \   000014   12....       LCALL   ?XSTACK_DISP0_8
   \   000017   7403         MOV     A,#0x3
   \   000019   F0           MOVX    @DPTR,A
    868            osal_cpyExtAddr( SourceAddr.addr.extAddr, pReq->srcAddress );
   \   00001A                ; Setup parameters for call to function osal_cpyExtAddr
   \   00001A   12....       LCALL   ?XSTACK_DISP0_8
   \   00001D   AA82         MOV     R2,DPL
   \   00001F   AB83         MOV     R3,DPH
   \   000021   12....       LCALL   ??osal_cpyExtAddr?relay
    869          
    870          
    871            // If the local device is not the primary binding cache
    872            // check the src address of the bind request.
    873            // If it is not the local device's extended address
    874            // discard the request.
    875            if ( !osal_ExtAddrEqual( SourceAddr.addr.extAddr, NLME_GetExtAddr()) ||
    876                  (pReq->dstAddress.addrMode != Addr64Bit &&
    877                   pReq->dstAddress.addrMode != AddrGroup) )
   \   000024                ; Setup parameters for call to function osal_ExtAddrEqual
   \   000024                ; Setup parameters for call to function NLME_GetExtAddr
   \   000024   12....       LCALL   ??NLME_GetExtAddr?relay
   \   000027   EA           MOV     A,R2
   \   000028   FC           MOV     R4,A
   \   000029   EB           MOV     A,R3
   \   00002A   FD           MOV     R5,A
   \   00002B   7403         MOV     A,#0x3
   \   00002D   12....       LCALL   ?XSTACK_DISP0_8
   \   000030   AA82         MOV     R2,DPL
   \   000032   AB83         MOV     R3,DPH
   \   000034   12....       LCALL   ??osal_ExtAddrEqual?relay
   \   000037   E9           MOV     A,R1
   \   000038   600A         JZ      ??ZDO_ProcessBindUnbindReq_0
   \   00003A   12....       LCALL   ?Subroutine70 & 0xFFFF
   \                     ??CrossCallReturnLabel_141:
   \   00003D   600A         JZ      ??ZDO_ProcessBindUnbindReq_1
   \   00003F   E0           MOVX    A,@DPTR
   \   000040   6401         XRL     A,#0x1
   \   000042   6005         JZ      ??ZDO_ProcessBindUnbindReq_1
    878            {
    879              bindStat = ZDP_NOT_SUPPORTED;
   \                     ??ZDO_ProcessBindUnbindReq_0:
   \   000044   7484         MOV     A,#-0x7c
   \   000046   02....       LJMP    ??ZDO_ProcessBindUnbindReq_2 & 0xFFFF
    880            }
    881            else
    882            {
    883              // Check source & destination endpoints
    884              if ( (pReq->srcEndpoint == 0 || pReq->srcEndpoint > MAX_ENDPOINTS)
    885                  || (( pReq->dstAddress.addrMode == Addr64Bit ) &&
    886                      (pReq->dstEndpoint == 0 || pReq->dstEndpoint > MAX_ENDPOINTS)) )
   \                     ??ZDO_ProcessBindUnbindReq_1:
   \   000049   8E82         MOV     DPL,R6
   \   00004B   8F83         MOV     DPH,R7
   \   00004D   A3           INC     DPTR
   \   00004E   A3           INC     DPTR
   \   00004F   A3           INC     DPTR
   \   000050   A3           INC     DPTR
   \   000051   A3           INC     DPTR
   \   000052   A3           INC     DPTR
   \   000053   A3           INC     DPTR
   \   000054   A3           INC     DPTR
   \   000055   E0           MOVX    A,@DPTR
   \   000056   601A         JZ      ??ZDO_ProcessBindUnbindReq_3
   \   000058   C3           CLR     C
   \   000059   94F1         SUBB    A,#-0xf
   \   00005B   5015         JNC     ??ZDO_ProcessBindUnbindReq_3
   \   00005D   12....       LCALL   ?Subroutine70 & 0xFFFF
   \                     ??CrossCallReturnLabel_142:
   \   000060   7014         JNZ     ??ZDO_ProcessBindUnbindReq_4
   \   000062   EE           MOV     A,R6
   \   000063   2414         ADD     A,#0x14
   \   000065   F582         MOV     DPL,A
   \   000067   EF           MOV     A,R7
   \   000068   12....       LCALL   ??Subroutine71_0 & 0xFFFF
   \                     ??CrossCallReturnLabel_145:
   \   00006B   6005         JZ      ??ZDO_ProcessBindUnbindReq_3
   \   00006D   C3           CLR     C
   \   00006E   94F1         SUBB    A,#-0xf
   \   000070   4004         JC      ??ZDO_ProcessBindUnbindReq_4
    887              {
    888                bindStat = ZDP_INVALID_EP;
   \                     ??ZDO_ProcessBindUnbindReq_3:
   \   000072   7482         MOV     A,#-0x7e
   \   000074   807E         SJMP    ??ZDO_ProcessBindUnbindReq_2
    889              }
    890              else
    891              {
    892                if ( inMsg->clusterID == Bind_req )
   \                     ??ZDO_ProcessBindUnbindReq_4:
   \   000076   12....       LCALL   ?Subroutine71 & 0xFFFF
   \                     ??CrossCallReturnLabel_146:
   \   000079   6421         XRL     A,#0x21
   \   00007B   7002         JNZ     ??ZDO_ProcessBindUnbindReq_5
   \   00007D   A3           INC     DPTR
   \   00007E   E0           MOVX    A,@DPTR
   \                     ??ZDO_ProcessBindUnbindReq_5:
   \   00007F   702D         JNZ     ??ZDO_ProcessBindUnbindReq_6
    893                {
    894                  uint16 nwkAddr;
    895          
    896                  // Check for the destination address
    897                  if ( pReq->dstAddress.addrMode == Addr64Bit )
   \   000081   12....       LCALL   ?Subroutine70 & 0xFFFF
   \                     ??CrossCallReturnLabel_143:
   \   000084   7033         JNZ     ??ZDO_ProcessBindUnbindReq_7
    898                  {
    899                    if ( APSME_LookupNwkAddr( pReq->dstAddress.addr.extAddr, &nwkAddr ) == FALSE )
   \   000086                ; Setup parameters for call to function APSME_LookupNwkAddr
   \   000086   7401         MOV     A,#0x1
   \   000088   12....       LCALL   ?XSTACK_DISP0_8
   \   00008B   AC82         MOV     R4,DPL
   \   00008D   AD83         MOV     R5,DPH
   \   00008F   EE           MOV     A,R6
   \   000090   240B         ADD     A,#0xb
   \   000092   FA           MOV     R2,A
   \   000093   EF           MOV     A,R7
   \   000094   3400         ADDC    A,#0x0
   \   000096   FB           MOV     R3,A
   \   000097   12....       LCALL   ??APSME_LookupNwkAddr?relay
   \   00009A   E9           MOV     A,R1
   \   00009B   7011         JNZ     ??ZDO_ProcessBindUnbindReq_6
    900                    {
    901                      ZDP_NwkAddrReq( pReq->dstAddress.addr.extAddr, ZDP_ADDR_REQTYPE_SINGLE, 0, 0 );
   \   00009D                ; Setup parameters for call to function ZDP_NwkAddrReq
   \   00009D   7D00         MOV     R5,#0x0
   \   00009F   7C00         MOV     R4,#0x0
   \   0000A1   7900         MOV     R1,#0x0
   \   0000A3   EE           MOV     A,R6
   \   0000A4   240B         ADD     A,#0xb
   \   0000A6   FA           MOV     R2,A
   \   0000A7   EF           MOV     A,R7
   \   0000A8   3400         ADDC    A,#0x0
   \   0000AA   FB           MOV     R3,A
   \   0000AB   12....       LCALL   ??ZDP_NwkAddrReq?relay
    902                    }
    903                  }
    904                }
    905          
    906                if ( inMsg->clusterID == Bind_req )
   \                     ??ZDO_ProcessBindUnbindReq_6:
   \   0000AE   12....       LCALL   ?Subroutine71 & 0xFFFF
   \                     ??CrossCallReturnLabel_147:
   \   0000B1   6421         XRL     A,#0x21
   \   0000B3   7002         JNZ     ??ZDO_ProcessBindUnbindReq_8
   \   0000B5   A3           INC     DPTR
   \   0000B6   E0           MOVX    A,@DPTR
   \                     ??ZDO_ProcessBindUnbindReq_8:
   \   0000B7   7025         JNZ     ??ZDO_ProcessBindUnbindReq_9
    907                {
    908                  if ( APSME_BindRequest( pReq->srcEndpoint, pReq->clusterID,
    909                                 &(pReq->dstAddress), pReq->dstEndpoint ) == ZSuccess )
   \                     ??ZDO_ProcessBindUnbindReq_7:
   \   0000B9                ; Setup parameters for call to function APSME_BindRequest
   \   0000B9   12....       LCALL   ?Subroutine59 & 0xFFFF
   \                     ??CrossCallReturnLabel_123:
   \   0000BC   12....       LCALL   ?PUSH_XSTACK_I_ONE
   \   0000BF   12....       LCALL   ?Subroutine40 & 0xFFFF
   \                     ??CrossCallReturnLabel_86:
   \   0000C2   12....       LCALL   ??APSME_BindRequest?relay
   \   0000C5   7401         MOV     A,#0x1
   \   0000C7   12....       LCALL   ?DEALLOC_XSTACK8
   \   0000CA   E9           MOV     A,R1
   \   0000CB   700D         JNZ     ??ZDO_ProcessBindUnbindReq_10
    910                  {
    911                    bindStat = ZDP_SUCCESS;
   \                     ??ZDO_ProcessBindUnbindReq_11:
   \   0000CD   E4           CLR     A
   \   0000CE   85..82       MOV     DPL,?XSP + 0
   \   0000D1   85..83       MOV     DPH,?XSP + 1
   \   0000D4   F0           MOVX    @DPTR,A
    912                    // Notify to save info into NV
    913                    ZDApp_NVUpdate();
   \   0000D5                ; Setup parameters for call to function ZDApp_NVUpdate
   \   0000D5   12....       LCALL   ??ZDApp_NVUpdate?relay
   \   0000D8   8021         SJMP    ??ZDO_ProcessBindUnbindReq_12
    914                  }
    915                  else
    916                    bindStat = ZDP_TABLE_FULL;
   \                     ??ZDO_ProcessBindUnbindReq_10:
   \   0000DA   7487         MOV     A,#-0x79
   \   0000DC   8016         SJMP    ??ZDO_ProcessBindUnbindReq_2
    917                }
    918                else // Unbind_req
    919                {
    920                  if ( APSME_UnBindRequest( pReq->srcEndpoint, pReq->clusterID,
    921                                 &(pReq->dstAddress), pReq->dstEndpoint ) == ZSuccess )
   \                     ??ZDO_ProcessBindUnbindReq_9:
   \   0000DE                ; Setup parameters for call to function APSME_UnBindRequest
   \   0000DE   12....       LCALL   ?Subroutine59 & 0xFFFF
   \                     ??CrossCallReturnLabel_124:
   \   0000E1   12....       LCALL   ?PUSH_XSTACK_I_ONE
   \   0000E4   12....       LCALL   ?Subroutine40 & 0xFFFF
   \                     ??CrossCallReturnLabel_87:
   \   0000E7   12....       LCALL   ??APSME_UnBindRequest?relay
   \   0000EA   7401         MOV     A,#0x1
   \   0000EC   12....       LCALL   ?DEALLOC_XSTACK8
   \   0000EF   E9           MOV     A,R1
   \   0000F0   60DB         JZ      ??ZDO_ProcessBindUnbindReq_11
    922                  {
    923                    bindStat = ZDP_SUCCESS;
    924          
    925                    // Notify to save info into NV
    926                    ZDApp_NVUpdate();
    927                  }
    928                  else
    929                    bindStat = ZDP_NO_ENTRY;
   \   0000F2   7488         MOV     A,#-0x78
   \                     ??ZDO_ProcessBindUnbindReq_2:
   \   0000F4   85..82       MOV     DPL,?XSP + 0
   \   0000F7   85..83       MOV     DPH,?XSP + 1
   \   0000FA   F0           MOVX    @DPTR,A
    930                }
    931              }
    932            }
    933          
    934            // Send back a response message
    935            ZDP_SendData( &(inMsg->TransSeq), &(inMsg->srcAddr),
    936                         (inMsg->clusterID | ZDO_RESPONSE_BIT), 1, &bindStat,
    937                         inMsg->SecurityUse );
   \                     ??ZDO_ProcessBindUnbindReq_12:
   \   0000FB                ; Setup parameters for call to function ZDP_SendData
   \   0000FB   E5..         MOV     A,?V0 + 0
   \   0000FD   240E         ADD     A,#0xe
   \   0000FF   F582         MOV     DPL,A
   \   000101   E5..         MOV     A,?V0 + 1
   \   000103   12....       LCALL   ??Subroutine59_0 & 0xFFFF
   \                     ??CrossCallReturnLabel_125:
   \   000106   12....       LCALL   ?PUSH_XSTACK_I_ONE
   \   000109   7401         MOV     A,#0x1
   \   00010B   12....       LCALL   ?XSTACK_DISP0_8
   \   00010E   8582..       MOV     ?V0 + 2,DPL
   \   000111   8583..       MOV     ?V0 + 3,DPH
   \   000114   78..         MOV     R0,#?V0 + 2
   \   000116   12....       LCALL   ?PUSH_XSTACK_I_TWO
   \   000119   12....       LCALL   ?Subroutine71 & 0xFFFF
   \                     ??CrossCallReturnLabel_148:
   \   00011C   F5..         MOV     ?V0 + 2,A
   \   00011E   A3           INC     DPTR
   \   00011F   E0           MOVX    A,@DPTR
   \   000120   4480         ORL     A,#0x80
   \   000122   F5..         MOV     ?V0 + 3,A
   \   000124   78..         MOV     R0,#?V0 + 2
   \   000126   12....       LCALL   ?PUSH_XSTACK_I_TWO
   \   000129   7901         MOV     R1,#0x1
   \   00012B   E5..         MOV     A,?V0 + 0
   \   00012D   2402         ADD     A,#0x2
   \   00012F   FC           MOV     R4,A
   \   000130   E5..         MOV     A,?V0 + 1
   \   000132   3400         ADDC    A,#0x0
   \   000134   FD           MOV     R5,A
   \   000135   E5..         MOV     A,?V0 + 0
   \   000137   240F         ADD     A,#0xf
   \   000139   FA           MOV     R2,A
   \   00013A   E5..         MOV     A,?V0 + 1
   \   00013C   3400         ADDC    A,#0x0
   \   00013E   FB           MOV     R3,A
   \   00013F   12....       LCALL   ??ZDP_SendData?relay
   \   000142   7405         MOV     A,#0x5
   \   000144   12....       LCALL   ?DEALLOC_XSTACK8
    938          }
   \   000147   740C         MOV     A,#0xc
   \   000149   02....       LJMP    ?Subroutine120 & 0xFFFF

   \                                 In  segment BANKED_CODE, align 1, keep-with-next
   \                     ?Subroutine70:
   \   000000   EE           MOV     A,R6
   \   000001   2413         ADD     A,#0x13
   \   000003   12....       LCALL   ?Subroutine109 & 0xFFFF
   \                     ??CrossCallReturnLabel_245:
   \   000006   6403         XRL     A,#0x3
   \   000008   22           RET

   \                                 In  segment BANKED_CODE, align 1, keep-with-next
   \                     ?Subroutine40:
   \   000000   EE           MOV     A,R6
   \   000001   240B         ADD     A,#0xb
   \   000003   FC           MOV     R4,A
   \   000004   EF           MOV     A,R7
   \   000005   3400         ADDC    A,#0x0
   \   000007   FD           MOV     R5,A
   \   000008   8E82         MOV     DPL,R6
   \   00000A   8F83         MOV     DPH,R7
   \   00000C   A3           INC     DPTR
   \   00000D   A3           INC     DPTR
   \   00000E   A3           INC     DPTR
   \   00000F   A3           INC     DPTR
   \   000010   A3           INC     DPTR
   \   000011   A3           INC     DPTR
   \   000012   A3           INC     DPTR
   \   000013   A3           INC     DPTR
   \   000014   A3           INC     DPTR
   \   000015   12....       LCALL   ?Subroutine98 & 0xFFFF
   \                     ??CrossCallReturnLabel_218:
   \   000018   8E82         MOV     DPL,R6
   \   00001A   8F83         MOV     DPH,R7
   \   00001C   A3           INC     DPTR
   \   00001D   A3           INC     DPTR
   \   00001E   A3           INC     DPTR
   \   00001F   A3           INC     DPTR
   \   000020   A3           INC     DPTR
   \   000021   A3           INC     DPTR
   \   000022   A3           INC     DPTR
   \   000023   A3           INC     DPTR
   \   000024   E0           MOVX    A,@DPTR
   \   000025   F9           MOV     R1,A
   \   000026   22           RET
    939          
    940          /*********************************************************************
    941           * @fn      ZDO_UpdateAddrManager
    942           *
    943           * @brief   Update the Address Manager.
    944           *
    945           * @param   nwkAddr - network address
    946           * @param   extAddr - extended address
    947           *
    948           * @return  none
    949           */

   \                                 In  segment BANKED_CODE, align 1, keep-with-next
    950          void ZDO_UpdateAddrManager( uint16 nwkAddr, uint8 *extAddr )
   \                     ZDO_UpdateAddrManager:
    951          {
   \   000000   C082         PUSH    DPL
   \   000002   C083         PUSH    DPH
   \   000004                ; Saved register size: 2
   \   000004                ; Auto size: 13
   \   000004   74F3         MOV     A,#-0xd
   \   000006   12....       LCALL   ?ALLOC_XSTACK8
    952            AddrMgrEntry_t addrEntry;
    953          
    954            // Update the address manager
    955            addrEntry.user = ADDRMGR_USER_DEFAULT;
   \   000009   E4           CLR     A
   \   00000A   85..82       MOV     DPL,?XSP + 0
   \   00000D   85..83       MOV     DPH,?XSP + 1
   \   000010   F0           MOVX    @DPTR,A
    956            addrEntry.nwkAddr = nwkAddr;
   \   000011   7401         MOV     A,#0x1
   \   000013   12....       LCALL   ?XSTACK_DISP0_8
   \   000016   12....       LCALL   ?Subroutine26 & 0xFFFF
    957            AddrMgrExtAddrSet( addrEntry.extAddr, extAddr );
   \                     ??CrossCallReturnLabel_52:
   \   000019                ; Setup parameters for call to function AddrMgrExtAddrSet
   \   000019   7403         MOV     A,#0x3
   \   00001B   12....       LCALL   ?XSTACK_DISP0_8
   \   00001E   AA82         MOV     R2,DPL
   \   000020   AB83         MOV     R3,DPH
   \   000022   12....       LCALL   ??AddrMgrExtAddrSet?relay
    958            AddrMgrEntryUpdate( &addrEntry );
   \   000025                ; Setup parameters for call to function AddrMgrEntryUpdate
   \   000025   85..82       MOV     DPL,?XSP + 0
   \   000028   85..83       MOV     DPH,?XSP + 1
   \   00002B   AA82         MOV     R2,DPL
   \   00002D   AB83         MOV     R3,DPH
   \   00002F   12....       LCALL   ??AddrMgrEntryUpdate?relay
    959          }
   \   000032   740D         MOV     A,#0xd
   \   000034   12....       LCALL   ?DEALLOC_XSTACK8
   \   000037   02....       LJMP    ?Subroutine119 & 0xFFFF
    960          
    961          #if defined ( ZDO_SERVERDISC_RESPONSE )
    962          /*********************************************************************
    963           * @fn          ZDO_ProcessServerDiscReq
    964           *
    965           * @brief       Process the Server_Discovery_req message.
    966           *
    967           * @param   inMsg  - incoming message (request)
    968           *
    969           * @return      none
    970           */
    971          void ZDO_ProcessServerDiscReq( zdoIncomingMsg_t *inMsg )
    972          {
    973            uint16 serverMask = BUILD_UINT16( inMsg->asdu[0], inMsg->asdu[1] );
    974            uint16 matchMask = serverMask & ZDO_Config_Node_Descriptor.ServerMask;
    975          
    976            if ( matchMask )
    977            {
    978              ZDP_ServerDiscRsp( inMsg->TransSeq, &(inMsg->srcAddr), ZSUCCESS,
    979                          ZDAppNwkAddr.addr.shortAddr, matchMask, inMsg->SecurityUse );
    980            }
    981          }
    982          #endif
    983          
    984          /*********************************************************************
    985           * Call Back Functions from APS  - API
    986           */
    987          
    988          /*********************************************************************
    989           * @fn          ZDO_EndDeviceTimeoutCB
    990           *
    991           * @brief       This function handles the binding timer for the End
    992           *              Device Bind command.
    993           *
    994           * @param       none
    995           *
    996           * @return      none
    997           */

   \                                 In  segment BANKED_CODE, align 1, keep-with-next
    998          void ZDO_EndDeviceTimeoutCB( void )
   \                     ZDO_EndDeviceTimeoutCB:
    999          {
   \   000000   74F6         MOV     A,#-0xa
   \   000002   12....       LCALL   ?BANKED_ENTER_XDATA
   \   000005                ; Saved register size: 10
   \   000005                ; Auto size: 2
   \   000005   74FE         MOV     A,#-0x2
   \   000007   12....       LCALL   ?ALLOC_XSTACK8
   1000          #if defined ( REFLECTOR )
   1001            byte stat;
   1002            if ( ZDO_EDBind )
   \   00000A   90....       MOV     DPTR,#ZDO_EDBind
   \   00000D   E0           MOVX    A,@DPTR
   \   00000E   7002         JNZ     ??ZDO_EndDeviceTimeoutCB_0
   \   000010   A3           INC     DPTR
   \   000011   E0           MOVX    A,@DPTR
   \                     ??ZDO_EndDeviceTimeoutCB_0:
   \   000012   7003         JNZ     $+5
   \   000014   02....       LJMP    ??ZDO_EndDeviceTimeoutCB_1 & 0xFFFF
   1003            {
   1004              stat = ZDO_EDBind->status;
   1005          
   1006              // Send the response message to the first sent
   1007              ZDO_SendEDBindRsp( ZDO_EDBind->SrcTransSeq, &(ZDO_EDBind->SrcAddr),
   1008                                  stat, ZDO_EDBind->SecurityUse );
   \   000017   90....       MOV     DPTR,#ZDO_EDBind
   \   00001A   E0           MOVX    A,@DPTR
   \   00001B   2415         ADD     A,#0x15
   \   00001D   12....       LCALL   ?Subroutine53 & 0xFFFF
   \                     ??CrossCallReturnLabel_110:
   \   000020   FA           MOV     R2,A
   \   000021   90....       MOV     DPTR,#ZDO_EDBind
   \   000024   E0           MOVX    A,@DPTR
   \   000025   2416         ADD     A,#0x16
   \   000027   08           INC     R0
   \   000028   12....       LCALL   ??Subroutine53_0 & 0xFFFF
   \                     ??CrossCallReturnLabel_111:
   \   00002B   85..82       MOV     DPL,?XSP + 0
   \   00002E   85..83       MOV     DPH,?XSP + 1
   \   000031   F0           MOVX    @DPTR,A
   \   000032   90....       MOV     DPTR,#ZDO_EDBind
   \   000035   E0           MOVX    A,@DPTR
   \   000036   2401         ADD     A,#0x1
   \   000038   FC           MOV     R4,A
   \   000039   A3           INC     DPTR
   \   00003A   E0           MOVX    A,@DPTR
   \   00003B   3400         ADDC    A,#0x0
   \   00003D   FD           MOV     R5,A
   \   00003E   90....       MOV     DPTR,#ZDO_EDBind
   \   000041   12....       LCALL   ?Subroutine35 & 0xFFFF
   \                     ??CrossCallReturnLabel_81:
   \   000044   C0E0         PUSH    A
   \   000046   7401         MOV     A,#0x1
   \   000048   12....       LCALL   ?XSTACK_DISP0_8
   \   00004B   D0E0         POP     A
   \   00004D   F0           MOVX    @DPTR,A
   \   00004E                ; Setup parameters for call to function ZDP_SendData
   \   00004E   EA           MOV     A,R2
   \   00004F   F5..         MOV     ?V0 + 0,A
   \   000051   78..         MOV     R0,#?V0 + 0
   \   000053   12....       LCALL   ?PUSH_XSTACK_I_ONE
   \   000056   7401         MOV     A,#0x1
   \   000058   12....       LCALL   ?XSTACK_DISP0_8
   \   00005B   8582..       MOV     ?V0 + 0,DPL
   \   00005E   8583..       MOV     ?V0 + 1,DPH
   \   000061   78..         MOV     R0,#?V0 + 0
   \   000063   12....       LCALL   ?PUSH_XSTACK_I_TWO
   \   000066   75..20       MOV     ?V0 + 0,#0x20
   \   000069   75..80       MOV     ?V0 + 1,#-0x80
   \   00006C   78..         MOV     R0,#?V0 + 0
   \   00006E   12....       LCALL   ?PUSH_XSTACK_I_TWO
   \   000071   7901         MOV     R1,#0x1
   \   000073   7406         MOV     A,#0x6
   \   000075   12....       LCALL   ?XSTACK_DISP0_8
   \   000078   AA82         MOV     R2,DPL
   \   00007A   AB83         MOV     R3,DPH
   \   00007C   12....       LCALL   ??ZDP_SendData?relay
   \   00007F   7405         MOV     A,#0x5
   \   000081   12....       LCALL   ?DEALLOC_XSTACK8
   1009          
   1010              ZDO_RemoveEndDeviceBind();
   \   000084   90....       MOV     DPTR,#ZDO_EDBind
   \   000087   E0           MOVX    A,@DPTR
   \   000088   7002         JNZ     ??ZDO_EndDeviceTimeoutCB_2
   \   00008A   A3           INC     DPTR
   \   00008B   E0           MOVX    A,@DPTR
   \                     ??ZDO_EndDeviceTimeoutCB_2:
   \   00008C   6031         JZ      ??ZDO_EndDeviceTimeoutCB_1
   \   00008E   90....       MOV     DPTR,#ZDO_EDBind
   \   000091   E0           MOVX    A,@DPTR
   \   000092   2410         ADD     A,#0x10
   \   000094   12....       LCALL   ?Subroutine53 & 0xFFFF
   \                     ??CrossCallReturnLabel_112:
   \   000097   7002         JNZ     ??ZDO_EndDeviceTimeoutCB_3
   \   000099   A3           INC     DPTR
   \   00009A   E0           MOVX    A,@DPTR
   \                     ??ZDO_EndDeviceTimeoutCB_3:
   \   00009B   6003         JZ      ??CrossCallReturnLabel_68
   \   00009D                ; Setup parameters for call to function osal_mem_free
   \   00009D   12....       LCALL   ?Subroutine31 & 0xFFFF
   \                     ??CrossCallReturnLabel_68:
   \   0000A0   90....       MOV     DPTR,#ZDO_EDBind
   \   0000A3   E0           MOVX    A,@DPTR
   \   0000A4   2413         ADD     A,#0x13
   \   0000A6   12....       LCALL   ?Subroutine53 & 0xFFFF
   \                     ??CrossCallReturnLabel_113:
   \   0000A9   7002         JNZ     ??ZDO_EndDeviceTimeoutCB_4
   \   0000AB   A3           INC     DPTR
   \   0000AC   E0           MOVX    A,@DPTR
   \                     ??ZDO_EndDeviceTimeoutCB_4:
   \   0000AD   6003         JZ      ??CrossCallReturnLabel_69
   \   0000AF                ; Setup parameters for call to function osal_mem_free
   \   0000AF   12....       LCALL   ?Subroutine31 & 0xFFFF
   \                     ??CrossCallReturnLabel_69:
   \   0000B2                ; Setup parameters for call to function osal_mem_free
   \   0000B2   90....       MOV     DPTR,#ZDO_EDBind
   \   0000B5   12....       LCALL   ??Subroutine31_0 & 0xFFFF
   \                     ??CrossCallReturnLabel_70:
   \   0000B8   90....       MOV     DPTR,#ZDO_EDBind
   \   0000BB   E4           CLR     A
   \   0000BC   F0           MOVX    @DPTR,A
   \   0000BD   A3           INC     DPTR
   \   0000BE   F0           MOVX    @DPTR,A
   1011            }
   1012          #endif  // REFLECTOR
   1013          }
   \                     ??ZDO_EndDeviceTimeoutCB_1:
   \   0000BF   02....       LJMP    ?Subroutine133 & 0xFFFF

   \                                 In  segment BANKED_CODE, align 1, keep-with-next
   \                     ?Subroutine53:
   \   000000   F8           MOV     R0,A
   \                     ??Subroutine53_0:
   \   000001   12....       LCALL   ??Subroutine95_0 & 0xFFFF
   \                     ??CrossCallReturnLabel_208:
   \   000004   22           RET
   1014          
   1015          /*********************************************************************
   1016           * Optional Management Messages
   1017           */
   1018          
   1019          #if defined( ZDO_MGMT_LQI_RESPONSE ) && defined ( RTR_NWK )
   1020          /*********************************************************************
   1021           * @fn          ZDO_ProcessMgmtLqiReq
   1022           *
   1023           * @brief       This function handles parsing the incoming Management
   1024           *              LQI request and generate the response.
   1025           *
   1026           *   Note:      This function will limit the number of items returned
   1027           *              to ZDO_MAX_LQI_ITEMS items.
   1028           *
   1029           * @param       inMsg - incoming message (request)
   1030           *
   1031           * @return      none
   1032           */
   1033          void ZDO_ProcessMgmtLqiReq( zdoIncomingMsg_t *inMsg )
   1034          {
   1035            byte x;
   1036            byte index;
   1037            byte numItems;
   1038            byte maxItems;
   1039            ZDP_MgmtLqiItem_t* table;
   1040            ZDP_MgmtLqiItem_t* item;
   1041            neighborEntry_t    entry;
   1042            byte aItems;
   1043            associated_devices_t *aDevice;
   1044            uint8 StartIndex = inMsg->asdu[0];
   1045          
   1046            // Get the number of neighbor items
   1047            NLME_GetRequest( nwkNumNeighborTableEntries, 0, &maxItems );
   1048          
   1049            // Get the number of associated items
   1050            aItems = (uint8)AssocCount( PARENT, CHILD_FFD_RX_IDLE );
   1051            // Total number of items
   1052            maxItems += aItems;
   1053          
   1054            // Start with the supplied index
   1055            numItems = maxItems - StartIndex;
   1056          
   1057            // limit the size of the list
   1058            if ( numItems > ZDO_MAX_LQI_ITEMS )
   1059              numItems = ZDO_MAX_LQI_ITEMS;
   1060          
   1061            // Allocate the memory to build the table
   1062            table = (ZDP_MgmtLqiItem_t*)osal_mem_alloc( (short)
   1063                      ( numItems * sizeof( ZDP_MgmtLqiItem_t ) ) );
   1064          
   1065            if ( table != NULL )
   1066            {
   1067              x = 0;
   1068              item = table;
   1069              index = StartIndex;
   1070          
   1071              // Loop through associated items and build list
   1072              for ( ; x < numItems; x++ )
   1073              {
   1074                if ( index < aItems )
   1075                {
   1076                  // get next associated device
   1077                  aDevice = AssocFindDevice( index++ );
   1078          
   1079                  // set basic fields
   1080                  item->panID   = _NIB.nwkPanId;
   1081                  osal_cpyExtAddr( item->extPanID, _NIB.extendedPANID );
   1082                  item->nwkAddr = aDevice->shortAddr;
   1083                  item->permit  = ZDP_MGMT_BOOL_UNKNOWN;
   1084                  item->depth   = 0xFF;
   1085                  item->lqi     = aDevice->linkInfo.rxCost;
   1086          
   1087                  osal_memset( item->extAddr, 0x00, Z_EXTADDR_LEN );
   1088          
   1089                  // use association info to set other fields
   1090                  if ( aDevice->nodeRelation == PARENT )
   1091                  {
   1092                    if (  aDevice->shortAddr == 0 )
   1093                    {
   1094                      item->devType = ZDP_MGMT_DT_COORD;
   1095                    }
   1096                    else
   1097                    {
   1098                      item->devType = ZDP_MGMT_DT_ROUTER;
   1099                    }
   1100          
   1101                    item->rxOnIdle = ZDP_MGMT_BOOL_UNKNOWN;
   1102                    item->relation = ZDP_MGMT_REL_PARENT;
   1103                  }
   1104                  else
   1105                  {
   1106                    if ( aDevice->nodeRelation < CHILD_FFD )
   1107                    {
   1108                      item->devType = ZDP_MGMT_DT_ENDDEV;
   1109          
   1110                      if ( aDevice->nodeRelation == CHILD_RFD )
   1111                      {
   1112                        item->rxOnIdle = FALSE;
   1113                      }
   1114                      else
   1115                      {
   1116                        item->rxOnIdle = TRUE;
   1117                      }
   1118                    }
   1119                    else
   1120                    {
   1121                      item->devType = ZDP_MGMT_DT_ROUTER;
   1122          
   1123                      if ( aDevice->nodeRelation == CHILD_FFD )
   1124                      {
   1125                        item->rxOnIdle = FALSE;
   1126                      }
   1127                      else
   1128                      {
   1129                        item->rxOnIdle = TRUE;
   1130                      }
   1131                    }
   1132          
   1133                    item->relation = ZDP_MGMT_REL_CHILD;
   1134                  }
   1135          
   1136                  item++;
   1137                }
   1138                else
   1139                {
   1140                  if ( StartIndex <= aItems )
   1141                    // Start with 1st neighbor
   1142                    index = 0;
   1143                  else
   1144                    // Start with >1st neighbor
   1145                    index = StartIndex - aItems;
   1146                  break;
   1147                }
   1148              }
   1149          
   1150              // Loop through neighbor items and finish list
   1151              for ( ; x < numItems; x++ )
   1152              {
   1153                // Add next neighbor table item
   1154                NLME_GetRequest( nwkNeighborTable, index++, &entry );
   1155          
   1156                // set ZDP_MgmtLqiItem_t fields
   1157                item->panID    = entry.panId;
   1158                osal_memset( item->extPanID, 0x00, Z_EXTADDR_LEN);
   1159                osal_memset( item->extAddr, 0x00, Z_EXTADDR_LEN );
   1160                item->nwkAddr  = entry.neighborAddress;
   1161                item->rxOnIdle = ZDP_MGMT_BOOL_UNKNOWN;
   1162                item->relation = ZDP_MGMT_REL_UNKNOWN;
   1163                item->permit   = ZDP_MGMT_BOOL_UNKNOWN;
   1164                item->depth    = 0xFF;
   1165                item->lqi      = entry.linkInfo.rxCost;
   1166          
   1167                if ( item->nwkAddr == 0 )
   1168                {
   1169                  item->devType = ZDP_MGMT_DT_COORD;
   1170                }
   1171                else
   1172                {
   1173                  item->devType = ZDP_MGMT_DT_ROUTER;
   1174                }
   1175          
   1176                item++;
   1177              }
   1178          
   1179              // Send response
   1180              ZDP_MgmtLqiRsp( inMsg->TransSeq, &(inMsg->srcAddr), ZSuccess, maxItems,
   1181                              StartIndex, numItems, table, false );
   1182          
   1183              osal_mem_free( table );
   1184            }
   1185          }
   1186          #endif // ZDO_MGMT_LQI_RESPONSE && RTR_NWK
   1187          
   1188          #if defined( ZDO_MGMT_NWKDISC_RESPONSE )
   1189          /*********************************************************************
   1190           * @fn          ZDO_ProcessMgmtNwkDiscReq
   1191           *
   1192           * @brief       This function handles parsing the incoming Management
   1193           *              Network Discover request and starts the request.
   1194           *
   1195           * @param       inMsg - incoming message (request)
   1196           *
   1197           * @return      none
   1198           */
   1199          void ZDO_ProcessMgmtNwkDiscReq( zdoIncomingMsg_t *inMsg )
   1200          {
   1201            NLME_ScanFields_t scan;
   1202            uint8             index;
   1203            uint8             *msg;
   1204          
   1205            msg = inMsg->asdu;
   1206            scan.channels = BUILD_UINT32( msg[0], msg[1], msg[2], msg[3] );
   1207            msg += 4;
   1208            scan.duration = *msg++;
   1209            index         = *msg;
   1210          
   1211            // Save off the information to be used for the response
   1212            zdappMgmtNwkDiscReqInProgress          = true;
   1213            zdappMgmtNwkDiscRspAddr.addrMode       = Addr16Bit;
   1214            zdappMgmtNwkDiscRspAddr.addr.shortAddr = inMsg->srcAddr.addr.shortAddr;
   1215            zdappMgmtNwkDiscStartIndex             = index;
   1216            zdappMgmtNwkDiscRspTransSeq            = inMsg->TransSeq;
   1217          
   1218            if ( NLME_NwkDiscReq2( &scan ) != ZSuccess )
   1219            {
   1220              NLME_NwkDiscTerm();
   1221          
   1222              // zdappMgmtNwkDiscReqInProgress will be reset in the confirm callback
   1223            }
   1224          }
   1225          #endif // ZDO_MGMT_NWKDISC_RESPONSE
   1226          
   1227          #if defined ( ZDO_MGMT_NWKDISC_RESPONSE )
   1228          /*********************************************************************
   1229           * @fn          ZDO_FinishProcessingMgmtNwkDiscReq
   1230           *
   1231           * @brief       This function finishes the processing of the Management
   1232           *              Network Discover Request and generates the response.
   1233           *
   1234           *   Note:      This function will limit the number of items returned
   1235           *              to ZDO_MAX_NWKDISC_ITEMS items.
   1236           *
   1237           * @param       ResultCountSrcAddr - source of the request
   1238           * @param       msg - pointer to incoming message
   1239           * @param       SecurityUse -
   1240           *
   1241           * @return      none
   1242           */
   1243          void ZDO_FinishProcessingMgmtNwkDiscReq( byte ResultCount,
   1244                                                   networkDesc_t *NetworkList )
   1245          {
   1246            byte count;
   1247          
   1248          #if defined ( RTR_NWK )
   1249            networkDesc_t *newDesc, *pList = NetworkList;
   1250          
   1251            // Look for my PanID.
   1252            while ( pList )
   1253            {
   1254              if ( pList->panId == _NIB.nwkPanId )
   1255              {
   1256                break;
   1257              }
   1258          
   1259              if ( !pList->nextDesc )
   1260              {
   1261                break;
   1262              }
   1263              pList = pList->nextDesc;
   1264            }
   1265          
   1266            // If my Pan not present (query to a star network ZC or an isolated ZR?),
   1267            // prepend it.
   1268            if ( !pList || (pList->panId != _NIB.nwkPanId) )
   1269            {
   1270              newDesc = (networkDesc_t *)osal_mem_alloc( sizeof( networkDesc_t ) );
   1271              if ( newDesc )
   1272              {
   1273                byte pJoin;
   1274          
   1275                newDesc->panId = _NIB.nwkPanId;
   1276                newDesc->logicalChannel = _NIB.nwkLogicalChannel;
   1277                newDesc->beaconOrder = _NIB.beaconOrder;
   1278                newDesc->superFrameOrder = _NIB.superFrameOrder;
   1279                newDesc->version = NLME_GetProtocolVersion();
   1280                newDesc->stackProfile = zgStackProfile;
   1281                //Extended PanID
   1282                osal_cpyExtAddr( newDesc->extendedPANID, _NIB.extendedPANID);
   1283          
   1284                ZMacGetReq( ZMacAssociationPermit, &pJoin );
   1285                newDesc->chosenRouter = ((pJoin) ? ZDAppNwkAddr.addr.shortAddr :
   1286                                                   INVALID_NODE_ADDR);
   1287          
   1288                newDesc->nextDesc = NetworkList;
   1289                NetworkList = newDesc;
   1290                ResultCount++;
   1291              }
   1292            }
   1293          #endif
   1294          
   1295            // Calc the count and apply a max count.
   1296            if ( zdappMgmtNwkDiscStartIndex > ResultCount )
   1297            {
   1298              count = 0;
   1299            }
   1300            else
   1301            {
   1302              count = ResultCount - zdappMgmtNwkDiscStartIndex;
   1303              if ( count > ZDO_MAX_NWKDISC_ITEMS )
   1304              {
   1305                count = ZDO_MAX_NWKDISC_ITEMS;
   1306              }
   1307          
   1308              // Move the list pointer up to the start index.
   1309              NetworkList += zdappMgmtNwkDiscStartIndex;
   1310            }
   1311          
   1312            ZDP_MgmtNwkDiscRsp( zdappMgmtNwkDiscRspTransSeq,
   1313                               &zdappMgmtNwkDiscRspAddr, ZSuccess, ResultCount,
   1314                                zdappMgmtNwkDiscStartIndex,
   1315                                count,
   1316                                NetworkList,
   1317                                false );
   1318          
   1319          #if defined ( RTR_NWK )
   1320            if ( newDesc )
   1321            {
   1322              osal_mem_free( newDesc );
   1323            }
   1324          #endif
   1325          
   1326            NLME_NwkDiscTerm();
   1327          }
   1328          #endif
   1329          
   1330          #if defined ( ZDO_MGMT_RTG_RESPONSE ) && defined ( RTR_NWK )
   1331          /*********************************************************************
   1332           * @fn          ZDO_ProcessMgmtRtgReq
   1333           *
   1334           * @brief       This function finishes the processing of the Management
   1335           *              Routing Request and generates the response.
   1336           *
   1337           *   Note:      This function will limit the number of items returned
   1338           *              to ZDO_MAX_RTG_ITEMS items.
   1339           *
   1340           * @param       ResultCountSrcAddr - source of the request
   1341           * @param       msg - pointer to incoming message
   1342           * @param       SecurityUse -
   1343           *
   1344           * @return      none
   1345           */
   1346          void ZDO_ProcessMgmtRtgReq( zdoIncomingMsg_t *inMsg )
   1347          {
   1348            byte x;
   1349            byte maxNumItems;
   1350            byte numItems;
   1351            byte *pBuf;
   1352            rtgItem_t *pList;
   1353            uint8 StartIndex = inMsg->asdu[0];
   1354          
   1355            // Get the number of table items
   1356            NLME_GetRequest( nwkNumRoutingTableEntries, 0, &maxNumItems );
   1357          
   1358            numItems = maxNumItems - StartIndex;    // Start at the passed in index
   1359          
   1360            // limit the size of the list
   1361            if ( numItems > ZDO_MAX_RTG_ITEMS )
   1362              numItems = ZDO_MAX_RTG_ITEMS;
   1363          
   1364            // Allocate the memory to build the table
   1365            pBuf = osal_mem_alloc( (short)(sizeof( rtgItem_t ) * numItems) );
   1366          
   1367            if ( pBuf )
   1368            {
   1369              // Convert buffer to list
   1370              pList = (rtgItem_t *)pBuf;
   1371          
   1372              // Loop through items and build list
   1373              for ( x = 0; x < numItems; x++ )
   1374              {
   1375                NLME_GetRequest( nwkRoutingTable, (uint16)(x + StartIndex), (void*)pList );
   1376          
   1377                // Remap the status to the RoutingTableList Record Format defined in the ZigBee spec
   1378                switch( pList->status )
   1379                {
   1380                  case RT_ACTIVE:
   1381                    pList->status = ZDO_MGMT_RTG_ENTRY_ACTIVE;
   1382                    break;
   1383          
   1384                  case RT_DISC:
   1385                    pList->status = ZDO_MGMT_RTG_ENTRY_DISCOVERY_UNDERWAY;
   1386                    break;
   1387          
   1388                  case RT_LINK_FAIL:
   1389                    pList->status = ZDO_MGMT_RTG_ENTRY_DISCOVERY_FAILED;
   1390          
   1391                  case RT_INIT:
   1392                  case RT_REPAIR:
   1393                  default:
   1394                    pList->status = ZDO_MGMT_RTG_ENTRY_INACTIVE;
   1395                    break;
   1396                }
   1397          
   1398                // Increment pointer to next record
   1399                pList++;
   1400              }
   1401          
   1402              // Send response
   1403              ZDP_MgmtRtgRsp( inMsg->TransSeq, &(inMsg->srcAddr), ZSuccess, maxNumItems, StartIndex, numItems,
   1404                                    (rtgItem_t *)pBuf, false );
   1405          
   1406              osal_mem_free( pBuf );
   1407            }
   1408          }
   1409          #endif // defined(ZDO_MGMT_RTG_RESPONSE)  && defined(RTR_NWK)
   1410          
   1411          #if defined ( ZDO_MGMT_BIND_RESPONSE )
   1412          /*********************************************************************
   1413           * @fn          ZDO_ProcessMgmtBindReq
   1414           *
   1415           * @brief       This function finishes the processing of the Management
   1416           *              Bind Request and generates the response.
   1417           *
   1418           *   Note:      This function will limit the number of items returned
   1419           *              to ZDO_MAX_BIND_ITEMS items.
   1420           *
   1421           * @param       ResultCountSrcAddr - source of the request
   1422           * @param       msg - pointer to incoming message
   1423           * @param       SecurityUse -
   1424           *
   1425           * @return      none
   1426           */
   1427          void ZDO_ProcessMgmtBindReq( zdoIncomingMsg_t *inMsg )
   1428          {
   1429          #if defined ( REFLECTOR )
   1430            byte x;
   1431            uint16 maxNumItems;
   1432            uint16 numItems;
   1433            byte *pBuf = NULL;
   1434            apsBindingItem_t *pList;
   1435            uint8 StartIndex = inMsg->asdu[0];
   1436          
   1437            // Get the number of table items
   1438            APSME_GetRequest( apsNumBindingTableEntries, 0, (byte*)(&maxNumItems) );
   1439          
   1440            if ( maxNumItems > StartIndex )
   1441              numItems = maxNumItems - StartIndex;    // Start at the passed in index
   1442            else
   1443              numItems = 0;
   1444          
   1445            // limit the size of the list
   1446            if ( numItems > ZDO_MAX_BIND_ITEMS )
   1447              numItems = ZDO_MAX_BIND_ITEMS;
   1448          
   1449            // Allocate the memory to build the table
   1450            if ( numItems )
   1451              pBuf = osal_mem_alloc( sizeof( apsBindingItem_t ) * numItems );
   1452          
   1453            if ( pBuf )
   1454            {
   1455              // Convert buffer to list
   1456              pList = (apsBindingItem_t *)pBuf;
   1457          
   1458              // Loop through items and build list
   1459              for ( x = 0; x < numItems; x++ )
   1460              {
   1461                APSME_GetRequest( apsBindingTable, (x + StartIndex), (void*)pList );
   1462                pList++;
   1463              }
   1464            }
   1465          
   1466            // Send response
   1467            ZDP_MgmtBindRsp( inMsg->TransSeq, &(inMsg->srcAddr), ZSuccess, (byte)maxNumItems, StartIndex, (byte)numItems,
   1468                                  (apsBindingItem_t *)pBuf, false );
   1469          
   1470            if ( pBuf )
   1471            {
   1472              osal_mem_free( pBuf );
   1473            }
   1474          #endif
   1475          }
   1476          #endif // ZDO_MGMT_BIND_RESPONSE
   1477          
   1478          #if defined ( ZDO_MGMT_JOINDIRECT_RESPONSE ) && defined ( RTR_NWK )
   1479          /*********************************************************************
   1480           * @fn          ZDO_ProcessMgmtDirectJoinReq
   1481           *
   1482           * @brief       This function finishes the processing of the Management
   1483           *              Direct Join Request and generates the response.
   1484           *
   1485           * @param       inMsg - incoming message (request)
   1486           *
   1487           * @return      none
   1488           */
   1489          void ZDO_ProcessMgmtDirectJoinReq( zdoIncomingMsg_t *inMsg )
   1490          {
   1491            uint8 *deviceAddr;
   1492            uint8 capInfo;
   1493            uint8 stat;
   1494          
   1495            // Parse the message
   1496            deviceAddr = inMsg->asdu;
   1497            capInfo = inMsg->asdu[Z_EXTADDR_LEN];
   1498          
   1499            stat = (byte) NLME_DirectJoinRequest( deviceAddr, capInfo );
   1500          
   1501            ZDP_MgmtDirectJoinRsp( inMsg->TransSeq, &(inMsg->srcAddr), stat, false );
   1502          }
   1503          #endif // ZDO_MGMT_JOINDIRECT_RESPONSE && RTR_NWK
   1504          
   1505          #if defined ( ZDO_MGMT_LEAVE_RESPONSE )
   1506          /*********************************************************************
   1507           * @fn          ZDO_ProcessMgmtLeaveReq
   1508           *
   1509           * @brief       This function processes a Management Leave Request
   1510           *              and generates the response.
   1511           *
   1512           * @param       inMsg - incoming message (request)
   1513           *
   1514           * @return      none
   1515           */
   1516          void ZDO_ProcessMgmtLeaveReq( zdoIncomingMsg_t *inMsg )
   1517          {
   1518            NLME_LeaveReq_t req;
   1519            ZStatus_t       status;
   1520            uint8 *msg = inMsg->asdu;
   1521          
   1522          
   1523            if ( ( AddrMgrExtAddrValid( msg ) == FALSE                 ) ||
   1524                 ( osal_ExtAddrEqual( msg, NLME_GetExtAddr() ) == TRUE )    )
   1525            {
   1526              // Remove this device
   1527              req.extAddr = NULL;
   1528            }
   1529            else
   1530            {
   1531              // Remove child device
   1532              req.extAddr = msg;
   1533            }
   1534          
   1535            req.removeChildren = FALSE;
   1536            req.rejoin         = FALSE;
   1537            req.silent         = FALSE;
   1538          
   1539            status = NLME_LeaveReq( &req );
   1540          
   1541            ZDP_MgmtLeaveRsp( inMsg->TransSeq, &(inMsg->srcAddr), status, FALSE );
   1542          }
   1543          #endif // ZDO_MGMT_LEAVE_RESPONSE
   1544          
   1545          #if defined( ZDO_MGMT_PERMIT_JOIN_RESPONSE ) && defined( RTR_NWK )
   1546          /*********************************************************************
   1547           * @fn          ZDO_ProcessMgmtPermitJoinReq
   1548           *
   1549           * @brief       This function processes a Management Permit Join Request
   1550           *              and generates the response.
   1551           *
   1552           * @param       inMsg - incoming message (request)
   1553           *
   1554           * @return      none
   1555           */
   1556          void ZDO_ProcessMgmtPermitJoinReq( zdoIncomingMsg_t *inMsg )
   1557          {
   1558            uint8 stat;
   1559            uint8 duration;
   1560            uint8 tcsig;
   1561          
   1562            duration = inMsg->asdu[ZDP_MGMT_PERMIT_JOIN_REQ_DURATION];
   1563            tcsig    = inMsg->asdu[ZDP_MGMT_PERMIT_JOIN_REQ_TC_SIG];
   1564          
   1565            // Set the network layer permit join duration
   1566            stat = (byte) NLME_PermitJoiningRequest( duration );
   1567          
   1568            // Handle the Trust Center Significance
   1569            if ( tcsig == TRUE )
   1570            {
   1571              ZDSecMgrPermitJoining( duration );
   1572            }
   1573          
   1574            // Send a response if unicast
   1575            if (inMsg->srcAddr.addr.shortAddr != NWK_BROADCAST_SHORTADDR)
   1576            {
   1577              ZDP_MgmtPermitJoinRsp( inMsg->TransSeq, &(inMsg->srcAddr), stat, false );
   1578            }
   1579          }
   1580          #endif // ZDO_MGMT_PERMIT_JOIN_RESPONSE && defined( RTR_NWK )
   1581          
   1582          /*
   1583           * This function stub allows the next higher layer to be notified of
   1584           * a permit joining timeout.
   1585           */
   1586          #if defined( RTR_NWK )
   1587          /*********************************************************************
   1588           * @fn          ZDO_ProcessMgmtPermitJoinTimeout
   1589           *
   1590           * @brief       This function stub allows the next higher layer to be
   1591           *              notified of a permit joining timeout. Currently, this
   1592           *              directly bypasses the APS layer.
   1593           *
   1594           * @param       none
   1595           *
   1596           * @return      none
   1597           */
   1598          void ZDO_ProcessMgmtPermitJoinTimeout( void )
   1599          {
   1600            #if defined( ZDO_MGMT_PERMIT_JOIN_RESPONSE )
   1601            {
   1602              // Currently, only the ZDSecMgr needs to be notified
   1603              ZDSecMgrPermitJoiningTimeout();
   1604            }
   1605            #endif
   1606          }
   1607          #endif // defined( RTR_NWK )
   1608          
   1609          #if defined ( ZDO_USERDESC_RESPONSE )
   1610          /*********************************************************************
   1611           * @fn          ZDO_ProcessUserDescReq
   1612           *
   1613           * @brief       This function finishes the processing of the User
   1614           *              Descriptor Request and generates the response.
   1615           *
   1616           * @param       inMsg - incoming message (request)
   1617           *
   1618           * @return      none
   1619           */
   1620          void ZDO_ProcessUserDescReq( zdoIncomingMsg_t *inMsg )
   1621          {
   1622            uint16 aoi = BUILD_UINT16( inMsg->asdu[0], inMsg->asdu[1] );
   1623            UserDescriptorFormat_t userDesc;
   1624          
   1625            if ( (aoi == ZDAppNwkAddr.addr.shortAddr) && (ZSUCCESS == osal_nv_read(
   1626                       ZCD_NV_USERDESC, 0, sizeof(UserDescriptorFormat_t), &userDesc )) )
   1627            {
   1628              ZDP_UserDescRsp( inMsg->TransSeq, &(inMsg->srcAddr), aoi, &userDesc, false );
   1629            }
   1630            else
   1631            {
   1632              ZDP_GenericRsp(inMsg->TransSeq, &(inMsg->srcAddr),
   1633                     ZDP_NOT_SUPPORTED, aoi, User_Desc_rsp, inMsg->SecurityUse );
   1634            }
   1635          }
   1636          #endif // ZDO_USERDESC_RESPONSE
   1637          
   1638          #if defined ( ZDO_USERDESCSET_RESPONSE )
   1639          /*********************************************************************
   1640           * @fn          ZDO_ProcessUserDescSet
   1641           *
   1642           * @brief       This function finishes the processing of the User
   1643           *              Descriptor Set and generates the response.
   1644           *
   1645           * @param       inMsg - incoming message (request)
   1646           *
   1647           * @return      none
   1648           */
   1649          void ZDO_ProcessUserDescSet( zdoIncomingMsg_t *inMsg )
   1650          {
   1651            uint8 *msg;
   1652            uint16 aoi;
   1653            UserDescriptorFormat_t userDesc;
   1654            uint8 outMsg[3];
   1655            uint8 status;
   1656          
   1657            msg = inMsg->asdu;
   1658            aoi = BUILD_UINT16( msg[0], msg[1] );
   1659          
   1660            if ( aoi == ZDAppNwkAddr.addr.shortAddr )
   1661            {
   1662              userDesc.len = (msg[2] < AF_MAX_USER_DESCRIPTOR_LEN) ? msg[2] : AF_MAX_USER_DESCRIPTOR_LEN;
   1663              msg ++;  // increment one for the length field
   1664          
   1665              osal_memcpy( userDesc.desc, &msg[2], userDesc.len );
   1666              osal_nv_write( ZCD_NV_USERDESC, 0, sizeof(UserDescriptorFormat_t), &userDesc );
   1667              if ( userDesc.len != 0 )
   1668              {
   1669                ZDO_Config_Node_Descriptor.UserDescAvail = TRUE;
   1670              }
   1671              else
   1672              {
   1673                ZDO_Config_Node_Descriptor.UserDescAvail = FALSE;
   1674              }
   1675          
   1676              status = ZDP_SUCCESS;
   1677            }
   1678            else
   1679            {
   1680              status =  ZDP_NOT_SUPPORTED;
   1681            }
   1682          
   1683            outMsg[0] = status;
   1684            outMsg[1] = LO_UINT16( aoi );
   1685            outMsg[2] = LO_UINT16( aoi );
   1686          
   1687            ZDP_SendData( &(inMsg->TransSeq), &(inMsg->srcAddr), User_Desc_conf, 3, outMsg,
   1688                         inMsg->SecurityUse );
   1689          }
   1690          #endif // ZDO_USERDESCSET_RESPONSE
   1691          
   1692          #if defined ( ZDO_ENDDEVICE_ANNCE ) && defined(RTR_NWK)
   1693          /*********************************************************************
   1694           * @fn          ZDO_ProcessEndDeviceAnnce
   1695           *
   1696           * @brief       This function processes an end device annouce message.
   1697           *
   1698           * @param       inMsg - incoming message
   1699           *
   1700           * @return      none
   1701           */
   1702          void ZDO_ProcessEndDeviceAnnce( zdoIncomingMsg_t *inMsg )
   1703          {
   1704            ZDO_DeviceAnnce_t Annce;
   1705            associated_devices_t *dev;
   1706            AddrMgrEntry_t addrEntry;
   1707          
   1708            // Parse incoming message
   1709            ZDO_ParseDeviceAnnce( inMsg, &Annce );
   1710          
   1711            addrEntry.user = ADDRMGR_USER_DEFAULT;
   1712            addrEntry.nwkAddr = Annce.nwkAddr;
   1713            AddrMgrExtAddrSet( addrEntry.extAddr, Annce.extAddr );
   1714            AddrMgrEntryUpdate( &addrEntry );
   1715          
   1716            // find device in device list
   1717            dev = AssocGetWithExt( Annce.extAddr );
   1718            if ( dev != NULL )
   1719            {
   1720              // if found and address is different
   1721              if ( dev->shortAddr != Annce.nwkAddr )
   1722              {
   1723                // update device list if device is (was) not our child
   1724                if ( dev->nodeRelation == NEIGHBOR || dev->nodeRelation == OTHER )
   1725                {
   1726                  dev->shortAddr = Annce.nwkAddr;
   1727                }
   1728              }
   1729            }
   1730          }
   1731          #endif // ZDO_ENDDEVICE_ANNCE
   1732          
   1733          /*********************************************************************
   1734           * @fn          ZDO_BuildSimpleDescBuf
   1735           *
   1736           * @brief       Build a byte sequence representation of a Simple Descriptor.
   1737           *
   1738           * @param       buf  - pointer to a byte array big enough for data.
   1739           * @param       desc - SimpleDescriptionFormat_t *
   1740           *
   1741           * @return      none
   1742           */

   \                                 In  segment BANKED_CODE, align 1, keep-with-next
   1743          void ZDO_BuildSimpleDescBuf( byte *buf, SimpleDescriptionFormat_t *desc )
   \                     ZDO_BuildSimpleDescBuf:
   1744          {
   \   000000   74F7         MOV     A,#-0x9
   \   000002   12....       LCALL   ?BANKED_ENTER_XDATA
   \   000005                ; Saved register size: 9
   \   000005                ; Auto size: 0
   1745            byte cnt;
   1746            uint16 *ptr;
   1747          
   1748            *buf++ = desc->EndPoint;
   \   000005   8C82         MOV     DPL,R4
   \   000007   8D83         MOV     DPH,R5
   \   000009   12....       LCALL   ?Subroutine19 & 0xFFFF
   1749            *buf++ = HI_UINT16( desc->AppProfId );
   \                     ??CrossCallReturnLabel_294:
   \   00000C   A882         MOV     R0,DPL
   \   00000E   A983         MOV     R1,DPH
   \   000010   12....       LCALL   ?Subroutine9 & 0xFFFF
   1750            *buf++ = LO_UINT16( desc->AppProfId );
   1751            *buf++ = HI_UINT16( desc->AppDeviceId );
   \                     ??CrossCallReturnLabel_17:
   \   000013   EC           MOV     A,R4
   \   000014   2403         ADD     A,#0x3
   \   000016   F8           MOV     R0,A
   \   000017   ED           MOV     A,R5
   \   000018   3400         ADDC    A,#0x0
   \   00001A   F9           MOV     R1,A
   \   00001B   8882         MOV     DPL,R0
   \   00001D   8983         MOV     DPH,R1
   \   00001F   12....       LCALL   ?Subroutine9 & 0xFFFF
   1752            *buf++ = LO_UINT16( desc->AppDeviceId );
   1753          
   1754            *buf++ = (byte)(desc->AppDevVer << 4);
   \                     ??CrossCallReturnLabel_18:
   \   000022   8C82         MOV     DPL,R4
   \   000024   8D83         MOV     DPH,R5
   \   000026   A3           INC     DPTR
   \   000027   A3           INC     DPTR
   \   000028   A3           INC     DPTR
   \   000029   A3           INC     DPTR
   \   00002A   A3           INC     DPTR
   \   00002B   E0           MOVX    A,@DPTR
   \   00002C   C4           SWAP    A
   \   00002D   54F0         ANL     A,#0xf0
   \   00002F   12....       LCALL   ?Subroutine14 & 0xFFFF
   1755          
   1756            *buf++ = desc->AppNumInClusters;
   \                     ??CrossCallReturnLabel_263:
   \   000032   E0           MOVX    A,@DPTR
   \   000033   12....       LCALL   ?Subroutine14 & 0xFFFF
   1757            ptr = desc->pAppInClusterList;
   \                     ??CrossCallReturnLabel_264:
   \   000036   12....       LCALL   ?Subroutine64 & 0xFFFF
   1758            for ( cnt = 0; cnt < desc->AppNumInClusters; ptr++, cnt++ )
   \                     ??CrossCallReturnLabel_133:
   \   000039   8003         SJMP    ??CrossCallReturnLabel_4
   1759            {
   1760              *buf++ = HI_UINT16( *ptr );
   \                     ??ZDO_BuildSimpleDescBuf_0:
   \   00003B   12....       LCALL   ?Subroutine2 & 0xFFFF
   1761              *buf++ = LO_UINT16( *ptr );
   1762            }
   \                     ??CrossCallReturnLabel_4:
   \   00003E   8C82         MOV     DPL,R4
   \   000040   8D83         MOV     DPH,R5
   \   000042   A3           INC     DPTR
   \   000043   A3           INC     DPTR
   \   000044   A3           INC     DPTR
   \   000045   A3           INC     DPTR
   \   000046   A3           INC     DPTR
   \   000047   A3           INC     DPTR
   \   000048   E0           MOVX    A,@DPTR
   \   000049   FE           MOV     R6,A
   \   00004A   E5..         MOV     A,?V0 + 0
   \   00004C   C3           CLR     C
   \   00004D   9E           SUBB    A,R6
   \   00004E   40EB         JC      ??ZDO_BuildSimpleDescBuf_0
   1763          
   1764            *buf++ = desc->AppNumOutClusters;
   \   000050   8C82         MOV     DPL,R4
   \   000052   8D83         MOV     DPH,R5
   \   000054   A3           INC     DPTR
   \   000055   A3           INC     DPTR
   \   000056   A3           INC     DPTR
   \   000057   A3           INC     DPTR
   \   000058   A3           INC     DPTR
   \   000059   A3           INC     DPTR
   \   00005A   A3           INC     DPTR
   \   00005B   A3           INC     DPTR
   \   00005C   A3           INC     DPTR
   \   00005D   12....       LCALL   ?Subroutine19 & 0xFFFF
   1765            ptr = desc->pAppOutClusterList;
   \                     ??CrossCallReturnLabel_295:
   \   000060   A3           INC     DPTR
   \   000061   A3           INC     DPTR
   \   000062   A3           INC     DPTR
   \   000063   A3           INC     DPTR
   \   000064   A3           INC     DPTR
   \   000065   A3           INC     DPTR
   \   000066   A3           INC     DPTR
   \   000067   A3           INC     DPTR
   \   000068   12....       LCALL   ?Subroutine64 & 0xFFFF
   1766            for ( cnt = 0; cnt < desc->AppNumOutClusters; ptr++, cnt++ )
   \                     ??CrossCallReturnLabel_134:
   \   00006B   8003         SJMP    ??CrossCallReturnLabel_5
   1767            {
   1768              *buf++ = HI_UINT16( *ptr );
   \                     ??ZDO_BuildSimpleDescBuf_1:
   \   00006D   12....       LCALL   ?Subroutine2 & 0xFFFF
   1769              *buf++ = LO_UINT16( *ptr );
   1770            }
   \                     ??CrossCallReturnLabel_5:
   \   000070   8C82         MOV     DPL,R4
   \   000072   8D83         MOV     DPH,R5
   \   000074   A3           INC     DPTR
   \   000075   A3           INC     DPTR
   \   000076   A3           INC     DPTR
   \   000077   A3           INC     DPTR
   \   000078   A3           INC     DPTR
   \   000079   A3           INC     DPTR
   \   00007A   A3           INC     DPTR
   \   00007B   A3           INC     DPTR
   \   00007C   A3           INC     DPTR
   \   00007D   E0           MOVX    A,@DPTR
   \   00007E   FE           MOV     R6,A
   \   00007F   E5..         MOV     A,?V0 + 0
   \   000081   C3           CLR     C
   \   000082   9E           SUBB    A,R6
   \   000083   40E8         JC      ??ZDO_BuildSimpleDescBuf_1
   1771          }
   \   000085   02....       LJMP    ?Subroutine136 & 0xFFFF

   \                                 In  segment BANKED_CODE, align 1, keep-with-next
   \                     ?Subroutine64:
   \   000000   A3           INC     DPTR
   \   000001   12....       LCALL   ?Subroutine104 & 0xFFFF
   \                     ??CrossCallReturnLabel_227:
   \   000004   75..00       MOV     ?V0 + 0,#0x0
   \   000007   22           RET

   \                                 In  segment BANKED_CODE, align 1, keep-with-next
   \                     ?Subroutine19:
   \   000000   12....       LCALL   ?Subroutine101 & 0xFFFF
   \                     ??CrossCallReturnLabel_221:
   \   000003                REQUIRE ?Subroutine126
   \   000003                ; // Fall through to label ?Subroutine126

   \                                 In  segment BANKED_CODE, align 1, keep-with-next
   \                     ?Subroutine126:
   \   000000   8C82         MOV     DPL,R4
   \   000002   8D83         MOV     DPH,R5
   \   000004   A3           INC     DPTR
   \   000005   22           RET

   \                                 In  segment BANKED_CODE, align 1, keep-with-next
   \                     ?Subroutine14:
   \   000000   12....       LCALL   ??Subroutine91_1 & 0xFFFF
   \                     ??CrossCallReturnLabel_196:
   \   000003   8C82         MOV     DPL,R4
   \   000005   8D83         MOV     DPH,R5
   \   000007   80..         SJMP    ??Subroutine121_0

   \                                 In  segment BANKED_CODE, align 1, keep-with-next
   \                     ?Subroutine9:
   \   000000   A3           INC     DPTR
   \   000001   12....       LCALL   ??Subroutine91_0 & 0xFFFF
   \                     ??CrossCallReturnLabel_194:
   \   000004   12....       LCALL   ?Subroutine91 & 0xFFFF
   \                     ??CrossCallReturnLabel_195:
   \   000007   22           RET

   \                                 In  segment BANKED_CODE, align 1, keep-with-next
   \                     ?Subroutine91:
   \   000000   8882         MOV     DPL,R0
   \   000002   8983         MOV     DPH,R1
   \                     ??Subroutine91_0:
   \   000004   E0           MOVX    A,@DPTR
   \                     ??Subroutine91_1:
   \   000005   8A82         MOV     DPL,R2
   \   000007   8B83         MOV     DPH,R3
   \   000009   F0           MOVX    @DPTR,A
   \   00000A   A3           INC     DPTR
   \   00000B   0A           INC     R2
   \   00000C   AB83         MOV     R3,DPH
   \   00000E   22           RET

   \                                 In  segment BANKED_CODE, align 1, keep-with-next
   \                     ?Subroutine2:
   \   000000   8882         MOV     DPL,R0
   \   000002   8983         MOV     DPH,R1
   \   000004   A3           INC     DPTR
   \   000005   12....       LCALL   ?Subroutine101 & 0xFFFF
   \                     ??CrossCallReturnLabel_220:
   \   000008   12....       LCALL   ?Subroutine91 & 0xFFFF
   \                     ??CrossCallReturnLabel_193:
   \   00000B   12....       LCALL   ?Subroutine112 & 0xFFFF
   \                     ??CrossCallReturnLabel_253:
   \   00000E   05..         INC     ?V0 + 0
   \   000010   22           RET

   \                                 In  segment BANKED_CODE, align 1, keep-with-next
   \                     ?Subroutine101:
   \   000000   E0           MOVX    A,@DPTR
   \   000001   8A82         MOV     DPL,R2
   \   000003   8B83         MOV     DPH,R3
   \   000005   F0           MOVX    @DPTR,A
   \   000006   A3           INC     DPTR
   \   000007   AA82         MOV     R2,DPL
   \   000009   AB83         MOV     R3,DPH
   \   00000B   22           RET

   \                                 In  segment BANKED_CODE, align 1, keep-with-next
   \                     ?Subroutine112:
   \   000000   E8           MOV     A,R0
   \   000001   2402         ADD     A,#0x2
   \   000003   08           INC     R0
   \   000004   08           INC     R0
   \   000005   E9           MOV     A,R1
   \   000006   3400         ADDC    A,#0x0
   \   000008   F9           MOV     R1,A
   \   000009   22           RET

   \                                 In  segment BANKED_CODE, align 1, keep-with-next
   \                     ?Subroutine136:
   \   000000   7F01         MOV     R7,#0x1
   \   000002   02....       LJMP    ?BANKED_LEAVE_XDATA
   1772          
   1773          #if defined ( ZDO_COORDINATOR )
   1774          /*********************************************************************
   1775           * @fn      ZDO_MatchEndDeviceBind()
   1776           *
   1777           * @brief
   1778           *
   1779           *   Called to match end device binding requests
   1780           *
   1781           * @param  bindReq  - binding request information
   1782           * @param  SecurityUse - Security enable/disable
   1783           *
   1784           * @return  none
   1785           */
   1786          void ZDO_MatchEndDeviceBind( ZDEndDeviceBind_t *bindReq )
   1787          {
   1788            zAddrType_t dstAddr;
   1789            uint8 sendRsp = FALSE;
   1790            uint8 status;
   1791          
   1792            // Is this the first request?
   1793            if ( matchED == NULL )
   1794            {
   1795              // Create match info structure
   1796              matchED = (ZDMatchEndDeviceBind_t *)osal_mem_alloc( sizeof ( ZDMatchEndDeviceBind_t ) );
   1797              if ( matchED )
   1798              {
   1799                // Clear the structure
   1800                osal_memset( (uint8 *)matchED, 0, sizeof ( ZDMatchEndDeviceBind_t ) );
   1801          
   1802                // Copy the first request's information
   1803                if ( !ZDO_CopyMatchInfo( &(matchED->ed1), bindReq ) )
   1804                {
   1805          
   1806                  status = ZDP_NO_ENTRY;
   1807                  sendRsp = TRUE;
   1808                }
   1809              }
   1810              else
   1811              {
   1812                status = ZDP_NO_ENTRY;
   1813                sendRsp = TRUE;
   1814              }
   1815          
   1816              if ( !sendRsp )
   1817              {
   1818                // Set into the correct state
   1819                matchED->state = ZDMATCH_WAIT_REQ;
   1820          
   1821                // Setup the timeout
   1822                APS_SetEndDeviceBindTimeout( AIB_MaxBindingTime, ZDO_EndDeviceBindMatchTimeoutCB );
   1823              }
   1824            }
   1825            else
   1826            {
   1827                matchED->state = ZDMATCH_SENDING_BINDS;
   1828          
   1829                // Copy the 2nd request's information
   1830                if ( !ZDO_CopyMatchInfo( &(matchED->ed2), bindReq ) )
   1831                {
   1832                  status = ZDP_NO_ENTRY;
   1833                  sendRsp = TRUE;
   1834                }
   1835          
   1836                // Make a source match for ed1
   1837                matchED->ed1numMatched = ZDO_CompareClusterLists(
   1838                            matchED->ed1.numOutClusters, matchED->ed1.outClusters,
   1839                            matchED->ed2.numInClusters, matchED->ed2.inClusters, ZDOBuildBuf );
   1840                if ( matchED->ed1numMatched )
   1841                {
   1842                  // Save the match list
   1843                  matchED->ed1Matched = osal_mem_alloc( (short)(matchED->ed1numMatched * sizeof ( uint16 )) );
   1844                  if ( matchED->ed1Matched )
   1845                  {
   1846                    osal_memcpy( matchED->ed1Matched, ZDOBuildBuf, (matchED->ed1numMatched * sizeof ( uint16 )) );
   1847                  }
   1848                  else
   1849                  {
   1850                    // Allocation error, stop
   1851                    status = ZDP_NO_ENTRY;
   1852                    sendRsp = TRUE;
   1853                  }
   1854                }
   1855          
   1856                // Make a source match for ed2
   1857                matchED->ed2numMatched = ZDO_CompareClusterLists(
   1858                            matchED->ed2.numOutClusters, matchED->ed2.outClusters,
   1859                            matchED->ed1.numInClusters, matchED->ed1.inClusters, ZDOBuildBuf );
   1860                if ( matchED->ed2numMatched )
   1861                {
   1862                  // Save the match list
   1863                  matchED->ed2Matched = osal_mem_alloc( (short)(matchED->ed2numMatched * sizeof ( uint16 )) );
   1864                  if ( matchED->ed2Matched )
   1865                  {
   1866                    osal_memcpy( matchED->ed2Matched, ZDOBuildBuf, (matchED->ed2numMatched * sizeof ( uint16 )) );
   1867                  }
   1868                  else
   1869                  {
   1870                    // Allocation error, stop
   1871                    status = ZDP_NO_ENTRY;
   1872                    sendRsp = TRUE;
   1873                  }
   1874                }
   1875          
   1876                if ( (sendRsp == FALSE) && (matchED->ed1numMatched || matchED->ed2numMatched) )
   1877                {
   1878                  // Do the first unbind/bind state
   1879                  ZDMatchSendState( ZDMATCH_REASON_START, ZDP_SUCCESS, 0 );
   1880                }
   1881                else
   1882                {
   1883                  status = ZDP_NO_MATCH;
   1884                  sendRsp = TRUE;
   1885                }
   1886            }
   1887          
   1888            if ( sendRsp )
   1889            {
   1890              // send response to this requester
   1891              dstAddr.addrMode = Addr16Bit;
   1892              dstAddr.addr.shortAddr = bindReq->srcAddr;
   1893              ZDP_EndDeviceBindRsp( bindReq->TransSeq, &dstAddr, status, bindReq->SecurityUse );
   1894          
   1895              if ( matchED->state == ZDMATCH_SENDING_BINDS )
   1896              {
   1897                // send response to first requester
   1898                dstAddr.addrMode = Addr16Bit;
   1899                dstAddr.addr.shortAddr = matchED->ed1.srcAddr;
   1900                ZDP_EndDeviceBindRsp( matchED->ed1.TransSeq, &dstAddr, status, matchED->ed1.SecurityUse );
   1901              }
   1902          
   1903              // Process ended - release memory used
   1904              ZDO_RemoveMatchMemory();
   1905            }
   1906          }
   1907          
   1908          static void ZDO_RemoveMatchMemory( void )
   1909          {
   1910            if ( matchED )
   1911            {
   1912              if ( matchED->ed2Matched )
   1913                osal_mem_free( matchED->ed2Matched );
   1914              if ( matchED->ed1Matched )
   1915                osal_mem_free( matchED->ed1Matched );
   1916          
   1917              if ( matchED->ed1.inClusters )
   1918                osal_mem_free( matchED->ed1.inClusters );
   1919          
   1920              if ( matchED->ed1.outClusters )
   1921                osal_mem_free( matchED->ed1.outClusters );
   1922          
   1923              if ( matchED->ed2.inClusters )
   1924                osal_mem_free( matchED->ed2.inClusters );
   1925          
   1926              if ( matchED->ed2.outClusters )
   1927                osal_mem_free( matchED->ed2.outClusters );
   1928          
   1929              osal_mem_free( matchED );
   1930          
   1931              matchED = (ZDMatchEndDeviceBind_t *)NULL;
   1932            }
   1933          }
   1934          
   1935          static uint8 ZDO_CopyMatchInfo( ZDEndDeviceBind_t *destReq, ZDEndDeviceBind_t *srcReq )
   1936          {
   1937            uint8 allOK = TRUE;
   1938          
   1939            // Copy bind information into the match info structure
   1940            osal_memcpy( (uint8 *)destReq, srcReq, sizeof ( ZDEndDeviceBind_t ) );
   1941          
   1942            // Copy input cluster IDs
   1943            if ( srcReq->numInClusters )
   1944            {
   1945              destReq->inClusters = osal_mem_alloc( (short)(srcReq->numInClusters * sizeof ( uint16 )) );
   1946              if ( destReq->inClusters )
   1947              {
   1948                // Copy the clusters
   1949                osal_memcpy( (uint8*)(destReq->inClusters), (uint8 *)(srcReq->inClusters),
   1950                                (srcReq->numInClusters * sizeof ( uint16 )) );
   1951              }
   1952              else
   1953                allOK = FALSE;
   1954            }
   1955          
   1956            // Copy output cluster IDs
   1957            if ( srcReq->numOutClusters )
   1958            {
   1959              destReq->outClusters = osal_mem_alloc( (short)(srcReq->numOutClusters * sizeof ( uint16 )) );
   1960              if ( destReq->outClusters )
   1961              {
   1962                // Copy the clusters
   1963                osal_memcpy( (uint8 *)(destReq->outClusters), (uint8 *)(srcReq->outClusters),
   1964                                (srcReq->numOutClusters * sizeof ( uint16 )) );
   1965              }
   1966              else
   1967                allOK = FALSE;
   1968            }
   1969          
   1970            if ( !allOK )
   1971            {
   1972              if ( destReq->inClusters )
   1973                osal_mem_free( destReq->inClusters );
   1974              if ( destReq->outClusters )
   1975                osal_mem_free( destReq->outClusters );
   1976            }
   1977          
   1978            return ( allOK );
   1979          }
   1980          
   1981          uint8 ZDMatchSendState( uint8 reason, uint8 status, uint8 TransSeq )
   1982          {
   1983            uint8 *dstIEEEAddr;
   1984            uint8 dstEP;
   1985            zAddrType_t dstAddr;
   1986            zAddrType_t destinationAddr;
   1987            uint16 msgType;
   1988            uint16 clusterID;
   1989            ZDEndDeviceBind_t *ed = NULL;
   1990            uint8 rspStatus = ZDP_SUCCESS;
   1991          
   1992            if ( matchED == NULL )
   1993              return ( FALSE );
   1994          
   1995            // Check sequence number
   1996            if ( reason == ZDMATCH_REASON_BIND_RSP || reason == ZDMATCH_REASON_UNBIND_RSP )
   1997            {
   1998              if ( TransSeq != matchED->transSeq )
   1999                return( FALSE ); // ignore the message
   2000            }
   2001          
   2002            // turn off timer
   2003            APS_SetEndDeviceBindTimeout( 0, ZDO_EndDeviceBindMatchTimeoutCB );
   2004          
   2005            if ( reason == ZDMATCH_REASON_TIMEOUT )
   2006            {
   2007              rspStatus = ZDP_TIMEOUT;    // The process will stop
   2008            }
   2009          
   2010            if ( reason == ZDMATCH_REASON_START || reason == ZDMATCH_REASON_BIND_RSP )
   2011            {
   2012              matchED->sending = ZDMATCH_SENDING_UNBIND;
   2013          
   2014              if ( reason == ZDMATCH_REASON_BIND_RSP && status != ZDP_SUCCESS )
   2015              {
   2016                rspStatus = status;
   2017              }
   2018            }
   2019            else if ( reason == ZDMATCH_REASON_UNBIND_RSP )
   2020            {
   2021              if ( status == ZDP_SUCCESS )
   2022              {
   2023                matchED->sending = ZDMATCH_SENDING_UNBIND;
   2024              }
   2025              else
   2026              {
   2027                matchED->sending = ZDMATCH_SENDING_BIND;
   2028              }
   2029            }
   2030          
   2031            if ( reason != ZDMATCH_REASON_START && matchED->sending == ZDMATCH_SENDING_UNBIND )
   2032            {
   2033              // Move to the next cluster ID
   2034              if ( matchED->ed1numMatched )
   2035                matchED->ed1numMatched--;
   2036              else if ( matchED->ed2numMatched )
   2037                matchED->ed2numMatched--;
   2038            }
   2039          
   2040            // What message do we send now
   2041            if ( matchED->ed1numMatched )
   2042            {
   2043              ed = &(matchED->ed1);
   2044              clusterID = matchED->ed1Matched[matchED->ed1numMatched-1];
   2045              dstIEEEAddr = matchED->ed2.ieeeAddr;
   2046              dstEP = matchED->ed2.endpoint;
   2047            }
   2048            else if ( matchED->ed2numMatched )
   2049            {
   2050              ed = &(matchED->ed2);
   2051              clusterID = matchED->ed2Matched[matchED->ed2numMatched-1];
   2052              dstIEEEAddr = matchED->ed1.ieeeAddr;
   2053              dstEP = matchED->ed1.endpoint;
   2054            }
   2055          
   2056            dstAddr.addrMode = Addr16Bit;
   2057          
   2058            // Send the next message
   2059            if ( rspStatus == ZDP_SUCCESS && ed )
   2060            {
   2061              // Send unbind/bind message to source
   2062              if ( matchED->sending == ZDMATCH_SENDING_UNBIND )
   2063                msgType = Unbind_req;
   2064              else
   2065                msgType = Bind_req;
   2066          
   2067              dstAddr.addr.shortAddr = ed->srcAddr;
   2068          
   2069              // Save off the transaction sequence number
   2070              matchED->transSeq = ZDP_TransID;
   2071          
   2072              destinationAddr.addrMode = Addr64Bit;
   2073              osal_cpyExtAddr( destinationAddr.addr.extAddr, dstIEEEAddr );
   2074          
   2075              ZDP_BindUnbindReq( msgType, &dstAddr, ed->ieeeAddr, ed->endpoint, clusterID,
   2076                  &destinationAddr, dstEP, ed->SecurityUse );
   2077          
   2078              // Set timeout for response
   2079              APS_SetEndDeviceBindTimeout( AIB_MaxBindingTime, ZDO_EndDeviceBindMatchTimeoutCB );
   2080            }
   2081            else
   2082            {
   2083              // Send the response messages to requesting devices
   2084              // send response to first requester
   2085              dstAddr.addr.shortAddr = matchED->ed1.srcAddr;
   2086              ZDP_EndDeviceBindRsp( matchED->ed1.TransSeq, &dstAddr, rspStatus, matchED->ed1.SecurityUse );
   2087          
   2088              // send response to second requester
   2089              if ( matchED->state == ZDMATCH_SENDING_BINDS )
   2090              {
   2091                dstAddr.addr.shortAddr = matchED->ed2.srcAddr;
   2092                ZDP_EndDeviceBindRsp( matchED->ed2.TransSeq, &dstAddr, rspStatus, matchED->ed2.SecurityUse );
   2093              }
   2094          
   2095              // Process ended - release memory used
   2096              ZDO_RemoveMatchMemory();
   2097            }
   2098          
   2099            return ( TRUE );
   2100          }
   2101          
   2102          static void ZDO_EndDeviceBindMatchTimeoutCB( void )
   2103          {
   2104            ZDMatchSendState( ZDMATCH_REASON_TIMEOUT, ZDP_TIMEOUT, 0 );
   2105          }
   2106          
   2107          #endif // ZDO_COORDINATOR
   2108          
   2109          /*********************************************************************
   2110           * ZDO MESSAGE PARSING API FUNCTIONS
   2111           */
   2112          
   2113          /*********************************************************************
   2114           * @fn          ZDO_ParseEndDeviceBindReq
   2115           *
   2116           * @brief       This function parses the End_Device_Bind_req message.
   2117           *
   2118           *     NOTE:  The clusters lists in bindReq are allocated in this
   2119           *            function and must be freed by that calling function.
   2120           *
   2121           * @param       inMsg  - incoming message (request)
   2122           * @param       bindReq - pointer to place to parse message to
   2123           *
   2124           * @return      none
   2125           */

   \                                 In  segment BANKED_CODE, align 1, keep-with-next
   2126          void ZDO_ParseEndDeviceBindReq( zdoIncomingMsg_t *inMsg, ZDEndDeviceBind_t *bindReq )
   \                     ZDO_ParseEndDeviceBindReq:
   2127          {
   \   000000   74F2         MOV     A,#-0xe
   \   000002   12....       LCALL   ?BANKED_ENTER_XDATA
   \   000005                ; Saved register size: 14
   \   000005                ; Auto size: 0
   \   000005   8C..         MOV     ?V0 + 0,R4
   \   000007   8D..         MOV     ?V0 + 1,R5
   2128            uint8 *msg;
   2129          
   2130            // Parse the message
   2131            bindReq->TransSeq = inMsg->TransSeq;
   \   000009   EA           MOV     A,R2
   \   00000A   240F         ADD     A,#0xf
   \   00000C   12....       LCALL   ?Subroutine55 & 0xFFFF
   \                     ??CrossCallReturnLabel_338:
   \   00000F   12....       LCALL   ?Subroutine25 & 0xFFFF
   2132            bindReq->srcAddr = inMsg->srcAddr.addr.shortAddr;
   \                     ??CrossCallReturnLabel_44:
   \   000012   12....       LCALL   ?Subroutine104 & 0xFFFF
   \                     ??CrossCallReturnLabel_226:
   \   000015   8C82         MOV     DPL,R4
   \   000017   8D83         MOV     DPH,R5
   \   000019   A3           INC     DPTR
   \   00001A   A3           INC     DPTR
   \   00001B   12....       LCALL   ??Subroutine10_1 & 0xFFFF
   2133            bindReq->SecurityUse = inMsg->SecurityUse;
   \                     ??CrossCallReturnLabel_318:
   \   00001E   EA           MOV     A,R2
   \   00001F   240E         ADD     A,#0xe
   \   000021   12....       LCALL   ?Subroutine55 & 0xFFFF
   \                     ??CrossCallReturnLabel_339:
   \   000024   A3           INC     DPTR
   \   000025   F0           MOVX    @DPTR,A
   2134            msg = inMsg->asdu;
   \   000026   12....       LCALL   ?Subroutine39 & 0xFFFF
   2135          
   2136            bindReq->localCoordinator = BUILD_UINT16( msg[0], msg[1] );
   \                     ??CrossCallReturnLabel_336:
   \   000029   A3           INC     DPTR
   \   00002A   A3           INC     DPTR
   \   00002B   A3           INC     DPTR
   \   00002C   A3           INC     DPTR
   \   00002D   12....       LCALL   ?Subroutine6 & 0xFFFF
   2137            msg += 2;
   2138          
   2139            osal_cpyExtAddr( &(bindReq->ieeeAddr), msg );
   \                     ??CrossCallReturnLabel_10:
   \   000030   2406         ADD     A,#0x6
   \   000032   12....       LCALL   ?Subroutine68 & 0xFFFF
   2140            msg += Z_EXTADDR_LEN;
   2141          
   2142            bindReq->endpoint = *msg++;
   \                     ??CrossCallReturnLabel_139:
   \   000035   C0E0         PUSH    A
   \   000037   12....       LCALL   ?Subroutine77 & 0xFFFF
   \                     ??CrossCallReturnLabel_160:
   \   00003A   D0E0         POP     A
   \   00003C   12....       LCALL   ?Subroutine13 & 0xFFFF
   2143            bindReq->profileID = BUILD_UINT16( msg[0], msg[1] );
   \                     ??CrossCallReturnLabel_24:
   \   00003F   F8           MOV     R0,A
   \   000040   E5..         MOV     A,?V0 + 0
   \   000042   240F         ADD     A,#0xf
   \   000044   12....       LCALL   ??Subroutine77_0 & 0xFFFF
   \                     ??CrossCallReturnLabel_161:
   \   000047   E8           MOV     A,R0
   \   000048   12....       LCALL   ?Subroutine7 & 0xFFFF
   2144            msg += 2;
   2145          
   2146            bindReq->numInClusters = *msg++;
   \                     ??CrossCallReturnLabel_12:
   \   00004B   E5..         MOV     A,?V0 + 0
   \   00004D   2411         ADD     A,#0x11
   \   00004F   12....       LCALL   ?Subroutine72 & 0xFFFF
   \                     ??CrossCallReturnLabel_151:
   \   000052   12....       LCALL   ?Subroutine21 & 0xFFFF
   2147            bindReq->inClusters = NULL;
   \                     ??CrossCallReturnLabel_34:
   \   000055   2412         ADD     A,#0x12
   \   000057   12....       LCALL   ?Subroutine74 & 0xFFFF
   2148            if ( bindReq->numInClusters )
   \                     ??CrossCallReturnLabel_156:
   \   00005A   600F         JZ      ??ZDO_ParseEndDeviceBindReq_0
   2149            {
   2150              bindReq->inClusters = (uint16*)osal_mem_alloc( (bindReq->numInClusters * sizeof( uint16 )) );
   \   00005C   E5..         MOV     A,?V0 + 0
   \   00005E   2412         ADD     A,#0x12
   \   000060   12....       LCALL   ?Subroutine1 & 0xFFFF
   2151              msg = ZDO_ConvertOTAClusters( bindReq->numInClusters, msg, bindReq->inClusters );
   \                     ??CrossCallReturnLabel_2:
   \   000063   8A..         MOV     ?V0 + 2,R2
   \   000065   8B..         MOV     ?V0 + 3,R3
   \   000067   AE..         MOV     R6,?V0 + 2
   \   000069   AF..         MOV     R7,?V0 + 3
   2152            }
   2153          
   2154            bindReq->numOutClusters = *msg++;
   \                     ??ZDO_ParseEndDeviceBindReq_0:
   \   00006B   8E82         MOV     DPL,R6
   \   00006D   8F83         MOV     DPH,R7
   \   00006F   E0           MOVX    A,@DPTR
   \   000070   FA           MOV     R2,A
   \   000071   E5..         MOV     A,?V0 + 0
   \   000073   2414         ADD     A,#0x14
   \   000075   12....       LCALL   ?Subroutine72 & 0xFFFF
   \                     ??CrossCallReturnLabel_152:
   \   000078   12....       LCALL   ?Subroutine23 & 0xFFFF
   2155            bindReq->outClusters = NULL;
   \                     ??CrossCallReturnLabel_38:
   \   00007B   E5..         MOV     A,?V0 + 0
   \   00007D   2415         ADD     A,#0x15
   \   00007F   12....       LCALL   ?Subroutine74 & 0xFFFF
   2156            if ( bindReq->numOutClusters )
   \                     ??CrossCallReturnLabel_157:
   \   000082   6007         JZ      ??CrossCallReturnLabel_3
   2157            {
   2158              bindReq->outClusters = (uint16*)osal_mem_alloc( (bindReq->numOutClusters * sizeof( uint16 )) );
   \   000084   E5..         MOV     A,?V0 + 0
   \   000086   2415         ADD     A,#0x15
   \   000088   12....       LCALL   ?Subroutine1 & 0xFFFF
   2159              msg = ZDO_ConvertOTAClusters( bindReq->numOutClusters, msg, bindReq->outClusters );
   2160            }
   2161          }
   \                     ??CrossCallReturnLabel_3:
   \   00008B   02....       LJMP    ?Subroutine134 & 0xFFFF

   \                                 In  segment BANKED_CODE, align 1, keep-with-next
   \                     ?Subroutine74:
   \   000000   12....       LCALL   ?Subroutine111 & 0xFFFF
   \                     ??CrossCallReturnLabel_250:
   \   000003   E4           CLR     A
   \   000004   F0           MOVX    @DPTR,A
   \   000005   A3           INC     DPTR
   \   000006   F0           MOVX    @DPTR,A
   \   000007   EA           MOV     A,R2
   \   000008   22           RET

   \                                 In  segment BANKED_CODE, align 1, keep-with-next
   \                     ?Subroutine72:
   \   000000   F5..         MOV     ?V0 + 2,A
   \   000002   E5..         MOV     A,?V0 + 1
   \   000004   3400         ADDC    A,#0x0
   \   000006   F5..         MOV     ?V0 + 3,A
   \   000008   EA           MOV     A,R2
   \   000009   85..82       MOV     DPL,?V0 + 2
   \   00000C   85..83       MOV     DPH,?V0 + 3
   \   00000F   22           RET

   \                                 In  segment BANKED_CODE, align 1, keep-with-next
   \                     ?Subroutine1:
   \   000000   F5..         MOV     ?V0 + 4,A
   \   000002   E5..         MOV     A,?V0 + 1
   \   000004   3400         ADDC    A,#0x0
   \   000006   F5..         MOV     ?V0 + 5,A
   \   000008                ; Setup parameters for call to function osal_mem_alloc
   \   000008                ; Setup parameters for call to function osal_mem_alloc
   \   000008   85..82       MOV     DPL,?V0 + 2
   \   00000B   85..83       MOV     DPH,?V0 + 3
   \   00000E   E0           MOVX    A,@DPTR
   \   00000F   C3           CLR     C
   \   000010   33           RLC     A
   \   000011   FA           MOV     R2,A
   \   000012   E4           CLR     A
   \   000013   33           RLC     A
   \   000014   FB           MOV     R3,A
   \   000015   12....       LCALL   ??osal_mem_alloc?relay
   \   000018   85..82       MOV     DPL,?V0 + 4
   \   00001B   85..83       MOV     DPH,?V0 + 5
   \   00001E   EA           MOV     A,R2
   \   00001F   F0           MOVX    @DPTR,A
   \   000020   A3           INC     DPTR
   \   000021   EB           MOV     A,R3
   \   000022   F0           MOVX    @DPTR,A
   \   000023                ; Setup parameters for call to function ZDO_ConvertOTAClusters
   \   000023                ; Setup parameters for call to function ZDO_ConvertOTAClusters
   \   000023   85..82       MOV     DPL,?V0 + 4
   \   000026   85..83       MOV     DPH,?V0 + 5
   \   000029   E0           MOVX    A,@DPTR
   \   00002A   FC           MOV     R4,A
   \   00002B   A3           INC     DPTR
   \   00002C   E0           MOVX    A,@DPTR
   \   00002D   FD           MOV     R5,A
   \   00002E   EE           MOV     A,R6
   \   00002F   FA           MOV     R2,A
   \   000030   EF           MOV     A,R7
   \   000031   FB           MOV     R3,A
   \   000032   85..82       MOV     DPL,?V0 + 2
   \   000035   85..83       MOV     DPH,?V0 + 3
   \   000038   E0           MOVX    A,@DPTR
   \   000039   F9           MOV     R1,A
   \   00003A   12....       LCALL   ??ZDO_ConvertOTAClusters?relay
   \   00003D   22           RET

   \                                 In  segment BANKED_CODE, align 1, keep-with-next
   \                     ?Subroutine77:
   \   000000   E5..         MOV     A,?V0 + 0
   \   000002   240E         ADD     A,#0xe
   \                     ??Subroutine77_0:
   \   000004   F582         MOV     DPL,A
   \   000006   E5..         MOV     A,?V0 + 1
   \                     ??Subroutine77_1:
   \   000008   12....       LCALL   ??Subroutine111_0 & 0xFFFF
   \                     ??CrossCallReturnLabel_252:
   \   00000B   22           RET

   \                                 In  segment BANKED_CODE, align 1, keep-with-next
   \                     ?Subroutine23:
   \   000000   12....       LCALL   ?Subroutine89 & 0xFFFF
   \                     ??CrossCallReturnLabel_192:
   \   000003   22           RET

   \                                 In  segment BANKED_CODE, align 1, keep-with-next
   \                     ?Subroutine89:
   \   000000   12....       LCALL   ?Subroutine114 & 0xFFFF
   \                     ??CrossCallReturnLabel_301:
   \   000003   22           RET

   \                                 In  segment BANKED_CODE, align 1, keep-with-next
   \                     ?Subroutine114:
   \   000000   F0           MOVX    @DPTR,A
   \   000001   8E82         MOV     DPL,R6
   \   000003   8F83         MOV     DPH,R7
   \   000005                REQUIRE ?Subroutine127
   \   000005                ; // Fall through to label ?Subroutine127

   \                                 In  segment BANKED_CODE, align 1, keep-with-next
   \                     ?Subroutine127:
   \   000000   A3           INC     DPTR
   \   000001   AE82         MOV     R6,DPL
   \   000003   AF83         MOV     R7,DPH
   \   000005   22           RET

   \                                 In  segment BANKED_CODE, align 1, keep-with-next
   \                     ?Subroutine87:
   \   000000   F0           MOVX    @DPTR,A
   \   000001   A3           INC     DPTR
   \   000002   E9           MOV     A,R1
   \                     ??Subroutine87_0:
   \   000003   12....       LCALL   ?Subroutine115 & 0xFFFF
   \                     ??CrossCallReturnLabel_257:
   \   000006   22           RET

   \                                 In  segment BANKED_CODE, align 1, keep-with-next
   \                     ?Subroutine115:
   \   000000   F0           MOVX    @DPTR,A
   \   000001   12....       LCALL   ?Subroutine118 & 0xFFFF
   \                     ??CrossCallReturnLabel_262:
   \   000004   22           RET

   \                                 In  segment BANKED_CODE, align 1, keep-with-next
   \                     ?Subroutine118:
   \   000000   EE           MOV     A,R6
   \   000001   2402         ADD     A,#0x2
   \   000003   0E           INC     R6
   \   000004   0E           INC     R6
   \   000005   EF           MOV     A,R7
   \   000006   3400         ADDC    A,#0x0
   \   000008   FF           MOV     R7,A
   \   000009   22           RET

   \                                 In  segment BANKED_CODE, align 1, keep-with-next
   \                     ?Subroutine21:
   \   000000   12....       LCALL   ?Subroutine84 & 0xFFFF
   \                     ??CrossCallReturnLabel_183:
   \   000003   E5..         MOV     A,?V0 + 0
   \   000005   22           RET

   \                                 In  segment BANKED_CODE, align 1, keep-with-next
   \                     ?Subroutine68:
   \   000000   FA           MOV     R2,A
   \   000001   E5..         MOV     A,?V0 + 1
   \   000003   3400         ADDC    A,#0x0
   \   000005   FB           MOV     R3,A
   \   000006   12....       LCALL   ?Subroutine110 & 0xFFFF
   \                     ??CrossCallReturnLabel_333:
   \   000009   E0           MOVX    A,@DPTR
   \   00000A   22           RET

   \                                 In  segment BANKED_CODE, align 1, keep-with-next
   \                     ?Subroutine110:
   \   000000   12....       LCALL   ??osal_cpyExtAddr?relay
   \   000003   EE           MOV     A,R6
   \   000004   2408         ADD     A,#0x8
   \                     ??Subroutine110_0:
   \   000006   FE           MOV     R6,A
   \   000007   EF           MOV     A,R7
   \   000008   3400         ADDC    A,#0x0
   \   00000A   FF           MOV     R7,A
   \   00000B                REQUIRE ?Subroutine131
   \   00000B                ; // Fall through to label ?Subroutine131

   \                                 In  segment BANKED_CODE, align 1, keep-with-next
   \                     ?Subroutine96:
   \   000000   EA           MOV     A,R2
   \   000001   2411         ADD     A,#0x11
   \   000003   F582         MOV     DPL,A
   \   000005   EB           MOV     A,R3
   \                     ??Subroutine96_0:
   \   000006   3400         ADDC    A,#0x0
   \   000008   F583         MOV     DPH,A
   \   00000A   E0           MOVX    A,@DPTR
   \   00000B   FE           MOV     R6,A
   \   00000C   A3           INC     DPTR
   \   00000D   E0           MOVX    A,@DPTR
   \   00000E   FF           MOV     R7,A
   \   00000F   8E82         MOV     DPL,R6
   \   000011   8F83         MOV     DPH,R7
   \   000013   E0           MOVX    A,@DPTR
   \   000014   22           RET

   \                                 In  segment BANKED_CODE, align 1, keep-with-next
   \                     ?Subroutine84:
   \   000000   F0           MOVX    @DPTR,A
   \   000001   8E82         MOV     DPL,R6
   \   000003   8F83         MOV     DPH,R7
   \   000005   A3           INC     DPTR
   \   000006   0E           INC     R6
   \   000007   AF83         MOV     R7,DPH
   \   000009   22           RET

   \                                 In  segment BANKED_CODE, align 1, keep-with-next
   \                     ?Subroutine55:
   \   000000   F582         MOV     DPL,A
   \   000002   EB           MOV     A,R3
   \   000003   12....       LCALL   ??Subroutine111_0 & 0xFFFF
   \                     ??Subroutine55_0:
   \   000006   E0           MOVX    A,@DPTR
   \   000007                REQUIRE ?Subroutine132
   \   000007                ; // Fall through to label ?Subroutine132

   \                                 In  segment BANKED_CODE, align 1, keep-with-next
   \                     ?Subroutine132:
   \   000000   8C82         MOV     DPL,R4
   \   000002   8D83         MOV     DPH,R5
   \   000004   22           RET

   \                                 In  segment BANKED_CODE, align 1, keep-with-next
   \                     ?Subroutine111:
   \   000000   F582         MOV     DPL,A
   \   000002   E5..         MOV     A,?V0 + 1
   \                     ??Subroutine111_0:
   \   000004   3400         ADDC    A,#0x0
   \   000006   F583         MOV     DPH,A
   \   000008   22           RET

   \                                 In  segment BANKED_CODE, align 1, keep-with-next
   \                     ?Subroutine13:
   \   000000   12....       LCALL   ?Subroutine88 & 0xFFFF
   \                     ??CrossCallReturnLabel_274:
   \   000003   22           RET

   \                                 In  segment BANKED_CODE, align 1, keep-with-next
   \                     ?Subroutine88:
   \   000000   12....       LCALL   ?Subroutine114 & 0xFFFF
   \                     ??CrossCallReturnLabel_300:
   \   000003   02....       LJMP    ?Subroutine122 & 0xFFFF

   \                                 In  segment BANKED_CODE, align 1, keep-with-next
   \                     ?Subroutine7:
   \   000000   12....       LCALL   ?Subroutine86 & 0xFFFF
   \                     ??CrossCallReturnLabel_186:
   \   000003   22           RET

   \                                 In  segment BANKED_CODE, align 1, keep-with-next
   \                     ?Subroutine86:
   \   000000   F0           MOVX    @DPTR,A
   \   000001   A3           INC     DPTR
   \   000002   E9           MOV     A,R1
   \   000003   12....       LCALL   ?Subroutine115 & 0xFFFF
   \                     ??CrossCallReturnLabel_258:
   \   000006   8E82         MOV     DPL,R6
   \   000008   8F83         MOV     DPH,R7
   \   00000A   E0           MOVX    A,@DPTR
   \   00000B   FA           MOV     R2,A
   \   00000C   22           RET

   \                                 In  segment BANKED_CODE, align 1, keep-with-next
   \                     ?Subroutine39:
   \   000000   12....       LCALL   ?Subroutine96 & 0xFFFF
   \                     ??CrossCallReturnLabel_210:
   \   000003   FA           MOV     R2,A
   \   000004   A3           INC     DPTR
   \   000005   E0           MOVX    A,@DPTR
   \   000006   F9           MOV     R1,A
   \   000007   EA           MOV     A,R2
   \   000008   02....       LJMP    ?Subroutine132 & 0xFFFF

   \                                 In  segment BANKED_CODE, align 1, keep-with-next
   \                     ?Subroutine6:
   \   000000   12....       LCALL   ?Subroutine87 & 0xFFFF
   \                     ??CrossCallReturnLabel_188:
   \   000003                ; Setup parameters for call to function osal_cpyExtAddr
   \   000003                ; Setup parameters for call to function osal_cpyExtAddr
   \   000003   EE           MOV     A,R6
   \   000004   FC           MOV     R4,A
   \   000005   EF           MOV     A,R7
   \   000006   FD           MOV     R5,A
   \   000007   E5..         MOV     A,?V0 + 0
   \   000009   22           RET
   2162          
   2163          /*********************************************************************
   2164           * @fn          ZDO_ParseBindUnbindReq
   2165           *
   2166           * @brief       This function parses the Bind_req or Unbind_req message.
   2167           *
   2168           * @param       inMsg  - incoming message (request)
   2169           * @param       pReq - place to put parsed information
   2170           *
   2171           * @return      none
   2172           */

   \                                 In  segment BANKED_CODE, align 1, keep-with-next
   2173          void ZDO_ParseBindUnbindReq( zdoIncomingMsg_t *inMsg, ZDO_BindUnbindReq_t *pReq )
   \                     ZDO_ParseBindUnbindReq:
   2174          {
   \   000000   74F6         MOV     A,#-0xa
   \   000002   12....       LCALL   ?BANKED_ENTER_XDATA
   \   000005                ; Saved register size: 10
   \   000005                ; Auto size: 0
   \   000005   8C..         MOV     ?V0 + 0,R4
   \   000007   8D..         MOV     ?V0 + 1,R5
   2175            uint8 *msg;
   2176          
   2177            msg = inMsg->asdu;
   \   000009   12....       LCALL   ?Subroutine108 & 0xFFFF
   \                     ??CrossCallReturnLabel_240:
   \   00000C   3400         ADDC    A,#0x0
   \   00000E   12....       LCALL   ?Subroutine57 & 0xFFFF
   2178            osal_cpyExtAddr( pReq->srcAddress, msg );
   \                     ??CrossCallReturnLabel_119:
   \   000011                ; Setup parameters for call to function osal_cpyExtAddr
   \   000011   12....       LCALL   ?Subroutine0 & 0xFFFF
   2179            msg += Z_EXTADDR_LEN;
   2180            pReq->srcEndpoint = *msg++;
   2181            pReq->clusterID = BUILD_UINT16( msg[0], msg[1] );
   2182            msg += 2;
   2183            pReq->dstAddress.addrMode = *msg++;
   2184            if ( pReq->dstAddress.addrMode == Addr64Bit )
   \                     ??CrossCallReturnLabel_0:
   \   000014   7019         JNZ     ??ZDO_ParseBindUnbindReq_0
   2185            {
   2186              osal_cpyExtAddr( pReq->dstAddress.addr.extAddr, msg );
   \   000016                ; Setup parameters for call to function osal_cpyExtAddr
   \   000016   EE           MOV     A,R6
   \   000017   FC           MOV     R4,A
   \   000018   EF           MOV     A,R7
   \   000019   FD           MOV     R5,A
   \   00001A   E5..         MOV     A,?V0 + 0
   \   00001C   240B         ADD     A,#0xb
   \   00001E   12....       LCALL   ?Subroutine69 & 0xFFFF
   2187              msg += Z_EXTADDR_LEN;
   2188              pReq->dstEndpoint = *msg;
   \                     ??CrossCallReturnLabel_265:
   \   000021   E0           MOVX    A,@DPTR
   \   000022   C0E0         PUSH    A
   \   000024   E5..         MOV     A,?V0 + 0
   \   000026   2414         ADD     A,#0x14
   \   000028   12....       LCALL   ??Subroutine77_0 & 0xFFFF
   \                     ??CrossCallReturnLabel_162:
   \   00002B   D0E0         POP     A
   \   00002D   8006         SJMP    ??ZDO_ParseBindUnbindReq_1
   2189            }
   2190            else
   2191            {
   2192              // copy group address
   2193              pReq->dstAddress.addr.shortAddr = BUILD_UINT16( msg[0], msg[1] );
   \                     ??ZDO_ParseBindUnbindReq_0:
   \   00002F   12....       LCALL   ?Subroutine38 & 0xFFFF
   \                     ??CrossCallReturnLabel_84:
   \   000032   F0           MOVX    @DPTR,A
   \   000033   A3           INC     DPTR
   \   000034   E9           MOV     A,R1
   \                     ??ZDO_ParseBindUnbindReq_1:
   \   000035   F0           MOVX    @DPTR,A
   2194            }
   2195          }
   \   000036   02....       LJMP    ??Subroutine133_0 & 0xFFFF

   \                                 In  segment BANKED_CODE, align 1, keep-with-next
   \                     ?Subroutine38:
   \   000000   12....       LCALL   ?Subroutine122 & 0xFFFF
   \                     ??CrossCallReturnLabel_276:
   \   000003   F8           MOV     R0,A
   \   000004   E5..         MOV     A,?V0 + 0
   \   000006   240B         ADD     A,#0xb
   \   000008   12....       LCALL   ?Subroutine111 & 0xFFFF
   \                     ??CrossCallReturnLabel_249:
   \   00000B   E8           MOV     A,R0
   \   00000C   22           RET

   \                                 In  segment BANKED_CODE, align 1, keep-with-next
   \                     ?Subroutine0:
   \   000000   EE           MOV     A,R6
   \   000001   FC           MOV     R4,A
   \   000002   EF           MOV     A,R7
   \   000003   FD           MOV     R5,A
   \   000004   AA..         MOV     R2,?V0 + 0
   \   000006   AB..         MOV     R3,?V0 + 1
   \   000008   12....       LCALL   ?Subroutine110 & 0xFFFF
   \                     ??CrossCallReturnLabel_334:
   \   00000B   12....       LCALL   ?Subroutine100 & 0xFFFF
   \                     ??CrossCallReturnLabel_271:
   \   00000E   A3           INC     DPTR
   \   00000F   A3           INC     DPTR
   \   000010   A3           INC     DPTR
   \   000011   12....       LCALL   ?Subroutine88 & 0xFFFF
   \                     ??CrossCallReturnLabel_273:
   \   000014   85..82       MOV     DPL,?V0 + 0
   \   000017   85..83       MOV     DPH,?V0 + 1
   \   00001A   A3           INC     DPTR
   \   00001B   A3           INC     DPTR
   \   00001C   A3           INC     DPTR
   \   00001D   A3           INC     DPTR
   \   00001E   A3           INC     DPTR
   \   00001F   A3           INC     DPTR
   \   000020   A3           INC     DPTR
   \   000021   A3           INC     DPTR
   \   000022   A3           INC     DPTR
   \   000023   12....       LCALL   ?Subroutine86 & 0xFFFF
   \                     ??CrossCallReturnLabel_185:
   \   000026   E5..         MOV     A,?V0 + 0
   \   000028   2413         ADD     A,#0x13
   \   00002A   12....       LCALL   ?Subroutine111 & 0xFFFF
   \                     ??CrossCallReturnLabel_247:
   \   00002D   EA           MOV     A,R2
   \   00002E   12....       LCALL   ?Subroutine84 & 0xFFFF
   \                     ??CrossCallReturnLabel_181:
   \   000031   7403         MOV     A,#0x3
   \   000033   6A           XRL     A,R2
   \   000034   22           RET

   \                                 In  segment BANKED_CODE, align 1, keep-with-next
   \                     ?Subroutine69:
   \   000000   FA           MOV     R2,A
   \   000001   E5..         MOV     A,?V0 + 1
   \   000003   3400         ADDC    A,#0x0
   \   000005   FB           MOV     R3,A
   \   000006   12....       LCALL   ??osal_cpyExtAddr?relay
   \   000009   8E82         MOV     DPL,R6
   \   00000B   8F83         MOV     DPH,R7
   \   00000D   A3           INC     DPTR
   \   00000E   02....       LJMP    ?Subroutine121 & 0xFFFF

   \                                 In  segment BANKED_CODE, align 1, keep-with-next
   \                     ?Subroutine100:
   \   000000   E0           MOVX    A,@DPTR
   \   000001   85..82       MOV     DPL,?V0 + 0
   \   000004   85..83       MOV     DPH,?V0 + 1
   \   000007   02....       LJMP    ??Subroutine121_1 & 0xFFFF
   2196          
   2197          /*********************************************************************
   2198           * @fn      ZDO_ParseAddrRsp
   2199           *
   2200           * @brief   Turns the inMsg (incoming message) into the out parsed
   2201           *          structure.
   2202           *
   2203           * @param   inMsg - incoming message
   2204           *
   2205           * @return  pointer to parsed structures.  This structure was
   2206           *          allocated using osal_mem_alloc, so it must be freed
   2207           *          by the calling function [osal_mem_free()].
   2208           */

   \                                 In  segment BANKED_CODE, align 1, keep-with-next
   2209          ZDO_NwkIEEEAddrResp_t *ZDO_ParseAddrRsp( zdoIncomingMsg_t *inMsg )
   \                     ZDO_ParseAddrRsp:
   2210          {
   \   000000   74F2         MOV     A,#-0xe
   \   000002   12....       LCALL   ?BANKED_ENTER_XDATA
   \   000005                ; Saved register size: 14
   \   000005                ; Auto size: 0
   \   000005   EA           MOV     A,R2
   \   000006   FE           MOV     R6,A
   \   000007   EB           MOV     A,R3
   \   000008   FF           MOV     R7,A
   2211            ZDO_NwkIEEEAddrResp_t *rsp;
   2212            uint8 *msg;
   2213            byte cnt = 0;
   2214          
   2215            // Calculate the number of items in the list
   2216            if ( inMsg->asduLen > (1 + Z_EXTADDR_LEN + 2) )
   \   000009   EE           MOV     A,R6
   \   00000A   2410         ADD     A,#0x10
   \   00000C   F582         MOV     DPL,A
   \   00000E   EF           MOV     A,R7
   \   00000F   12....       LCALL   ??Subroutine71_0 & 0xFFFF
   \                     ??CrossCallReturnLabel_149:
   \   000012   C3           CLR     C
   \   000013   940C         SUBB    A,#0xc
   \   000015   400D         JC      ??ZDO_ParseAddrRsp_0
   2217              cnt = inMsg->asdu[1 + Z_EXTADDR_LEN + 2];
   \   000017   12....       LCALL   ?Subroutine107 & 0xFFFF
   \                     ??CrossCallReturnLabel_237:
   \   00001A   12....       LCALL   ??Subroutine71_0 & 0xFFFF
   \                     ??CrossCallReturnLabel_150:
   \   00001D   240B         ADD     A,#0xb
   \   00001F   12....       LCALL   ?Subroutine52 & 0xFFFF
   \                     ??CrossCallReturnLabel_109:
   \   000022   8003         SJMP    ??ZDO_ParseAddrRsp_1
   2218            else
   2219              cnt = 0;
   \                     ??ZDO_ParseAddrRsp_0:
   \   000024   75..00       MOV     ?V0 + 2,#0x0
   2220          
   2221            // Make buffer
   2222            rsp = (ZDO_NwkIEEEAddrResp_t *)osal_mem_alloc( sizeof(ZDO_NwkIEEEAddrResp_t) + (cnt * sizeof ( uint16 )) );
   \                     ??ZDO_ParseAddrRsp_1:
   \   000027                ; Setup parameters for call to function osal_mem_alloc
   \   000027   E5..         MOV     A,?V0 + 2
   \   000029   C3           CLR     C
   \   00002A   33           RLC     A
   \   00002B   F8           MOV     R0,A
   \   00002C   E4           CLR     A
   \   00002D   33           RLC     A
   \   00002E   F9           MOV     R1,A
   \   00002F   740D         MOV     A,#0xd
   \   000031   12....       LCALL   ?Subroutine79 & 0xFFFF
   \                     ??CrossCallReturnLabel_175:
   \   000034   8A..         MOV     ?V0 + 0,R2
   \   000036   8B..         MOV     ?V0 + 1,R3
   2223          
   2224            if ( rsp )
   \   000038   EA           MOV     A,R2
   \   000039   7001         JNZ     ??ZDO_ParseAddrRsp_2
   \   00003B   EB           MOV     A,R3
   \                     ??ZDO_ParseAddrRsp_2:
   \   00003C   607F         JZ      ??ZDO_ParseAddrRsp_3
   2225            {
   2226              msg = inMsg->asdu;
   \   00003E   12....       LCALL   ?Subroutine107 & 0xFFFF
   \                     ??CrossCallReturnLabel_238:
   \   000041   12....       LCALL   ??Subroutine43_1 & 0xFFFF
   2227          
   2228              rsp->status = *msg++;
   \                     ??CrossCallReturnLabel_94:
   \   000044   8A82         MOV     DPL,R2
   \   000046   8B83         MOV     DPH,R3
   \   000048   12....       LCALL   ?Subroutine23 & 0xFFFF
   2229              if ( rsp->status == ZDO_SUCCESS )
   \                     ??CrossCallReturnLabel_39:
   \   00004B   7070         JNZ     ??ZDO_ParseAddrRsp_3
   2230              {
   2231                osal_cpyExtAddr( rsp->extAddr, msg );
   \   00004D                ; Setup parameters for call to function osal_cpyExtAddr
   \   00004D   EE           MOV     A,R6
   \   00004E   FC           MOV     R4,A
   \   00004F   EF           MOV     A,R7
   \   000050   FD           MOV     R5,A
   \   000051   12....       LCALL   ?Subroutine83 & 0xFFFF
   \                     ??CrossCallReturnLabel_281:
   \   000054   12....       LCALL   ??osal_cpyExtAddr?relay
   2232                msg += Z_EXTADDR_LEN;
   \   000057   EE           MOV     A,R6
   \   000058   2408         ADD     A,#0x8
   \   00005A   FE           MOV     R6,A
   \   00005B   EF           MOV     A,R7
   \   00005C   3400         ADDC    A,#0x0
   \   00005E   FF           MOV     R7,A
   2233                rsp->nwkAddr = BUILD_UINT16( msg[0], msg[1] );
   \   00005F   12....       LCALL   ?Subroutine49 & 0xFFFF
   \                     ??CrossCallReturnLabel_285:
   \   000062   12....       LCALL   ?Subroutine8 & 0xFFFF
   2234          
   2235                msg += 2;
   2236                rsp->numAssocDevs = 0;
   \                     ??CrossCallReturnLabel_14:
   \   000065   E5..         MOV     A,?V0 + 0
   \   000067   240B         ADD     A,#0xb
   \   000069   F582         MOV     DPL,A
   \   00006B   E5..         MOV     A,?V0 + 1
   \   00006D   12....       LCALL   ?Subroutine76 & 0xFFFF
   2237          
   2238                // StartIndex field is only present if NumAssocDev field is non-zero.
   2239                if ( cnt > 0 )
   \                     ??CrossCallReturnLabel_158:
   \   000070   604B         JZ      ??ZDO_ParseAddrRsp_3
   2240                {
   2241                  uint16 *pList = &(rsp->devList[0]);
   \   000072   E5..         MOV     A,?V0 + 0
   \   000074   240D         ADD     A,#0xd
   \   000076   F8           MOV     R0,A
   \   000077   E5..         MOV     A,?V0 + 1
   \   000079   3400         ADDC    A,#0x0
   \   00007B   F9           MOV     R1,A
   2242                  byte n = cnt;
   \   00007C   85....       MOV     ?V0 + 3,?V0 + 2
   2243          
   2244                  rsp->numAssocDevs = *msg++;
   \   00007F   8E82         MOV     DPL,R6
   \   000081   8F83         MOV     DPH,R7
   \   000083   E0           MOVX    A,@DPTR
   \   000084   C0E0         PUSH    A
   \   000086   E5..         MOV     A,?V0 + 0
   \   000088   240B         ADD     A,#0xb
   \   00008A   12....       LCALL   ??Subroutine77_0 & 0xFFFF
   \                     ??CrossCallReturnLabel_163:
   \   00008D   D0E0         POP     A
   \   00008F   12....       LCALL   ?Subroutine11 & 0xFFFF
   2245                  rsp->startIndex = *msg++;
   \                     ??CrossCallReturnLabel_19:
   \   000092   C0E0         PUSH    A
   \   000094   E5..         MOV     A,?V0 + 0
   \   000096   240C         ADD     A,#0xc
   \   000098   12....       LCALL   ??Subroutine77_0 & 0xFFFF
   \                     ??CrossCallReturnLabel_164:
   \   00009B   D0E0         POP     A
   \   00009D   12....       LCALL   ?Subroutine28 & 0xFFFF
   2246          
   2247                  while ( n != 0 )
   2248                  {
   2249                    *pList++ = BUILD_UINT16( msg[0], msg[1] );
   \                     ??CrossCallReturnLabel_57:
   \   0000A0   8E82         MOV     DPL,R6
   \   0000A2   8F83         MOV     DPH,R7
   \   0000A4   E0           MOVX    A,@DPTR
   \   0000A5   FC           MOV     R4,A
   \   0000A6   A3           INC     DPTR
   \   0000A7   E0           MOVX    A,@DPTR
   \   0000A8   FB           MOV     R3,A
   \   0000A9   EC           MOV     A,R4
   \   0000AA   8882         MOV     DPL,R0
   \   0000AC   8983         MOV     DPH,R1
   \   0000AE   12....       LCALL   ??Subroutine26_0 & 0xFFFF
   \                     ??CrossCallReturnLabel_53:
   \   0000B1   12....       LCALL   ?Subroutine82 & 0xFFFF
   2250                    msg += sizeof( uint16 );
   \                     ??CrossCallReturnLabel_179:
   \   0000B4   12....       LCALL   ?Subroutine118 & 0xFFFF
   2251                    n--;
   2252                  }
   \                     ??CrossCallReturnLabel_261:
   \   0000B7   15..         DEC     ?V0 + 3
   \   0000B9   E5..         MOV     A,?V0 + 3
   \   0000BB   70E3         JNZ     ??CrossCallReturnLabel_57
   2253                }
   2254              }
   2255            }
   2256            return ( rsp );
   \                     ??ZDO_ParseAddrRsp_3:
   \   0000BD   AA..         MOV     R2,?V0 + 0
   \   0000BF   AB..         MOV     R3,?V0 + 1
   \   0000C1                REQUIRE ?Subroutine134
   \   0000C1                ; // Fall through to label ?Subroutine134
   2257          }

   \                                 In  segment BANKED_CODE, align 1, keep-with-next
   \                     ?Subroutine8:
   \   000000   A3           INC     DPTR
   \                     ??Subroutine8_0:
   \   000001   12....       LCALL   ?Subroutine87 & 0xFFFF
   \                     ??CrossCallReturnLabel_187:
   \   000004   22           RET

   \                                 In  segment BANKED_CODE, align 1, keep-with-next
   \                     ?Subroutine82:
   \   000000   12....       LCALL   ?Subroutine112 & 0xFFFF
   \                     ??CrossCallReturnLabel_254:
   \   000003   22           RET

   \                                 In  segment BANKED_CODE, align 1, keep-with-next
   \                     ?Subroutine83:
   \   000000   EA           MOV     A,R2
   \   000001   2403         ADD     A,#0x3
   \   000003   0A           INC     R2
   \   000004   80..         SJMP    ?Subroutine123

   \                                 In  segment BANKED_CODE, align 1, keep-with-next
   \                     ?Subroutine76:
   \   000000   12....       LCALL   ??Subroutine111_0 & 0xFFFF
   \                     ??CrossCallReturnLabel_251:
   \   000003   E4           CLR     A
   \   000004   F0           MOVX    @DPTR,A
   \   000005   E5..         MOV     A,?V0 + 2
   \   000007   22           RET

   \                                 In  segment BANKED_CODE, align 1, keep-with-next
   \                     ?Subroutine49:
   \   000000   8E82         MOV     DPL,R6
   \   000002   8F83         MOV     DPH,R7
   \   000004   12....       LCALL   ?Subroutine122 & 0xFFFF
   \                     ??CrossCallReturnLabel_277:
   \   000007                REQUIRE ?Subroutine124
   \   000007                ; // Fall through to label ?Subroutine124

   \                                 In  segment BANKED_CODE, align 1, keep-with-next
   \                     ?Subroutine124:
   \   000000   85..82       MOV     DPL,?V0 + 0
   \   000003   85..83       MOV     DPH,?V0 + 1
   \   000006   22           RET

   \                                 In  segment BANKED_CODE, align 1, keep-with-next
   \                     ?Subroutine11:
   \   000000   12....       LCALL   ?Subroutine84 & 0xFFFF
   \                     ??CrossCallReturnLabel_182:
   \   000003   E0           MOVX    A,@DPTR
   \   000004   22           RET

   \                                 In  segment BANKED_CODE, align 1, keep-with-next
   \                     ?Subroutine79:
   \   000000   12....       LCALL   ?Subroutine113 & 0xFFFF
   \                     ??CrossCallReturnLabel_255:
   \   000003   22           RET

   \                                 In  segment BANKED_CODE, align 1, keep-with-next
   \                     ?Subroutine113:
   \   000000   28           ADD     A,R0
   \   000001   FA           MOV     R2,A
   \   000002   E4           CLR     A
   \   000003   39           ADDC    A,R1
   \   000004   FB           MOV     R3,A
   \   000005   12....       LCALL   ??osal_mem_alloc?relay
   \   000008   22           RET

   \                                 In  segment BANKED_CODE, align 1, keep-with-next
   \                     ?Subroutine43:
   \   000000   75..00       MOV     ?V0 + 2,#0x0
   \                     ??Subroutine43_0:
   \   000003   12....       LCALL   ?Subroutine108 & 0xFFFF
   \                     ??Subroutine43_1:
   \   000006   12....       LCALL   ??Subroutine96_0 & 0xFFFF
   \                     ??CrossCallReturnLabel_211:
   \   000009   22           RET

   \                                 In  segment BANKED_CODE, align 1, keep-with-next
   \                     ?Subroutine28:
   \   000000   12....       LCALL   ?Subroutine84 & 0xFFFF
   \                     ??CrossCallReturnLabel_184:
   \   000003   22           RET
   2258          
   2259          /*********************************************************************
   2260           * @fn          ZDO_ParseNodeDescRsp
   2261           *
   2262           * @brief       This function parses the Node_Desc_rsp message.
   2263           *
   2264           * @param       inMsg - incoming message
   2265           * @param       pNDRsp - place to parse the message into
   2266           *
   2267           * @return      none
   2268           */

   \                                 In  segment BANKED_CODE, align 1, keep-with-next
   2269          void ZDO_ParseNodeDescRsp( zdoIncomingMsg_t *inMsg, ZDO_NodeDescRsp_t *pNDRsp )
   \                     ZDO_ParseNodeDescRsp:
   2270          {
   \   000000   74F7         MOV     A,#-0x9
   \   000002   12....       LCALL   ?BANKED_ENTER_XDATA
   \   000005                ; Saved register size: 9
   \   000005                ; Auto size: 0
   2271            uint8 *msg;
   2272          
   2273            msg = inMsg->asdu;
   \   000005   12....       LCALL   ?Subroutine44 & 0xFFFF
   2274          
   2275            pNDRsp->status = *msg++;
   \                     ??CrossCallReturnLabel_95:
   \   000008   8C82         MOV     DPL,R4
   \   00000A   8D83         MOV     DPH,R5
   \   00000C   12....       LCALL   ?Subroutine92 & 0xFFFF
   \                     ??CrossCallReturnLabel_198:
   \   00000F   A882         MOV     R0,DPL
   \   000011   A983         MOV     R1,DPH
   2276            pNDRsp->nwkAddr = BUILD_UINT16( msg[0], msg[1] );
   \   000013   E0           MOVX    A,@DPTR
   \   000014   FE           MOV     R6,A
   \   000015   A3           INC     DPTR
   \   000016   E0           MOVX    A,@DPTR
   \   000017   FB           MOV     R3,A
   \   000018   EE           MOV     A,R6
   \   000019   8C82         MOV     DPL,R4
   \   00001B   8D83         MOV     DPH,R5
   \   00001D   A3           INC     DPTR
   \   00001E   12....       LCALL   ??Subroutine26_0 & 0xFFFF
   2277          
   2278            if ( pNDRsp->status == ZDP_SUCCESS )
   \                     ??CrossCallReturnLabel_54:
   \   000021   8C82         MOV     DPL,R4
   \   000023   8D83         MOV     DPH,R5
   \   000025   E0           MOVX    A,@DPTR
   \   000026   6003         JZ      $+5
   \   000028   02....       LJMP    ??CrossCallReturnLabel_319 & 0xFFFF
   2279            {
   2280              msg += 2;
   \   00002B   12....       LCALL   ?Subroutine82 & 0xFFFF
   2281              pNDRsp->nodeDesc.LogicalType = *msg & 0x07;
   \                     ??CrossCallReturnLabel_180:
   \   00002E   EC           MOV     A,R4
   \   00002F   2403         ADD     A,#0x3
   \   000031   FA           MOV     R2,A
   \   000032   ED           MOV     A,R5
   \   000033   3400         ADDC    A,#0x0
   \   000035   FB           MOV     R3,A
   \   000036   8882         MOV     DPL,R0
   \   000038   8983         MOV     DPH,R1
   \   00003A   E0           MOVX    A,@DPTR
   \   00003B   5407         ANL     A,#0x7
   \   00003D   C0E0         PUSH    A
   \   00003F   8A82         MOV     DPL,R2
   \   000041   8B83         MOV     DPH,R3
   \   000043   E0           MOVX    A,@DPTR
   \   000044   54F8         ANL     A,#0xf8
   \   000046   FE           MOV     R6,A
   \   000047   D0E0         POP     A
   \   000049   4E           ORL     A,R6
   \   00004A   12....       LCALL   ?Subroutine15 & 0xFFFF
   2282          
   2283              pNDRsp->nodeDesc.ComplexDescAvail = ( *msg & 0x08 ) >> 3;
   \                     ??CrossCallReturnLabel_287:
   \   00004D   A2E3         MOV     C,0xE0 /* A   */.3
   \   00004F   8B83         MOV     DPH,R3
   \   000051   8A82         MOV     DPL,R2
   \   000053   E0           MOVX    A,@DPTR
   \   000054   92E3         MOV     0xE0 /* A   */.3,C
   \   000056   12....       LCALL   ?Subroutine15 & 0xFFFF
   2284              pNDRsp->nodeDesc.UserDescAvail = ( *msg & 0x10 ) >> 4;
   \                     ??CrossCallReturnLabel_288:
   \   000059   A2E4         MOV     C,0xE0 /* A   */.4
   \   00005B   8B83         MOV     DPH,R3
   \   00005D   8A82         MOV     DPL,R2
   \   00005F   E0           MOVX    A,@DPTR
   \   000060   92E4         MOV     0xE0 /* A   */.4,C
   \   000062   12....       LCALL   ?Subroutine29 & 0xFFFF
   2285          
   2286              msg++;  // Reserved bits.
   2287              pNDRsp->nodeDesc.FrequencyBand = (*msg >> 3) & 0x1f;
   \                     ??CrossCallReturnLabel_59:
   \   000065   EC           MOV     A,R4
   \   000066   2404         ADD     A,#0x4
   \   000068   0A           INC     R2
   \   000069   ED           MOV     A,R5
   \   00006A   3400         ADDC    A,#0x0
   \   00006C   FB           MOV     R3,A
   \   00006D   E0           MOVX    A,@DPTR
   \   00006E   54F8         ANL     A,#0xf8
   \   000070   C0E0         PUSH    A
   \   000072   8A82         MOV     DPL,R2
   \   000074   8B83         MOV     DPH,R3
   \   000076   E0           MOVX    A,@DPTR
   \   000077   5407         ANL     A,#0x7
   \   000079   FE           MOV     R6,A
   \   00007A   D0E0         POP     A
   \   00007C   4E           ORL     A,R6
   \   00007D   FE           MOV     R6,A
   \   00007E   12....       LCALL   ?Subroutine15 & 0xFFFF
   2288              pNDRsp->nodeDesc.APSFlags = *msg++ & 0x07;
   \                     ??CrossCallReturnLabel_289:
   \   000081   5407         ANL     A,#0x7
   \   000083   C0E0         PUSH    A
   \   000085   74F8         MOV     A,#-0x8
   \   000087   5E           ANL     A,R6
   \   000088   FE           MOV     R6,A
   \   000089   D0E0         POP     A
   \   00008B   4E           ORL     A,R6
   \   00008C   A3           INC     DPTR
   \   00008D   08           INC     R0
   \   00008E   A983         MOV     R1,DPH
   \   000090   8A82         MOV     DPL,R2
   \   000092   8B83         MOV     DPH,R3
   \   000094   12....       LCALL   ?Subroutine15 & 0xFFFF
   2289              pNDRsp->nodeDesc.CapabilityFlags = *msg++;
   \                     ??CrossCallReturnLabel_290:
   \   000097   8C82         MOV     DPL,R4
   \   000099   8D83         MOV     DPH,R5
   \   00009B   A3           INC     DPTR
   \   00009C   A3           INC     DPTR
   \   00009D   A3           INC     DPTR
   \   00009E   A3           INC     DPTR
   \   00009F   A3           INC     DPTR
   \   0000A0   12....       LCALL   ?Subroutine29 & 0xFFFF
   2290              pNDRsp->nodeDesc.ManufacturerCode[0] = *msg++;
   \                     ??CrossCallReturnLabel_60:
   \   0000A3   12....       LCALL   ??Subroutine55_0 & 0xFFFF
   \                     ??CrossCallReturnLabel_340:
   \   0000A6   A3           INC     DPTR
   \   0000A7   A3           INC     DPTR
   \   0000A8   A3           INC     DPTR
   \   0000A9   A3           INC     DPTR
   \   0000AA   A3           INC     DPTR
   \   0000AB   A3           INC     DPTR
   \   0000AC   12....       LCALL   ?Subroutine5 & 0xFFFF
   2291              pNDRsp->nodeDesc.ManufacturerCode[1] = *msg++;
   \                     ??CrossCallReturnLabel_8:
   \   0000AF   12....       LCALL   ?Subroutine5 & 0xFFFF
   2292              pNDRsp->nodeDesc.MaxBufferSize = *msg++;
   \                     ??CrossCallReturnLabel_9:
   \   0000B2   A3           INC     DPTR
   \   0000B3   12....       LCALL   ?Subroutine4 & 0xFFFF
   2293              pNDRsp->nodeDesc.MaxTransferSize[0] = *msg++;
   \                     ??CrossCallReturnLabel_6:
   \   0000B6   12....       LCALL   ?Subroutine4 & 0xFFFF
   2294              pNDRsp->nodeDesc.MaxTransferSize[1] = *msg++;
   \                     ??CrossCallReturnLabel_7:
   \   0000B9   A3           INC     DPTR
   \   0000BA   12....       LCALL   ?Subroutine92 & 0xFFFF
   2295              pNDRsp->nodeDesc.ServerMask = BUILD_UINT16( msg[0], msg[1] );
   \                     ??CrossCallReturnLabel_199:
   \   0000BD   12....       LCALL   ?Subroutine60 & 0xFFFF
   \                     ??CrossCallReturnLabel_127:
   \   0000C0   F8           MOV     R0,A
   \   0000C1   EC           MOV     A,R4
   \   0000C2   240B         ADD     A,#0xb
   \   0000C4   F582         MOV     DPL,A
   \   0000C6   ED           MOV     A,R5
   \   0000C7   12....       LCALL   ??Subroutine77_1 & 0xFFFF
   \                     ??CrossCallReturnLabel_165:
   \   0000CA   12....       LCALL   ??Subroutine10_1 & 0xFFFF
   2296            }
   2297          }
   \                     ??CrossCallReturnLabel_319:
   \   0000CD   02....       LJMP    ?Subroutine136 & 0xFFFF

   \                                 In  segment BANKED_CODE, align 1, keep-with-next
   \                     ?Subroutine29:
   \   000000   12....       LCALL   ?Subroutine92 & 0xFFFF
   \                     ??CrossCallReturnLabel_197:
   \   000003   08           INC     R0
   \   000004   A983         MOV     R1,DPH
   \   000006   22           RET

   \                                 In  segment BANKED_CODE, align 1, keep-with-next
   \                     ?Subroutine92:
   \   000000   F0           MOVX    @DPTR,A
   \   000001   8882         MOV     DPL,R0
   \   000003   8983         MOV     DPH,R1
   \   000005   A3           INC     DPTR
   \   000006   22           RET

   \                                 In  segment BANKED_CODE, align 1, keep-with-next
   \                     ?Subroutine5:
   \   000000   12....       LCALL   ?Subroutine85 & 0xFFFF
   \                     ??CrossCallReturnLabel_267:
   \   000003   22           RET

   \                                 In  segment BANKED_CODE, align 1, keep-with-next
   \                     ?Subroutine85:
   \   000000   F0           MOVX    @DPTR,A
   \   000001   8882         MOV     DPL,R0
   \   000003   8983         MOV     DPH,R1
   \   000005   A3           INC     DPTR
   \   000006   08           INC     R0
   \   000007   A983         MOV     R1,DPH
   \   000009   E0           MOVX    A,@DPTR
   \   00000A   8C82         MOV     DPL,R4
   \   00000C   8D83         MOV     DPH,R5
   \   00000E   02....       LJMP    ?Subroutine121 & 0xFFFF

   \                                 In  segment BANKED_CODE, align 1, keep-with-next
   \                     ?Subroutine4:
   \   000000   12....       LCALL   ?Subroutine85 & 0xFFFF
   \                     ??CrossCallReturnLabel_268:
   \   000003   A3           INC     DPTR
   \   000004   A3           INC     DPTR
   \   000005   22           RET

   \                                 In  segment BANKED_CODE, align 1, keep-with-next
   \                     ?Subroutine15:
   \   000000   F0           MOVX    @DPTR,A
   \   000001   02....       LJMP    ?Subroutine125 & 0xFFFF
   2298          
   2299          /*********************************************************************
   2300           * @fn          ZDO_ParesPowerDescRsp
   2301           *
   2302           * @brief       This function parses the Power_Desc_rsp message.
   2303           *
   2304           * @param       inMsg  - incoming message
   2305           * @param       pNPRsp - place to parse the message into
   2306           *
   2307           * @return      none
   2308           */

   \                                 In  segment BANKED_CODE, align 1, keep-with-next
   2309          void ZDO_ParsePowerDescRsp( zdoIncomingMsg_t *inMsg, ZDO_PowerRsp_t *pNPRsp )
   \                     ZDO_ParsePowerDescRsp:
   2310          {
   \   000000   74F6         MOV     A,#-0xa
   \   000002   12....       LCALL   ?BANKED_ENTER_XDATA
   \   000005                ; Saved register size: 10
   \   000005                ; Auto size: 0
   2311            uint8 *msg;
   2312          
   2313            msg = inMsg->asdu;
   \   000005   12....       LCALL   ?Subroutine3 & 0xFFFF
   2314            pNPRsp->status = *msg++;
   2315            pNPRsp->nwkAddr = BUILD_UINT16( msg[0], msg[1] );
   2316          
   2317            if ( pNPRsp->status == ZDP_SUCCESS )
   \                     ??CrossCallReturnLabel_306:
   \   000008   8C82         MOV     DPL,R4
   \   00000A   8D83         MOV     DPH,R5
   \   00000C   E0           MOVX    A,@DPTR
   \   00000D   7067         JNZ     ??CrossCallReturnLabel_322
   2318            {
   2319              msg += 2;
   \   00000F   12....       LCALL   ?Subroutine81 & 0xFFFF
   2320              pNPRsp->pwrDesc.AvailablePowerSources = *msg >> 4;
   \                     ??CrossCallReturnLabel_280:
   \   000012   EC           MOV     A,R4
   \   000013   2403         ADD     A,#0x3
   \   000015   ED           MOV     A,R5
   \   000016   3400         ADDC    A,#0x0
   \   000018   0C           INC     R4
   \   000019   0C           INC     R4
   \   00001A   0C           INC     R4
   \   00001B   FD           MOV     R5,A
   \   00001C   8C82         MOV     DPL,R4
   \   00001E   8D83         MOV     DPH,R5
   \   000020   E0           MOVX    A,@DPTR
   \   000021   540F         ANL     A,#0xf
   \   000023   FE           MOV     R6,A
   \   000024   A3           INC     DPTR
   \   000025   E0           MOVX    A,@DPTR
   \   000026   12....       LCALL   ?Subroutine62 & 0xFFFF
   \                     ??CrossCallReturnLabel_131:
   \   000029   7404         MOV     A,#0x4
   \   00002B   78..         MOV     R0,#?V0 + 0
   \   00002D   12....       LCALL   ?S_SHL
   \   000030   E5..         MOV     A,?V0 + 0
   \   000032   4E           ORL     A,R6
   \   000033   12....       LCALL   ?Subroutine10 & 0xFFFF
   2321              pNPRsp->pwrDesc.PowerMode = *msg++ & 0x0F;
   \                     ??CrossCallReturnLabel_320:
   \   000036   74F0         MOV     A,#-0x10
   \   000038   58           ANL     A,R0
   \   000039   F8           MOV     R0,A
   \   00003A   8A82         MOV     DPL,R2
   \   00003C   8B83         MOV     DPH,R3
   \   00003E   E0           MOVX    A,@DPTR
   \   00003F   FE           MOV     R6,A
   \   000040   740F         MOV     A,#0xf
   \   000042   5E           ANL     A,R6
   \   000043   48           ORL     A,R0
   \   000044   FE           MOV     R6,A
   \   000045   E9           MOV     A,R1
   \   000046   FF           MOV     R7,A
   \   000047   A3           INC     DPTR
   \   000048   0A           INC     R2
   \   000049   AB83         MOV     R3,DPH
   \   00004B   8C82         MOV     DPL,R4
   \   00004D   8D83         MOV     DPH,R5
   \   00004F   EE           MOV     A,R6
   \   000050   F0           MOVX    @DPTR,A
   \   000051   A3           INC     DPTR
   \   000052   EF           MOV     A,R7
   \   000053   F0           MOVX    @DPTR,A
   2322              pNPRsp->pwrDesc.CurrentPowerSourceLevel = *msg >> 4;
   \   000054   740F         MOV     A,#0xf
   \   000056   59           ANL     A,R1
   \   000057   12....       LCALL   ?Subroutine62 & 0xFFFF
   \                     ??CrossCallReturnLabel_132:
   \   00005A   740C         MOV     A,#0xc
   \   00005C   78..         MOV     R0,#?V0 + 0
   \   00005E   12....       LCALL   ?S_SHL
   \   000061   EE           MOV     A,R6
   \   000062   12....       LCALL   ?Subroutine10 & 0xFFFF
   2323              pNPRsp->pwrDesc.CurrentPowerSource = *msg++ & 0x0F;
   \                     ??CrossCallReturnLabel_321:
   \   000065   74F0         MOV     A,#-0x10
   \   000067   59           ANL     A,R1
   \   000068   F9           MOV     R1,A
   \   000069   8A82         MOV     DPL,R2
   \   00006B   8B83         MOV     DPH,R3
   \   00006D   E0           MOVX    A,@DPTR
   \   00006E   FB           MOV     R3,A
   \   00006F   740F         MOV     A,#0xf
   \   000071   5B           ANL     A,R3
   \   000072   49           ORL     A,R1
   \   000073   12....       LCALL   ??Subroutine10_0 & 0xFFFF
   2324            }
   2325          }
   \                     ??CrossCallReturnLabel_322:
   \   000076   02....       LJMP    ??Subroutine133_0 & 0xFFFF

   \                                 In  segment BANKED_CODE, align 1, keep-with-next
   \                     ?Subroutine62:
   \   000000   FF           MOV     R7,A
   \   000001   8A82         MOV     DPL,R2
   \   000003   8B83         MOV     DPH,R3
   \   000005   E0           MOVX    A,@DPTR
   \   000006   C4           SWAP    A
   \   000007   540F         ANL     A,#0xf
   \   000009   F5..         MOV     ?V0 + 0,A
   \   00000B   75..00       MOV     ?V0 + 1,#0x0
   \   00000E   22           RET

   \                                 In  segment BANKED_CODE, align 1, keep-with-next
   \                     ?Subroutine3:
   \   000000   12....       LCALL   ?Subroutine108 & 0xFFFF
   \                     ??CrossCallReturnLabel_241:
   \   000003   12....       LCALL   ??Subroutine111_0 & 0xFFFF
   \                     ??CrossCallReturnLabel_248:
   \   000006   12....       LCALL   ?Subroutine98 & 0xFFFF
   \                     ??CrossCallReturnLabel_216:
   \   000009   8A82         MOV     DPL,R2
   \   00000B   8B83         MOV     DPH,R3
   \   00000D   E0           MOVX    A,@DPTR
   \   00000E   8C82         MOV     DPL,R4
   \   000010   8D83         MOV     DPH,R5
   \   000012   12....       LCALL   ?Subroutine94 & 0xFFFF
   \                     ??CrossCallReturnLabel_204:
   \   000015   AA82         MOV     R2,DPL
   \   000017   AB83         MOV     R3,DPH
   \   000019   E0           MOVX    A,@DPTR
   \   00001A   FE           MOV     R6,A
   \   00001B   A3           INC     DPTR
   \   00001C   E0           MOVX    A,@DPTR
   \   00001D   F9           MOV     R1,A
   \   00001E   EE           MOV     A,R6
   \   00001F   8C82         MOV     DPL,R4
   \   000021   8D83         MOV     DPH,R5
   \   000023   A3           INC     DPTR
   \   000024                REQUIRE ?Subroutine129
   \   000024                ; // Fall through to label ?Subroutine129
   2326          
   2327          /*********************************************************************
   2328           * @fn          ZDO_ParseSimpleDescRsp
   2329           *
   2330           * @brief       This function parse the Simple_Desc_rsp message.
   2331           *
   2332           *   NOTE: The pAppInClusterList and pAppOutClusterList fields
   2333           *         in the SimpleDescriptionFormat_t structure are allocated
   2334           *         and the calling function needs to free [osal_msg_free()]
   2335           *         these buffers.
   2336           *
   2337           * @param       inMsg  - incoming message
   2338           * @param       pSimpleDescRsp - place to parse the message into
   2339           *
   2340           * @return      none
   2341           */

   \                                 In  segment BANKED_CODE, align 1, keep-with-next
   2342          void ZDO_ParseSimpleDescRsp( zdoIncomingMsg_t *inMsg, ZDO_SimpleDescRsp_t *pSimpleDescRsp )
   \                     ZDO_ParseSimpleDescRsp:
   2343          {
   \   000000   74F7         MOV     A,#-0x9
   \   000002   12....       LCALL   ?BANKED_ENTER_XDATA
   \   000005                ; Saved register size: 9
   \   000005                ; Auto size: 0
   2344            uint8 *msg;
   2345          
   2346            msg = inMsg->asdu;
   \   000005   12....       LCALL   ?Subroutine3 & 0xFFFF
   2347            pSimpleDescRsp->status = *msg++;
   2348            pSimpleDescRsp->nwkAddr = BUILD_UINT16( msg[0], msg[1] );
   2349            msg += sizeof ( uint16 );
   2350            msg++; // Skip past the length field.
   \                     ??CrossCallReturnLabel_307:
   \   000008   12....       LCALL   ?Subroutine83 & 0xFFFF
   2351          
   2352            if ( pSimpleDescRsp->status == ZDP_SUCCESS )
   \                     ??CrossCallReturnLabel_282:
   \   00000B   8C82         MOV     DPL,R4
   \   00000D   8D83         MOV     DPH,R5
   \   00000F   E0           MOVX    A,@DPTR
   \   000010   700D         JNZ     ??ZDO_ParseSimpleDescRsp_0
   2353            {
   2354              ZDO_ParseSimpleDescBuf( msg, &(pSimpleDescRsp->simpleDesc) );
   \   000012                ; Setup parameters for call to function ZDO_ParseSimpleDescBuf
   \   000012   EC           MOV     A,R4
   \   000013   2403         ADD     A,#0x3
   \   000015   0C           INC     R4
   \   000016   0C           INC     R4
   \   000017   0C           INC     R4
   \   000018   ED           MOV     A,R5
   \   000019   3400         ADDC    A,#0x0
   \   00001B   FD           MOV     R5,A
   \   00001C   12....       LCALL   ??ZDO_ParseSimpleDescBuf?relay
   2355            }
   2356          }
   \                     ??ZDO_ParseSimpleDescRsp_0:
   \   00001F                REQUIRE ?Subroutine136
   \   00001F                ; // Fall through to label ?Subroutine136
   2357          
   2358          /*********************************************************************
   2359           * @fn          ZDO_ParseEPListRsp
   2360           *
   2361           * @brief       This parse the Active_EP_rsp or Match_Desc_rsp message.
   2362           *
   2363           * @param       inMsg  - incoming message
   2364           *
   2365           * @return      none
   2366           */

   \                                 In  segment BANKED_CODE, align 1, keep-with-next
   2367          ZDO_ActiveEndpointRsp_t *ZDO_ParseEPListRsp( zdoIncomingMsg_t *inMsg )
   \                     ZDO_ParseEPListRsp:
   2368          {
   \   000000   74F1         MOV     A,#-0xf
   \   000002   12....       LCALL   ?BANKED_ENTER_XDATA
   \   000005                ; Saved register size: 15
   \   000005                ; Auto size: 0
   2369            ZDO_ActiveEndpointRsp_t *pRsp;
   2370            uint8 *msg;
   2371            uint8 Status;
   2372            uint8 cnt;
   2373          
   2374            msg = inMsg->asdu;
   \   000005   12....       LCALL   ??Subroutine43_0 & 0xFFFF
   2375            Status = *msg++;
   \                     ??CrossCallReturnLabel_92:
   \   000008   F5..         MOV     ?V0 + 1,A
   \   00000A   A3           INC     DPTR
   \   00000B   AE82         MOV     R6,DPL
   \   00000D   AF83         MOV     R7,DPH
   2376            cnt = msg[2];
   \   00000F   A3           INC     DPTR
   \   000010   A3           INC     DPTR
   \   000011   E0           MOVX    A,@DPTR
   \   000012   F5..         MOV     ?V0 + 0,A
   2377          
   2378            pRsp = (ZDO_ActiveEndpointRsp_t *)osal_mem_alloc( sizeof(  ZDO_ActiveEndpointRsp_t ) + cnt );
   \   000014                ; Setup parameters for call to function osal_mem_alloc
   \   000014   F5..         MOV     ?V0 + 2,A
   \   000016   7404         MOV     A,#0x4
   \   000018   25..         ADD     A,?V0 + 2
   \   00001A   FA           MOV     R2,A
   \   00001B   E4           CLR     A
   \   00001C   3400         ADDC    A,#0x0
   \   00001E   FB           MOV     R3,A
   \   00001F   12....       LCALL   ??osal_mem_alloc?relay
   \   000022   8A..         MOV     ?V0 + 2,R2
   \   000024   8B..         MOV     ?V0 + 3,R3
   2379            if ( pRsp )
   \   000026   EA           MOV     A,R2
   \   000027   7001         JNZ     ??ZDO_ParseEPListRsp_0
   \   000029   EB           MOV     A,R3
   \                     ??ZDO_ParseEPListRsp_0:
   \   00002A   6043         JZ      ??ZDO_ParseEPListRsp_1
   2380            {
   2381              pRsp->status = Status;
   \   00002C   8A82         MOV     DPL,R2
   \   00002E   8B83         MOV     DPH,R3
   \   000030   E5..         MOV     A,?V0 + 1
   \   000032   12....       LCALL   ??Subroutine90_0 & 0xFFFF
   2382              pRsp->nwkAddr = BUILD_UINT16( msg[0], msg[1] );
   \                     ??CrossCallReturnLabel_330:
   \   000035   E0           MOVX    A,@DPTR
   \   000036   FA           MOV     R2,A
   \   000037   A3           INC     DPTR
   \   000038   E0           MOVX    A,@DPTR
   \   000039   F8           MOV     R0,A
   \   00003A   E4           CLR     A
   \   00003B   C8           XCH     A,R0
   \   00003C   F9           MOV     R1,A
   \   00003D   EA           MOV     A,R2
   \   00003E   85..82       MOV     DPL,?V0 + 2
   \   000041   8B83         MOV     DPH,R3
   \   000043   A3           INC     DPTR
   \   000044   12....       LCALL   ?Subroutine129 & 0xFFFF
   2383              msg += sizeof( uint16 );
   2384              pRsp->cnt = cnt;
   \                     ??CrossCallReturnLabel_308:
   \   000047   85..82       MOV     DPL,?V0 + 2
   \   00004A   8B83         MOV     DPH,R3
   \   00004C   A3           INC     DPTR
   \   00004D   A3           INC     DPTR
   \   00004E   12....       LCALL   ?Subroutine90 & 0xFFFF
   2385              msg++; // pass cnt
   2386              osal_memcpy( pRsp->epList, msg, cnt );
   \                     ??CrossCallReturnLabel_329:
   \   000051   A3           INC     DPTR
   \   000052   A3           INC     DPTR
   \   000053   A3           INC     DPTR
   \   000054   A982         MOV     R1,DPL
   \   000056   AA83         MOV     R2,DPH
   \   000058   89..         MOV     ?V0 + 4,R1
   \   00005A   8A..         MOV     ?V0 + 5,R2
   \   00005C   88..         MOV     ?V0 + 6,R0
   \   00005E   78..         MOV     R0,#?V0 + 4
   \   000060   12....       LCALL   ?PUSH_XSTACK_I_THREE
   \   000063   AC..         MOV     R4,?V0 + 0
   \   000065   7D00         MOV     R5,#0x0
   \   000067   E5..         MOV     A,?V0 + 2
   \   000069   12....       LCALL   ?Subroutine75 & 0xFFFF
   \                     ??CrossCallReturnLabel_302:
   \   00006C   12....       LCALL   ?DEALLOC_XSTACK8
   2387            }
   2388          
   2389            return ( pRsp );
   \                     ??ZDO_ParseEPListRsp_1:
   \   00006F   AA..         MOV     R2,?V0 + 2
   \   000071   AB..         MOV     R3,?V0 + 3
   \   000073                REQUIRE ?Subroutine137
   \   000073                ; // Fall through to label ?Subroutine137
   2390          }

   \                                 In  segment BANKED_CODE, align 1, keep-with-next
   \                     ?Subroutine137:
   \   000000   7F07         MOV     R7,#0x7
   \   000002   02....       LJMP    ?BANKED_LEAVE_XDATA

   \                                 In  segment BANKED_CODE, align 1, keep-with-next
   \                     ?Subroutine75:
   \   000000   2404         ADD     A,#0x4
   \   000002   FA           MOV     R2,A
   \   000003   EB           MOV     A,R3
   \   000004   3400         ADDC    A,#0x0
   \   000006   FB           MOV     R3,A
   \   000007   02....       LJMP    ?Subroutine128 & 0xFFFF
   2391          
   2392          /*********************************************************************
   2393           * @fn          ZDO_ParseServerDiscRsp
   2394           *
   2395           * @brief       Parse the Server_Discovery_rsp message.
   2396           *
   2397           * @param       inMsg - incoming message.
   2398           * @param       pRsp - place to put the parsed information.
   2399           *
   2400           * @return      none
   2401           */

   \                                 In  segment BANKED_CODE, align 1, keep-with-next
   2402          void ZDO_ParseServerDiscRsp( zdoIncomingMsg_t *inMsg, ZDO_ServerDiscRsp_t *pRsp )
   \                     ZDO_ParseServerDiscRsp:
   2403          {
   \   000000   74F7         MOV     A,#-0x9
   \   000002   12....       LCALL   ?BANKED_ENTER_XDATA
   \   000005                ; Saved register size: 9
   \   000005                ; Auto size: 0
   2404            pRsp->status = inMsg->asdu[0];
   \   000005   EA           MOV     A,R2
   \   000006   2411         ADD     A,#0x11
   \   000008   F8           MOV     R0,A
   \   000009   EB           MOV     A,R3
   \   00000A   12....       LCALL   ?Subroutine117 & 0xFFFF
   \                     ??CrossCallReturnLabel_292:
   \   00000D   FA           MOV     R2,A
   \   00000E   A3           INC     DPTR
   \   00000F   E0           MOVX    A,@DPTR
   \   000010   F583         MOV     DPH,A
   \   000012   8A82         MOV     DPL,R2
   \   000014   12....       LCALL   ??Subroutine55_0 & 0xFFFF
   \                     ??CrossCallReturnLabel_341:
   \   000017   12....       LCALL   ?Subroutine15 & 0xFFFF
   2405            pRsp->serverMask = BUILD_UINT16( inMsg->asdu[1], inMsg->asdu[2] );
   \                     ??CrossCallReturnLabel_291:
   \   00001A   12....       LCALL   ??Subroutine103_0 & 0xFFFF
   \                     ??CrossCallReturnLabel_326:
   \   00001D   A3           INC     DPTR
   \   00001E   E0           MOVX    A,@DPTR
   \   00001F   FA           MOV     R2,A
   \   000020   8882         MOV     DPL,R0
   \   000022   8983         MOV     DPH,R1
   \   000024   A3           INC     DPTR
   \   000025   12....       LCALL   ?Subroutine63 & 0xFFFF
   \                     ??CrossCallReturnLabel_296:
   \   000028   12....       LCALL   ?Subroutine129 & 0xFFFF
   2406          }
   \                     ??CrossCallReturnLabel_309:
   \   00002B   02....       LJMP    ?Subroutine136 & 0xFFFF

   \                                 In  segment BANKED_CODE, align 1, keep-with-next
   \                     ?Subroutine63:
   \   000000   A3           INC     DPTR
   \   000001   E0           MOVX    A,@DPTR
   \   000002   F9           MOV     R1,A
   \   000003   EA           MOV     A,R2
   \   000004   02....       LJMP    ?Subroutine126 & 0xFFFF
   2407          
   2408          /*********************************************************************
   2409           * @fn          ZDO_ParseMgmtLqiRsp
   2410           *
   2411           * @brief       This function parses the incoming Management
   2412           *              LQI response
   2413           *
   2414           * @param       inMsg - incoming message
   2415           *
   2416           * @return      a pointer to parsed response structure (NULL if not allocated).
   2417           *          This structure was allocated using osal_mem_alloc, so it must be freed
   2418           *          by the calling function [osal_mem_free()].
   2419           */

   \                                 In  segment BANKED_CODE, align 1, keep-with-next
   2420          ZDO_MgmtLqiRsp_t *ZDO_ParseMgmtLqiRsp( zdoIncomingMsg_t *inMsg )
   \                     ZDO_ParseMgmtLqiRsp:
   2421          {
   \   000000   74F0         MOV     A,#-0x10
   \   000002   12....       LCALL   ?BANKED_ENTER_XDATA
   \   000005                ; Saved register size: 16
   \   000005                ; Auto size: 0
   2422            ZDO_MgmtLqiRsp_t *pRsp;
   2423            uint8 status;
   2424            uint8 startIndex = 0;
   \   000005   75..00       MOV     ?V0 + 4,#0x0
   2425            uint8 neighborLqiCount = 0;
   \   000008   75..00       MOV     ?V0 + 1,#0x0
   2426            uint8 neighborLqiEntries = 0;
   \   00000B   75..00       MOV     ?V0 + 0,#0x0
   2427            uint8 *msg;
   2428          
   2429            msg = inMsg->asdu;
   \   00000E   12....       LCALL   ?Subroutine42 & 0xFFFF
   2430          
   2431            status = *msg++;
   2432            if ( status == ZSuccess )
   \                     ??CrossCallReturnLabel_298:
   \   000011   7011         JNZ     ??ZDO_ParseMgmtLqiRsp_0
   2433            {
   2434              neighborLqiEntries = *msg++;
   \   000013   E0           MOVX    A,@DPTR
   \   000014   F5..         MOV     ?V0 + 0,A
   \   000016   A3           INC     DPTR
   2435              startIndex = *msg++;
   \   000017   E0           MOVX    A,@DPTR
   \   000018   F5..         MOV     ?V0 + 4,A
   \   00001A   A3           INC     DPTR
   2436              neighborLqiCount = *msg++;
   \   00001B   E0           MOVX    A,@DPTR
   \   00001C   F5..         MOV     ?V0 + 1,A
   \   00001E   A3           INC     DPTR
   \   00001F   0E           INC     R6
   \   000020   0E           INC     R6
   \   000021   0E           INC     R6
   \   000022   AF83         MOV     R7,DPH
   2437            }
   2438          
   2439            // Allocate a buffer big enough to handle the list.
   2440            pRsp = (ZDO_MgmtLqiRsp_t *)osal_mem_alloc(
   2441                      sizeof( ZDO_MgmtLqiRsp_t ) + (neighborLqiCount * sizeof( neighborLqiItem_t )) );
   \                     ??ZDO_ParseMgmtLqiRsp_0:
   \   000024                ; Setup parameters for call to function osal_mem_alloc
   \   000024   E5..         MOV     A,?V0 + 1
   \   000026   75F00E       MOV     B,#0xe
   \   000029   12....       LCALL   ?Subroutine78 & 0xFFFF
   2442            if ( pRsp )
   \                     ??CrossCallReturnLabel_173:
   \   00002C   7001         JNZ     ??ZDO_ParseMgmtLqiRsp_1
   \   00002E   EB           MOV     A,R3
   \                     ??ZDO_ParseMgmtLqiRsp_1:
   \   00002F   6079         JZ      ??ZDO_ParseMgmtLqiRsp_2
   2443            {
   2444              uint8 x;
   2445              neighborLqiItem_t *pList = pRsp->list;
   \   000031   EA           MOV     A,R2
   \   000032   2404         ADD     A,#0x4
   \   000034   F5..         MOV     ?V0 + 2,A
   \   000036   EB           MOV     A,R3
   \   000037   3400         ADDC    A,#0x0
   \   000039   F5..         MOV     ?V0 + 3,A
   2446              pRsp->status = status;
   \   00003B   8A82         MOV     DPL,R2
   \   00003D   8B83         MOV     DPH,R3
   \   00003F   E5..         MOV     A,?V0 + 5
   \   000041   F0           MOVX    @DPTR,A
   2447              pRsp->neighborLqiEntries = neighborLqiEntries;
   \   000042   A3           INC     DPTR
   \   000043   E5..         MOV     A,?V0 + 0
   \   000045   12....       LCALL   ?Subroutine12 & 0xFFFF
   2448              pRsp->startIndex = startIndex;
   2449              pRsp->neighborLqiCount = neighborLqiCount;
   \                     ??CrossCallReturnLabel_22:
   \   000048   E5..         MOV     A,?V0 + 1
   \   00004A   F0           MOVX    @DPTR,A
   2450          
   2451              for ( x = 0; x < neighborLqiCount; x++ )
   \   00004B   75..00       MOV     ?V0 + 0,#0x0
   \   00004E   8053         SJMP    ??ZDO_ParseMgmtLqiRsp_3
   2452              {
   2453                osal_cpyExtAddr(pList->extPANId, msg);   //Copy extended PAN ID
   \                     ??ZDO_ParseMgmtLqiRsp_4:
   \   000050                ; Setup parameters for call to function osal_cpyExtAddr
   \   000050   EE           MOV     A,R6
   \   000051   FC           MOV     R4,A
   \   000052   EF           MOV     A,R7
   \   000053   FD           MOV     R5,A
   \   000054   E5..         MOV     A,?V0 + 2
   \   000056   2404         ADD     A,#0x4
   \   000058   FA           MOV     R2,A
   \   000059   E5..         MOV     A,?V0 + 3
   \   00005B   3400         ADDC    A,#0x0
   \   00005D   FB           MOV     R3,A
   \   00005E   12....       LCALL   ??osal_cpyExtAddr?relay
   2454                msg += Z_EXTADDR_LEN;
   2455          
   2456                msg += Z_EXTADDR_LEN;  // Throwing away IEEE.
   \   000061   EE           MOV     A,R6
   \   000062   2410         ADD     A,#0x10
   \   000064   12....       LCALL   ?Subroutine73 & 0xFFFF
   2457                pList->nwkAddr = BUILD_UINT16( msg[0], msg[1] );
   \                     ??CrossCallReturnLabel_153:
   \   000067   12....       LCALL   ?Subroutine60 & 0xFFFF
   \                     ??CrossCallReturnLabel_128:
   \   00006A   85..82       MOV     DPL,?V0 + 2
   \   00006D   85..83       MOV     DPH,?V0 + 3
   \   000070   12....       LCALL   ?Subroutine129 & 0xFFFF
   2458                msg += 2 + 1 + 1 + 1;      // Skip DeviceType, RxOnIdle, Rlationship, PermitJoining and Depth
   \                     ??CrossCallReturnLabel_310:
   \   000073   EE           MOV     A,R6
   \   000074   2405         ADD     A,#0x5
   \   000076   12....       LCALL   ?Subroutine73 & 0xFFFF
   2459                pList->rxLqi = *msg++;
   \                     ??CrossCallReturnLabel_154:
   \   000079   E0           MOVX    A,@DPTR
   \   00007A   C0E0         PUSH    A
   \   00007C   E5..         MOV     A,?V0 + 2
   \   00007E   240D         ADD     A,#0xd
   \   000080   F582         MOV     DPL,A
   \   000082   E5..         MOV     A,?V0 + 3
   \   000084   12....       LCALL   ??Subroutine77_1 & 0xFFFF
   \                     ??CrossCallReturnLabel_166:
   \   000087   D0E0         POP     A
   \   000089   12....       LCALL   ?Subroutine23 & 0xFFFF
   2460                pList->txQuality = 0;  // This is not specified OTA by ZigBee 1.1.
   \                     ??CrossCallReturnLabel_40:
   \   00008C   E5..         MOV     A,?V0 + 2
   \   00008E   240C         ADD     A,#0xc
   \   000090   F582         MOV     DPL,A
   \   000092   E5..         MOV     A,?V0 + 3
   \   000094   12....       LCALL   ?Subroutine76 & 0xFFFF
   2461                pList++;
   \                     ??CrossCallReturnLabel_159:
   \   000097   240E         ADD     A,#0xe
   \   000099   F5..         MOV     ?V0 + 2,A
   \   00009B   E5..         MOV     A,?V0 + 3
   \   00009D   3400         ADDC    A,#0x0
   \   00009F   F5..         MOV     ?V0 + 3,A
   2462              }
   \   0000A1   05..         INC     ?V0 + 0
   \                     ??ZDO_ParseMgmtLqiRsp_3:
   \   0000A3   E5..         MOV     A,?V0 + 0
   \   0000A5   C3           CLR     C
   \   0000A6   95..         SUBB    A,?V0 + 1
   \   0000A8   40A6         JC      ??ZDO_ParseMgmtLqiRsp_4
   2463            }
   2464          
   2465            return ( pRsp );
   \                     ??ZDO_ParseMgmtLqiRsp_2:
   \   0000AA   02....       LJMP    ?Subroutine135 & 0xFFFF
   2466          }

   \                                 In  segment BANKED_CODE, align 1, keep-with-next
   \                     ?Subroutine73:
   \   000000   12....       LCALL   ??Subroutine110_0 & 0xFFFF
   \                     ??CrossCallReturnLabel_335:
   \   000003   22           RET

   \                                 In  segment BANKED_CODE, align 1, keep-with-next
   \                     ?Subroutine12:
   \   000000   12....       LCALL   ?Subroutine94 & 0xFFFF
   \                     ??CrossCallReturnLabel_203:
   \   000003   A3           INC     DPTR
   \   000004   E5..         MOV     A,?V0 + 4
   \   000006   12....       LCALL   ?Subroutine93 & 0xFFFF
   \                     ??CrossCallReturnLabel_200:
   \   000009   22           RET

   \                                 In  segment BANKED_CODE, align 1, keep-with-next
   \                     ?Subroutine93:
   \   000000   F0           MOVX    @DPTR,A
   \   000001   8A82         MOV     DPL,R2
   \   000003   8B83         MOV     DPH,R3
   \   000005   A3           INC     DPTR
   \   000006   A3           INC     DPTR
   \   000007   A3           INC     DPTR
   \   000008   22           RET

   \                                 In  segment BANKED_CODE, align 1, keep-with-next
   \                     ?Subroutine78:
   \   000000   A4           MUL     AB
   \   000001   F8           MOV     R0,A
   \   000002   A9F0         MOV     R1,B
   \   000004   7404         MOV     A,#0x4
   \   000006   12....       LCALL   ?Subroutine113 & 0xFFFF
   \                     ??CrossCallReturnLabel_256:
   \   000009   8A..         MOV     ?V0 + 6,R2
   \   00000B   8B..         MOV     ?V0 + 7,R3
   \   00000D   EA           MOV     A,R2
   \   00000E   22           RET

   \                                 In  segment BANKED_CODE, align 1, keep-with-next
   \                     ?Subroutine42:
   \   000000   12....       LCALL   ?Subroutine96 & 0xFFFF
   \                     ??CrossCallReturnLabel_209:
   \   000003   F5..         MOV     ?V0 + 5,A
   \   000005   02....       LJMP    ?Subroutine127 & 0xFFFF
   2467          
   2468          /*********************************************************************
   2469           * @fn          ZDO_ParseMgmNwkDiscRsp
   2470           *
   2471           * @brief       This function parses the incoming Management
   2472           *              Network Discover response.
   2473           *
   2474           * @param       inMsg - incoming message
   2475           *
   2476           * @return      pointer to parsed response.  This structure was
   2477           *          allocated using osal_mem_alloc, so it must be freed
   2478           *          by the calling function [osal_mem_free()].
   2479           */

   \                                 In  segment BANKED_CODE, align 1, keep-with-next
   2480          ZDO_MgmNwkDiscRsp_t *ZDO_ParseMgmNwkDiscRsp( zdoIncomingMsg_t *inMsg )
   \                     ZDO_ParseMgmNwkDiscRsp:
   2481          {
   \   000000   74F0         MOV     A,#-0x10
   \   000002   12....       LCALL   ?BANKED_ENTER_XDATA
   \   000005                ; Saved register size: 16
   \   000005                ; Auto size: 0
   2482            ZDO_MgmNwkDiscRsp_t *pRsp;
   2483            uint8 status;
   2484            uint8 networkCount = 0;
   \   000005   75..00       MOV     ?V0 + 1,#0x0
   2485            uint8 startIndex = 0;
   \   000008   75..00       MOV     ?V0 + 0,#0x0
   2486            uint8 networkListCount = 0;
   \   00000B   12....       LCALL   ?Subroutine43 & 0xFFFF
   2487            uint8 *msg;
   2488          
   2489            msg = inMsg->asdu;
   2490            status = *msg++;
   \                     ??CrossCallReturnLabel_90:
   \   00000E   F5..         MOV     ?V0 + 3,A
   \   000010   A3           INC     DPTR
   \   000011   AE82         MOV     R6,DPL
   \   000013   AF83         MOV     R7,DPH
   2491          
   2492            if ( status == ZSuccess )
   \   000015   700A         JNZ     ??CrossCallReturnLabel_129
   2493            {
   2494              networkCount = *msg++;
   \   000017   E0           MOVX    A,@DPTR
   \   000018   F5..         MOV     ?V0 + 1,A
   \   00001A   A3           INC     DPTR
   2495              startIndex = *msg++;
   \   00001B   E0           MOVX    A,@DPTR
   \   00001C   F5..         MOV     ?V0 + 0,A
   \   00001E   12....       LCALL   ?Subroutine61 & 0xFFFF
   2496              networkListCount = *msg++;
   2497            }
   2498          
   2499            // Allocate a buffer big enough to handle the list.
   2500            pRsp = (ZDO_MgmNwkDiscRsp_t *)osal_mem_alloc( sizeof( ZDO_MgmNwkDiscRsp_t )
   2501                                            + (networkListCount * sizeof( mgmtNwkDiscItem_t )) );
   \                     ??CrossCallReturnLabel_129:
   \   000021                ; Setup parameters for call to function osal_mem_alloc
   \   000021   85....       MOV     ?V0 + 4,?V0 + 2
   \   000024   75..00       MOV     ?V0 + 5,#0x0
   \   000027   7404         MOV     A,#0x4
   \   000029   78..         MOV     R0,#?V0 + 4
   \   00002B   12....       LCALL   ?S_SHL
   \   00002E   7404         MOV     A,#0x4
   \   000030   25..         ADD     A,?V0 + 4
   \   000032   FA           MOV     R2,A
   \   000033   E4           CLR     A
   \   000034   35..         ADDC    A,?V0 + 5
   \   000036   FB           MOV     R3,A
   \   000037   12....       LCALL   ??osal_mem_alloc?relay
   \   00003A   8A..         MOV     ?V0 + 6,R2
   \   00003C   8B..         MOV     ?V0 + 7,R3
   2502            if ( pRsp )
   \   00003E   EA           MOV     A,R2
   \   00003F   7001         JNZ     ??ZDO_ParseMgmNwkDiscRsp_0
   \   000041   EB           MOV     A,R3
   \                     ??ZDO_ParseMgmNwkDiscRsp_0:
   \   000042   7003         JNZ     $+5
   \   000044   02....       LJMP    ??ZDO_ParseMgmNwkDiscRsp_1 & 0xFFFF
   2503            {
   2504              uint8 x;
   2505              mgmtNwkDiscItem_t *pList;
   2506          
   2507              pRsp->status = status;
   \   000047   8A82         MOV     DPL,R2
   \   000049   8B83         MOV     DPH,R3
   \   00004B   E5..         MOV     A,?V0 + 3
   \   00004D   F0           MOVX    @DPTR,A
   2508              pRsp->networkCount = networkCount;
   \   00004E   A3           INC     DPTR
   \   00004F   E5..         MOV     A,?V0 + 1
   \   000051   12....       LCALL   ?Subroutine25 & 0xFFFF
   2509              pRsp->startIndex = startIndex;
   \                     ??CrossCallReturnLabel_45:
   \   000054   E5..         MOV     A,?V0 + 0
   \   000056   12....       LCALL   ?Subroutine24 & 0xFFFF
   2510              pRsp->networkListCount = networkListCount;
   2511              pList = pRsp->list;
   \                     ??CrossCallReturnLabel_41:
   \   000059   12....       LCALL   ?Subroutine80 & 0xFFFF
   2512          
   2513              for ( x = 0; x < networkListCount; x++ )
   \                     ??CrossCallReturnLabel_177:
   \   00005C   75..00       MOV     ?V0 + 3,#0x0
   \   00005F   8077         SJMP    ??ZDO_ParseMgmNwkDiscRsp_2
   2514              {
   2515                osal_cpyExtAddr(pList->extendedPANID, msg);   //Copy extended PAN ID
   \                     ??ZDO_ParseMgmNwkDiscRsp_3:
   \   000061                ; Setup parameters for call to function osal_cpyExtAddr
   \   000061   EE           MOV     A,R6
   \   000062   FC           MOV     R4,A
   \   000063   EF           MOV     A,R7
   \   000064   FD           MOV     R5,A
   \   000065   AA..         MOV     R2,?V0 + 0
   \   000067   AB..         MOV     R3,?V0 + 1
   \   000069   12....       LCALL   ??osal_cpyExtAddr?relay
   2516                pList->PANId = BUILD_UINT16( msg[0], msg[1] );
   \   00006C   12....       LCALL   ?Subroutine49 & 0xFFFF
   \                     ??CrossCallReturnLabel_286:
   \   00006F   A3           INC     DPTR
   \   000070   A3           INC     DPTR
   \   000071   A3           INC     DPTR
   \   000072   A3           INC     DPTR
   \   000073   A3           INC     DPTR
   \   000074   A3           INC     DPTR
   \   000075   A3           INC     DPTR
   \   000076   A3           INC     DPTR
   \   000077   12....       LCALL   ?Subroutine129 & 0xFFFF
   2517                msg += Z_EXTADDR_LEN;
   \                     ??CrossCallReturnLabel_311:
   \   00007A   EE           MOV     A,R6
   \   00007B   2408         ADD     A,#0x8
   \   00007D   12....       LCALL   ?Subroutine73 & 0xFFFF
   2518          
   2519                pList->logicalChannel = *msg++;
   \                     ??CrossCallReturnLabel_155:
   \   000080   12....       LCALL   ?Subroutine50 & 0xFFFF
   \                     ??CrossCallReturnLabel_104:
   \   000083   12....       LCALL   ?Subroutine22 & 0xFFFF
   2520                pList->stackProfile = (*msg) & 0x0F;
   \                     ??CrossCallReturnLabel_36:
   \   000086   540F         ANL     A,#0xf
   \   000088   C0E0         PUSH    A
   \   00008A   E5..         MOV     A,?V0 + 0
   \   00008C   240B         ADD     A,#0xb
   \   00008E   12....       LCALL   ??Subroutine77_0 & 0xFFFF
   \                     ??CrossCallReturnLabel_167:
   \   000091   D0E0         POP     A
   \   000093   12....       LCALL   ?Subroutine27 & 0xFFFF
   2521                pList->version = (*msg++ >> 4) & 0x0F;
   \                     ??CrossCallReturnLabel_55:
   \   000096   C0E0         PUSH    A
   \   000098   E5..         MOV     A,?V0 + 0
   \   00009A   240C         ADD     A,#0xc
   \   00009C   12....       LCALL   ??Subroutine77_0 & 0xFFFF
   \                     ??CrossCallReturnLabel_168:
   \   00009F   D0E0         POP     A
   \   0000A1   12....       LCALL   ?Subroutine11 & 0xFFFF
   2522                pList->beaconOrder = (*msg) & 0x0F;
   \                     ??CrossCallReturnLabel_20:
   \   0000A4   540F         ANL     A,#0xf
   \   0000A6   C0E0         PUSH    A
   \   0000A8   E5..         MOV     A,?V0 + 0
   \   0000AA   240D         ADD     A,#0xd
   \   0000AC   12....       LCALL   ??Subroutine77_0 & 0xFFFF
   \                     ??CrossCallReturnLabel_169:
   \   0000AF   D0E0         POP     A
   \   0000B1   12....       LCALL   ?Subroutine27 & 0xFFFF
   2523                pList->superFrameOrder = (*msg++ >> 4) & 0x0F;
   \                     ??CrossCallReturnLabel_56:
   \   0000B4   C0E0         PUSH    A
   \   0000B6   12....       LCALL   ?Subroutine77 & 0xFFFF
   \                     ??CrossCallReturnLabel_170:
   \   0000B9   D0E0         POP     A
   \   0000BB   12....       LCALL   ?Subroutine11 & 0xFFFF
   2524                pList->permitJoining = *msg++;
   \                     ??CrossCallReturnLabel_21:
   \   0000BE   C0E0         PUSH    A
   \   0000C0   E5..         MOV     A,?V0 + 0
   \   0000C2   240F         ADD     A,#0xf
   \   0000C4   12....       LCALL   ??Subroutine77_0 & 0xFFFF
   \                     ??CrossCallReturnLabel_171:
   \   0000C7   D0E0         POP     A
   \   0000C9   12....       LCALL   ?Subroutine21 & 0xFFFF
   2525                pList++;
   \                     ??CrossCallReturnLabel_35:
   \   0000CC   2410         ADD     A,#0x10
   \   0000CE   F5..         MOV     ?V0 + 0,A
   \   0000D0   E5..         MOV     A,?V0 + 1
   \   0000D2   3400         ADDC    A,#0x0
   \   0000D4   F5..         MOV     ?V0 + 1,A
   2526              }
   \   0000D6   05..         INC     ?V0 + 3
   \                     ??ZDO_ParseMgmNwkDiscRsp_2:
   \   0000D8   E5..         MOV     A,?V0 + 3
   \   0000DA   C3           CLR     C
   \   0000DB   95..         SUBB    A,?V0 + 2
   \   0000DD   4082         JC      ??ZDO_ParseMgmNwkDiscRsp_3
   2527            }
   2528          
   2529            return ( pRsp );
   \                     ??ZDO_ParseMgmNwkDiscRsp_1:
   \   0000DF   02....       LJMP    ?Subroutine135 & 0xFFFF
   2530          }

   \                                 In  segment BANKED_CODE, align 1, keep-with-next
   \                     ?Subroutine27:
   \   000000   12....       LCALL   ??Subroutine90_0 & 0xFFFF
   \                     ??CrossCallReturnLabel_331:
   \   000003   E0           MOVX    A,@DPTR
   \   000004   C4           SWAP    A
   \   000005   540F         ANL     A,#0xf
   \   000007   22           RET

   \                                 In  segment BANKED_CODE, align 1, keep-with-next
   \                     ?Subroutine22:
   \   000000   A3           INC     DPTR
   \   000001   A3           INC     DPTR
   \   000002   A3           INC     DPTR
   \   000003   A3           INC     DPTR
   \   000004   A3           INC     DPTR
   \   000005   12....       LCALL   ?Subroutine89 & 0xFFFF
   \                     ??CrossCallReturnLabel_191:
   \   000008   E0           MOVX    A,@DPTR
   \   000009   22           RET

   \                                 In  segment BANKED_CODE, align 1, keep-with-next
   \                     ?Subroutine80:
   \   000000   EA           MOV     A,R2
   \   000001   2404         ADD     A,#0x4
   \   000003   F5..         MOV     ?V0 + 0,A
   \   000005   EB           MOV     A,R3
   \   000006   3400         ADDC    A,#0x0
   \   000008   F5..         MOV     ?V0 + 1,A
   \   00000A   22           RET

   \                                 In  segment BANKED_CODE, align 1, keep-with-next
   \                     ?Subroutine61:
   \   000000   A3           INC     DPTR
   \   000001   E0           MOVX    A,@DPTR
   \   000002   F5..         MOV     ?V0 + 2,A
   \   000004   A3           INC     DPTR
   \   000005   0E           INC     R6
   \   000006   0E           INC     R6
   \   000007   0E           INC     R6
   \   000008   AF83         MOV     R7,DPH
   \   00000A   22           RET

   \                                 In  segment BANKED_CODE, align 1, keep-with-next
   \                     ?Subroutine24:
   \   000000   12....       LCALL   ?Subroutine93 & 0xFFFF
   \                     ??CrossCallReturnLabel_201:
   \   000003   E5..         MOV     A,?V0 + 2
   \   000005   F0           MOVX    @DPTR,A
   \   000006   22           RET

   \                                 In  segment BANKED_CODE, align 1, keep-with-next
   \                     ?Subroutine50:
   \   000000   12....       LCALL   ?Subroutine100 & 0xFFFF
   \                     ??CrossCallReturnLabel_272:
   \   000003   22           RET
   2531          
   2532          /*********************************************************************
   2533           * @fn          ZDO_ParseMgmtRtgRsp
   2534           *
   2535           * @brief       This function parses the incoming Management
   2536           *              Routing response.
   2537           *
   2538           * @param       inMsg - incoming message
   2539           *
   2540           * @return      a pointer to parsed response structure (NULL if not allocated).
   2541           *          This structure was allocated using osal_mem_alloc, so it must be freed
   2542           *          by the calling function [osal_mem_free()].
   2543           */

   \                                 In  segment BANKED_CODE, align 1, keep-with-next
   2544          ZDO_MgmtRtgRsp_t *ZDO_ParseMgmtRtgRsp( zdoIncomingMsg_t *inMsg )
   \                     ZDO_ParseMgmtRtgRsp:
   2545          {
   \   000000   74F2         MOV     A,#-0xe
   \   000002   12....       LCALL   ?BANKED_ENTER_XDATA
   \   000005                ; Saved register size: 14
   \   000005                ; Auto size: 0
   2546            ZDO_MgmtRtgRsp_t *pRsp;
   2547            uint8 status;
   2548            uint8 rtgCount = 0;
   \   000005   75..00       MOV     ?V0 + 3,#0x0
   2549            uint8 startIndex = 0;
   \   000008   75..00       MOV     ?V0 + 4,#0x0
   2550            uint8 rtgListCount = 0;
   \   00000B   75..00       MOV     ?V0 + 5,#0x0
   2551            uint8 *msg;
   2552          
   2553            msg = inMsg->asdu;
   \   00000E   12....       LCALL   ??Subroutine43_0 & 0xFFFF
   2554          
   2555            status = *msg++;
   \                     ??CrossCallReturnLabel_93:
   \   000011   F5..         MOV     ?V0 + 2,A
   \   000013   A3           INC     DPTR
   \   000014   AE82         MOV     R6,DPL
   \   000016   AF83         MOV     R7,DPH
   2556            if ( status == ZSuccess )
   \   000018   7011         JNZ     ??ZDO_ParseMgmtRtgRsp_0
   2557            {
   2558              rtgCount = *msg++;
   \   00001A   E0           MOVX    A,@DPTR
   \   00001B   F5..         MOV     ?V0 + 3,A
   \   00001D   A3           INC     DPTR
   2559              startIndex = *msg++;
   \   00001E   E0           MOVX    A,@DPTR
   \   00001F   F5..         MOV     ?V0 + 4,A
   \   000021   A3           INC     DPTR
   2560              rtgListCount = *msg++;
   \   000022   E0           MOVX    A,@DPTR
   \   000023   F5..         MOV     ?V0 + 5,A
   \   000025   A3           INC     DPTR
   \   000026   0E           INC     R6
   \   000027   0E           INC     R6
   \   000028   0E           INC     R6
   \   000029   AF83         MOV     R7,DPH
   2561            }
   2562          
   2563            // Allocate a buffer big enough to handle the list
   2564            pRsp = (ZDO_MgmtRtgRsp_t *)osal_mem_alloc(
   2565                    sizeof( ZDO_MgmtRtgRsp_t ) + (rtgListCount * sizeof( rtgItem_t )) );
   \                     ??ZDO_ParseMgmtRtgRsp_0:
   \   00002B                ; Setup parameters for call to function osal_mem_alloc
   \   00002B   E5..         MOV     A,?V0 + 5
   \   00002D   75F006       MOV     B,#0x6
   \   000030   A4           MUL     AB
   \   000031   F8           MOV     R0,A
   \   000032   A9F0         MOV     R1,B
   \   000034   7404         MOV     A,#0x4
   \   000036   12....       LCALL   ?Subroutine79 & 0xFFFF
   2566            if ( pRsp )
   \                     ??CrossCallReturnLabel_176:
   \   000039   EA           MOV     A,R2
   \   00003A   7001         JNZ     ??ZDO_ParseMgmtRtgRsp_1
   \   00003C   EB           MOV     A,R3
   \                     ??ZDO_ParseMgmtRtgRsp_1:
   \   00003D   604D         JZ      ??ZDO_ParseMgmtRtgRsp_2
   2567            {
   2568              uint8 x;
   2569              rtgItem_t *pList = pRsp->list;
   \   00003F   EA           MOV     A,R2
   \   000040   2404         ADD     A,#0x4
   \   000042   F8           MOV     R0,A
   \   000043   EB           MOV     A,R3
   \   000044   3400         ADDC    A,#0x0
   \   000046   F9           MOV     R1,A
   2570              pRsp->status = status;
   \   000047   8A82         MOV     DPL,R2
   \   000049   8B83         MOV     DPH,R3
   \   00004B   E5..         MOV     A,?V0 + 2
   \   00004D   F0           MOVX    @DPTR,A
   2571              pRsp->rtgCount = rtgCount;
   \   00004E   A3           INC     DPTR
   \   00004F   E5..         MOV     A,?V0 + 3
   \   000051   12....       LCALL   ?Subroutine12 & 0xFFFF
   2572              pRsp->startIndex = startIndex;
   2573              pRsp->rtgListCount = rtgListCount;
   \                     ??CrossCallReturnLabel_23:
   \   000054   E5..         MOV     A,?V0 + 5
   \   000056   F0           MOVX    @DPTR,A
   2574          
   2575              for ( x = 0; x < rtgListCount; x++ )
   \   000057   75..00       MOV     ?V0 + 0,#0x0
   \   00005A   8029         SJMP    ??ZDO_ParseMgmtRtgRsp_3
   2576              {
   2577                pList->dstAddress = BUILD_UINT16( msg[0], msg[1] );
   \                     ??ZDO_ParseMgmtRtgRsp_4:
   \   00005C   8E82         MOV     DPL,R6
   \   00005E   8F83         MOV     DPH,R7
   \   000060   E0           MOVX    A,@DPTR
   \   000061   12....       LCALL   ?Subroutine66 & 0xFFFF
   \                     ??CrossCallReturnLabel_324:
   \   000064   12....       LCALL   ?Subroutine17 & 0xFFFF
   2578                msg += 2;
   2579                pList->status = *msg++;
   \                     ??CrossCallReturnLabel_28:
   \   000067   8E82         MOV     DPL,R6
   \   000069   8F83         MOV     DPH,R7
   \   00006B   E0           MOVX    A,@DPTR
   \   00006C   8882         MOV     DPL,R0
   \   00006E   8983         MOV     DPH,R1
   \   000070   12....       LCALL   ?Subroutine22 & 0xFFFF
   2580                pList->nextHopAddress = BUILD_UINT16( msg[0], msg[1] );
   \                     ??CrossCallReturnLabel_37:
   \   000073   12....       LCALL   ?Subroutine66 & 0xFFFF
   \                     ??CrossCallReturnLabel_325:
   \   000076   A3           INC     DPTR
   \   000077   A3           INC     DPTR
   \   000078   12....       LCALL   ?Subroutine17 & 0xFFFF
   2581                msg += 2;
   2582                pList++;
   \                     ??CrossCallReturnLabel_29:
   \   00007B   E8           MOV     A,R0
   \   00007C   2406         ADD     A,#0x6
   \   00007E   F8           MOV     R0,A
   \   00007F   E9           MOV     A,R1
   \   000080   3400         ADDC    A,#0x0
   \   000082   F9           MOV     R1,A
   2583              }
   \   000083   05..         INC     ?V0 + 0
   \                     ??ZDO_ParseMgmtRtgRsp_3:
   \   000085   E5..         MOV     A,?V0 + 0
   \   000087   C3           CLR     C
   \   000088   95..         SUBB    A,?V0 + 5
   \   00008A   40D0         JC      ??ZDO_ParseMgmtRtgRsp_4
   2584            }
   2585          
   2586            return ( pRsp );
   \                     ??ZDO_ParseMgmtRtgRsp_2:
   \   00008C   02....       LJMP    ?Subroutine134 & 0xFFFF
   2587          }

   \                                 In  segment BANKED_CODE, align 1, keep-with-next
   \                     ?Subroutine66:
   \   000000   F5..         MOV     ?V0 + 2,A
   \   000002   A3           INC     DPTR
   \   000003   E0           MOVX    A,@DPTR
   \   000004   FD           MOV     R5,A
   \   000005   E5..         MOV     A,?V0 + 2
   \   000007   02....       LJMP    ?Subroutine130 & 0xFFFF

   \                                 In  segment BANKED_CODE, align 1, keep-with-next
   \                     ?Subroutine17:
   \   000000   F0           MOVX    @DPTR,A
   \   000001   A3           INC     DPTR
   \   000002   ED           MOV     A,R5
   \   000003   12....       LCALL   ??Subroutine87_0 & 0xFFFF
   \                     ??CrossCallReturnLabel_189:
   \   000006   22           RET
   2588          
   2589          /*********************************************************************
   2590           * @fn          ZDO_ParseMgmtBindRsp
   2591           *
   2592           * @brief       This function parses the incoming Management
   2593           *              Binding response.
   2594           *
   2595           * @param       inMsg - pointer to message to parse
   2596           *
   2597           * @return      a pointer to parsed response structure (NULL if not allocated).
   2598           *          This structure was allocated using osal_mem_alloc, so it must be freed
   2599           *          by the calling function [osal_mem_free()].
   2600           */

   \                                 In  segment BANKED_CODE, align 1, keep-with-next
   2601          ZDO_MgmtBindRsp_t *ZDO_ParseMgmtBindRsp( zdoIncomingMsg_t *inMsg )
   \                     ZDO_ParseMgmtBindRsp:
   2602          {
   \   000000   74F0         MOV     A,#-0x10
   \   000002   12....       LCALL   ?BANKED_ENTER_XDATA
   \   000005                ; Saved register size: 16
   \   000005                ; Auto size: 0
   2603            ZDO_MgmtBindRsp_t *pRsp;
   2604            uint8 status;
   2605            uint8 bindingCount = 0;
   \   000005   75..00       MOV     ?V0 + 4,#0x0
   2606            uint8 startIndex = 0;
   \   000008   75..00       MOV     ?V0 + 3,#0x0
   2607            uint8 bindingListCount = 0;
   \   00000B   75..00       MOV     ?V0 + 2,#0x0
   2608            uint8 *msg;
   2609          
   2610            msg = inMsg->asdu;
   \   00000E   12....       LCALL   ?Subroutine42 & 0xFFFF
   2611          
   2612            status = *msg++;
   2613            if ( status == ZSuccess )
   \                     ??CrossCallReturnLabel_299:
   \   000011   700A         JNZ     ??CrossCallReturnLabel_130
   2614            {
   2615              bindingCount = *msg++;
   \   000013   E0           MOVX    A,@DPTR
   \   000014   F5..         MOV     ?V0 + 4,A
   \   000016   A3           INC     DPTR
   2616              startIndex = *msg++;
   \   000017   E0           MOVX    A,@DPTR
   \   000018   F5..         MOV     ?V0 + 3,A
   \   00001A   12....       LCALL   ?Subroutine61 & 0xFFFF
   2617              bindingListCount = *msg++;
   2618            }
   2619          
   2620            // Allocate a buffer big enough to handle the list
   2621            pRsp = (ZDO_MgmtBindRsp_t *)osal_mem_alloc(
   2622                    (sizeof ( ZDO_MgmtBindRsp_t ) + (bindingListCount * sizeof( apsBindingItem_t ))) );
   \                     ??CrossCallReturnLabel_130:
   \   00001D                ; Setup parameters for call to function osal_mem_alloc
   \   00001D   E5..         MOV     A,?V0 + 2
   \   00001F   75F015       MOV     B,#0x15
   \   000022   12....       LCALL   ?Subroutine78 & 0xFFFF
   2623            if ( pRsp )
   \                     ??CrossCallReturnLabel_174:
   \   000025   7001         JNZ     ??ZDO_ParseMgmtBindRsp_0
   \   000027   EB           MOV     A,R3
   \                     ??ZDO_ParseMgmtBindRsp_0:
   \   000028   6055         JZ      ??ZDO_ParseMgmtBindRsp_1
   2624            {
   2625              uint8 x;
   2626              apsBindingItem_t *pList = pRsp->list;
   \   00002A   12....       LCALL   ?Subroutine80 & 0xFFFF
   2627              pRsp->status = status;
   \                     ??CrossCallReturnLabel_178:
   \   00002D   8A82         MOV     DPL,R2
   \   00002F   8B83         MOV     DPH,R3
   \   000031   E5..         MOV     A,?V0 + 5
   \   000033   F0           MOVX    @DPTR,A
   2628              pRsp->bindingCount = bindingCount;
   \   000034   A3           INC     DPTR
   \   000035   E5..         MOV     A,?V0 + 4
   \   000037   12....       LCALL   ?Subroutine25 & 0xFFFF
   2629              pRsp->startIndex = startIndex;
   \                     ??CrossCallReturnLabel_46:
   \   00003A   E5..         MOV     A,?V0 + 3
   \   00003C   12....       LCALL   ?Subroutine24 & 0xFFFF
   2630              pRsp->bindingListCount = bindingListCount;
   2631          
   2632              for ( x = 0; x < bindingListCount; x++ )
   \                     ??CrossCallReturnLabel_42:
   \   00003F   75..00       MOV     ?V0 + 3,#0x0
   \   000042   8014         SJMP    ??ZDO_ParseMgmtBindRsp_2
   2633              {
   2634                osal_cpyExtAddr( pList->srcAddr, msg );
   2635                msg += Z_EXTADDR_LEN;
   2636                pList->srcEP = *msg++;
   2637          
   2638                // Get the Cluster ID
   2639          
   2640                pList->clusterID = BUILD_UINT16( msg[0], msg[1] );
   2641                msg += 2;
   2642                pList->dstAddr.addrMode = *msg++;
   2643                if ( pList->dstAddr.addrMode == Addr64Bit )
   2644                {
   2645                  osal_cpyExtAddr( pList->dstAddr.addr.extAddr, msg );
   2646                  msg += Z_EXTADDR_LEN;
   2647                  pList->dstEP = *msg++;
   2648                }
   2649                else
   2650                {
   2651                  pList->dstAddr.addr.shortAddr = BUILD_UINT16( msg[0], msg[1] );
   \                     ??ZDO_ParseMgmtBindRsp_3:
   \   000044   12....       LCALL   ?Subroutine38 & 0xFFFF
   \                     ??CrossCallReturnLabel_85:
   \   000047   12....       LCALL   ??Subroutine8_0 & 0xFFFF
   2652                  msg += 2;
   2653                }
   2654          
   2655                pList++;
   \                     ??CrossCallReturnLabel_16:
   \   00004A   E5..         MOV     A,?V0 + 0
   \   00004C   2415         ADD     A,#0x15
   \   00004E   F5..         MOV     ?V0 + 0,A
   \   000050   E5..         MOV     A,?V0 + 1
   \   000052   3400         ADDC    A,#0x0
   \   000054   F5..         MOV     ?V0 + 1,A
   \   000056   05..         INC     ?V0 + 3
   \                     ??ZDO_ParseMgmtBindRsp_2:
   \   000058   E5..         MOV     A,?V0 + 3
   \   00005A   C3           CLR     C
   \   00005B   95..         SUBB    A,?V0 + 2
   \   00005D   5020         JNC     ??ZDO_ParseMgmtBindRsp_1
   \   00005F                ; Setup parameters for call to function osal_cpyExtAddr
   \   00005F   12....       LCALL   ?Subroutine0 & 0xFFFF
   \                     ??CrossCallReturnLabel_1:
   \   000062   70E0         JNZ     ??ZDO_ParseMgmtBindRsp_3
   \   000064                ; Setup parameters for call to function osal_cpyExtAddr
   \   000064   EE           MOV     A,R6
   \   000065   FC           MOV     R4,A
   \   000066   EF           MOV     A,R7
   \   000067   FD           MOV     R5,A
   \   000068   E5..         MOV     A,?V0 + 0
   \   00006A   240B         ADD     A,#0xb
   \   00006C   12....       LCALL   ?Subroutine68 & 0xFFFF
   \                     ??CrossCallReturnLabel_140:
   \   00006F   C0E0         PUSH    A
   \   000071   E5..         MOV     A,?V0 + 0
   \   000073   2414         ADD     A,#0x14
   \   000075   12....       LCALL   ??Subroutine77_0 & 0xFFFF
   \                     ??CrossCallReturnLabel_172:
   \   000078   D0E0         POP     A
   \   00007A   12....       LCALL   ?Subroutine28 & 0xFFFF
   \                     ??CrossCallReturnLabel_58:
   \   00007D   80CB         SJMP    ??CrossCallReturnLabel_16
   2656              }
   2657            }
   2658          
   2659            return ( pRsp );
   \                     ??ZDO_ParseMgmtBindRsp_1:
   \   00007F                REQUIRE ?Subroutine135
   \   00007F                ; // Fall through to label ?Subroutine135
   2660          }
   2661          
   2662          /*********************************************************************
   2663           * @fn          ZDO_ParseUserDescRsp
   2664           *
   2665           * @brief       This function parses the incoming User
   2666           *              Descriptor Response.
   2667           *
   2668           * @param       inMsg - incoming response message
   2669           *
   2670           * @return      a pointer to parsed response structure (NULL if not allocated).
   2671           *          This structure was allocated using osal_mem_alloc, so it must be freed
   2672           *          by the calling function [osal_mem_free()].
   2673           */

   \                                 In  segment BANKED_CODE, align 1, keep-with-next
   2674          ZDO_UserDescRsp_t *ZDO_ParseUserDescRsp( zdoIncomingMsg_t *inMsg )
   \                     ZDO_ParseUserDescRsp:
   2675          {
   \   000000   74F1         MOV     A,#-0xf
   \   000002   12....       LCALL   ?BANKED_ENTER_XDATA
   \   000005                ; Saved register size: 15
   \   000005                ; Auto size: 0
   2676            ZDO_UserDescRsp_t *pRsp;
   2677            uint8 *msg;
   2678            uint8 descLen = 0;
   \   000005   12....       LCALL   ?Subroutine43 & 0xFFFF
   2679          
   2680            msg = inMsg->asdu;
   2681          
   2682            if ( msg[0] == ZSuccess )
   \                     ??CrossCallReturnLabel_91:
   \   000008   7006         JNZ     ??ZDO_ParseUserDescRsp_0
   2683              descLen = msg[3];
   \   00000A   A3           INC     DPTR
   \   00000B   A3           INC     DPTR
   \   00000C   A3           INC     DPTR
   \   00000D   E0           MOVX    A,@DPTR
   \   00000E   F5..         MOV     ?V0 + 2,A
   2684          
   2685            pRsp = (ZDO_UserDescRsp_t *)osal_mem_alloc( sizeof ( ZDO_UserDescRsp_t ) + descLen );
   \                     ??ZDO_ParseUserDescRsp_0:
   \   000010                ; Setup parameters for call to function osal_mem_alloc
   \   000010   85....       MOV     ?V0 + 0,?V0 + 2
   \   000013   7404         MOV     A,#0x4
   \   000015   25..         ADD     A,?V0 + 0
   \   000017   FA           MOV     R2,A
   \   000018   E4           CLR     A
   \   000019   3400         ADDC    A,#0x0
   \   00001B   FB           MOV     R3,A
   \   00001C   12....       LCALL   ??osal_mem_alloc?relay
   \   00001F   8A..         MOV     ?V0 + 0,R2
   \   000021   8B..         MOV     ?V0 + 1,R3
   2686            if ( pRsp )
   \   000023   EA           MOV     A,R2
   \   000024   7001         JNZ     ??ZDO_ParseUserDescRsp_1
   \   000026   EB           MOV     A,R3
   \                     ??ZDO_ParseUserDescRsp_1:
   \   000027   604B         JZ      ??ZDO_ParseUserDescRsp_2
   2687            {
   2688              pRsp->status = msg[0];
   \   000029   8E82         MOV     DPL,R6
   \   00002B   8F83         MOV     DPH,R7
   \   00002D   E0           MOVX    A,@DPTR
   \   00002E   8A82         MOV     DPL,R2
   \   000030   8B83         MOV     DPH,R3
   \   000032   12....       LCALL   ?Subroutine30 & 0xFFFF
   2689              pRsp->nwkAddr = BUILD_UINT16( msg[1], msg[2] );
   \                     ??CrossCallReturnLabel_61:
   \   000035   8E82         MOV     DPL,R6
   \   000037   8F83         MOV     DPH,R7
   \   000039   A3           INC     DPTR
   \   00003A   A3           INC     DPTR
   \   00003B   E0           MOVX    A,@DPTR
   \   00003C   F8           MOV     R0,A
   \   00003D   E4           CLR     A
   \   00003E   C8           XCH     A,R0
   \   00003F   F9           MOV     R1,A
   \   000040   EA           MOV     A,R2
   \   000041   85..82       MOV     DPL,?V0 + 0
   \   000044   8B83         MOV     DPH,R3
   \   000046   A3           INC     DPTR
   \   000047   12....       LCALL   ?Subroutine129 & 0xFFFF
   2690              pRsp->length = descLen;
   \                     ??CrossCallReturnLabel_312:
   \   00004A   85..82       MOV     DPL,?V0 + 0
   \   00004D   8B83         MOV     DPH,R3
   \   00004F   A3           INC     DPTR
   \   000050   A3           INC     DPTR
   \   000051   A3           INC     DPTR
   \   000052   E5..         MOV     A,?V0 + 2
   \   000054   F0           MOVX    @DPTR,A
   2691              if ( descLen )
   \   000055   601D         JZ      ??ZDO_ParseUserDescRsp_2
   2692                osal_memcpy( pRsp->desc, &msg[4], descLen );
   \   000057                ; Setup parameters for call to function osal_memcpy
   \   000057   EE           MOV     A,R6
   \   000058   2404         ADD     A,#0x4
   \   00005A   F5..         MOV     ?V0 + 4,A
   \   00005C   EF           MOV     A,R7
   \   00005D   3400         ADDC    A,#0x0
   \   00005F   F5..         MOV     ?V0 + 5,A
   \   000061   88..         MOV     ?V0 + 6,R0
   \   000063   78..         MOV     R0,#?V0 + 4
   \   000065   12....       LCALL   ?PUSH_XSTACK_I_THREE
   \   000068   AC..         MOV     R4,?V0 + 2
   \   00006A   7D00         MOV     R5,#0x0
   \   00006C   E5..         MOV     A,?V0 + 0
   \   00006E   12....       LCALL   ?Subroutine75 & 0xFFFF
   \                     ??CrossCallReturnLabel_303:
   \   000071   12....       LCALL   ?DEALLOC_XSTACK8
   2693            }
   2694          
   2695            return ( pRsp );
   \                     ??ZDO_ParseUserDescRsp_2:
   \   000074   AA..         MOV     R2,?V0 + 0
   \   000076   AB..         MOV     R3,?V0 + 1
   \   000078   02....       LJMP    ?Subroutine137 & 0xFFFF
   2696          }

   \                                 In  segment BANKED_CODE, align 1, keep-with-next
   \                     ?Subroutine30:
   \   000000   12....       LCALL   ??Subroutine90_0 & 0xFFFF
   \                     ??CrossCallReturnLabel_332:
   \   000003   A3           INC     DPTR
   \   000004   E0           MOVX    A,@DPTR
   \   000005   FA           MOV     R2,A
   \   000006   22           RET
   2697          
   2698          /*********************************************************************
   2699           * @fn          ZDO_ParseSimpleDescBuf
   2700           *
   2701           * @brief       Parse a byte sequence representation of a Simple Descriptor.
   2702           *
   2703           * @param       buf  - pointer to a byte array representing a Simple Desc.
   2704           * @param       desc - SimpleDescriptionFormat_t *
   2705           *
   2706           *              This routine allocates storage for the cluster IDs because
   2707           *              they are 16-bit and need to be aligned to be properly processed.
   2708           *              This routine returns non-zero if an allocation fails.
   2709           *
   2710           *              NOTE: This means that the caller or user of the input structure
   2711           *                    is responsible for freeing the memory
   2712           *
   2713           * @return      0: success
   2714           *              1: failure due to malloc failure.
   2715           */

   \                                 In  segment BANKED_CODE, align 1, keep-with-next
   2716          uint8 ZDO_ParseSimpleDescBuf( byte *buf, SimpleDescriptionFormat_t *desc )
   \                     ZDO_ParseSimpleDescBuf:
   2717          {
   \   000000   74F3         MOV     A,#-0xd
   \   000002   12....       LCALL   ?BANKED_ENTER_XDATA
   \   000005                ; Saved register size: 13
   \   000005                ; Auto size: 0
   \   000005   EA           MOV     A,R2
   \   000006   FE           MOV     R6,A
   \   000007   EB           MOV     A,R3
   \   000008   FF           MOV     R7,A
   \   000009   8C..         MOV     ?V0 + 0,R4
   \   00000B   8D..         MOV     ?V0 + 1,R5
   2718            uint8 num, i;
   2719          
   2720            desc->EndPoint = *buf++;
   \   00000D   8E82         MOV     DPL,R6
   \   00000F   8F83         MOV     DPH,R7
   \   000011   12....       LCALL   ??Subroutine55_0 & 0xFFFF
   \                     ??CrossCallReturnLabel_342:
   \   000014   12....       LCALL   ?Subroutine13 & 0xFFFF
   2721            desc->AppProfId = BUILD_UINT16( buf[0], buf[1] );
   \                     ??CrossCallReturnLabel_25:
   \   000017   8C82         MOV     DPL,R4
   \   000019   8D83         MOV     DPH,R5
   \   00001B   A3           INC     DPTR
   \   00001C   12....       LCALL   ?Subroutine7 & 0xFFFF
   2722            buf += 2;
   2723            desc->AppDeviceId = BUILD_UINT16( buf[0], buf[1] );
   \                     ??CrossCallReturnLabel_13:
   \   00001F   12....       LCALL   ?Subroutine63 & 0xFFFF
   \                     ??CrossCallReturnLabel_297:
   \   000022   A3           INC     DPTR
   \   000023   12....       LCALL   ?Subroutine8 & 0xFFFF
   2724            buf += 2;
   2725            desc->AppDevVer = *buf >> 4;
   2726          
   2727            desc->Reserved = 0;
   \                     ??CrossCallReturnLabel_15:
   \   000026   8E82         MOV     DPL,R6
   \   000028   8F83         MOV     DPH,R7
   \   00002A   E0           MOVX    A,@DPTR
   \   00002B   C4           SWAP    A
   \   00002C   540F         ANL     A,#0xf
   \   00002E   8C82         MOV     DPL,R4
   \   000030   8D83         MOV     DPH,R5
   \   000032   A3           INC     DPTR
   \   000033   A3           INC     DPTR
   \   000034   A3           INC     DPTR
   \   000035   A3           INC     DPTR
   \   000036   A3           INC     DPTR
   \   000037   12....       LCALL   ?Subroutine30 & 0xFFFF
   2728            buf++;
   2729          
   2730            // move in input cluster list (if any). allocate aligned memory.
   2731            num = desc->AppNumInClusters = *buf++;
   \                     ??CrossCallReturnLabel_62:
   \   00003A   A3           INC     DPTR
   \   00003B   0E           INC     R6
   \   00003C   0E           INC     R6
   \   00003D   AF83         MOV     R7,DPH
   \   00003F   8C82         MOV     DPL,R4
   \   000041   8D83         MOV     DPH,R5
   \   000043   A3           INC     DPTR
   \   000044   A3           INC     DPTR
   \   000045   A3           INC     DPTR
   \   000046   A3           INC     DPTR
   \   000047   A3           INC     DPTR
   \   000048   A3           INC     DPTR
   \   000049   F0           MOVX    @DPTR,A
   \   00004A   8A..         MOV     ?V0 + 4,R2
   2732            if ( num )
   \   00004C   6023         JZ      ??ZDO_ParseSimpleDescBuf_0
   2733            {
   2734              if (!(desc->pAppInClusterList = (uint16 *)osal_mem_alloc(num*sizeof(uint16))))
   \   00004E   EC           MOV     A,R4
   \   00004F   2407         ADD     A,#0x7
   \   000051   F5..         MOV     ?V0 + 2,A
   \   000053   ED           MOV     A,R5
   \   000054   12....       LCALL   ?Subroutine18 & 0xFFFF
   \                     ??CrossCallReturnLabel_30:
   \   000057   7002         JNZ     ??ZDO_ParseSimpleDescBuf_1
   \   000059   A3           INC     DPTR
   \   00005A   E0           MOVX    A,@DPTR
   \                     ??ZDO_ParseSimpleDescBuf_1:
   \   00005B   7004         JNZ     ??ZDO_ParseSimpleDescBuf_2
   2735              {
   2736                // malloc failed. we're done.
   2737                return 1;
   \                     ??ZDO_ParseSimpleDescBuf_3:
   \   00005D   7901         MOV     R1,#0x1
   \   00005F   807B         SJMP    ??ZDO_ParseSimpleDescBuf_4
   2738              }
   2739              for (i=0; i<num; ++i)
   \                     ??ZDO_ParseSimpleDescBuf_2:
   \   000061   7A00         MOV     R2,#0x0
   \   000063   8006         SJMP    ??CrossCallReturnLabel_26
   2740              {
   2741                desc->pAppInClusterList[i] = BUILD_UINT16( buf[0], buf[1] );
   \                     ??ZDO_ParseSimpleDescBuf_5:
   \   000065   12....       LCALL   ?Subroutine37 & 0xFFFF
   \                     ??CrossCallReturnLabel_283:
   \   000068   12....       LCALL   ?Subroutine16 & 0xFFFF
   2742                buf += 2;
   2743              }
   \                     ??CrossCallReturnLabel_26:
   \   00006B   EA           MOV     A,R2
   \   00006C   C3           CLR     C
   \   00006D   95..         SUBB    A,?V0 + 4
   \   00006F   40F4         JC      ??ZDO_ParseSimpleDescBuf_5
   2744            }
   2745          
   2746            // move in output cluster list (if any). allocate aligned memory.
   2747            num = desc->AppNumOutClusters = *buf++;
   \                     ??ZDO_ParseSimpleDescBuf_0:
   \   000071   8E82         MOV     DPL,R6
   \   000073   8F83         MOV     DPH,R7
   \   000075   E0           MOVX    A,@DPTR
   \   000076   FA           MOV     R2,A
   \   000077   A3           INC     DPTR
   \   000078   AE82         MOV     R6,DPL
   \   00007A   AF83         MOV     R7,DPH
   \   00007C   85..82       MOV     DPL,?V0 + 0
   \   00007F   85..83       MOV     DPH,?V0 + 1
   \   000082   A3           INC     DPTR
   \   000083   A3           INC     DPTR
   \   000084   A3           INC     DPTR
   \   000085   A3           INC     DPTR
   \   000086   A3           INC     DPTR
   \   000087   A3           INC     DPTR
   \   000088   A3           INC     DPTR
   \   000089   A3           INC     DPTR
   \   00008A   A3           INC     DPTR
   \   00008B   F0           MOVX    @DPTR,A
   \   00008C   8A..         MOV     ?V0 + 4,R2
   2748            if (num)
   \   00008E   604A         JZ      ??ZDO_ParseSimpleDescBuf_6
   2749            {
   2750              if (!(desc->pAppOutClusterList = (uint16 *)osal_mem_alloc(num*sizeof(uint16))))
   \   000090   E5..         MOV     A,?V0 + 0
   \   000092   240A         ADD     A,#0xa
   \   000094   F5..         MOV     ?V0 + 2,A
   \   000096   E5..         MOV     A,?V0 + 1
   \   000098   12....       LCALL   ?Subroutine18 & 0xFFFF
   \                     ??CrossCallReturnLabel_31:
   \   00009B   7002         JNZ     ??ZDO_ParseSimpleDescBuf_7
   \   00009D   A3           INC     DPTR
   \   00009E   E0           MOVX    A,@DPTR
   \                     ??ZDO_ParseSimpleDescBuf_7:
   \   00009F   7026         JNZ     ??ZDO_ParseSimpleDescBuf_8
   2751              {
   2752                // malloc failed. free input cluster list memory if there is any
   2753                if (desc->pAppInClusterList)
   \   0000A1   85..82       MOV     DPL,?V0 + 0
   \   0000A4   85..83       MOV     DPH,?V0 + 1
   \   0000A7   A3           INC     DPTR
   \   0000A8   A3           INC     DPTR
   \   0000A9   A3           INC     DPTR
   \   0000AA   A3           INC     DPTR
   \   0000AB   A3           INC     DPTR
   \   0000AC   A3           INC     DPTR
   \   0000AD   A3           INC     DPTR
   \   0000AE   E0           MOVX    A,@DPTR
   \   0000AF   7002         JNZ     ??ZDO_ParseSimpleDescBuf_9
   \   0000B1   A3           INC     DPTR
   \   0000B2   E0           MOVX    A,@DPTR
   \                     ??ZDO_ParseSimpleDescBuf_9:
   \   0000B3   60A8         JZ      ??ZDO_ParseSimpleDescBuf_3
   2754                {
   2755                  osal_mem_free(desc->pAppInClusterList);
   \   0000B5                ; Setup parameters for call to function osal_mem_free
   \   0000B5   85..82       MOV     DPL,?V0 + 0
   \   0000B8   85..83       MOV     DPH,?V0 + 1
   \   0000BB   A3           INC     DPTR
   \   0000BC   A3           INC     DPTR
   \   0000BD   A3           INC     DPTR
   \   0000BE   A3           INC     DPTR
   \   0000BF   A3           INC     DPTR
   \   0000C0   A3           INC     DPTR
   \   0000C1   A3           INC     DPTR
   \   0000C2   12....       LCALL   ??Subroutine31_0 & 0xFFFF
   \                     ??CrossCallReturnLabel_67:
   \   0000C5   8096         SJMP    ??ZDO_ParseSimpleDescBuf_3
   2756                }
   2757                return 1;
   2758              }
   2759              for (i=0; i<num; ++i)
   \                     ??ZDO_ParseSimpleDescBuf_8:
   \   0000C7   7A00         MOV     R2,#0x0
   \   0000C9   8009         SJMP    ??CrossCallReturnLabel_27
   2760              {
   2761                desc->pAppOutClusterList[i] = BUILD_UINT16( buf[0], buf[1] );
   \                     ??ZDO_ParseSimpleDescBuf_10:
   \   0000CB   12....       LCALL   ?Subroutine37 & 0xFFFF
   \                     ??CrossCallReturnLabel_284:
   \   0000CE   A3           INC     DPTR
   \   0000CF   A3           INC     DPTR
   \   0000D0   A3           INC     DPTR
   \   0000D1   12....       LCALL   ?Subroutine16 & 0xFFFF
   2762                buf += 2;
   2763              }
   \                     ??CrossCallReturnLabel_27:
   \   0000D4   EA           MOV     A,R2
   \   0000D5   C3           CLR     C
   \   0000D6   95..         SUBB    A,?V0 + 4
   \   0000D8   40F1         JC      ??ZDO_ParseSimpleDescBuf_10
   2764            }
   2765            return 0;
   \                     ??ZDO_ParseSimpleDescBuf_6:
   \   0000DA   7900         MOV     R1,#0x0
   \                     ??ZDO_ParseSimpleDescBuf_4:
   \   0000DC   7F05         MOV     R7,#0x5
   \   0000DE   02....       LJMP    ?BANKED_LEAVE_XDATA
   2766          }

   \                                 In  segment BANKED_CODE, align 1, keep-with-next
   \                     ?Subroutine37:
   \   000000   8E82         MOV     DPL,R6
   \   000002   8F83         MOV     DPH,R7
   \   000004   E0           MOVX    A,@DPTR
   \   000005   FC           MOV     R4,A
   \   000006   A3           INC     DPTR
   \   000007   E0           MOVX    A,@DPTR
   \   000008   F9           MOV     R1,A
   \   000009   E4           CLR     A
   \   00000A   2C           ADD     A,R4
   \   00000B   E9           MOV     A,R1
   \   00000C   FD           MOV     R5,A
   \   00000D   EA           MOV     A,R2
   \   00000E   33           RLC     A
   \   00000F   F8           MOV     R0,A
   \   000010   E4           CLR     A
   \   000011   33           RLC     A
   \   000012   F9           MOV     R1,A
   \   000013   02....       LJMP    ?Subroutine124 & 0xFFFF

   \                                 In  segment BANKED_CODE, align 1, keep-with-next
   \                     ?Subroutine18:
   \   000000   3400         ADDC    A,#0x0
   \   000002   F5..         MOV     ?V0 + 3,A
   \   000004                ; Setup parameters for call to function osal_mem_alloc
   \   000004                ; Setup parameters for call to function osal_mem_alloc
   \   000004   EA           MOV     A,R2
   \   000005   C3           CLR     C
   \   000006   33           RLC     A
   \   000007   FA           MOV     R2,A
   \   000008   E4           CLR     A
   \   000009   33           RLC     A
   \   00000A   FB           MOV     R3,A
   \   00000B   12....       LCALL   ??osal_mem_alloc?relay
   \   00000E   85..82       MOV     DPL,?V0 + 2
   \   000011   85..83       MOV     DPH,?V0 + 3
   \   000014   EA           MOV     A,R2
   \   000015   F0           MOVX    @DPTR,A
   \   000016   A3           INC     DPTR
   \   000017   EB           MOV     A,R3
   \   000018   F0           MOVX    @DPTR,A
   \   000019   85..82       MOV     DPL,?V0 + 2
   \   00001C   85..83       MOV     DPH,?V0 + 3
   \   00001F   E0           MOVX    A,@DPTR
   \   000020   22           RET

   \                                 In  segment BANKED_CODE, align 1, keep-with-next
   \                     ?Subroutine16:
   \   000000   A3           INC     DPTR
   \   000001   A3           INC     DPTR
   \   000002   A3           INC     DPTR
   \   000003   A3           INC     DPTR
   \   000004   A3           INC     DPTR
   \   000005   A3           INC     DPTR
   \   000006   A3           INC     DPTR
   \   000007   E0           MOVX    A,@DPTR
   \   000008   28           ADD     A,R0
   \   000009   FB           MOV     R3,A
   \   00000A   A3           INC     DPTR
   \   00000B   E0           MOVX    A,@DPTR
   \   00000C   39           ADDC    A,R1
   \   00000D   8B82         MOV     DPL,R3
   \   00000F   F583         MOV     DPH,A
   \   000011   EC           MOV     A,R4
   \   000012   F0           MOVX    @DPTR,A
   \   000013   A3           INC     DPTR
   \   000014   ED           MOV     A,R5
   \   000015   12....       LCALL   ??Subroutine87_0 & 0xFFFF
   \                     ??CrossCallReturnLabel_190:
   \   000018   0A           INC     R2
   \   000019   22           RET
   2767          
   2768          /*********************************************************************
   2769           * @fn          ZDO_ParseDeviceAnnce
   2770           *
   2771           * @brief       Parse a Device Announce message.
   2772           *
   2773           * @param       inMsg - Incoming message
   2774           * @param       pAnnce - place to put the parsed information
   2775           *
   2776           * @return      none
   2777           */

   \                                 In  segment BANKED_CODE, align 1, keep-with-next
   2778          void ZDO_ParseDeviceAnnce( zdoIncomingMsg_t *inMsg, ZDO_DeviceAnnce_t *pAnnce )
   \                     ZDO_ParseDeviceAnnce:
   2779          {
   \   000000   74F6         MOV     A,#-0xa
   \   000002   12....       LCALL   ?BANKED_ENTER_XDATA
   \   000005                ; Saved register size: 10
   \   000005                ; Auto size: 0
   \   000005   8C..         MOV     ?V0 + 0,R4
   \   000007   8D..         MOV     ?V0 + 1,R5
   2780            uint8 *msg;
   2781          
   2782            // Parse incoming message
   2783            msg = inMsg->asdu;
   \   000009   12....       LCALL   ?Subroutine39 & 0xFFFF
   2784            pAnnce->nwkAddr = BUILD_UINT16( msg[0], msg[1] );
   \                     ??CrossCallReturnLabel_337:
   \   00000C   12....       LCALL   ?Subroutine6 & 0xFFFF
   2785            msg += 2;
   2786            osal_cpyExtAddr( pAnnce->extAddr, msg );
   \                     ??CrossCallReturnLabel_11:
   \   00000F   2402         ADD     A,#0x2
   \   000011   12....       LCALL   ?Subroutine69 & 0xFFFF
   2787            msg += Z_EXTADDR_LEN;
   2788            pAnnce->capabilities = *msg;
   \                     ??CrossCallReturnLabel_266:
   \   000014   12....       LCALL   ?Subroutine50 & 0xFFFF
   \                     ??CrossCallReturnLabel_105:
   \   000017   A3           INC     DPTR
   \   000018   A3           INC     DPTR
   \   000019   A3           INC     DPTR
   \   00001A   A3           INC     DPTR
   \   00001B   A3           INC     DPTR
   \   00001C   F0           MOVX    @DPTR,A
   2789          }
   \   00001D   02....       LJMP    ??Subroutine133_0 & 0xFFFF

   \                                 In  segment XDATA_I, align 1, keep-with-next
   \                     __Constant_0:
   \   000000                DS 4
   \   000004                REQUIRE `?<Initializer for __Constant_0>`
   \   000004                REQUIRE __INIT_XDATA_I

   \                                 In  segment XDATA_ID, align 1, keep-with-next
   \                     `?<Initializer for __Constant_0>`:
   \   000000   00000000     DD 0

   \                                 In  segment BANK_RELAYS, align 1
   \                     ??ZDO_Init?relay:
   \   000000   12....       LCALL   ?BDISPATCH
   \   000003   ......       DC24    ZDO_Init

   \                                 In  segment BANK_RELAYS, align 1
   \                     ??ZDO_StartDevice?relay:
   \   000000   12....       LCALL   ?BDISPATCH
   \   000003   ......       DC24    ZDO_StartDevice

   \                                 In  segment BANK_RELAYS, align 1
   \                     ??ZDO_UpdateNwkStatus?relay:
   \   000000   12....       LCALL   ?BDISPATCH
   \   000003   ......       DC24    ZDO_UpdateNwkStatus

   \                                 In  segment BANK_RELAYS, align 1
   \                     ??ZDO_AnyClusterMatches?relay:
   \   000000   12....       LCALL   ?BDISPATCH
   \   000003   ......       DC24    ZDO_AnyClusterMatches

   \                                 In  segment BANK_RELAYS, align 1
   \                     ??ZDO_ProcessNodeDescReq?relay:
   \   000000   12....       LCALL   ?BDISPATCH
   \   000003   ......       DC24    ZDO_ProcessNodeDescReq

   \                                 In  segment BANK_RELAYS, align 1
   \                     ??ZDO_ProcessPowerDescReq?relay:
   \   000000   12....       LCALL   ?BDISPATCH
   \   000003   ......       DC24    ZDO_ProcessPowerDescReq

   \                                 In  segment BANK_RELAYS, align 1
   \                     ??ZDO_ProcessSimpleDescReq?relay:
   \   000000   12....       LCALL   ?BDISPATCH
   \   000003   ......       DC24    ZDO_ProcessSimpleDescReq

   \                                 In  segment BANK_RELAYS, align 1
   \                     ??ZDO_ProcessActiveEPReq?relay:
   \   000000   12....       LCALL   ?BDISPATCH
   \   000003   ......       DC24    ZDO_ProcessActiveEPReq

   \                                 In  segment BANK_RELAYS, align 1
   \                     ??ZDO_ConvertOTAClusters?relay:
   \   000000   12....       LCALL   ?BDISPATCH
   \   000003   ......       DC24    ZDO_ConvertOTAClusters

   \                                 In  segment BANK_RELAYS, align 1
   \                     ??ZDO_ProcessMatchDescReq?relay:
   \   000000   12....       LCALL   ?BDISPATCH
   \   000003   ......       DC24    ZDO_ProcessMatchDescReq

   \                                 In  segment BANK_RELAYS, align 1
   \                     ??ZDO_ProcessBindUnbindReq?relay:
   \   000000   12....       LCALL   ?BDISPATCH
   \   000003   ......       DC24    ZDO_ProcessBindUnbindReq

   \                                 In  segment BANK_RELAYS, align 1
   \                     ??ZDO_UpdateAddrManager?relay:
   \   000000   12....       LCALL   ?BDISPATCH
   \   000003   ......       DC24    ZDO_UpdateAddrManager

   \                                 In  segment BANK_RELAYS, align 1
   \                     ??ZDO_EndDeviceTimeoutCB?relay:
   \   000000   12....       LCALL   ?BDISPATCH
   \   000003   ......       DC24    ZDO_EndDeviceTimeoutCB

   \                                 In  segment BANK_RELAYS, align 1
   \                     ??ZDO_BuildSimpleDescBuf?relay:
   \   000000   12....       LCALL   ?BDISPATCH
   \   000003   ......       DC24    ZDO_BuildSimpleDescBuf

   \                                 In  segment BANK_RELAYS, align 1
   \                     ??ZDO_ParseEndDeviceBindReq?relay:
   \   000000   12....       LCALL   ?BDISPATCH
   \   000003   ......       DC24    ZDO_ParseEndDeviceBindReq

   \                                 In  segment BANK_RELAYS, align 1
   \                     ??ZDO_ParseBindUnbindReq?relay:
   \   000000   12....       LCALL   ?BDISPATCH
   \   000003   ......       DC24    ZDO_ParseBindUnbindReq

   \                                 In  segment BANK_RELAYS, align 1
   \                     ??ZDO_ParseAddrRsp?relay:
   \   000000   12....       LCALL   ?BDISPATCH
   \   000003   ......       DC24    ZDO_ParseAddrRsp

   \                                 In  segment BANK_RELAYS, align 1
   \                     ??ZDO_ParseNodeDescRsp?relay:
   \   000000   12....       LCALL   ?BDISPATCH
   \   000003   ......       DC24    ZDO_ParseNodeDescRsp

   \                                 In  segment BANK_RELAYS, align 1
   \                     ??ZDO_ParsePowerDescRsp?relay:
   \   000000   12....       LCALL   ?BDISPATCH
   \   000003   ......       DC24    ZDO_ParsePowerDescRsp

   \                                 In  segment BANK_RELAYS, align 1
   \                     ??ZDO_ParseSimpleDescRsp?relay:
   \   000000   12....       LCALL   ?BDISPATCH
   \   000003   ......       DC24    ZDO_ParseSimpleDescRsp

   \                                 In  segment BANK_RELAYS, align 1
   \                     ??ZDO_ParseEPListRsp?relay:
   \   000000   12....       LCALL   ?BDISPATCH
   \   000003   ......       DC24    ZDO_ParseEPListRsp

   \                                 In  segment BANK_RELAYS, align 1
   \                     ??ZDO_ParseServerDiscRsp?relay:
   \   000000   12....       LCALL   ?BDISPATCH
   \   000003   ......       DC24    ZDO_ParseServerDiscRsp

   \                                 In  segment BANK_RELAYS, align 1
   \                     ??ZDO_ParseMgmtLqiRsp?relay:
   \   000000   12....       LCALL   ?BDISPATCH
   \   000003   ......       DC24    ZDO_ParseMgmtLqiRsp

   \                                 In  segment BANK_RELAYS, align 1
   \                     ??ZDO_ParseMgmNwkDiscRsp?relay:
   \   000000   12....       LCALL   ?BDISPATCH
   \   000003   ......       DC24    ZDO_ParseMgmNwkDiscRsp

   \                                 In  segment BANK_RELAYS, align 1
   \                     ??ZDO_ParseMgmtRtgRsp?relay:
   \   000000   12....       LCALL   ?BDISPATCH
   \   000003   ......       DC24    ZDO_ParseMgmtRtgRsp

   \                                 In  segment BANK_RELAYS, align 1
   \                     ??ZDO_ParseMgmtBindRsp?relay:
   \   000000   12....       LCALL   ?BDISPATCH
   \   000003   ......       DC24    ZDO_ParseMgmtBindRsp

   \                                 In  segment BANK_RELAYS, align 1
   \                     ??ZDO_ParseUserDescRsp?relay:
   \   000000   12....       LCALL   ?BDISPATCH
   \   000003   ......       DC24    ZDO_ParseUserDescRsp

   \                                 In  segment BANK_RELAYS, align 1
   \                     ??ZDO_ParseSimpleDescBuf?relay:
   \   000000   12....       LCALL   ?BDISPATCH
   \   000003   ......       DC24    ZDO_ParseSimpleDescBuf

   \                                 In  segment BANK_RELAYS, align 1
   \                     ??ZDO_ParseDeviceAnnce?relay:
   \   000000   12....       LCALL   ?BDISPATCH
   \   000003   ......       DC24    ZDO_ParseDeviceAnnce
   2790          
   2791          /*********************************************************************
   2792          *********************************************************************/
   2793          
   2794          

   Maximum stack usage in bytes:

     Function                       ISTACK PSTACK XSTACK
     --------                       ------ ------ ------
     ZDO_AnyClusterMatches              0      0     41
     ZDO_BuildSimpleDescBuf             1      0      9
     ZDO_ConvertOTAClusters             0      0     38
     ZDO_EndDeviceTimeoutCB             1      0     17
       -> ZDP_SendData                  0      0     34
       -> osal_mem_free                 0      0     24
       -> osal_mem_free                 0      0     24
       -> osal_mem_free                 0      0     24
     ZDO_Init                           2      0      0
       -> APS_ReflectorInit             4      0      0
       -> NLME_DeviceJoiningInit        4      0      0
     ZDO_ParseAddrRsp                   1      0     14
       -> osal_mem_alloc                0      0     28
       -> osal_cpyExtAddr               0      0     28
     ZDO_ParseBindUnbindReq             1      0     10
       -> osal_cpyExtAddr               0      0     20
       -> osal_cpyExtAddr               0      0     20
     ZDO_ParseDeviceAnnce               1      0     10
       -> osal_cpyExtAddr               0      0     20
     ZDO_ParseEPListRsp                 1      0     18
       -> osal_mem_alloc                0      0     30
       -> osal_memcpy                   0      0     36
     ZDO_ParseEndDeviceBindReq          1      0     14
       -> osal_cpyExtAddr               0      0     28
       -> osal_mem_alloc                0      0     28
       -> ZDO_ConvertOTAClusters        0      0     28
       -> osal_mem_alloc                0      0     28
       -> ZDO_ConvertOTAClusters        0      0     28
     ZDO_ParseMgmNwkDiscRsp             1      0     16
       -> osal_mem_alloc                0      0     32
       -> osal_cpyExtAddr               0      0     32
     ZDO_ParseMgmtBindRsp               1      0     16
       -> osal_mem_alloc                0      0     32
       -> osal_cpyExtAddr               0      0     32
       -> osal_cpyExtAddr               0      0     32
     ZDO_ParseMgmtLqiRsp                1      0     16
       -> osal_mem_alloc                0      0     32
       -> osal_cpyExtAddr               0      0     32
     ZDO_ParseMgmtRtgRsp                1      0     14
       -> osal_mem_alloc                0      0     28
     ZDO_ParseNodeDescRsp               2      0      9
     ZDO_ParsePowerDescRsp              1      0     10
     ZDO_ParseServerDiscRsp             1      0      9
     ZDO_ParseSimpleDescBuf             1      0     22
       -> osal_mem_alloc                0      0     26
       -> osal_mem_alloc                0      0     26
       -> osal_mem_free                 0      0     26
     ZDO_ParseSimpleDescRsp             1      0      9
       -> ZDO_ParseSimpleDescBuf        0      0     18
     ZDO_ParseUserDescRsp               1      0     18
       -> osal_mem_alloc                0      0     30
       -> osal_memcpy                   0      0     36
     ZDO_ProcessActiveEPReq             0      0     21
       -> NLME_GetShortAddr             0      0     28
       -> afNumEndPoints                0      0     28
       -> afEndPoints                   0      0     28
       -> ZDP_EPRsp                     0      0     42
     ZDO_ProcessBindUnbindReq           1      0     29
       -> osal_cpyExtAddr               0      0     48
       -> NLME_GetExtAddr               0      0     48
       -> osal_ExtAddrEqual             0      0     48
       -> APSME_LookupNwkAddr           0      0     48
       -> ZDP_NwkAddrReq                0      0     48
       -> APSME_BindRequest             0      0     50
       -> ZDApp_NVUpdate                0      0     48
       -> APSME_UnBindRequest           0      0     50
       -> ZDP_SendData                  0      0     58
     ZDO_ProcessMatchDescReq            1      0     34
       -> NLME_IsAddressBroadcast       0      0     54
       -> ZDP_EPRsp                     0      0     68
       -> NLME_IsAddressBroadcast       0      0     54
       -> osal_mem_alloc                0      0     54
       -> ZDO_ConvertOTAClusters        0      0     54
       -> osal_mem_alloc                0      0     54
       -> ZDO_ConvertOTAClusters        0      0     54
       -> osal_msg_send                 0      0     54
       -> osal_mem_free                 0      0     54
       -> ZDO_AnyClusterMatches         0      0     58
       -> ZDO_AnyClusterMatches         0      0     58
       -> osal_msg_allocate             0      0     54
       -> osal_memcpy                   0      0     60
       -> osal_memcpy                   0      0     60
       -> ZDP_EPRsp                     0      0     68
       -> osal_mem_free                 0      0     54
       -> osal_mem_free                 0      0     54
     ZDO_ProcessNodeDescReq             0      0     14
       -> ZDP_NodeDescMsg               0      0     24
       -> ZDP_GenericRsp                0      0     28
     ZDO_ProcessPowerDescReq            0      0     14
       -> ZDP_PowerDescMsg              0      0     24
       -> ZDP_GenericRsp                0      0     28
     ZDO_ProcessSimpleDescReq           0      0     12
       -> afFindSimpleDesc              0      0     24
       -> ZDP_SimpleDescMsg             0      0     24
       -> osal_mem_free                 0      0     24
     ZDO_StartDevice                    1      0     23
       -> NLME_NetworkDiscoveryRequest
                                        0      0     46
       -> nwk_ScanJoiningOrphan         0      0     46
       -> NLME_OrphanJoinRequest        0      0     46
       -> osal_start_timerEx            0      0     46
     ZDO_UpdateAddrManager              3      0     13
       -> AddrMgrExtAddrSet             4      0     26
       -> AddrMgrEntryUpdate            4      0     26
     ZDO_UpdateNwkStatus                1      0     12
       -> NLME_GetShortAddr             0      0     24
       -> NLME_GetExtAddr               0      0     24
       -> osal_msg_allocate             0      0     24
       -> osal_msg_send                 0      0     24


   Segment part sizes:

     Function/Label                 Bytes
     --------------                 -----
     ZDOBuildBuf                      52
     ZDO_EDBind                        2
     ZDO_Init                         19
     ?Subroutine119                    7
     ZDO_StartDevice                 164
     ?Subroutine20                    15
     ?Subroutine120                    8
     ZDO_UpdateNwkStatus              82
     ?Subroutine26                     6
     ?Subroutine57                     8
     ?Subroutine106                    9
     ?Subroutine35                     4
     ?Subroutine105                   10
     ?Subroutine34                    12
     ?Subroutine131                    5
     ?Subroutine90                     7
     ZDO_AnyClusterMatches            95
     ?Subroutine104                    6
     ZDO_ProcessNodeDescReq           66
     ?Subroutine133                   10
     ?Subroutine36                    22
     ?Subroutine103                    9
     ?Subroutine130                    5
     ?Subroutine32                    30
     ?Subroutine109                    9
     ?Subroutine107                    7
     ?Subroutine122                    7
     ZDO_ProcessPowerDescReq          66
     ZDO_ProcessSimpleDescReq        147
     ?Subroutine44                     8
     ?Subroutine98                     6
     ?Subroutine31                    11
     ZDO_ProcessActiveEPReq          143
     ?Subroutine71                    12
     ?Subroutine59                    14
     ?Subroutine134                    5
     ?Subroutine108                    7
     ZDO_ConvertOTAClusters           62
     ?Subroutine81                     3
     ?Subroutine123                    7
     ZDO_ProcessMatchDescReq        1002
     ?Subroutine67                     7
     ?Subroutine65                     4
     ?Subroutine58                    10
     ?Subroutine56                    13
     ?Subroutine128                    6
     ?Subroutine54                    12
     ?Subroutine51                     5
     ?Subroutine48                    13
     ?Subroutine47                     4
     ?Subroutine97                     7
     ?Subroutine46                     9
     ?Subroutine102                    4
     ?Subroutine116                   11
     ?Subroutine45                     6
     ?Subroutine41                    11
     ?Subroutine33                    17
     ?Subroutine95                     7
     ?Subroutine117                    3
     ?Subroutine125                    6
     ?Subroutine121                    8
     ?Subroutine52                     6
     ?Subroutine60                     4
     ?Subroutine129                    5
     ?Subroutine25                     5
     ?Subroutine94                     7
     ?Subroutine135                    9
     ?Subroutine10                    13
     ZDO_ProcessBindUnbindReq        332
     ?Subroutine70                     9
     ?Subroutine40                    39
     ZDO_UpdateAddrManager            58
     ZDO_EndDeviceTimeoutCB          194
     ?Subroutine53                     5
     ZDO_BuildSimpleDescBuf          136
     ?Subroutine64                     8
     ?Subroutine19                     3
     ?Subroutine126                    6
     ?Subroutine14                     9
     ?Subroutine9                      8
     ?Subroutine91                    15
     ?Subroutine2                     17
     ?Subroutine101                   12
     ?Subroutine112                   10
     ?Subroutine136                    5
     ZDO_ParseEndDeviceBindReq       142
     ?Subroutine74                     9
     ?Subroutine72                    16
     ?Subroutine1                     62
     ?Subroutine77                    12
     ?Subroutine23                     4
     ?Subroutine89                     4
     ?Subroutine114                    5
     ?Subroutine127                    6
     ?Subroutine87                     7
     ?Subroutine115                    5
     ?Subroutine118                   10
     ?Subroutine21                     6
     ?Subroutine68                    11
     ?Subroutine110                   11
     ?Subroutine96                    21
     ?Subroutine84                    10
     ?Subroutine55                     7
     ?Subroutine132                    5
     ?Subroutine111                    9
     ?Subroutine13                     4
     ?Subroutine88                     6
     ?Subroutine7                      4
     ?Subroutine86                    13
     ?Subroutine39                    11
     ?Subroutine6                     10
     ZDO_ParseBindUnbindReq           57
     ?Subroutine38                    13
     ?Subroutine0                     53
     ?Subroutine69                    17
     ?Subroutine100                   10
     ZDO_ParseAddrRsp                193
     ?Subroutine8                      5
     ?Subroutine82                     4
     ?Subroutine83                     6
     ?Subroutine76                     8
     ?Subroutine49                     7
     ?Subroutine124                    7
     ?Subroutine11                     5
     ?Subroutine79                     4
     ?Subroutine113                    9
     ?Subroutine43                    10
     ?Subroutine28                     4
     ZDO_ParseNodeDescRsp            208
     ?Subroutine29                     7
     ?Subroutine92                     7
     ?Subroutine5                      4
     ?Subroutine85                    17
     ?Subroutine4                      6
     ?Subroutine15                     4
     ZDO_ParsePowerDescRsp           121
     ?Subroutine62                    15
     ?Subroutine3                     36
     ZDO_ParseSimpleDescRsp           31
     ZDO_ParseEPListRsp              115
     ?Subroutine137                    5
     ?Subroutine75                    10
     ZDO_ParseServerDiscRsp           46
     ?Subroutine63                     7
     ZDO_ParseMgmtLqiRsp             173
     ?Subroutine73                     4
     ?Subroutine12                    10
     ?Subroutine93                     9
     ?Subroutine78                    15
     ?Subroutine42                     8
     ZDO_ParseMgmNwkDiscRsp          226
     ?Subroutine27                     8
     ?Subroutine22                    10
     ?Subroutine80                    11
     ?Subroutine61                    11
     ?Subroutine24                     7
     ?Subroutine50                     4
     ZDO_ParseMgmtRtgRsp             143
     ?Subroutine66                    10
     ?Subroutine17                     7
     ZDO_ParseMgmtBindRsp            127
     ZDO_ParseUserDescRsp            123
     ?Subroutine30                     7
     ZDO_ParseSimpleDescBuf          225
     ?Subroutine37                    22
     ?Subroutine18                    33
     ?Subroutine16                    26
     ZDO_ParseDeviceAnnce             32
     __Constant_0                      4
     ?<Initializer for __Constant_0>
                                       4
     ??ZDO_Init?relay                  6
     ??ZDO_StartDevice?relay           6
     ??ZDO_UpdateNwkStatus?relay       6
     ??ZDO_AnyClusterMatches?relay     6
     ??ZDO_ProcessNodeDescReq?relay    6
     ??ZDO_ProcessPowerDescReq?relay
                                       6
     ??ZDO_ProcessSimpleDescReq?relay
                                       6
     ??ZDO_ProcessActiveEPReq?relay    6
     ??ZDO_ConvertOTAClusters?relay    6
     ??ZDO_ProcessMatchDescReq?relay
                                       6
     ??ZDO_ProcessBindUnbindReq?relay
                                       6
     ??ZDO_UpdateAddrManager?relay     6
     ??ZDO_EndDeviceTimeoutCB?relay    6
     ??ZDO_BuildSimpleDescBuf?relay    6
     ??ZDO_ParseEndDeviceBindReq?relay
                                       6
     ??ZDO_ParseBindUnbindReq?relay    6
     ??ZDO_ParseAddrRsp?relay          6
     ??ZDO_ParseNodeDescRsp?relay      6
     ??ZDO_ParsePowerDescRsp?relay     6
     ??ZDO_ParseSimpleDescRsp?relay    6
     ??ZDO_ParseEPListRsp?relay        6
     ??ZDO_ParseServerDiscRsp?relay    6
     ??ZDO_ParseMgmtLqiRsp?relay       6
     ??ZDO_ParseMgmNwkDiscRsp?relay    6
     ??ZDO_ParseMgmtRtgRsp?relay       6
     ??ZDO_ParseMgmtBindRsp?relay      6
     ??ZDO_ParseUserDescRsp?relay      6
     ??ZDO_ParseSimpleDescBuf?relay    6
     ??ZDO_ParseDeviceAnnce?relay      6

 
 5 905 bytes in segment BANKED_CODE
   174 bytes in segment BANK_RELAYS
     4 bytes in segment XDATA_I
     4 bytes in segment XDATA_ID
    54 bytes in segment XDATA_Z
 
 6 079 bytes of CODE  memory (+ 4 bytes shared)
    54 bytes of XDATA memory (+ 4 bytes shared)

Errors: none
Warnings: none
