###############################################################################
#                                                                             #
# IAR 8051 C/C++ Compiler V7.30B/W32                    03/Apr/2013  16:41:47 #
# Copyright 2004-2007 IAR Systems. All rights reserved.                       #
#                                                                             #
#    Core               =  plain                                              #
#    Code model         =  banked                                             #
#    Data model         =  large                                              #
#    Calling convention =  xdata reentrant                                    #
#    Constant location  =  data                                               #
#    Dptr setup         =  1,16                                               #
#    Source file        =  C:\Texas Instruments\ZStack-1.4.3-1.2.1\Projects\z #
#                          stack\Samples\cc2430-zstack-adxl345 -              #
#                          2\Drivers\adxl345.c                                #
#    Command line       =  -f "C:\Texas Instruments\ZStack-1.4.3-1.2.1\Projec #
#                          ts\zstack\Samples\cc2430-zstack-adxl345 -          #
#                          2\CC2430DB\..\..\..\Tools\CC2430DB\f8wCoord.cfg"   #
#                          (-DCPU32MHZ -DFORCE_MAC_NEAR -DROOT=__near_func    #
#                          -DMAC_CFG_APP_PENDING_QUEUE=TRUE                   #
#                          -DZDO_COORDINATOR -DRTR_NWK -DBLINK_LEDS           #
#                          "-DCONST=const __code" -DGENERIC=__generic) -f     #
#                          "C:\Texas Instruments\ZStack-1.4.3-1.2.1\Projects\ #
#                          zstack\Samples\cc2430-zstack-adxl345 -             #
#                          2\CC2430DB\..\..\..\Tools\CC2430DB\f8wConfig.cfg"  #
#                          (-DSECURE=0 -DDEFAULT_CHANLIST=0x00000800          #
#                          -DZDAPP_CONFIG_PAN_ID=0xFFFF                       #
#                          -DNWK_START_DELAY=100 -DEXTENDED_JOINING_RANDOM_MA #
#                          SK=0x007F -DBEACON_REQUEST_DELAY=100               #
#                          -DBEACON_REQ_DELAY_MASK=0x00FF                     #
#                          -DROUTE_EXPIRY_TIME=30 -DAPSC_ACK_WAIT_DURATION_PO #
#                          LLED=3000 -DNWK_INDIRECT_MSG_TIMEOUT=7             #
#                          -DMAX_RREQ_ENTRIES=10 -DAPSC_MAX_FRAME_RETRIES=3   #
#                          -DNWK_MAX_DATA_RETRIES=2                           #
#                          -DMAX_POLL_FAILURE_RETRIES=2 -DMAX_BCAST=9         #
#                          -DAPS_MAX_GROUPS=16 -DMAX_RTG_ENTRIES=20           #
#                          -DNWK_MAX_BINDING_ENTRIES=10                       #
#                          -DMAX_BINDING_CLUSTER_IDS=5 "-DDEFAULT_KEY={0x01,  #
#                          0x03, 0x05, 0x07, 0x09, 0x0B, 0x0D, 0x0F, 0x00,    #
#                          0x02, 0x04, 0x06, 0x08, 0x0A, 0x0C, 0x0D}"         #
#                          -DRFD_RCVC_ALWAYS_ON=FALSE -DPOLL_RATE=1000        #
#                          -DQUEUED_POLL_RATE=100 -DRESPONSE_POLL_RATE=100)   #
#                          -DREJOIN_POLL_RATE=440 "C:\Texas                   #
#                          Instruments\ZStack-1.4.3-1.2.1\Projects\zstack\Sam #
#                          ples\cc2430-zstack-adxl345 - 2\Drivers\adxl345.c"  #
#                          -D CC2430EB -D REFLECTOR -D HAL_UART -D xZTOOL_P1  #
#                          -D AXD_COR -D MT_TASK -D xMT_ZDO_FUNC -D           #
#                          LCD_SUPPORTED=DEBUG -lC "C:\Texas                  #
#                          Instruments\ZStack-1.4.3-1.2.1\Projects\zstack\Sam #
#                          ples\cc2430-zstack-adxl345 -                       #
#                          2\CC2430DB\CoordinatorEB\List\" -lA "C:\Texas      #
#                          Instruments\ZStack-1.4.3-1.2.1\Projects\zstack\Sam #
#                          ples\cc2430-zstack-adxl345 -                       #
#                          2\CC2430DB\CoordinatorEB\List\" --diag_suppress    #
#                          Pe001,Pa010 --diag_remark pe550 -o "C:\Texas       #
#                          Instruments\ZStack-1.4.3-1.2.1\Projects\zstack\Sam #
#                          ples\cc2430-zstack-adxl345 -                       #
#                          2\CC2430DB\CoordinatorEB\Obj\" -e                  #
#                          --require_prototypes -z9 --no_code_motion --debug  #
#                          --core=plain --dptr=16,1 --data_model=large        #
#                          --code_model=banked --calling_convention=xdata_ree #
#                          ntrant --place_constants=data --nr_virtual_regs 8  #
#                          -I "C:\Texas Instruments\ZStack-1.4.3-1.2.1\Projec #
#                          ts\zstack\Samples\cc2430-zstack-adxl345 -          #
#                          2\CC2430DB\" -I "C:\Texas                          #
#                          Instruments\ZStack-1.4.3-1.2.1\Projects\zstack\Sam #
#                          ples\cc2430-zstack-adxl345 -                       #
#                          2\CC2430DB\..\SOURCE\" -I "C:\Texas                #
#                          Instruments\ZStack-1.4.3-1.2.1\Projects\zstack\Sam #
#                          ples\cc2430-zstack-adxl345 -                       #
#                          2\CC2430DB\..\Drivers\" -I "C:\Texas               #
#                          Instruments\ZStack-1.4.3-1.2.1\Projects\zstack\Sam #
#                          ples\cc2430-zstack-adxl345 -                       #
#                          2\CC2430DB\..\..\..\ZMAIN\TI2430DB\" -I "C:\Texas  #
#                          Instruments\ZStack-1.4.3-1.2.1\Projects\zstack\Sam #
#                          ples\cc2430-zstack-adxl345 -                       #
#                          2\CC2430DB\..\..\..\..\..\COMPONENTS\MT\" -I       #
#                          "C:\Texas Instruments\ZStack-1.4.3-1.2.1\Projects\ #
#                          zstack\Samples\cc2430-zstack-adxl345 -             #
#                          2\CC2430DB\..\..\..\..\..\COMPONENTS\HAL\INCLUDE\" #
#                           -I "C:\Texas Instruments\ZStack-1.4.3-1.2.1\Proje #
#                          cts\zstack\Samples\cc2430-zstack-adxl345 -         #
#                          2\CC2430DB\..\..\..\..\..\COMPONENTS\HAL\TARGET\CC #
#                          2430EB\" -I "C:\Texas Instruments\ZStack-1.4.3-1.2 #
#                          .1\Projects\zstack\Samples\cc2430-zstack-adxl345   #
#                          - 2\CC2430DB\..\..\..\..\..\COMPONENTS\OSAL\MCU\CC #
#                          SOC\" -I "C:\Texas Instruments\ZStack-1.4.3-1.2.1\ #
#                          Projects\zstack\Samples\cc2430-zstack-adxl345 -    #
#                          2\CC2430DB\..\..\..\..\..\COMPONENTS\OSAL\INCLUDE\ #
#                          " -I "C:\Texas Instruments\ZStack-1.4.3-1.2.1\Proj #
#                          ects\zstack\Samples\cc2430-zstack-adxl345 -        #
#                          2\CC2430DB\..\..\..\..\..\COMPONENTS\STACK\AF\"    #
#                          -I "C:\Texas Instruments\ZStack-1.4.3-1.2.1\Projec #
#                          ts\zstack\Samples\cc2430-zstack-adxl345 -          #
#                          2\CC2430DB\..\..\..\..\..\COMPONENTS\STACK\NWK\"   #
#                          -I "C:\Texas Instruments\ZStack-1.4.3-1.2.1\Projec #
#                          ts\zstack\Samples\cc2430-zstack-adxl345 -          #
#                          2\CC2430DB\..\..\..\..\..\COMPONENTS\STACK\SEC\"   #
#                          -I "C:\Texas Instruments\ZStack-1.4.3-1.2.1\Projec #
#                          ts\zstack\Samples\cc2430-zstack-adxl345 -          #
#                          2\CC2430DB\..\..\..\..\..\COMPONENTS\STACK\SYS\"   #
#                          -I "C:\Texas Instruments\ZStack-1.4.3-1.2.1\Projec #
#                          ts\zstack\Samples\cc2430-zstack-adxl345 -          #
#                          2\CC2430DB\..\..\..\..\..\COMPONENTS\STACK\ZDO\"   #
#                          -I "C:\Texas Instruments\ZStack-1.4.3-1.2.1\Projec #
#                          ts\zstack\Samples\cc2430-zstack-adxl345 -          #
#                          2\CC2430DB\..\..\..\..\..\COMPONENTS\ZMAC\F8W\"    #
#                          -I "C:\Texas Instruments\ZStack-1.4.3-1.2.1\Projec #
#                          ts\zstack\Samples\cc2430-zstack-adxl345 -          #
#                          2\CC2430DB\..\..\..\..\..\COMPONENTS\ZMAC\" -I     #
#                          "C:\Texas Instruments\ZStack-1.4.3-1.2.1\Projects\ #
#                          zstack\Samples\cc2430-zstack-adxl345 -             #
#                          2\CC2430DB\..\..\..\..\..\COMPONENTS\SERVICES\SADD #
#                          R\" -I "C:\Texas Instruments\ZStack-1.4.3-1.2.1\Pr #
#                          ojects\zstack\Samples\cc2430-zstack-adxl345 -      #
#                          2\CC2430DB\..\..\..\..\..\COMPONENTS\SERVICES\SDAT #
#                          A\" -I "C:\Texas Instruments\ZStack-1.4.3-1.2.1\Pr #
#                          ojects\zstack\Samples\cc2430-zstack-adxl345 -      #
#                          2\CC2430DB\..\..\..\..\..\COMPONENTS\MAC\INCLUDE\" #
#                           -I "C:\Texas Instruments\ZStack-1.4.3-1.2.1\Proje #
#                          cts\zstack\Samples\cc2430-zstack-adxl345 -         #
#                          2\CC2430DB\..\..\..\..\..\COMPONENTS\MAC\HIGH_LEVE #
#                          L\" -I "C:\Texas Instruments\ZStack-1.4.3-1.2.1\Pr #
#                          ojects\zstack\Samples\cc2430-zstack-adxl345 -      #
#                          2\CC2430DB\..\..\..\..\..\COMPONENTS\MAC\LOW_LEVEL #
#                          \SRF03\" -I "C:\Texas Instruments\ZStack-1.4.3-1.2 #
#                          .1\Projects\zstack\Samples\cc2430-zstack-adxl345   #
#                          - 2\CC2430DB\..\..\..\..\..\COMPONENTS\MAC\LOW_LEV #
#                          EL\SRF03\SINGLE_CHIP\" -I "C:\Program Files\IAR    #
#                          Systems\Embedded Workbench 4.0 Evaluation          #
#                          version\8051\INC\" -I "C:\Program Files\IAR        #
#                          Systems\Embedded Workbench 4.0 Evaluation          #
#                          version\8051\INC\CLIB\"                            #
#    List file          =  C:\Texas Instruments\ZStack-1.4.3-1.2.1\Projects\z #
#                          stack\Samples\cc2430-zstack-adxl345 -              #
#                          2\CC2430DB\CoordinatorEB\List\adxl345.lst          #
#    Object file        =  C:\Texas Instruments\ZStack-1.4.3-1.2.1\Projects\z #
#                          stack\Samples\cc2430-zstack-adxl345 -              #
#                          2\CC2430DB\CoordinatorEB\Obj\adxl345.r51           #
#                                                                             #
#                                                                             #
###############################################################################

C:\Texas Instruments\ZStack-1.4.3-1.2.1\Projects\zstack\Samples\cc2430-zstack-adxl345 - 2\Drivers\adxl345.c
      1          #include <ioCC2430.h>

   \                                 In  segment SFR_AN, at 0x90
   \   union <unnamed> volatile __sfr _A_P1
   \                     _A_P1:
   \   000000                DS 1

   \                                 In  segment SFR_AN, at 0xfe
   \   unsigned char volatile __sfr P1DIR
   \                     P1DIR:
   \   000000                DS 1
      2          #include <string.h>
      3          #include <math.h>
      4          #include <stdio.h>
      5          #include <math.h>
      6          #include "adxl345.h"
      7          //#include "LCD3310.h"
      8          #define SCL     P1_2
      9          #define SDA     P1_3
     10          
     11          #define SDADirOut P1DIR|=0x08;      //xxxx1M01
     12          #define SDADirIn  P1DIR&=~0x08;
     13          
     14          #define TRUE 1
     15          #define FALSE 0
     16          #define	SlaveAddress 0xA6 //定义器件在IIC总线中的从地址,根据ALT  ADDRESS地址引脚不同修改
     17          

   \                                 In  segment XDATA_Z, align 1, keep-with-next
     18          INT8U POS_TEMP[6];
   \                     POS_TEMP:
   \   000000                DS 6
   \   000006                REQUIRE __INIT_XDATA_Z

   \                                 In  segment XDATA_Z, align 1, keep-with-next
     19          int  dis_data;
   \                     dis_data:
   \   000000                DS 2
   \   000002                REQUIRE __INIT_XDATA_Z
     20          

   \                                 In  segment XDATA_Z, align 1, keep-with-next
     21          char wan,qian,bai,shi,ge;
   \                     wan:
   \   000000                DS 1
   \   000001                REQUIRE __INIT_XDATA_Z

   \                                 In  segment XDATA_Z, align 1, keep-with-next
   \                     qian:
   \   000000                DS 1
   \   000001                REQUIRE __INIT_XDATA_Z

   \                                 In  segment XDATA_Z, align 1, keep-with-next
   \                     bai:
   \   000000                DS 1
   \   000001                REQUIRE __INIT_XDATA_Z

   \                                 In  segment XDATA_Z, align 1, keep-with-next
   \                     shi:
   \   000000                DS 1
   \   000001                REQUIRE __INIT_XDATA_Z

   \                                 In  segment XDATA_Z, align 1, keep-with-next
   \                     `ge`:
   \   000000                DS 1
   \   000001                REQUIRE __INIT_XDATA_Z
     22          
     23          void initUARTtest(void);
     24          void UartTX_Send_String(char *Data,int len);
     25          
     26          void Sendack(unsigned char h);
     27          unsigned char I2C_Check_ack();
     28          
     29          void I2C_Start_1(void);
     30          void I2C_Stop_1(void);
     31          
     32          void WriteI2CByte_1(INT8U b);
     33          unsigned char ReadI2CByte_1(void);
     34          
     35          unsigned char Single_Read_ADXL345(INT8U REG_Address);
     36          void Single_Write_ADXL345(INT8U REG_Address,INT8U REG_data);
     37          
     38          void Init_ADXL345();
     39          
     40          void Delay_1u(unsigned int microSecs);
     41          void Delay(INT16U n);
     42          
     43          INT8U I2C_Check_ack(void);
     44          
     45          
     46          void Multiple_Read_ADXL345(void);
     47          

   \                                 In  segment BANKED_CODE, align 1, keep-with-next
     48          void Delay(INT16U n)      //(5/32)*n   us
   \                     Delay:
     49          {
   \   000000                ; Saved register size: 0
   \   000000                ; Auto size: 0
     50              INT16U d;
     51              for(d=0;d<n;d++);
   \   000000   7800         MOV     R0,#0x0
   \   000002   7900         MOV     R1,#0x0
   \   000004   8008         SJMP    ??Delay_0
   \                     ??Delay_1:
   \   000006   E8           MOV     A,R0
   \   000007   2401         ADD     A,#0x1
   \   000009   08           INC     R0
   \   00000A   E9           MOV     A,R1
   \   00000B   3400         ADDC    A,#0x0
   \   00000D   F9           MOV     R1,A
   \                     ??Delay_0:
   \   00000E   C3           CLR     C
   \   00000F   E8           MOV     A,R0
   \   000010   9A           SUBB    A,R2
   \   000011   E9           MOV     A,R1
   \   000012   9B           SUBB    A,R3
   \   000013   40F1         JC      ??Delay_1
     52          //    for(d=0;d<n;d++);
     53          //    for(d=0;d<n;d++);
     54          //    for(d=0;d<n;d++);
     55          //    for(d=0;d<n;d++);
     56          }
   \   000015   02....       LJMP    ?BRET
     57          

   \                                 In  segment BANKED_CODE, align 1, keep-with-next
     58          void Delay_1u(unsigned int microSecs) {
   \                     Delay_1u:
   \   000000                ; Saved register size: 0
   \   000000                ; Auto size: 0
   \   000000   8005         SJMP    ??Delay_1u_0
     59              while(microSecs--)
     60              {
     61                  /* 32 NOPs == 1 usecs */
     62                  asm("nop"); asm("nop"); asm("nop"); asm("nop"); asm("nop");
   \                     ??Delay_1u_1:
   \   000002   00           nop
   \   000003   00           nop
   \   000004   00           nop
   \   000005   00           nop
   \   000006   00           nop
     63          //        asm("nop"); asm("nop"); asm("nop"); asm("nop"); asm("nop");
     64          //        asm("nop"); asm("nop"); asm("nop"); asm("nop"); asm("nop");
     65          //        asm("nop"); asm("nop"); asm("nop"); asm("nop"); asm("nop");
     66          //        asm("nop"); asm("nop"); asm("nop"); asm("nop"); asm("nop");
     67          //        asm("nop"); asm("nop"); asm("nop"); asm("nop"); asm("nop");
     68          //        asm("nop"); asm("nop");
     69              }
   \                     ??Delay_1u_0:
   \   000007   EA           MOV     A,R2
   \   000008   F8           MOV     R0,A
   \   000009   EB           MOV     A,R3
   \   00000A   F9           MOV     R1,A
   \   00000B   74FF         MOV     A,#-0x1
   \   00000D   28           ADD     A,R0
   \   00000E   1A           DEC     R2
   \   00000F   74FF         MOV     A,#-0x1
   \   000011   39           ADDC    A,R1
   \   000012   FB           MOV     R3,A
   \   000013   E8           MOV     A,R0
   \   000014   7001         JNZ     ??Delay_1u_2
   \   000016   E9           MOV     A,R1
   \                     ??Delay_1u_2:
   \   000017   70E9         JNZ     ??Delay_1u_1
     70          }
   \   000019   02....       LJMP    ?BRET
     71          

   \                                 In  segment BANKED_CODE, align 1, keep-with-next
     72          void conversion(SEND_DATA *da, ACCELERATION * ac)
   \                     conversion:
     73          {
   \   000000   74F0         MOV     A,#-0x10
   \   000002   12....       LCALL   ?BANKED_ENTER_XDATA
   \   000005                ; Saved register size: 16
   \   000005                ; Auto size: 14
   \   000005   74F2         MOV     A,#-0xe
   \   000007   12....       LCALL   ?ALLOC_XSTACK8
   \   00000A   740C         MOV     A,#0xc
   \   00000C   12....       LCALL   ?XSTACK_DISP0_8
   \   00000F   EA           MOV     A,R2
   \   000010   F0           MOVX    @DPTR,A
   \   000011   A3           INC     DPTR
   \   000012   EB           MOV     A,R3
   \   000013   F0           MOVX    @DPTR,A
     74              float acc_total;
     75              ac->acc_x = (POS_TEMP[1] << 8) + POS_TEMP[0];
   \   000014   90....       MOV     DPTR,#(POS_TEMP + 1)
   \   000017   E0           MOVX    A,@DPTR
   \   000018   F9           MOV     R1,A
   \   000019   90....       MOV     DPTR,#POS_TEMP
   \   00001C   E0           MOVX    A,@DPTR
   \   00001D   2400         ADD     A,#0x0
   \   00001F   F5..         MOV     ?V0 + 4,A
   \   000021   E4           CLR     A
   \   000022   39           ADDC    A,R1
   \   000023   12....       LCALL   ?Subroutine11 & 0xFFFF
   \                     ??CrossCallReturnLabel_22:
   \   000026   12....       LCALL   ?L_TO_FLT
   \   000029   8C82         MOV     DPL,R4
   \   00002B   8D83         MOV     DPH,R5
   \   00002D   78..         MOV     R0,#?V0 + 4
   \   00002F   12....       LCALL   ?L_MOV_TO_X
   \   000032   EC           MOV     A,R4
   \   000033   2404         ADD     A,#0x4
   \   000035   FA           MOV     R2,A
   \   000036   ED           MOV     A,R5
   \   000037   3400         ADDC    A,#0x0
   \   000039   FB           MOV     R3,A
   \   00003A   90....       MOV     DPTR,#(POS_TEMP + 3)
   \   00003D   E0           MOVX    A,@DPTR
   \   00003E   F9           MOV     R1,A
   \   00003F   90....       MOV     DPTR,#(POS_TEMP + 2)
   \   000042   12....       LCALL   ?Subroutine1 & 0xFFFF
   \                     ??CrossCallReturnLabel_3:
   \   000045   12....       LCALL   ?L_TO_FLT
   \   000048   8A82         MOV     DPL,R2
   \   00004A   8B83         MOV     DPH,R3
   \   00004C   78..         MOV     R0,#?V0 + 0
   \   00004E   12....       LCALL   ?L_MOV_TO_X
   \   000051   90....       MOV     DPTR,#(POS_TEMP + 5)
   \   000054   E0           MOVX    A,@DPTR
   \   000055   F9           MOV     R1,A
   \   000056   90....       MOV     DPTR,#(POS_TEMP + 4)
   \   000059   12....       LCALL   ?Subroutine1 & 0xFFFF
   \                     ??CrossCallReturnLabel_4:
   \   00005C   12....       LCALL   ?L_TO_FLT
   \   00005F   8C82         MOV     DPL,R4
   \   000061   8D83         MOV     DPH,R5
   \   000063   A3           INC     DPTR
   \   000064   A3           INC     DPTR
   \   000065   A3           INC     DPTR
   \   000066   A3           INC     DPTR
   \   000067   A3           INC     DPTR
   \   000068   A3           INC     DPTR
   \   000069   A3           INC     DPTR
   \   00006A   A3           INC     DPTR
   \   00006B   78..         MOV     R0,#?V0 + 0
   \   00006D   12....       LCALL   ?L_MOV_TO_X
     76              ac->acc_y = (POS_TEMP[3] << 8) + POS_TEMP[2];
     77              ac->acc_z = (POS_TEMP[5] << 8) + POS_TEMP[4];
     78              ac->acc_x = (float)(ac->acc_x) * 3.9;
     79              ac->acc_x = (float)(ac->acc_x / 100);
   \   000070   90....       MOV     DPTR,#__Constant_4079999a
   \   000073   78..         MOV     R0,#?V0 + 0
   \   000075   12....       LCALL   ?L_MOV_X
   \   000078   78..         MOV     R0,#?V0 + 4
   \   00007A   79..         MOV     R1,#?V0 + 0
   \   00007C   12....       LCALL   ?FLT_MUL
   \   00007F   90....       MOV     DPTR,#__Constant_42c80000
   \   000082   78..         MOV     R0,#?V0 + 0
   \   000084   12....       LCALL   ?L_MOV_X
   \   000087   78..         MOV     R0,#?V0 + 4
   \   000089   79..         MOV     R1,#?V0 + 0
   \   00008B   12....       LCALL   ?FLT_DIV
   \   00008E   85....       MOV     ?V0 + 0,?V0 + 4
   \   000091   85....       MOV     ?V0 + 1,?V0 + 5
   \   000094   85....       MOV     ?V0 + 2,?V0 + 6
   \   000097   85....       MOV     ?V0 + 3,?V0 + 7
   \   00009A   7404         MOV     A,#0x4
   \   00009C   12....       LCALL   ?XSTACK_DISP0_8
   \   00009F   78..         MOV     R0,#?V0 + 0
   \   0000A1   12....       LCALL   ?L_MOV_TO_X
   \   0000A4   7404         MOV     A,#0x4
   \   0000A6   12....       LCALL   ?XSTACK_DISP0_8
   \   0000A9   78..         MOV     R0,#?V0 + 0
   \   0000AB   12....       LCALL   ?L_MOV_X
   \   0000AE   8C82         MOV     DPL,R4
   \   0000B0   8D83         MOV     DPH,R5
   \   0000B2   78..         MOV     R0,#?V0 + 0
   \   0000B4   12....       LCALL   ?L_MOV_TO_X
     80              ac->acc_y = (float)(ac->acc_y) * 3.9;
     81              ac->acc_y = (float)(ac->acc_y / 100);
   \   0000B7   8A82         MOV     DPL,R2
   \   0000B9   8B83         MOV     DPH,R3
   \   0000BB   78..         MOV     R0,#?V0 + 0
   \   0000BD   12....       LCALL   ?L_MOV_X
   \   0000C0   90....       MOV     DPTR,#__Constant_4079999a
   \   0000C3   78..         MOV     R0,#?V0 + 4
   \   0000C5   12....       LCALL   ?L_MOV_X
   \   0000C8   78..         MOV     R0,#?V0 + 0
   \   0000CA   79..         MOV     R1,#?V0 + 4
   \   0000CC   12....       LCALL   ?FLT_MUL
   \   0000CF   90....       MOV     DPTR,#__Constant_42c80000
   \   0000D2   78..         MOV     R0,#?V0 + 4
   \   0000D4   12....       LCALL   ?L_MOV_X
   \   0000D7   78..         MOV     R0,#?V0 + 0
   \   0000D9   79..         MOV     R1,#?V0 + 4
   \   0000DB   12....       LCALL   ?FLT_DIV
   \   0000DE   7408         MOV     A,#0x8
   \   0000E0   12....       LCALL   ?XSTACK_DISP0_8
   \   0000E3   78..         MOV     R0,#?V0 + 0
   \   0000E5   12....       LCALL   ?L_MOV_TO_X
   \   0000E8   7408         MOV     A,#0x8
   \   0000EA   12....       LCALL   ?XSTACK_DISP0_8
   \   0000ED   78..         MOV     R0,#?V0 + 0
   \   0000EF   12....       LCALL   ?L_MOV_X
   \   0000F2   8A82         MOV     DPL,R2
   \   0000F4   8B83         MOV     DPH,R3
   \   0000F6   78..         MOV     R0,#?V0 + 0
   \   0000F8   12....       LCALL   ?L_MOV_TO_X
     82              ac->acc_z = (float)(ac->acc_z) * 3.9;
     83              ac->acc_z = (float)(ac->acc_z / 100);
   \   0000FB   8C82         MOV     DPL,R4
   \   0000FD   8D83         MOV     DPH,R5
   \   0000FF   A3           INC     DPTR
   \   000100   A3           INC     DPTR
   \   000101   A3           INC     DPTR
   \   000102   A3           INC     DPTR
   \   000103   A3           INC     DPTR
   \   000104   A3           INC     DPTR
   \   000105   A3           INC     DPTR
   \   000106   A3           INC     DPTR
   \   000107   78..         MOV     R0,#?V0 + 0
   \   000109   12....       LCALL   ?L_MOV_X
   \   00010C   90....       MOV     DPTR,#__Constant_4079999a
   \   00010F   78..         MOV     R0,#?V0 + 4
   \   000111   12....       LCALL   ?L_MOV_X
   \   000114   78..         MOV     R0,#?V0 + 0
   \   000116   79..         MOV     R1,#?V0 + 4
   \   000118   12....       LCALL   ?FLT_MUL
   \   00011B   90....       MOV     DPTR,#__Constant_42c80000
   \   00011E   78..         MOV     R0,#?V0 + 4
   \   000120   12....       LCALL   ?L_MOV_X
   \   000123   78..         MOV     R0,#?V0 + 0
   \   000125   79..         MOV     R1,#?V0 + 4
   \   000127   12....       LCALL   ?FLT_DIV
   \   00012A   85..82       MOV     DPL,?XSP + 0
   \   00012D   85..83       MOV     DPH,?XSP + 1
   \   000130   78..         MOV     R0,#?V0 + 0
   \   000132   12....       LCALL   ?L_MOV_TO_X
   \   000135   85..82       MOV     DPL,?XSP + 0
   \   000138   85..83       MOV     DPH,?XSP + 1
   \   00013B   78..         MOV     R0,#?V0 + 0
   \   00013D   12....       LCALL   ?L_MOV_X
   \   000140   8C82         MOV     DPL,R4
   \   000142   8D83         MOV     DPH,R5
   \   000144   A3           INC     DPTR
   \   000145   A3           INC     DPTR
   \   000146   A3           INC     DPTR
   \   000147   A3           INC     DPTR
   \   000148   A3           INC     DPTR
   \   000149   A3           INC     DPTR
   \   00014A   A3           INC     DPTR
   \   00014B   A3           INC     DPTR
   \   00014C   78..         MOV     R0,#?V0 + 0
   \   00014E   12....       LCALL   ?L_MOV_TO_X
     84          
     85              acc_total = sqrt(ac->acc_x * ac->acc_x + ac->acc_y * ac->acc_y + ac->acc_z * ac->acc_z);
     86              /* calculate the angle */
     87              da->angle = acos(ac->acc_z / acc_total);
     88              da->angle = da->angle / 3.14 * 180;
   \   000151                ; Setup parameters for call to function acos
   \   000151   85..82       MOV     DPL,?XSP + 0
   \   000154   85..83       MOV     DPH,?XSP + 1
   \   000157   78..         MOV     R0,#?V0 + 0
   \   000159   12....       LCALL   ?L_MOV_X
   \   00015C   C0..         PUSH    ?V0 + 0
   \   00015E   C0..         PUSH    ?V0 + 1
   \   000160   C0..         PUSH    ?V0 + 2
   \   000162   C0..         PUSH    ?V0 + 3
   \   000164                ; Setup parameters for call to function sqrt
   \   000164   7404         MOV     A,#0x4
   \   000166   12....       LCALL   ?XSTACK_DISP0_8
   \   000169   78..         MOV     R0,#?V0 + 0
   \   00016B   12....       LCALL   ?L_MOV_X
   \   00016E   7404         MOV     A,#0x4
   \   000170   12....       LCALL   ?XSTACK_DISP0_8
   \   000173   78..         MOV     R0,#?V0 + 4
   \   000175   12....       LCALL   ?L_MOV_X
   \   000178   78..         MOV     R0,#?V0 + 0
   \   00017A   79..         MOV     R1,#?V0 + 4
   \   00017C   12....       LCALL   ?FLT_MUL
   \   00017F   C0..         PUSH    ?V0 + 0
   \   000181   C0..         PUSH    ?V0 + 1
   \   000183   C0..         PUSH    ?V0 + 2
   \   000185   C0..         PUSH    ?V0 + 3
   \   000187   7408         MOV     A,#0x8
   \   000189   12....       LCALL   ?XSTACK_DISP0_8
   \   00018C   78..         MOV     R0,#?V0 + 4
   \   00018E   12....       LCALL   ?L_MOV_X
   \   000191   7408         MOV     A,#0x8
   \   000193   12....       LCALL   ?XSTACK_DISP0_8
   \   000196   78..         MOV     R0,#?V0 + 0
   \   000198   12....       LCALL   ?L_MOV_X
   \   00019B   78..         MOV     R0,#?V0 + 4
   \   00019D   79..         MOV     R1,#?V0 + 0
   \   00019F   12....       LCALL   ?FLT_MUL
   \   0001A2   D0..         POP     ?V0 + 3
   \   0001A4   D0..         POP     ?V0 + 2
   \   0001A6   D0..         POP     ?V0 + 1
   \   0001A8   D0..         POP     ?V0 + 0
   \   0001AA   78..         MOV     R0,#?V0 + 0
   \   0001AC   79..         MOV     R1,#?V0 + 4
   \   0001AE   12....       LCALL   ?FLT_ADD
   \   0001B1   C0..         PUSH    ?V0 + 0
   \   0001B3   C0..         PUSH    ?V0 + 1
   \   0001B5   C0..         PUSH    ?V0 + 2
   \   0001B7   C0..         PUSH    ?V0 + 3
   \   0001B9   85..82       MOV     DPL,?XSP + 0
   \   0001BC   85..83       MOV     DPH,?XSP + 1
   \   0001BF   78..         MOV     R0,#?V0 + 4
   \   0001C1   12....       LCALL   ?L_MOV_X
   \   0001C4   85..82       MOV     DPL,?XSP + 0
   \   0001C7   85..83       MOV     DPH,?XSP + 1
   \   0001CA   78..         MOV     R0,#?V0 + 0
   \   0001CC   12....       LCALL   ?L_MOV_X
   \   0001CF   78..         MOV     R0,#?V0 + 4
   \   0001D1   79..         MOV     R1,#?V0 + 0
   \   0001D3   12....       LCALL   ?FLT_MUL
   \   0001D6   D0..         POP     ?V0 + 3
   \   0001D8   D0..         POP     ?V0 + 2
   \   0001DA   D0..         POP     ?V0 + 1
   \   0001DC   D0..         POP     ?V0 + 0
   \   0001DE   78..         MOV     R0,#?V0 + 0
   \   0001E0   79..         MOV     R1,#?V0 + 4
   \   0001E2   12....       LCALL   ?FLT_ADD
   \   0001E5   AA..         MOV     R2,?V0 + 0
   \   0001E7   AB..         MOV     R3,?V0 + 1
   \   0001E9   AC..         MOV     R4,?V0 + 2
   \   0001EB   AD..         MOV     R5,?V0 + 3
   \   0001ED   12....       LCALL   ??sqrt?relay
   \   0001F0   8A..         MOV     ?V0 + 0,R2
   \   0001F2   8B..         MOV     ?V0 + 1,R3
   \   0001F4   8C..         MOV     ?V0 + 2,R4
   \   0001F6   8D..         MOV     ?V0 + 3,R5
   \   0001F8   D0..         POP     ?V0 + 7
   \   0001FA   D0..         POP     ?V0 + 6
   \   0001FC   D0..         POP     ?V0 + 5
   \   0001FE   D0..         POP     ?V0 + 4
   \   000200   78..         MOV     R0,#?V0 + 4
   \   000202   79..         MOV     R1,#?V0 + 0
   \   000204   12....       LCALL   ?FLT_DIV
   \   000207   AA..         MOV     R2,?V0 + 4
   \   000209   AB..         MOV     R3,?V0 + 5
   \   00020B   AC..         MOV     R4,?V0 + 6
   \   00020D   AD..         MOV     R5,?V0 + 7
   \   00020F   12....       LCALL   ??acos?relay
   \   000212   8A..         MOV     ?V0 + 0,R2
   \   000214   8B..         MOV     ?V0 + 1,R3
   \   000216   8C..         MOV     ?V0 + 2,R4
   \   000218   8D..         MOV     ?V0 + 3,R5
   \   00021A   78..         MOV     R0,#?V0 + 0
   \   00021C   12....       LCALL   ?FLT_TO_L
   \   00021F   75..00       MOV     ?V0 + 1,#0x0
   \   000222   75..00       MOV     ?V0 + 2,#0x0
   \   000225   75..00       MOV     ?V0 + 3,#0x0
   \   000228   78..         MOV     R0,#?V0 + 0
   \   00022A   12....       LCALL   ?UL_TO_FLT
   \   00022D   90....       MOV     DPTR,#__Constant_4048f5c3
   \   000230   78..         MOV     R0,#?V0 + 4
   \   000232   12....       LCALL   ?L_MOV_X
   \   000235   78..         MOV     R0,#?V0 + 0
   \   000237   79..         MOV     R1,#?V0 + 4
   \   000239   12....       LCALL   ?FLT_DIV
   \   00023C   90....       MOV     DPTR,#__Constant_43340000
   \   00023F   78..         MOV     R0,#?V0 + 4
   \   000241   12....       LCALL   ?L_MOV_X
   \   000244   78..         MOV     R0,#?V0 + 0
   \   000246   79..         MOV     R1,#?V0 + 4
   \   000248   12....       LCALL   ?FLT_MUL
   \   00024B   78..         MOV     R0,#?V0 + 0
   \   00024D   12....       LCALL   ?FLT_TO_L
   \   000250   740C         MOV     A,#0xc
   \   000252   12....       LCALL   ?XSTACK_DISP0_8
   \   000255   E0           MOVX    A,@DPTR
   \   000256   F8           MOV     R0,A
   \   000257   A3           INC     DPTR
   \   000258   E0           MOVX    A,@DPTR
   \   000259   F583         MOV     DPH,A
   \   00025B   8882         MOV     DPL,R0
   \   00025D   A3           INC     DPTR
   \   00025E   A3           INC     DPTR
   \   00025F   E5..         MOV     A,?V0 + 0
   \   000261   F0           MOVX    @DPTR,A
     89          }
   \   000262   740E         MOV     A,#0xe
   \   000264                REQUIRE ?Subroutine13
   \   000264                ; // Fall through to label ?Subroutine13

   \                                 In  segment BANKED_CODE, align 1, keep-with-next
   \                     ?Subroutine13:
   \   000000   12....       LCALL   ?DEALLOC_XSTACK8
   \   000003   7F08         MOV     R7,#0x8
   \   000005   02....       LJMP    ?BANKED_LEAVE_XDATA

   \                                 In  segment BANKED_CODE, align 1, keep-with-next
   \                     ?Subroutine1:
   \   000000   E0           MOVX    A,@DPTR
   \   000001   2400         ADD     A,#0x0
   \   000003   F5..         MOV     ?V0 + 0,A
   \   000005   E4           CLR     A
   \   000006   39           ADDC    A,R1
   \   000007   F5..         MOV     ?V0 + 1,A
   \   000009   33           RLC     A
   \   00000A   95E0         SUBB    A,0xE0 /* A   */
   \   00000C   F5..         MOV     ?V0 + 2,A
   \   00000E   F5..         MOV     ?V0 + 3,A
   \   000010   78..         MOV     R0,#?V0 + 0
   \   000012   22           RET

   \                                 In  segment BANKED_CODE, align 1, keep-with-next
   \                     ?Subroutine11:
   \   000000   F5..         MOV     ?V0 + 5,A
   \   000002   33           RLC     A
   \   000003   95E0         SUBB    A,0xE0 /* A   */
   \   000005   F5..         MOV     ?V0 + 6,A
   \   000007   F5..         MOV     ?V0 + 7,A
   \   000009   78..         MOV     R0,#?V0 + 4
   \   00000B   22           RET
     90          

   \                                 In  segment BANKED_CODE, align 1, keep-with-next
     91          void I2C_Start_1(void)
   \                     I2C_Start_1:
     92          {
   \   000000   C082         PUSH    DPL
   \   000002   C083         PUSH    DPH
   \   000004                ; Saved register size: 2
   \   000004                ; Auto size: 0
     93              /*启动I2C总线的函数，当SCL为高电平时使SDA产生一个负跳变*/
     94              SDADirOut;
   \   000004   12....       LCALL   ?Subroutine5 & 0xFFFF
     95              Delay_1u(1);
     96              SDA=1;
   \                     ??CrossCallReturnLabel_26:
   \   000007   D293         SETB    0x90.3
     97              SCL=1;
   \   000009   D292         SETB    0x90.2
     98              Delay_1u(5);
   \   00000B                ; Setup parameters for call to function Delay_1u
   \   00000B   7A05         MOV     R2,#0x5
   \   00000D   7B00         MOV     R3,#0x0
   \   00000F   12....       LCALL   ??Delay_1u?relay
     99              SDA=0;
   \   000012   C293         CLR     0x90.3
    100              Delay_1u(5);
   \   000014                ; Setup parameters for call to function Delay_1u
   \   000014   7A05         MOV     R2,#0x5
   \   000016   7B00         MOV     R3,#0x0
   \   000018   12....       LCALL   ??Delay_1u?relay
    101              SCL=0;
   \   00001B   C292         CLR     0x90.2
    102              Delay_1u(5);
   \   00001D                ; Setup parameters for call to function Delay_1u
   \   00001D   02....       LJMP    ?Subroutine12 & 0xFFFF
   \   000020                REQUIRE _A_P1
   \   000020                REQUIRE P1DIR
    103          }

   \                                 In  segment BANKED_CODE, align 1, keep-with-next
   \                     ?Subroutine5:
   \   000000   43FE08       ORL     0xfe,#0x8
   \   000003                ; Setup parameters for call to function Delay_1u
   \   000003                ; Setup parameters for call to function Delay_1u
   \   000003   7A01         MOV     R2,#0x1
   \   000005                REQUIRE ?Subroutine14
   \   000005                ; // Fall through to label ?Subroutine14

   \                                 In  segment BANKED_CODE, align 1, keep-with-next
   \                     ?Subroutine14:
   \   000000   7B00         MOV     R3,#0x0
   \   000002   12....       LCALL   ??Delay_1u?relay
   \   000005   22           RET

   \                                 In  segment BANKED_CODE, align 1, keep-with-next
   \                     ?Subroutine12:
   \   000000   7A05         MOV     R2,#0x5
   \   000002   7B00         MOV     R3,#0x0
   \   000004   12....       LCALL   ??Delay_1u?relay
   \                     ??Subroutine12_0:
   \   000007   D083         POP     DPH
   \   000009   D082         POP     DPL
   \   00000B   02....       LJMP    ?BRET
    104          

   \                                 In  segment BANKED_CODE, align 1, keep-with-next
    105          void I2C_Stop_1(void)
   \                     I2C_Stop_1:
    106          {
   \   000000   C082         PUSH    DPL
   \   000002   C083         PUSH    DPH
   \   000004                ; Saved register size: 2
   \   000004                ; Auto size: 0
    107              /*终止I2C总线，当SCL为高电平时使SDA产生一个正跳变*/
    108              SCL=0;
   \   000004   C292         CLR     0x90.2
    109              Delay_1u(1);
   \   000006                ; Setup parameters for call to function Delay_1u
   \   000006   7A01         MOV     R2,#0x1
   \   000008   7B00         MOV     R3,#0x0
   \   00000A   12....       LCALL   ??Delay_1u?relay
    110              SDADirOut;
   \   00000D   12....       LCALL   ?Subroutine5 & 0xFFFF
    111              Delay_1u(1);
    112              SDA=0;
   \                     ??CrossCallReturnLabel_27:
   \   000010   C293         CLR     0x90.3
    113              Delay_1u(5);
   \   000012                ; Setup parameters for call to function Delay_1u
   \   000012   12....       LCALL   ?Subroutine3 & 0xFFFF
    114              SCL=1;
    115              Delay_1u(5);
    116              SDA=1;
   \                     ??CrossCallReturnLabel_7:
   \   000015   D293         SETB    0x90.3
    117              Delay_1u(5);
   \   000017                ; Setup parameters for call to function Delay_1u
   \   000017   80..         SJMP    ?Subroutine12
   \   000019                REQUIRE _A_P1
   \   000019                REQUIRE P1DIR
    118          }

   \                                 In  segment BANKED_CODE, align 1, keep-with-next
   \                     ?Subroutine3:
   \   000000   7A05         MOV     R2,#0x5
   \                     ??Subroutine3_0:
   \   000002   12....       LCALL   ?Subroutine9 & 0xFFFF
   \                     ??CrossCallReturnLabel_24:
   \   000005   22           RET

   \                                 In  segment BANKED_CODE, align 1, keep-with-next
   \                     ?Subroutine9:
   \   000000   7B00         MOV     R3,#0x0
   \   000002   12....       LCALL   ??Delay_1u?relay
   \   000005   D292         SETB    0x90.2
   \   000007                ; Setup parameters for call to function Delay_1u
   \   000007                ; Setup parameters for call to function Delay_1u
   \   000007                ; Setup parameters for call to function Delay_1u
   \   000007                ; Setup parameters for call to function Delay_1u
   \   000007                ; Setup parameters for call to function Delay_1u
   \   000007   7A05         MOV     R2,#0x5
   \   000009   80..         SJMP    ?Subroutine14
    119          

   \                                 In  segment BANKED_CODE, align 1, keep-with-next
    120          void Sendack(unsigned char h){
   \                     Sendack:
   \   000000   74F7         MOV     A,#-0x9
   \   000002   12....       LCALL   ?BANKED_ENTER_XDATA
   \   000005                ; Saved register size: 9
   \   000005                ; Auto size: 0
   \   000005   E9           MOV     A,R1
   \   000006   FE           MOV     R6,A
    121              SCL=0;
   \   000007   C292         CLR     0x90.2
    122              Delay_1u(5);
   \   000009                ; Setup parameters for call to function Delay_1u
   \   000009   7A05         MOV     R2,#0x5
   \   00000B   7B00         MOV     R3,#0x0
   \   00000D   12....       LCALL   ??Delay_1u?relay
    123              SDADirOut;
   \   000010   43FE08       ORL     0xfe,#0x8
    124              Delay(5);
   \   000013                ; Setup parameters for call to function Delay
   \   000013   7A05         MOV     R2,#0x5
   \   000015   7B00         MOV     R3,#0x0
   \   000017   12....       LCALL   ??Delay?relay
    125              SDA=h&0x01;
   \   00001A   EE           MOV     A,R6
   \   00001B   A2E0         MOV     C,0xE0 /* A   */.0
   \   00001D   9293         MOV     0x90.3,C
    126              Delay_1u(5);
   \   00001F                ; Setup parameters for call to function Delay_1u
   \   00001F   12....       LCALL   ?Subroutine3 & 0xFFFF
    127              SCL=1;
    128              Delay_1u(5);
    129              SCL=0;
   \                     ??CrossCallReturnLabel_8:
   \   000022   C292         CLR     0x90.2
    130              Delay_1u(5);
   \   000024                ; Setup parameters for call to function Delay_1u
   \   000024   7A05         MOV     R2,#0x5
   \   000026   7B00         MOV     R3,#0x0
   \   000028   12....       LCALL   ??Delay_1u?relay
    131          }
   \   00002B   80..         SJMP    ??Subroutine15_0
   \   00002D                REQUIRE _A_P1
   \   00002D                REQUIRE P1DIR

   \                                 In  segment BANKED_CODE, align 1, keep-with-next
   \                     ?Subroutine15:
   \   000000   F9           MOV     R1,A
   \                     ??Subroutine15_0:
   \   000001   7F01         MOV     R7,#0x1
   \   000003   02....       LJMP    ?BANKED_LEAVE_XDATA
    132          

   \                                 In  segment BANKED_CODE, align 1, keep-with-next
    133          INT8U I2C_Check_ack(void){
   \                     I2C_Check_ack:
   \   000000   C082         PUSH    DPL
   \   000002   C083         PUSH    DPH
   \   000004                ; Saved register size: 2
   \   000004                ; Auto size: 0
    134              SCL=0;
   \   000004   C292         CLR     0x90.2
    135              Delay_1u(5);
   \   000006                ; Setup parameters for call to function Delay_1u
   \   000006   7A05         MOV     R2,#0x5
   \   000008   7B00         MOV     R3,#0x0
   \   00000A   12....       LCALL   ??Delay_1u?relay
    136              SDADirOut;
   \   00000D   43FE08       ORL     0xfe,#0x8
    137              SDA=1;
   \   000010   D293         SETB    0x90.3
    138              SDADirIn;
   \   000012   53FEF7       ANL     0xfe,#0xf7
    139              Delay_1u(5);          //此处是否有必要使SDA先拉高？！？！
   \   000015                ; Setup parameters for call to function Delay_1u
   \   000015   12....       LCALL   ?Subroutine2 & 0xFFFF
    140              SCL=1;
    141              Delay_1u(5);
    142              if(SDA==1)
   \                     ??CrossCallReturnLabel_5:
   \   000018   C292         CLR     0x90.2
   \   00001A   5004         JNC     ??I2C_Check_ack_0
    143              {
    144                  SCL=0;
    145                  return 0;  //er
   \   00001C   7900         MOV     R1,#0x0
   \   00001E   8002         SJMP    ??I2C_Check_ack_1
    146              }
    147              SCL=0;
    148              return 1;
   \                     ??I2C_Check_ack_0:
   \   000020   7901         MOV     R1,#0x1
   \                     ??I2C_Check_ack_1:
   \   000022   80..         SJMP    ??Subroutine12_0
   \   000024                REQUIRE _A_P1
   \   000024                REQUIRE P1DIR
    149          }

   \                                 In  segment BANKED_CODE, align 1, keep-with-next
   \                     ?Subroutine2:
   \   000000   7A05         MOV     R2,#0x5
   \   000002   12....       LCALL   ?Subroutine9 & 0xFFFF
   \                     ??CrossCallReturnLabel_25:
   \   000005   A293         MOV     C,0x90.3
   \   000007   22           RET
    150          
    151          
    152          
    153          

   \                                 In  segment BANKED_CODE, align 1, keep-with-next
    154          void WriteI2CByte_1(unsigned char b)
   \                     WriteI2CByte_1:
    155          {
   \   000000   74F7         MOV     A,#-0x9
   \   000002   12....       LCALL   ?BANKED_ENTER_XDATA
   \   000005                ; Saved register size: 9
   \   000005                ; Auto size: 0
   \   000005   E9           MOV     A,R1
   \   000006   FE           MOV     R6,A
    156              /*向I2C总线写一个字节*/
    157              unsigned char e=8;
   \   000007   7F08         MOV     R7,#0x8
    158              SDADirOut;
   \   000009   43FE08       ORL     0xfe,#0x8
   \   00000C   800A         SJMP    ??CrossCallReturnLabel_9
    159              while(e--){
    160                  SCL=0;
    161                  Delay_1u(5);
    162                  if(b&0x80)SDA=1;
    163                  else SDA=0;
   \                     ??WriteI2CByte_1_0:
   \   00000E   C293         CLR     0x90.3
    164                  b<<=1;
   \                     ??WriteI2CByte_1_1:
   \   000010   C3           CLR     C
   \   000011   33           RLC     A
   \   000012   FE           MOV     R6,A
    165                  Delay_1u(3);
   \   000013                ; Setup parameters for call to function Delay_1u
   \   000013   7A03         MOV     R2,#0x3
   \   000015   12....       LCALL   ??Subroutine3_0 & 0xFFFF
    166                  SCL=1;
    167                  Delay_1u(5);
   \                     ??CrossCallReturnLabel_9:
   \   000018   EF           MOV     A,R7
   \   000019   1F           DEC     R7
   \   00001A   C292         CLR     0x90.2
   \   00001C   6010         JZ      ??WriteI2CByte_1_2
   \   00001E                ; Setup parameters for call to function Delay_1u
   \   00001E   7A05         MOV     R2,#0x5
   \   000020   7B00         MOV     R3,#0x0
   \   000022   12....       LCALL   ??Delay_1u?relay
   \   000025   EE           MOV     A,R6
   \   000026   A2E7         MOV     C,0xE0 /* A   */.7
   \   000028   50E4         JNC     ??WriteI2CByte_1_0
   \   00002A   D293         SETB    0x90.3
   \   00002C   80E2         SJMP    ??WriteI2CByte_1_1
    168              }
    169              SCL=0;
    170              I2C_Check_ack();
   \                     ??WriteI2CByte_1_2:
   \   00002E                ; Setup parameters for call to function I2C_Check_ack
   \   00002E   12....       LCALL   ??I2C_Check_ack?relay
    171          }
   \   000031   80..         SJMP    ??Subroutine15_0
   \   000033                REQUIRE _A_P1
   \   000033                REQUIRE P1DIR
    172          

   \                                 In  segment BANKED_CODE, align 1, keep-with-next
    173          unsigned char ReadI2CByte_1(void)
   \                     ReadI2CByte_1:
    174          {
   \   000000   74F7         MOV     A,#-0x9
   \   000002   12....       LCALL   ?BANKED_ENTER_XDATA
   \   000005                ; Saved register size: 9
   \   000005                ; Auto size: 0
    175              /*从I2C总线读一个字节*/
    176              unsigned char i=8;
   \   000005   7E08         MOV     R6,#0x8
    177              unsigned char c=0;
   \   000007   7F00         MOV     R7,#0x0
    178              SCL=0;
   \   000009   C292         CLR     0x90.2
    179              SDADirOut;
   \   00000B   43FE08       ORL     0xfe,#0x8
    180              SDA=1;
   \   00000E   D293         SETB    0x90.3
    181              Delay_1u(3);
   \   000010                ; Setup parameters for call to function Delay_1u
   \   000010   7A03         MOV     R2,#0x3
   \   000012   7B00         MOV     R3,#0x0
   \   000014   12....       LCALL   ??Delay_1u?relay
    182              SDADirIn;
   \   000017   53FEF7       ANL     0xfe,#0xf7
   \   00001A   8003         SJMP    ??ReadI2CByte_1_0
    183              while(i--){
    184                  c<<=1;
    185                  SCL=0;
    186                  Delay_1u(5);
    187                  SCL=1;
    188                  Delay_1u(5);
    189                  if(SDA==1)c|=0x01;
   \                     ??ReadI2CByte_1_1:
   \   00001C   D2E0         SETB    0xE0 /* A   */.0
   \                     ??ReadI2CByte_1_2:
   \   00001E   FF           MOV     R7,A
   \                     ??ReadI2CByte_1_0:
   \   00001F   EE           MOV     A,R6
   \   000020   1E           DEC     R6
   \   000021   6010         JZ      ??ReadI2CByte_1_3
   \   000023   EF           MOV     A,R7
   \   000024   C3           CLR     C
   \   000025   33           RLC     A
   \   000026   FF           MOV     R7,A
   \   000027   C292         CLR     0x90.2
   \   000029                ; Setup parameters for call to function Delay_1u
   \   000029   12....       LCALL   ?Subroutine2 & 0xFFFF
   \                     ??CrossCallReturnLabel_6:
   \   00002C   EF           MOV     A,R7
   \   00002D   40ED         JC      ??ReadI2CByte_1_1
    190                  else c&=0xfe;
   \   00002F   C2E0         CLR     0xE0 /* A   */.0
   \   000031   80EB         SJMP    ??ReadI2CByte_1_2
    191              }
    192              SCL=0;
   \                     ??ReadI2CByte_1_3:
   \   000033   C292         CLR     0x90.2
    193              SDADirOut;
   \   000035   43FE08       ORL     0xfe,#0x8
    194              return c;
   \   000038   EF           MOV     A,R7
   \   000039   02....       LJMP    ?Subroutine15 & 0xFFFF
   \   00003C                REQUIRE _A_P1
   \   00003C                REQUIRE P1DIR
    195          }
    196          //******单字节写入*******************************************
    197          

   \                                 In  segment BANKED_CODE, align 1, keep-with-next
    198          void Single_Write_ADXL345(INT8U REG_Address,INT8U REG_data)
   \                     Single_Write_ADXL345:
    199          {
   \   000000   74F7         MOV     A,#-0x9
   \   000002   12....       LCALL   ?BANKED_ENTER_XDATA
   \   000005                ; Saved register size: 9
   \   000005                ; Auto size: 0
   \   000005   E9           MOV     A,R1
   \   000006   FE           MOV     R6,A
   \   000007   EA           MOV     A,R2
   \   000008   FF           MOV     R7,A
    200              I2C_Start_1();                  //起始信号
   \   000009                ; Setup parameters for call to function I2C_Start_1
   \   000009   12....       LCALL   ?Subroutine4 & 0xFFFF
    201              WriteI2CByte_1(SlaveAddress);   //发送设备地址+写信号
    202              WriteI2CByte_1(REG_Address);    //内部寄存器地址，请参考中文pdf22页
    203              WriteI2CByte_1(REG_data);       //内部寄存器数据，请参考中文pdf22页
   \                     ??CrossCallReturnLabel_10:
   \   00000C                ; Setup parameters for call to function WriteI2CByte_1
   \   00000C   EF           MOV     A,R7
   \   00000D   F9           MOV     R1,A
   \   00000E   12....       LCALL   ??WriteI2CByte_1?relay
    204              I2C_Stop_1();                   //发送停止信号
   \   000011                ; Setup parameters for call to function I2C_Stop_1
   \   000011   12....       LCALL   ??I2C_Stop_1?relay
    205          }
   \   000014   02....       LJMP    ??Subroutine15_0 & 0xFFFF

   \                                 In  segment BANKED_CODE, align 1, keep-with-next
   \                     ?Subroutine4:
   \   000000   12....       LCALL   ?Subroutine10 & 0xFFFF
   \                     ??CrossCallReturnLabel_20:
   \   000003                ; Setup parameters for call to function WriteI2CByte_1
   \   000003                ; Setup parameters for call to function WriteI2CByte_1
   \   000003   EE           MOV     A,R6
   \   000004   F9           MOV     R1,A
   \   000005   12....       LCALL   ??WriteI2CByte_1?relay
   \   000008   22           RET

   \                                 In  segment BANKED_CODE, align 1, keep-with-next
   \                     ?Subroutine10:
   \   000000   12....       LCALL   ??I2C_Start_1?relay
   \   000003                ; Setup parameters for call to function WriteI2CByte_1
   \   000003                ; Setup parameters for call to function WriteI2CByte_1
   \   000003                ; Setup parameters for call to function WriteI2CByte_1
   \   000003   79A6         MOV     R1,#-0x5a
   \   000005   12....       LCALL   ??WriteI2CByte_1?relay
   \   000008   22           RET
    206          
    207          //********单字节读取*****************************************

   \                                 In  segment BANKED_CODE, align 1, keep-with-next
    208          unsigned char Single_Read_ADXL345(INT8U REG_Address)
   \                     Single_Read_ADXL345:
    209          {  INT8U REG_data;
   \   000000   74F7         MOV     A,#-0x9
   \   000002   12....       LCALL   ?BANKED_ENTER_XDATA
   \   000005                ; Saved register size: 9
   \   000005                ; Auto size: 0
   \   000005   E9           MOV     A,R1
   \   000006   FE           MOV     R6,A
    210              I2C_Start_1();                          //起始信号
   \   000007                ; Setup parameters for call to function I2C_Start_1
   \   000007   12....       LCALL   ?Subroutine4 & 0xFFFF
    211              WriteI2CByte_1(SlaveAddress);           //发送设备地址+写信号
    212              WriteI2CByte_1(REG_Address);                   //发送存储单元地址，从0开始
    213              I2C_Start_1();                          //起始信号
   \                     ??CrossCallReturnLabel_11:
   \   00000A                ; Setup parameters for call to function I2C_Start_1
   \   00000A   12....       LCALL   ?Subroutine7 & 0xFFFF
    214              WriteI2CByte_1(SlaveAddress+1);         //发送设备地址+读信号
    215              REG_data=ReadI2CByte_1();              //读出寄存器数据
   \                     ??CrossCallReturnLabel_15:
   \   00000D                ; Setup parameters for call to function ReadI2CByte_1
   \   00000D   12....       LCALL   ??ReadI2CByte_1?relay
   \   000010   E9           MOV     A,R1
   \   000011   FE           MOV     R6,A
    216              Sendack(1);
   \   000012                ; Setup parameters for call to function Sendack
   \   000012   7901         MOV     R1,#0x1
   \   000014   12....       LCALL   ??Sendack?relay
    217              I2C_Stop_1();                           //停止信号
   \   000017                ; Setup parameters for call to function I2C_Stop_1
   \   000017   12....       LCALL   ??I2C_Stop_1?relay
    218              return REG_data;
   \   00001A   EE           MOV     A,R6
   \   00001B   02....       LJMP    ?Subroutine15 & 0xFFFF
    219          }

   \                                 In  segment BANKED_CODE, align 1, keep-with-next
   \                     ?Subroutine7:
   \   000000   12....       LCALL   ??I2C_Start_1?relay
   \   000003                ; Setup parameters for call to function WriteI2CByte_1
   \   000003                ; Setup parameters for call to function WriteI2CByte_1
   \   000003   79A7         MOV     R1,#-0x59
   \   000005   12....       LCALL   ??WriteI2CByte_1?relay
   \   000008   22           RET
    220          

   \                                 In  segment BANKED_CODE, align 1, keep-with-next
    221          void Init_ADXL345()
   \                     Init_ADXL345:
    222          {
   \   000000   C082         PUSH    DPL
   \   000002   C083         PUSH    DPH
   \   000004                ; Saved register size: 2
   \   000004                ; Auto size: 0
    223              P1DIR = 0x0C;
   \   000004   75FE0C       MOV     0xfe,#0xc
    224              Single_Write_ADXL345(0x31,0x0B);   //测量范围,正负16g，13位模式
   \   000007                ; Setup parameters for call to function Single_Write_ADXL345
   \   000007   7A0B         MOV     R2,#0xb
   \   000009   7931         MOV     R1,#0x31
   \   00000B   12....       LCALL   ??Single_Write_ADXL345?relay
    225              Single_Write_ADXL345(0x2C,0x0F);   //速率设定为12.5 参考pdf13页
   \   00000E                ; Setup parameters for call to function Single_Write_ADXL345
   \   00000E   7A0F         MOV     R2,#0xf
   \   000010   792C         MOV     R1,#0x2c
   \   000012   12....       LCALL   ??Single_Write_ADXL345?relay
    226              Single_Write_ADXL345(0x2D,0x08);   //选择电源模式   参考pdf24页
   \   000015                ; Setup parameters for call to function Single_Write_ADXL345
   \   000015   7A08         MOV     R2,#0x8
   \   000017   792D         MOV     R1,#0x2d
   \   000019   12....       LCALL   ??Single_Write_ADXL345?relay
    227              Single_Write_ADXL345(0x2E,0x80);   //使能 DATA_READY 中断
   \   00001C                ; Setup parameters for call to function Single_Write_ADXL345
   \   00001C   7A80         MOV     R2,#-0x80
   \   00001E   792E         MOV     R1,#0x2e
   \   000020   12....       LCALL   ??Single_Write_ADXL345?relay
    228              Single_Write_ADXL345(0x1E,0x00);   //X 偏移量 根据测试传感器的状态写入pdf29页
   \   000023                ; Setup parameters for call to function Single_Write_ADXL345
   \   000023   7A00         MOV     R2,#0x0
   \   000025   791E         MOV     R1,#0x1e
   \   000027   12....       LCALL   ??Single_Write_ADXL345?relay
    229              Single_Write_ADXL345(0x1F,0x00);   //Y 偏移量 根据测试传感器的状态写入pdf29页
   \   00002A                ; Setup parameters for call to function Single_Write_ADXL345
   \   00002A   7A00         MOV     R2,#0x0
   \   00002C   791F         MOV     R1,#0x1f
   \   00002E   12....       LCALL   ??Single_Write_ADXL345?relay
    230              Single_Write_ADXL345(0x20,0x05);   //Z 偏移量 根据测试传感器的状态写入pdf29页
   \   000031                ; Setup parameters for call to function Single_Write_ADXL345
   \   000031   7A05         MOV     R2,#0x5
   \   000033   7920         MOV     R1,#0x20
   \   000035   12....       LCALL   ??Single_Write_ADXL345?relay
    231          }
   \   000038   02....       LJMP    ??Subroutine12_0 & 0xFFFF
   \   00003B                REQUIRE P1DIR
    232          
    233          //*********************************************************
    234          //
    235          //连续读出ADXL345内部加速度数据，地址范围0x32~0x37
    236          //
    237          //*********************************************************

   \                                 In  segment BANKED_CODE, align 1, keep-with-next
    238          void Multiple_Read_ADXL345(void)
   \                     Multiple_Read_ADXL345:
    239          {   INT8U f;
   \   000000   74F6         MOV     A,#-0xa
   \   000002   12....       LCALL   ?BANKED_ENTER_XDATA
   \   000005                ; Saved register size: 10
   \   000005                ; Auto size: 0
    240              I2C_Start_1();                          //起始信号
   \   000005                ; Setup parameters for call to function I2C_Start_1
   \   000005   12....       LCALL   ?Subroutine10 & 0xFFFF
    241              WriteI2CByte_1(SlaveAddress);           //发送设备地址+写信号
    242              WriteI2CByte_1(0x32);                   //发送存储单元地址，从0x32开始
   \                     ??CrossCallReturnLabel_21:
   \   000008                ; Setup parameters for call to function WriteI2CByte_1
   \   000008   7932         MOV     R1,#0x32
   \   00000A   12....       LCALL   ??WriteI2CByte_1?relay
    243              I2C_Start_1();                          //起始信号
   \   00000D                ; Setup parameters for call to function I2C_Start_1
   \   00000D   12....       LCALL   ?Subroutine7 & 0xFFFF
    244              WriteI2CByte_1(SlaveAddress+1);         //发送设备地址+读信号
    245              for (f=0; f<6; f++)                      //连续读取6个地址数据，存储中BUF
   \                     ??CrossCallReturnLabel_16:
   \   000010   7E00         MOV     R6,#0x0
    246              {
    247                  POS_TEMP[f] = ReadI2CByte_1();          //BUF[0]存储0x32地址中的数据
   \                     ??Multiple_Read_ADXL345_0:
   \   000012                ; Setup parameters for call to function ReadI2CByte_1
   \   000012   12....       LCALL   ??ReadI2CByte_1?relay
   \   000015   8E..         MOV     ?V0 + 0,R6
   \   000017   E5..         MOV     A,?V0 + 0
   \   000019   24..         ADD     A,#(POS_TEMP & 0xff)
   \   00001B   F582         MOV     DPL,A
   \   00001D   E4           CLR     A
   \   00001E   34..         ADDC    A,#((POS_TEMP >> 8) & 0xff)
   \   000020   F583         MOV     DPH,A
   \   000022   E9           MOV     A,R1
   \   000023   F0           MOVX    @DPTR,A
    248                  if (f == 5)
   \   000024   7405         MOV     A,#0x5
   \   000026   6E           XRL     A,R6
   \   000027   7004         JNZ     ??Multiple_Read_ADXL345_1
    249                  {
    250                      Sendack(1);                //最后一个数据需要回NOACK
   \   000029                ; Setup parameters for call to function Sendack
   \   000029   7901         MOV     R1,#0x1
   \   00002B   8002         SJMP    ??Multiple_Read_ADXL345_2
    251                  }
    252                  else
    253                  {
    254                      Sendack(0);                //回应ACK
   \                     ??Multiple_Read_ADXL345_1:
   \   00002D                ; Setup parameters for call to function Sendack
   \   00002D   7900         MOV     R1,#0x0
   \                     ??Multiple_Read_ADXL345_2:
   \   00002F   12....       LCALL   ??Sendack?relay
    255                  }
    256              }
   \   000032   0E           INC     R6
   \   000033   EE           MOV     A,R6
   \   000034   C3           CLR     C
   \   000035   9406         SUBB    A,#0x6
   \   000037   40D9         JC      ??Multiple_Read_ADXL345_0
    257              I2C_Stop_1();                          //停止信号
   \   000039                ; Setup parameters for call to function I2C_Stop_1
   \   000039   12....       LCALL   ??I2C_Stop_1?relay
    258          }
   \   00003C   7F02         MOV     R7,#0x2
   \   00003E   02....       LJMP    ?BANKED_LEAVE_XDATA
    259          

   \                                 In  segment BANKED_CODE, align 1, keep-with-next
    260          void displayXYZ(INT8U *pData){
   \                     displayXYZ:
   \   000000   74F0         MOV     A,#-0x10
   \   000002   12....       LCALL   ?BANKED_ENTER_XDATA
   \   000005                ; Saved register size: 16
   \   000005                ; Auto size: 0
   \   000005   EA           MOV     A,R2
   \   000006   FE           MOV     R6,A
   \   000007   EB           MOV     A,R3
   \   000008   FF           MOV     R7,A
    261              int  dis_data;
    262              uint16 temp;
    263              dis_data=(pData[1]<<8)+pData[0];
   \   000009   8E82         MOV     DPL,R6
   \   00000B   8F83         MOV     DPH,R7
   \   00000D   12....       LCALL   ??Subroutine6_0 & 0xFFFF
   \                     ??CrossCallReturnLabel_12:
   \   000010   12....       LCALL   ??Subroutine0_0 & 0xFFFF
    264              temp=(uint16)((float)dis_data*3.9);  //计算数据和显示,查考ADXL345快速入门第4页
   \                     ??CrossCallReturnLabel_2:
   \   000013   12....       LCALL   ?L_TO_FLT
   \   000016   90....       MOV     DPTR,#__Constant_4079999a
   \   000019   78..         MOV     R0,#?V0 + 0
   \   00001B   12....       LCALL   ?L_MOV_X
   \   00001E   78..         MOV     R0,#?V0 + 4
   \   000020   79..         MOV     R1,#?V0 + 0
   \   000022   12....       LCALL   ?FLT_MUL
   \   000025   78..         MOV     R0,#?V0 + 4
   \   000027   12....       LCALL   ?FLT_TO_L
   \   00002A   12....       LCALL   ?Subroutine8 & 0xFFFF
    265              if(dis_data<0){
   \                     ??CrossCallReturnLabel_17:
   \   00002D   75..00       MOV     ?V0 + 0,#0x0
   \   000030   78..         MOV     R0,#?V0 + 0
   \   000032   500B         JNC     ??displayXYZ_0
    266                  dis_data=-dis_data;
    267                  HalLcdWriteStringValue("X: -",temp,10,0);
   \   000034                ; Setup parameters for call to function HalLcdWriteStringValue
   \   000034   12....       LCALL   ?PUSH_XSTACK_I_ONE
   \   000037   790A         MOV     R1,#0xa
   \   000039   7A..         MOV     R2,#(`?<Constant "X: -">` & 0xff)
   \   00003B   7B..         MOV     R3,#((`?<Constant "X: -">` >> 8) & 0xff)
   \   00003D   8009         SJMP    ??displayXYZ_1
    268              }
    269              else
    270              {
    271                  HalLcdWriteStringValue("X:  ",temp,10,0);
   \                     ??displayXYZ_0:
   \   00003F                ; Setup parameters for call to function HalLcdWriteStringValue
   \   00003F   12....       LCALL   ?PUSH_XSTACK_I_ONE
   \   000042   790A         MOV     R1,#0xa
   \   000044   7A..         MOV     R2,#(`?<Constant "X:  ">` & 0xff)
   \   000046   7B..         MOV     R3,#((`?<Constant "X:  ">` >> 8) & 0xff)
   \                     ??displayXYZ_1:
   \   000048   12....       LCALL   ??HalLcdWriteStringValue?relay
   \   00004B   7401         MOV     A,#0x1
   \   00004D   12....       LCALL   ?DEALLOC_XSTACK8
    272              }
    273              dis_data=(pData[3]<<8)+pData[2];  //合成数据
   \   000050   8E82         MOV     DPL,R6
   \   000052   8F83         MOV     DPH,R7
   \   000054   12....       LCALL   ?Subroutine6 & 0xFFFF
   \                     ??CrossCallReturnLabel_13:
   \   000057   12....       LCALL   ?Subroutine0 & 0xFFFF
    274              temp=(uint16)((float)dis_data*3.9);  //计算数据和显示,查考ADXL345快速入门第4页
   \                     ??CrossCallReturnLabel_0:
   \   00005A   12....       LCALL   ?L_TO_FLT
   \   00005D   90....       MOV     DPTR,#__Constant_4079999a
   \   000060   78..         MOV     R0,#?V0 + 0
   \   000062   12....       LCALL   ?L_MOV_X
   \   000065   78..         MOV     R0,#?V0 + 4
   \   000067   79..         MOV     R1,#?V0 + 0
   \   000069   12....       LCALL   ?FLT_MUL
   \   00006C   78..         MOV     R0,#?V0 + 4
   \   00006E   12....       LCALL   ?FLT_TO_L
   \   000071   12....       LCALL   ?Subroutine8 & 0xFFFF
    275              if(dis_data<0){
   \                     ??CrossCallReturnLabel_18:
   \   000074   75..01       MOV     ?V0 + 0,#0x1
   \   000077   78..         MOV     R0,#?V0 + 0
   \   000079   500B         JNC     ??displayXYZ_2
    276                  dis_data=-dis_data;
    277                  HalLcdWriteStringValue("Y: -",temp,10,1);
   \   00007B                ; Setup parameters for call to function HalLcdWriteStringValue
   \   00007B   12....       LCALL   ?PUSH_XSTACK_I_ONE
   \   00007E   790A         MOV     R1,#0xa
   \   000080   7A..         MOV     R2,#(`?<Constant "Y: -">` & 0xff)
   \   000082   7B..         MOV     R3,#((`?<Constant "Y: -">` >> 8) & 0xff)
   \   000084   8009         SJMP    ??displayXYZ_3
    278              }
    279              else
    280              {
    281                  HalLcdWriteStringValue("Y:  ",temp,10,1);
   \                     ??displayXYZ_2:
   \   000086                ; Setup parameters for call to function HalLcdWriteStringValue
   \   000086   12....       LCALL   ?PUSH_XSTACK_I_ONE
   \   000089   790A         MOV     R1,#0xa
   \   00008B   7A..         MOV     R2,#(`?<Constant "Y:  ">` & 0xff)
   \   00008D   7B..         MOV     R3,#((`?<Constant "Y:  ">` >> 8) & 0xff)
   \                     ??displayXYZ_3:
   \   00008F   12....       LCALL   ??HalLcdWriteStringValue?relay
   \   000092   7401         MOV     A,#0x1
   \   000094   12....       LCALL   ?DEALLOC_XSTACK8
    282              }
    283              dis_data=(pData[5]<<8)+pData[4];    //合成数据
   \   000097   8E82         MOV     DPL,R6
   \   000099   8F83         MOV     DPH,R7
   \   00009B   A3           INC     DPTR
   \   00009C   A3           INC     DPTR
   \   00009D   12....       LCALL   ?Subroutine6 & 0xFFFF
   \                     ??CrossCallReturnLabel_14:
   \   0000A0   A3           INC     DPTR
   \   0000A1   A3           INC     DPTR
   \   0000A2   12....       LCALL   ?Subroutine0 & 0xFFFF
    284              temp=(uint16)((float)dis_data*3.9);  //计算数据和显示,查考ADXL345快速入门第4页
   \                     ??CrossCallReturnLabel_1:
   \   0000A5   12....       LCALL   ?L_TO_FLT
   \   0000A8   90....       MOV     DPTR,#__Constant_4079999a
   \   0000AB   78..         MOV     R0,#?V0 + 0
   \   0000AD   12....       LCALL   ?L_MOV_X
   \   0000B0   78..         MOV     R0,#?V0 + 4
   \   0000B2   79..         MOV     R1,#?V0 + 0
   \   0000B4   12....       LCALL   ?FLT_MUL
   \   0000B7   78..         MOV     R0,#?V0 + 4
   \   0000B9   12....       LCALL   ?FLT_TO_L
   \   0000BC   12....       LCALL   ?Subroutine8 & 0xFFFF
    285              if(dis_data<0){
   \                     ??CrossCallReturnLabel_19:
   \   0000BF   75..02       MOV     ?V0 + 0,#0x2
   \   0000C2   78..         MOV     R0,#?V0 + 0
   \   0000C4   500B         JNC     ??displayXYZ_4
    286                  dis_data=-dis_data;
    287                  HalLcdWriteStringValue("Z: -",temp,10,2);
   \   0000C6                ; Setup parameters for call to function HalLcdWriteStringValue
   \   0000C6   12....       LCALL   ?PUSH_XSTACK_I_ONE
   \   0000C9   790A         MOV     R1,#0xa
   \   0000CB   7A..         MOV     R2,#(`?<Constant "Z: -">` & 0xff)
   \   0000CD   7B..         MOV     R3,#((`?<Constant "Z: -">` >> 8) & 0xff)
   \   0000CF   8009         SJMP    ??displayXYZ_5
    288              }
    289              else
    290              {
    291                  HalLcdWriteStringValue("Z:  ",temp,10,2);
   \                     ??displayXYZ_4:
   \   0000D1                ; Setup parameters for call to function HalLcdWriteStringValue
   \   0000D1   12....       LCALL   ?PUSH_XSTACK_I_ONE
   \   0000D4   790A         MOV     R1,#0xa
   \   0000D6   7A..         MOV     R2,#(`?<Constant "Z:  ">` & 0xff)
   \   0000D8   7B..         MOV     R3,#((`?<Constant "Z:  ">` >> 8) & 0xff)
   \                     ??displayXYZ_5:
   \   0000DA   12....       LCALL   ??HalLcdWriteStringValue?relay
   \   0000DD   7401         MOV     A,#0x1
   \   0000DF   02....       LJMP    ?Subroutine13 & 0xFFFF
    292              }
    293          }

   \                                 In  segment BANKED_CODE, align 1, keep-with-next
   \                     ?Subroutine8:
   \   000000   AC..         MOV     R4,?V0 + 4
   \   000002   AD..         MOV     R5,?V0 + 5
   \   000004   C3           CLR     C
   \   000005   EB           MOV     A,R3
   \   000006   9400         SUBB    A,#0x0
   \   000008   A2D2         MOV     C,0xD0 /* PSW */.2
   \   00000A   65D0         XRL     A,PSW
   \   00000C   33           RLC     A
   \   00000D   22           RET

   \                                 In  segment BANKED_CODE, align 1, keep-with-next
   \                     ?Subroutine6:
   \   000000   A3           INC     DPTR
   \   000001   A3           INC     DPTR
   \                     ??Subroutine6_0:
   \   000002   A3           INC     DPTR
   \   000003   E0           MOVX    A,@DPTR
   \   000004   F9           MOV     R1,A
   \   000005   8E82         MOV     DPL,R6
   \   000007   8F83         MOV     DPH,R7
   \   000009   22           RET

   \                                 In  segment BANKED_CODE, align 1, keep-with-next
   \                     ?Subroutine0:
   \   000000   A3           INC     DPTR
   \   000001   A3           INC     DPTR
   \                     ??Subroutine0_0:
   \   000002   E0           MOVX    A,@DPTR
   \   000003   2400         ADD     A,#0x0
   \   000005   FA           MOV     R2,A
   \   000006   E4           CLR     A
   \   000007   39           ADDC    A,R1
   \   000008   FB           MOV     R3,A
   \   000009   8A..         MOV     ?V0 + 4,R2
   \   00000B   12....       LCALL   ?Subroutine11 & 0xFFFF
   \                     ??CrossCallReturnLabel_23:
   \   00000E   22           RET

   \                                 In  segment XDATA_ID, align 1, keep-with-next
   \                     `?<Initializer for <Constant "X: -">>`:
   \   000000   583A202D     DB "X: -"
   \            00      

   \                                 In  segment XDATA_ID, align 1, keep-with-next
   \                     `?<Initializer for <Constant "X:  ">>`:
   \   000000   583A2020     DB "X:  "
   \            00      

   \                                 In  segment XDATA_ID, align 1, keep-with-next
   \                     `?<Initializer for <Constant "Y: -">>`:
   \   000000   593A202D     DB "Y: -"
   \            00      

   \                                 In  segment XDATA_ID, align 1, keep-with-next
   \                     `?<Initializer for <Constant "Y:  ">>`:
   \   000000   593A2020     DB "Y:  "
   \            00      

   \                                 In  segment XDATA_ID, align 1, keep-with-next
   \                     `?<Initializer for <Constant "Z: -">>`:
   \   000000   5A3A202D     DB "Z: -"
   \            00      

   \                                 In  segment XDATA_ID, align 1, keep-with-next
   \                     `?<Initializer for <Constant "Z:  ">>`:
   \   000000   5A3A2020     DB "Z:  "
   \            00      

   \                                 In  segment XDATA_ID, align 1, keep-with-next
   \                     `?<Initializer for __Constant_4079999a>`:
   \   000000   9A997940     DD 4079999AH

   \                                 In  segment XDATA_ID, align 1, keep-with-next
   \                     `?<Initializer for __Constant_42c80000>`:
   \   000000   0000C842     DD 42C80000H

   \                                 In  segment XDATA_ID, align 1, keep-with-next
   \                     `?<Initializer for __Constant_4048f5c3>`:
   \   000000   C3F54840     DD 4048F5C3H

   \                                 In  segment XDATA_ID, align 1, keep-with-next
   \                     `?<Initializer for __Constant_43340000>`:
   \   000000   00003443     DD 43340000H

   \                                 In  segment BANK_RELAYS, align 1
   \                     ??Delay?relay:
   \   000000   12....       LCALL   ?BDISPATCH
   \   000003   ......       DC24    Delay

   \                                 In  segment BANK_RELAYS, align 1
   \                     ??Delay_1u?relay:
   \   000000   12....       LCALL   ?BDISPATCH
   \   000003   ......       DC24    Delay_1u

   \                                 In  segment BANK_RELAYS, align 1
   \                     ??conversion?relay:
   \   000000   12....       LCALL   ?BDISPATCH
   \   000003   ......       DC24    conversion

   \                                 In  segment BANK_RELAYS, align 1
   \                     ??I2C_Start_1?relay:
   \   000000   12....       LCALL   ?BDISPATCH
   \   000003   ......       DC24    I2C_Start_1

   \                                 In  segment BANK_RELAYS, align 1
   \                     ??I2C_Stop_1?relay:
   \   000000   12....       LCALL   ?BDISPATCH
   \   000003   ......       DC24    I2C_Stop_1

   \                                 In  segment BANK_RELAYS, align 1
   \                     ??Sendack?relay:
   \   000000   12....       LCALL   ?BDISPATCH
   \   000003   ......       DC24    Sendack

   \                                 In  segment BANK_RELAYS, align 1
   \                     ??I2C_Check_ack?relay:
   \   000000   12....       LCALL   ?BDISPATCH
   \   000003   ......       DC24    I2C_Check_ack

   \                                 In  segment BANK_RELAYS, align 1
   \                     ??WriteI2CByte_1?relay:
   \   000000   12....       LCALL   ?BDISPATCH
   \   000003   ......       DC24    WriteI2CByte_1

   \                                 In  segment BANK_RELAYS, align 1
   \                     ??ReadI2CByte_1?relay:
   \   000000   12....       LCALL   ?BDISPATCH
   \   000003   ......       DC24    ReadI2CByte_1

   \                                 In  segment BANK_RELAYS, align 1
   \                     ??Single_Write_ADXL345?relay:
   \   000000   12....       LCALL   ?BDISPATCH
   \   000003   ......       DC24    Single_Write_ADXL345

   \                                 In  segment BANK_RELAYS, align 1
   \                     ??Single_Read_ADXL345?relay:
   \   000000   12....       LCALL   ?BDISPATCH
   \   000003   ......       DC24    Single_Read_ADXL345

   \                                 In  segment BANK_RELAYS, align 1
   \                     ??Init_ADXL345?relay:
   \   000000   12....       LCALL   ?BDISPATCH
   \   000003   ......       DC24    Init_ADXL345

   \                                 In  segment BANK_RELAYS, align 1
   \                     ??Multiple_Read_ADXL345?relay:
   \   000000   12....       LCALL   ?BDISPATCH
   \   000003   ......       DC24    Multiple_Read_ADXL345

   \                                 In  segment BANK_RELAYS, align 1
   \                     ??displayXYZ?relay:
   \   000000   12....       LCALL   ?BDISPATCH
   \   000003   ......       DC24    displayXYZ

   \                                 In  segment XDATA_I, align 1, keep-with-next
   \                     `?<Constant "X: -">`:
   \   000000                DS 5
   \   000005                REQUIRE `?<Initializer for <Constant "X: -">>`
   \   000005                REQUIRE __INIT_XDATA_I

   \                                 In  segment XDATA_I, align 1, keep-with-next
   \                     `?<Constant "X:  ">`:
   \   000000                DS 5
   \   000005                REQUIRE `?<Initializer for <Constant "X:  ">>`
   \   000005                REQUIRE __INIT_XDATA_I

   \                                 In  segment XDATA_I, align 1, keep-with-next
   \                     `?<Constant "Y: -">`:
   \   000000                DS 5
   \   000005                REQUIRE `?<Initializer for <Constant "Y: -">>`
   \   000005                REQUIRE __INIT_XDATA_I

   \                                 In  segment XDATA_I, align 1, keep-with-next
   \                     `?<Constant "Y:  ">`:
   \   000000                DS 5
   \   000005                REQUIRE `?<Initializer for <Constant "Y:  ">>`
   \   000005                REQUIRE __INIT_XDATA_I

   \                                 In  segment XDATA_I, align 1, keep-with-next
   \                     `?<Constant "Z: -">`:
   \   000000                DS 5
   \   000005                REQUIRE `?<Initializer for <Constant "Z: -">>`
   \   000005                REQUIRE __INIT_XDATA_I

   \                                 In  segment XDATA_I, align 1, keep-with-next
   \                     `?<Constant "Z:  ">`:
   \   000000                DS 5
   \   000005                REQUIRE `?<Initializer for <Constant "Z:  ">>`
   \   000005                REQUIRE __INIT_XDATA_I

   \                                 In  segment XDATA_I, align 1, keep-with-next
   \                     __Constant_4079999a:
   \   000000                DS 4
   \   000004                REQUIRE `?<Initializer for __Constant_4079999a>`
   \   000004                REQUIRE __INIT_XDATA_I

   \                                 In  segment XDATA_I, align 1, keep-with-next
   \                     __Constant_42c80000:
   \   000000                DS 4
   \   000004                REQUIRE `?<Initializer for __Constant_42c80000>`
   \   000004                REQUIRE __INIT_XDATA_I

   \                                 In  segment XDATA_I, align 1, keep-with-next
   \                     __Constant_4048f5c3:
   \   000000                DS 4
   \   000004                REQUIRE `?<Initializer for __Constant_4048f5c3>`
   \   000004                REQUIRE __INIT_XDATA_I

   \                                 In  segment XDATA_I, align 1, keep-with-next
   \                     __Constant_43340000:
   \   000000                DS 4
   \   000004                REQUIRE `?<Initializer for __Constant_43340000>`
   \   000004                REQUIRE __INIT_XDATA_I

   Maximum stack usage in bytes:

     Function                    ISTACK PSTACK XSTACK
     --------                    ------ ------ ------
     Delay                           0      0      9
     Delay_1u                        0      0      9
     I2C_Check_ack                   2      0      9
       -> Delay_1u                   4      0      0
       -> Delay_1u                   4      0      0
       -> Delay_1u                   4      0      0
     I2C_Start_1                     2      0     10
       -> Delay_1u                   4      0      0
       -> Delay_1u                   4      0      0
       -> Delay_1u                   4      0      0
       -> Delay_1u                   4      0      0
     I2C_Stop_1                      2      0     10
       -> Delay_1u                   4      0      0
       -> Delay_1u                   4      0      0
       -> Delay_1u                   4      0      0
       -> Delay_1u                   4      0      0
       -> Delay_1u                   4      0      0
     Init_ADXL345                    2      0      0
       -> Single_Write_ADXL345       4      0      0
       -> Single_Write_ADXL345       4      0      0
       -> Single_Write_ADXL345       4      0      0
       -> Single_Write_ADXL345       4      0      0
       -> Single_Write_ADXL345       4      0      0
       -> Single_Write_ADXL345       4      0      0
       -> Single_Write_ADXL345       4      0      0
     Multiple_Read_ADXL345           1      0     10
       -> I2C_Start_1                0      0     20
       -> WriteI2CByte_1             0      0     20
       -> WriteI2CByte_1             0      0     20
       -> I2C_Start_1                0      0     20
       -> WriteI2CByte_1             0      0     20
       -> ReadI2CByte_1              0      0     20
       -> Sendack                    0      0     20
       -> Sendack                    0      0     20
       -> I2C_Stop_1                 0      0     20
     ReadI2CByte_1                   0      0     19
       -> Delay_1u                   0      0     18
       -> Delay_1u                   0      0     18
       -> Delay_1u                   0      0     18
     Sendack                         0      0     19
       -> Delay_1u                   0      0     18
       -> Delay                      0      0     18
       -> Delay_1u                   0      0     18
       -> Delay_1u                   0      0     18
       -> Delay_1u                   0      0     18
     Single_Read_ADXL345             0      0      9
       -> I2C_Start_1                0      0     18
       -> WriteI2CByte_1             0      0     18
       -> WriteI2CByte_1             0      0     18
       -> I2C_Start_1                0      0     18
       -> WriteI2CByte_1             0      0     18
       -> ReadI2CByte_1              0      0     18
       -> Sendack                    0      0     18
       -> I2C_Stop_1                 0      0     18
     Single_Write_ADXL345            0      0      9
       -> I2C_Start_1                0      0     18
       -> WriteI2CByte_1             0      0     18
       -> WriteI2CByte_1             0      0     18
       -> WriteI2CByte_1             0      0     18
       -> I2C_Stop_1                 0      0     18
     WriteI2CByte_1                  0      0     19
       -> Delay_1u                   0      0     18
       -> Delay_1u                   0      0     18
       -> Delay_1u                   0      0     18
       -> I2C_Check_ack              0      0     18
     conversion                      8      0     30
       -> sqrt                       8      0     60
       -> acos                       0      0     60
     displayXYZ                      0      0     17
       -> HalLcdWriteStringValue     0      0     34
       -> HalLcdWriteStringValue     0      0     34
       -> HalLcdWriteStringValue     0      0     34
       -> HalLcdWriteStringValue     0      0     34
       -> HalLcdWriteStringValue     0      0     34
       -> HalLcdWriteStringValue     0      0     34


   Segment part sizes:

     Function/Label                 Bytes
     --------------                 -----
     _A_P1                             1
     P1DIR                             1
     POS_TEMP                          6
     dis_data                          2
     wan                               1
     qian                              1
     bai                               1
     shi                               1
     ge                                1
     Delay                            24
     Delay_1u                         28
     conversion                      612
     ?Subroutine13                     8
     ?Subroutine1                     19
     ?Subroutine11                    12
     I2C_Start_1                      32
     ?Subroutine5                      5
     ?Subroutine14                     6
     ?Subroutine12                    14
     I2C_Stop_1                       25
     ?Subroutine3                      6
     ?Subroutine9                     11
     Sendack                          45
     ?Subroutine15                     6
     I2C_Check_ack                    36
     ?Subroutine2                      8
     WriteI2CByte_1                   51
     ReadI2CByte_1                    60
     Single_Write_ADXL345             23
     ?Subroutine4                      9
     ?Subroutine10                     9
     Single_Read_ADXL345              30
     ?Subroutine7                      9
     Init_ADXL345                     59
     Multiple_Read_ADXL345            65
     displayXYZ                      226
     ?Subroutine8                     14
     ?Subroutine6                     10
     ?Subroutine0                     15
     ?<Initializer for <Constant "X: -">>
                                       5
     ?<Initializer for <Constant "X:  ">>
                                       5
     ?<Initializer for <Constant "Y: -">>
                                       5
     ?<Initializer for <Constant "Y:  ">>
                                       5
     ?<Initializer for <Constant "Z: -">>
                                       5
     ?<Initializer for <Constant "Z:  ">>
                                       5
     ?<Initializer for __Constant_4079999a>
                                       4
     ?<Initializer for __Constant_42c80000>
                                       4
     ?<Initializer for __Constant_4048f5c3>
                                       4
     ?<Initializer for __Constant_43340000>
                                       4
     ??Delay?relay                     6
     ??Delay_1u?relay                  6
     ??conversion?relay                6
     ??I2C_Start_1?relay               6
     ??I2C_Stop_1?relay                6
     ??Sendack?relay                   6
     ??I2C_Check_ack?relay             6
     ??WriteI2CByte_1?relay            6
     ??ReadI2CByte_1?relay             6
     ??Single_Write_ADXL345?relay      6
     ??Single_Read_ADXL345?relay       6
     ??Init_ADXL345?relay              6
     ??Multiple_Read_ADXL345?relay     6
     ??displayXYZ?relay                6
     ?<Constant "X: -">                5
     ?<Constant "X:  ">                5
     ?<Constant "Y: -">                5
     ?<Constant "Y:  ">                5
     ?<Constant "Z: -">                5
     ?<Constant "Z:  ">                5
     __Constant_4079999a               4
     __Constant_42c80000               4
     __Constant_4048f5c3               4
     __Constant_43340000               4

 
 1 477 bytes in segment BANKED_CODE
    84 bytes in segment BANK_RELAYS
     2 bytes in segment SFR_AN
    46 bytes in segment XDATA_I
    46 bytes in segment XDATA_ID
    13 bytes in segment XDATA_Z
 
 1 591 bytes of CODE  memory (+ 16 bytes shared)
     0 bytes of DATA  memory (+  2 bytes shared)
    43 bytes of XDATA memory (+ 16 bytes shared)

Errors: none
Warnings: none
