///////////////////////////////////////////////////////////////////////////////
//                                                                            /
// IAR 8051 C/C++ Compiler V7.30B/W32                   12/Mar/2013  15:45:37 /
// Copyright 2004-2007 IAR Systems. All rights reserved.                      /
//                                                                            /
//    Core               =  plain                                             /
//    Code model         =  banked                                            /
//    Data model         =  large                                             /
//    Calling convention =  xdata reentrant                                   /
//    Constant location  =  data                                              /
//    Dptr setup         =  1,16                                              /
//    Source file        =  C:\Texas Instruments\ZStack-1.4.3-1.2.1\Component /
//                          s\stack\nwk\nwk_globals.c                         /
//    Command line       =  -f "C:\Texas Instruments\ZStack-1.4.3-1.2.1\Proje /
//                          cts\zstack\Samples\cc2430-zstack-adxl345\CC2430DB /
//                          \..\..\..\Tools\CC2430DB\f8wCoord.cfg"            /
//                          (-DCPU32MHZ -DFORCE_MAC_NEAR -DROOT=__near_func   /
//                          -DMAC_CFG_APP_PENDING_QUEUE=TRUE                  /
//                          -DZDO_COORDINATOR -DRTR_NWK -DBLINK_LEDS          /
//                          "-DCONST=const __code" -DGENERIC=__generic) -f    /
//                          "C:\Texas Instruments\ZStack-1.4.3-1.2.1\Projects /
//                          \zstack\Samples\cc2430-zstack-adxl345\CC2430DB\.. /
//                          \..\..\Tools\CC2430DB\f8wConfig.cfg" (-DSECURE=0  /
//                          -DDEFAULT_CHANLIST=0x00000800                     /
//                          -DZDAPP_CONFIG_PAN_ID=0xFFFF                      /
//                          -DNWK_START_DELAY=100 -DEXTENDED_JOINING_RANDOM_M /
//                          ASK=0x007F -DBEACON_REQUEST_DELAY=100             /
//                          -DBEACON_REQ_DELAY_MASK=0x00FF                    /
//                          -DROUTE_EXPIRY_TIME=30 -DAPSC_ACK_WAIT_DURATION_P /
//                          OLLED=3000 -DNWK_INDIRECT_MSG_TIMEOUT=7           /
//                          -DMAX_RREQ_ENTRIES=10 -DAPSC_MAX_FRAME_RETRIES=3  /
//                          -DNWK_MAX_DATA_RETRIES=2                          /
//                          -DMAX_POLL_FAILURE_RETRIES=2 -DMAX_BCAST=9        /
//                          -DAPS_MAX_GROUPS=16 -DMAX_RTG_ENTRIES=20          /
//                          -DNWK_MAX_BINDING_ENTRIES=10                      /
//                          -DMAX_BINDING_CLUSTER_IDS=5                       /
//                          "-DDEFAULT_KEY={0x01, 0x03, 0x05, 0x07, 0x09,     /
//                          0x0B, 0x0D, 0x0F, 0x00, 0x02, 0x04, 0x06, 0x08,   /
//                          0x0A, 0x0C, 0x0D}" -DRFD_RCVC_ALWAYS_ON=FALSE     /
//                          -DPOLL_RATE=1000 -DQUEUED_POLL_RATE=100           /
//                          -DRESPONSE_POLL_RATE=100) -DREJOIN_POLL_RATE=440  /
//                          "C:\Texas Instruments\ZStack-1.4.3-1.2.1\Componen /
//                          ts\stack\nwk\nwk_globals.c" -D CC2430EB -D        /
//                          REFLECTOR -D HAL_UART -D xZTOOL_P1 -D AXD_COR -D  /
//                          MT_TASK -D xMT_ZDO_FUNC -D LCD_SUPPORTED=DEBUG    /
//                          -lC "C:\Texas Instruments\ZStack-1.4.3-1.2.1\Proj /
//                          ects\zstack\Samples\cc2430-zstack-adxl345\CC2430D /
//                          B\CoordinatorEB\List\" -lA "C:\Texas              /
//                          Instruments\ZStack-1.4.3-1.2.1\Projects\zstack\Sa /
//                          mples\cc2430-zstack-adxl345\CC2430DB\CoordinatorE /
//                          B\List\" --diag_suppress Pe001,Pa010              /
//                          --diag_remark pe550 -o "C:\Texas                  /
//                          Instruments\ZStack-1.4.3-1.2.1\Projects\zstack\Sa /
//                          mples\cc2430-zstack-adxl345\CC2430DB\CoordinatorE /
//                          B\Obj\" -e --require_prototypes -z9               /
//                          --no_code_motion --debug --core=plain             /
//                          --dptr=16,1 --data_model=large                    /
//                          --code_model=banked --calling_convention=xdata_re /
//                          entrant --place_constants=data --nr_virtual_regs  /
//                          8 -I "C:\Texas Instruments\ZStack-1.4.3-1.2.1\Pro /
//                          jects\zstack\Samples\cc2430-zstack-adxl345\CC2430 /
//                          DB\" -I "C:\Texas Instruments\ZStack-1.4.3-1.2.1\ /
//                          Projects\zstack\Samples\cc2430-zstack-adxl345\CC2 /
//                          430DB\..\SOURCE\" -I "C:\Texas                    /
//                          Instruments\ZStack-1.4.3-1.2.1\Projects\zstack\Sa /
//                          mples\cc2430-zstack-adxl345\CC2430DB\..\Drivers\" /
//                           -I "C:\Texas Instruments\ZStack-1.4.3-1.2.1\Proj /
//                          ects\zstack\Samples\cc2430-zstack-adxl345\CC2430D /
//                          B\..\..\..\ZMAIN\TI2430DB\" -I "C:\Texas          /
//                          Instruments\ZStack-1.4.3-1.2.1\Projects\zstack\Sa /
//                          mples\cc2430-zstack-adxl345\CC2430DB\..\..\..\..\ /
//                          ..\COMPONENTS\MT\" -I "C:\Texas                   /
//                          Instruments\ZStack-1.4.3-1.2.1\Projects\zstack\Sa /
//                          mples\cc2430-zstack-adxl345\CC2430DB\..\..\..\..\ /
//                          ..\COMPONENTS\HAL\INCLUDE\" -I "C:\Texas          /
//                          Instruments\ZStack-1.4.3-1.2.1\Projects\zstack\Sa /
//                          mples\cc2430-zstack-adxl345\CC2430DB\..\..\..\..\ /
//                          ..\COMPONENTS\HAL\TARGET\CC2430EB\" -I "C:\Texas  /
//                          Instruments\ZStack-1.4.3-1.2.1\Projects\zstack\Sa /
//                          mples\cc2430-zstack-adxl345\CC2430DB\..\..\..\..\ /
//                          ..\COMPONENTS\OSAL\MCU\CCSOC\" -I "C:\Texas       /
//                          Instruments\ZStack-1.4.3-1.2.1\Projects\zstack\Sa /
//                          mples\cc2430-zstack-adxl345\CC2430DB\..\..\..\..\ /
//                          ..\COMPONENTS\OSAL\INCLUDE\" -I "C:\Texas         /
//                          Instruments\ZStack-1.4.3-1.2.1\Projects\zstack\Sa /
//                          mples\cc2430-zstack-adxl345\CC2430DB\..\..\..\..\ /
//                          ..\COMPONENTS\STACK\AF\" -I "C:\Texas             /
//                          Instruments\ZStack-1.4.3-1.2.1\Projects\zstack\Sa /
//                          mples\cc2430-zstack-adxl345\CC2430DB\..\..\..\..\ /
//                          ..\COMPONENTS\STACK\NWK\" -I "C:\Texas            /
//                          Instruments\ZStack-1.4.3-1.2.1\Projects\zstack\Sa /
//                          mples\cc2430-zstack-adxl345\CC2430DB\..\..\..\..\ /
//                          ..\COMPONENTS\STACK\SEC\" -I "C:\Texas            /
//                          Instruments\ZStack-1.4.3-1.2.1\Projects\zstack\Sa /
//                          mples\cc2430-zstack-adxl345\CC2430DB\..\..\..\..\ /
//                          ..\COMPONENTS\STACK\SYS\" -I "C:\Texas            /
//                          Instruments\ZStack-1.4.3-1.2.1\Projects\zstack\Sa /
//                          mples\cc2430-zstack-adxl345\CC2430DB\..\..\..\..\ /
//                          ..\COMPONENTS\STACK\ZDO\" -I "C:\Texas            /
//                          Instruments\ZStack-1.4.3-1.2.1\Projects\zstack\Sa /
//                          mples\cc2430-zstack-adxl345\CC2430DB\..\..\..\..\ /
//                          ..\COMPONENTS\ZMAC\F8W\" -I "C:\Texas             /
//                          Instruments\ZStack-1.4.3-1.2.1\Projects\zstack\Sa /
//                          mples\cc2430-zstack-adxl345\CC2430DB\..\..\..\..\ /
//                          ..\COMPONENTS\ZMAC\" -I "C:\Texas                 /
//                          Instruments\ZStack-1.4.3-1.2.1\Projects\zstack\Sa /
//                          mples\cc2430-zstack-adxl345\CC2430DB\..\..\..\..\ /
//                          ..\COMPONENTS\SERVICES\SADDR\" -I "C:\Texas       /
//                          Instruments\ZStack-1.4.3-1.2.1\Projects\zstack\Sa /
//                          mples\cc2430-zstack-adxl345\CC2430DB\..\..\..\..\ /
//                          ..\COMPONENTS\SERVICES\SDATA\" -I "C:\Texas       /
//                          Instruments\ZStack-1.4.3-1.2.1\Projects\zstack\Sa /
//                          mples\cc2430-zstack-adxl345\CC2430DB\..\..\..\..\ /
//                          ..\COMPONENTS\MAC\INCLUDE\" -I "C:\Texas          /
//                          Instruments\ZStack-1.4.3-1.2.1\Projects\zstack\Sa /
//                          mples\cc2430-zstack-adxl345\CC2430DB\..\..\..\..\ /
//                          ..\COMPONENTS\MAC\HIGH_LEVEL\" -I "C:\Texas       /
//                          Instruments\ZStack-1.4.3-1.2.1\Projects\zstack\Sa /
//                          mples\cc2430-zstack-adxl345\CC2430DB\..\..\..\..\ /
//                          ..\COMPONENTS\MAC\LOW_LEVEL\SRF03\" -I "C:\Texas  /
//                          Instruments\ZStack-1.4.3-1.2.1\Projects\zstack\Sa /
//                          mples\cc2430-zstack-adxl345\CC2430DB\..\..\..\..\ /
//                          ..\COMPONENTS\MAC\LOW_LEVEL\SRF03\SINGLE_CHIP\"   /
//                          -I "C:\Program Files\IAR Systems\Embedded         /
//                          Workbench 4.0 Evaluation version\8051\INC\" -I    /
//                          "C:\Program Files\IAR Systems\Embedded Workbench  /
//                          4.0 Evaluation version\8051\INC\CLIB\"            /
//    List file          =  C:\Texas Instruments\ZStack-1.4.3-1.2.1\Projects\ /
//                          zstack\Samples\cc2430-zstack-adxl345\CC2430DB\Coo /
//                          rdinatorEB\List\nwk_globals.s51                   /
//                                                                            /
//                                                                            /
///////////////////////////////////////////////////////////////////////////////

        NAME nwk_globals

        RTMODEL "__calling_convention", "xdata_reentrant"
        RTMODEL "__code_model", "banked"
        RTMODEL "__core", "plain"
        RTMODEL "__data_model", "large"
        RTMODEL "__dptr_size", "16"
        RTMODEL "__extended_stack", "disabled"
        RTMODEL "__location_for_constants", "data"
        RTMODEL "__number_of_dptrs", "1"
        RTMODEL "__rt_version", "1"

        RSEG DOVERLAY:DATA:NOROOT(0)
        RSEG IOVERLAY:IDATA:NOROOT(0)
        RSEG ISTACK:IDATA:NOROOT(0)
        RSEG PSTACK:XDATA:NOROOT(0)
        RSEG XSTACK:XDATA:NOROOT(0)

        EXTERN ?BANKED_ENTER_XDATA
        EXTERN ?BANKED_LEAVE_XDATA
        EXTERN ?BDISPATCH
        EXTERN ?BRET
        EXTERN ?DEALLOC_XSTACK8
        EXTERN ?PUSH_XSTACK8_X_TWO
        EXTERN ?PUSH_XSTACK_I_ONE
        EXTERN ?US_SWITCH_SPARSE
        EXTERN ?V0
        EXTERN __INIT_XDATA_I
        EXTERN __INIT_XDATA_Z

        PUBLIC ??NIB_init?relay
        FUNCTION ??NIB_init?relay,0203H
        PUBLIC ??nwk_Status?relay
        FUNCTION ??nwk_Status?relay,0203H
        PUBLIC ??nwk_globals_init?relay
        FUNCTION ??nwk_globals_init?relay,0203H
        PUBLIC AssocCnfFailStr
        PUBLIC AssocCnfStr
        PUBLIC AssocIndStr
        PUBLIC AssocRspFailStr
        PUBLIC AssociatedDevList
        PUBLIC BindingTable
        PUBLIC Cskip
        PUBLIC CskipChldrn
        PUBLIC CskipRtrs
        PUBLIC EndDeviceStr
        PUBLIC EnergyLevelStr
        PUBLIC FailedStr
        PUBLIC NIB_init
        FUNCTION NIB_init,021203H
        ARGFRAME XSTACK, 0, STACK
        LOCFRAME ISTACK, 2, STACK
        PUBLIC NetworkIDStr
        PUBLIC OrphanRspStr
        PUBLIC ParentStr
        PUBLIC PingStr
        PUBLIC RouterStr
        PUBLIC ScanFailedStr
        PUBLIC SentStr
        PUBLIC SuccessStr
        PUBLIC ZigbeeCoordStr
        PUBLIC apscMaxWindowSize
        PUBLIC bcastHoldAckMask
        PUBLIC bcastHoldHandle
        PUBLIC bcastTable
        PUBLIC defaultKey
        PUBLIC gAPS_INTERFRAME_DELAY
        PUBLIC gAPS_MAX_GROUPS
        PUBLIC gBIND_REC_SIZE
        PUBLIC gMAX_BCAST
        PUBLIC gMAX_BINDING_CLUSTER_IDS
        PUBLIC gMAX_NEIGHBOR_ENTRIES
        PUBLIC gMAX_RREQ_ENTRIES
        PUBLIC gMAX_RTG_ENTRIES
        PUBLIC gMAX_UNRESERVED_RTG_ENTRIES
        PUBLIC gMIN_TREE_LINK_COST
        PUBLIC gNWK_INDIRECT_CNT_RTG_TMR
        PUBLIC gNWK_INDIRECT_MSG_MAX_ALL
        PUBLIC gNWK_INDIRECT_MSG_MAX_PER
        PUBLIC gNWK_MAX_BINDING_ENTRIES
        PUBLIC gNWK_MAX_DATABUFS_CONFIRMED
        PUBLIC gNWK_MAX_DATABUFS_SCHEDULED
        PUBLIC gNWK_MAX_DATABUFS_TOTAL
        PUBLIC gNWK_MAX_DATABUFS_WAITING
        PUBLIC gNWK_MAX_DEVICE_LIST
        PUBLIC neighborTable
        PUBLIC nwk_Status
        FUNCTION nwk_Status,0a1203H
        ARGFRAME XSTACK, 0, STACK
        LOCFRAME XSTACK, 13, STACK
        PUBLIC nwk_globals_init
        FUNCTION nwk_globals_init,021203H
        ARGFRAME XSTACK, 0, STACK
        LOCFRAME ISTACK, 2, STACK
        LOCFRAME XSTACK, 2, STACK
        PUBLIC rtDiscTable
        PUBLIC rtgTable
        
        CFI Names cfiNames0
        CFI StackFrame CFA_SP SP DATA
        CFI StackFrame CFA_PSP16 PSP16 XDATA
        CFI StackFrame CFA_XSP16 XSP16 XDATA
        CFI StaticOverlayFrame CFA_IOVERLAY IOVERLAY
        CFI StaticOverlayFrame CFA_DOVERLAY DOVERLAY
        CFI Resource `PSW.CY`:1, `B.BR0`:1, `B.BR1`:1, `B.BR2`:1, `B.BR3`:1
        CFI Resource `B.BR4`:1, `B.BR5`:1, `B.BR6`:1, `B.BR7`:1, `VB.BR8`:1
        CFI Resource `VB.BR9`:1, `VB.BR10`:1, `VB.BR11`:1, `VB.BR12`:1
        CFI Resource `VB.BR13`:1, `VB.BR14`:1, `VB.BR15`:1, VB:8, B:8, A:8
        CFI Resource PSW:8, DPL0:8, DPH0:8, R0:8, R1:8, R2:8, R3:8, R4:8, R5:8
        CFI Resource R6:8, R7:8, V0:8, V1:8, V2:8, V3:8, V4:8, V5:8, V6:8, V7:8
        CFI Resource SP:8, PSPH:8, PSPL:8, PSP16:16, XSPH:8, XSPL:8, XSP16:16
        CFI VirtualResource ?RET:24
        CFI Resource ?BRET_EXT:8
        CFI VirtualResource ?RET_HIGH:8, ?RET_LOW:8
        CFI ResourceParts PSP16 PSPH, PSPL
        CFI ResourceParts XSP16 XSPH, XSPL
        CFI ResourceParts ?RET ?BRET_EXT, ?RET_HIGH, ?RET_LOW
        CFI EndNames cfiNames0
        
        CFI Common cfiCommon0 Using cfiNames0
        CFI CodeAlign 1
        CFI DataAlign -1
        CFI ReturnAddress ?RET CODE
        CFI CFA_DOVERLAY Used
        CFI CFA_IOVERLAY Used
        CFI CFA_SP SP+-3
        CFI CFA_PSP16 PSP16+0
        CFI CFA_XSP16 XSP16+0
        CFI `PSW.CY` SameValue
        CFI `B.BR0` SameValue
        CFI `B.BR1` SameValue
        CFI `B.BR2` SameValue
        CFI `B.BR3` SameValue
        CFI `B.BR4` SameValue
        CFI `B.BR5` SameValue
        CFI `B.BR6` SameValue
        CFI `B.BR7` SameValue
        CFI `VB.BR8` SameValue
        CFI `VB.BR9` SameValue
        CFI `VB.BR10` SameValue
        CFI `VB.BR11` SameValue
        CFI `VB.BR12` SameValue
        CFI `VB.BR13` SameValue
        CFI `VB.BR14` SameValue
        CFI `VB.BR15` SameValue
        CFI VB SameValue
        CFI B Undefined
        CFI A Undefined
        CFI PSW SameValue
        CFI DPL0 SameValue
        CFI DPH0 SameValue
        CFI R0 Undefined
        CFI R1 Undefined
        CFI R2 Undefined
        CFI R3 Undefined
        CFI R4 Undefined
        CFI R5 Undefined
        CFI R6 SameValue
        CFI R7 SameValue
        CFI V0 SameValue
        CFI V1 SameValue
        CFI V2 SameValue
        CFI V3 SameValue
        CFI V4 SameValue
        CFI V5 SameValue
        CFI V6 SameValue
        CFI V7 SameValue
        CFI PSPH Undefined
        CFI PSPL Undefined
        CFI XSPH Undefined
        CFI XSPL Undefined
        CFI ?RET Concat
        CFI ?BRET_EXT Frame(CFA_SP, 3)
        CFI ?RET_HIGH Frame(CFA_SP, 2)
        CFI ?RET_LOW Frame(CFA_SP, 1)
        CFI EndCommon cfiCommon0
        
        
        CFI Common cfiCommon1 Using cfiNames0
        CFI CodeAlign 1
        CFI DataAlign -1
        CFI ReturnAddress ?RET CODE
        CFI CFA_DOVERLAY Used
        CFI CFA_IOVERLAY Used
        CFI CFA_SP SP+-2
        CFI CFA_PSP16 PSP16+0
        CFI CFA_XSP16 XSP16+0
        CFI `PSW.CY` SameValue
        CFI `B.BR0` SameValue
        CFI `B.BR1` SameValue
        CFI `B.BR2` SameValue
        CFI `B.BR3` SameValue
        CFI `B.BR4` SameValue
        CFI `B.BR5` SameValue
        CFI `B.BR6` SameValue
        CFI `B.BR7` SameValue
        CFI `VB.BR8` SameValue
        CFI `VB.BR9` SameValue
        CFI `VB.BR10` SameValue
        CFI `VB.BR11` SameValue
        CFI `VB.BR12` SameValue
        CFI `VB.BR13` SameValue
        CFI `VB.BR14` SameValue
        CFI `VB.BR15` SameValue
        CFI VB SameValue
        CFI B SameValue
        CFI A SameValue
        CFI PSW SameValue
        CFI DPL0 SameValue
        CFI DPH0 SameValue
        CFI R0 SameValue
        CFI R1 SameValue
        CFI R2 SameValue
        CFI R3 SameValue
        CFI R4 SameValue
        CFI R5 SameValue
        CFI R6 SameValue
        CFI R7 SameValue
        CFI V0 SameValue
        CFI V1 SameValue
        CFI V2 SameValue
        CFI V3 SameValue
        CFI V4 SameValue
        CFI V5 SameValue
        CFI V6 SameValue
        CFI V7 SameValue
        CFI PSPH Undefined
        CFI PSPL Undefined
        CFI XSPH Undefined
        CFI XSPL Undefined
        CFI ?RET Concat
        CFI ?BRET_EXT SameValue
        CFI ?RET_HIGH Frame(CFA_SP, 2)
        CFI ?RET_LOW Frame(CFA_SP, 1)
        CFI EndCommon cfiCommon1
        
AddrMgrInit         SYMBOL "AddrMgrInit"
osal_mem_alloc      SYMBOL "osal_mem_alloc"
RTG_FillCSkipTable  SYMBOL "RTG_FillCSkipTable"
osal_memset         SYMBOL "osal_memset"
osal_cpyExtAddr     SYMBOL "osal_cpyExtAddr"
HalLcdWriteString   SYMBOL "HalLcdWriteString"
HalLcdWriteStringValue SYMBOL "HalLcdWriteStringValue"
BuzzerControl       SYMBOL "BuzzerControl"
HalLcdWriteScreen   SYMBOL "HalLcdWriteScreen"
HalLcdWriteValue    SYMBOL "HalLcdWriteValue"
??AddrMgrInit?relay SYMBOL "?relay", AddrMgrInit
??BuzzerControl?relay SYMBOL "?relay", BuzzerControl
??HalLcdWriteScreen?relay SYMBOL "?relay", HalLcdWriteScreen
??HalLcdWriteString?relay SYMBOL "?relay", HalLcdWriteString
??HalLcdWriteStringValue?relay SYMBOL "?relay", HalLcdWriteStringValue
??HalLcdWriteValue?relay SYMBOL "?relay", HalLcdWriteValue
??RTG_FillCSkipTable?relay SYMBOL "?relay", RTG_FillCSkipTable
??osal_cpyExtAddr?relay SYMBOL "?relay", osal_cpyExtAddr
??osal_mem_alloc?relay SYMBOL "?relay", osal_mem_alloc
??osal_memset?relay SYMBOL "?relay", osal_memset
NIB_init            SYMBOL "NIB_init"
??NIB_init?relay    SYMBOL "?relay", NIB_init
nwk_Status          SYMBOL "nwk_Status"
??nwk_Status?relay  SYMBOL "?relay", nwk_Status
nwk_globals_init    SYMBOL "nwk_globals_init"
??nwk_globals_init?relay SYMBOL "?relay", nwk_globals_init

        EXTERN AddrMgrInit
        FUNCTION AddrMgrInit,0202H
        ARGFRAME ISTACK, 2, STACK
        ARGFRAME PSTACK, 0, STACK
        ARGFRAME XSTACK, 0, STACK
        ARGFRAME IOVERLAY, 0, STATIC
        ARGFRAME DOVERLAY, 0, STATIC
        EXTERN osal_mem_alloc
        FUNCTION osal_mem_alloc,0202H
        ARGFRAME ISTACK, 2, STACK
        ARGFRAME PSTACK, 0, STACK
        ARGFRAME XSTACK, 0, STACK
        ARGFRAME IOVERLAY, 0, STATIC
        ARGFRAME DOVERLAY, 0, STATIC
        EXTERN RTG_FillCSkipTable
        FUNCTION RTG_FillCSkipTable,0202H
        ARGFRAME ISTACK, 2, STACK
        ARGFRAME PSTACK, 0, STACK
        ARGFRAME XSTACK, 2, STACK
        ARGFRAME IOVERLAY, 0, STATIC
        ARGFRAME DOVERLAY, 0, STATIC
        EXTERN osal_memset
        FUNCTION osal_memset,0202H
        ARGFRAME ISTACK, 2, STACK
        ARGFRAME PSTACK, 0, STACK
        ARGFRAME XSTACK, 0, STACK
        ARGFRAME IOVERLAY, 0, STATIC
        ARGFRAME DOVERLAY, 0, STATIC
        EXTERN osal_cpyExtAddr
        FUNCTION osal_cpyExtAddr,0202H
        ARGFRAME ISTACK, 2, STACK
        ARGFRAME PSTACK, 0, STACK
        ARGFRAME XSTACK, 0, STACK
        ARGFRAME IOVERLAY, 0, STATIC
        ARGFRAME DOVERLAY, 0, STATIC
        EXTERN HalLcdWriteString
        FUNCTION HalLcdWriteString,0202H
        ARGFRAME ISTACK, 0, STACK
        ARGFRAME PSTACK, 0, STACK
        ARGFRAME XSTACK, 12, STACK
        ARGFRAME IOVERLAY, 0, STATIC
        ARGFRAME DOVERLAY, 0, STATIC
        EXTERN HalLcdWriteStringValue
        FUNCTION HalLcdWriteStringValue,0202H
        ARGFRAME ISTACK, 0, STACK
        ARGFRAME PSTACK, 0, STACK
        ARGFRAME XSTACK, 13, STACK
        ARGFRAME IOVERLAY, 0, STATIC
        ARGFRAME DOVERLAY, 0, STATIC
        EXTERN BuzzerControl
        FUNCTION BuzzerControl,0202H
        ARGFRAME ISTACK, 0, STACK
        ARGFRAME PSTACK, 0, STACK
        ARGFRAME XSTACK, 12, STACK
        ARGFRAME IOVERLAY, 0, STATIC
        ARGFRAME DOVERLAY, 0, STATIC
        EXTERN HalLcdWriteScreen
        FUNCTION HalLcdWriteScreen,0202H
        ARGFRAME ISTACK, 0, STACK
        ARGFRAME PSTACK, 0, STACK
        ARGFRAME XSTACK, 12, STACK
        ARGFRAME IOVERLAY, 0, STATIC
        ARGFRAME DOVERLAY, 0, STATIC
        EXTERN HalLcdWriteValue
        FUNCTION HalLcdWriteValue,0202H
        ARGFRAME ISTACK, 0, STACK
        ARGFRAME PSTACK, 0, STACK
        ARGFRAME XSTACK, 13, STACK
        ARGFRAME IOVERLAY, 0, STATIC
        ARGFRAME DOVERLAY, 0, STATIC
        EXTERN ??AddrMgrInit?relay
        FUNCTION ??AddrMgrInit?relay,00H
        EXTERN ??BuzzerControl?relay
        FUNCTION ??BuzzerControl?relay,00H
        EXTERN ??HalLcdWriteScreen?relay
        FUNCTION ??HalLcdWriteScreen?relay,00H
        EXTERN ??HalLcdWriteString?relay
        FUNCTION ??HalLcdWriteString?relay,00H
        EXTERN ??HalLcdWriteStringValue?relay
        FUNCTION ??HalLcdWriteStringValue?relay,00H
        EXTERN ??HalLcdWriteValue?relay
        FUNCTION ??HalLcdWriteValue?relay,00H
        EXTERN ??RTG_FillCSkipTable?relay
        FUNCTION ??RTG_FillCSkipTable?relay,00H
        EXTERN ??osal_cpyExtAddr?relay
        FUNCTION ??osal_cpyExtAddr?relay,00H
        EXTERN ??osal_mem_alloc?relay
        FUNCTION ??osal_mem_alloc?relay,00H
        EXTERN ??osal_memset?relay
        FUNCTION ??osal_memset?relay,00H
        EXTERN ZDO_Config_Node_Descriptor
        EXTERN _NIB
        EXTERN zgBcastDeliveryTime
        EXTERN zgExtendedPANID
        EXTERN zgIndirectMsgTimeout
        EXTERN zgMaxBcastRetires
        EXTERN zgPassiveAckTimeout
        EXTERN zgRouteExpiryTime
        EXTERN zgSecurityLevel

// C:\Texas Instruments\ZStack-1.4.3-1.2.1\Components\stack\nwk\nwk_globals.c
//    1 /**************************************************************************************************
//    2   Filename:       nwk_globals.c
//    3   Revised:        $Date: 2008-03-03 17:57:18 -0800 (Mon, 03 Mar 2008) $
//    4   Revision:       $Revision: 16530 $
//    5 
//    6   Description:    User definable Network Parameters.
//    7 
//    8 
//    9   Copyright 2004-2007 Texas Instruments Incorporated. All rights reserved.
//   10 
//   11   IMPORTANT: Your use of this Software is limited to those specific rights
//   12   granted under the terms of a software license agreement between the user
//   13   who downloaded the software, his/her employer (which must be your employer)
//   14   and Texas Instruments Incorporated (the "License").  You may not use this
//   15   Software unless you agree to abide by the terms of the License. The License
//   16   limits your use, and you acknowledge, that the Software may not be modified,
//   17   copied or distributed unless embedded on a Texas Instruments microcontroller
//   18   or used solely and exclusively in conjunction with a Texas Instruments radio
//   19   frequency transceiver, which is integrated into your product.  Other than for
//   20   the foregoing purpose, you may not use, reproduce, copy, prepare derivative
//   21   works of, modify, distribute, perform, display or sell this Software and/or
//   22   its documentation for any purpose.
//   23 
//   24   YOU FURTHER ACKNOWLEDGE AND AGREE THAT THE SOFTWARE AND DOCUMENTATION ARE
//   25   PROVIDED “AS IS” WITHOUT WARRANTY OF ANY KIND, EITHER EXPRESS OR IMPLIED, 
//   26   INCLUDING WITHOUT LIMITATION, ANY WARRANTY OF MERCHANTABILITY, TITLE, 
//   27   NON-INFRINGEMENT AND FITNESS FOR A PARTICULAR PURPOSE. IN NO EVENT SHALL
//   28   TEXAS INSTRUMENTS OR ITS LICENSORS BE LIABLE OR OBLIGATED UNDER CONTRACT,
//   29   NEGLIGENCE, STRICT LIABILITY, CONTRIBUTION, BREACH OF WARRANTY, OR OTHER
//   30   LEGAL EQUITABLE THEORY ANY DIRECT OR INDIRECT DAMAGES OR EXPENSES
//   31   INCLUDING BUT NOT LIMITED TO ANY INCIDENTAL, SPECIAL, INDIRECT, PUNITIVE
//   32   OR CONSEQUENTIAL DAMAGES, LOST PROFITS OR LOST DATA, COST OF PROCUREMENT
//   33   OF SUBSTITUTE GOODS, TECHNOLOGY, SERVICES, OR ANY CLAIMS BY THIRD PARTIES
//   34   (INCLUDING BUT NOT LIMITED TO ANY DEFENSE THEREOF), OR OTHER SIMILAR COSTS.
//   35 
//   36   Should you have any questions regarding your right to use this Software,
//   37   contact Texas Instruments Incorporated at www.TI.com. 
//   38 **************************************************************************************************/
//   39 
//   40 /*********************************************************************
//   41  * INCLUDES
//   42  */
//   43 #include "ZComdef.h"
//   44 #include "OSAL.h"
//   45 #include "AddrMgr.h"
//   46 #include "AssocList.h"
//   47 #include "BindingTable.h"
//   48 #include "nwk_globals.h"
//   49 #include "ssp.h"
//   50 #include "rtg.h"
//   51 #include "ZDConfig.h"
//   52 #include "ZGlobals.h"
//   53 
//   54 #if defined ( LCD_SUPPORTED )
//   55   #include "OnBoard.h"
//   56 #endif
//   57 
//   58 /* HAL */
//   59 #include "hal_lcd.h"
//   60 
//   61 /*********************************************************************
//   62  * MACROS
//   63  */
//   64 
//   65 /*********************************************************************
//   66  * CONSTANTS
//   67  */
//   68 
//   69 // Maximums for the data buffer queue
//   70 #define NWK_MAX_DATABUFS_WAITING    8     // Waiting to be sent to MAC
//   71 #define NWK_MAX_DATABUFS_SCHEDULED  5     // Timed messages to be sent
//   72 #define NWK_MAX_DATABUFS_CONFIRMED  5     // Held after MAC confirms
//   73 #define NWK_MAX_DATABUFS_TOTAL      12    // Total number of buffers
//   74 
//   75 // 1-255 (0 -> 256) X RTG_TIMER_INTERVAL
//   76 // A known shortcoming is that when a message is enqueued as "hold" for a
//   77 // sleeping device, the timer tick may have counted down to 1, so that msg
//   78 // will not be held as long as expected. If NWK_INDIRECT_MSG_TIMEOUT is set to 1
//   79 // the hold time will vary randomly from 0 - CNT_RTG_TIMER ticks.
//   80 // So the hold time will vary within this interval:
//   81 // { (NWK_INDIRECT_MSG_TIMEOUT-1)*CNT_RTG_TIMER,
//   82 //                                    NWK_INDIRECT_MSG_TIMEOUT*CNT_RTG_TIMER }
//   83 #define NWK_INDIRECT_CNT_RTG_TMR    1  //ggg - need hours or days?
//   84 // To hold msg for sleeping end devices for 30 secs:
//   85 // #define CNT_RTG_TIMER            1
//   86 // #define NWK_INDIRECT_MSG_TIMEOUT 30
//   87 // To hold msg for sleeping end devices for 30 mins:
//   88 // #define CNT_RTG_TIMER            60
//   89 // #define NWK_INDIRECT_MSG_TIMEOUT 30
//   90 // To hold msg for sleeping end devices for 30 days:
//   91 // #define CNT_RTG_TIMER            60
//   92 // #define NWK_INDIRECT_MSG_TIMEOUT (30 * 24 * 60)
//   93 // Maximum msgs to hold per associated device.
//   94 #define NWK_INDIRECT_MSG_MAX_PER    3
//   95 // Maximum total msgs to hold for all associated devices.
//   96 #define NWK_INDIRECT_MSG_MAX_ALL    \ 
//   97                             (NWK_MAX_DATABUFS_TOTAL - NWK_INDIRECT_MSG_MAX_PER)
//   98 
//   99 
//  100 /*********************************************************************
//  101  * TYPEDEFS
//  102  */
//  103 
//  104 /*********************************************************************
//  105  * NWK GLOBAL VARIABLES
//  106  */
//  107 
//  108 // Variables for MAX list size

        RSEG CODE_C:CODE:REORDER:NOROOT(0)
        DATA
//  109 CONST uint16 gNWK_MAX_DEVICE_LIST = NWK_MAX_DEVICES;
gNWK_MAX_DEVICE_LIST:
        DW 21
//  110 
//  111 // Variables for MAX data buffer levels

        RSEG CODE_C:CODE:REORDER:NOROOT(0)
        DATA
//  112 CONST byte gNWK_MAX_DATABUFS_WAITING = NWK_MAX_DATABUFS_WAITING;
gNWK_MAX_DATABUFS_WAITING:
        DB 8

        RSEG CODE_C:CODE:REORDER:NOROOT(0)
        DATA
//  113 CONST byte gNWK_MAX_DATABUFS_SCHEDULED = NWK_MAX_DATABUFS_SCHEDULED;
gNWK_MAX_DATABUFS_SCHEDULED:
        DB 5

        RSEG CODE_C:CODE:REORDER:NOROOT(0)
        DATA
//  114 CONST byte gNWK_MAX_DATABUFS_CONFIRMED = NWK_MAX_DATABUFS_CONFIRMED;
gNWK_MAX_DATABUFS_CONFIRMED:
        DB 5

        RSEG CODE_C:CODE:REORDER:NOROOT(0)
        DATA
//  115 CONST byte gNWK_MAX_DATABUFS_TOTAL = NWK_MAX_DATABUFS_TOTAL;
gNWK_MAX_DATABUFS_TOTAL:
        DB 12
//  116 

        RSEG CODE_C:CODE:REORDER:NOROOT(0)
        DATA
//  117 CONST byte gNWK_INDIRECT_CNT_RTG_TMR = NWK_INDIRECT_CNT_RTG_TMR;
gNWK_INDIRECT_CNT_RTG_TMR:
        DB 1

        RSEG CODE_C:CODE:REORDER:NOROOT(0)
        DATA
//  118 CONST byte gNWK_INDIRECT_MSG_MAX_PER = NWK_INDIRECT_MSG_MAX_PER;
gNWK_INDIRECT_MSG_MAX_PER:
        DB 3

        RSEG CODE_C:CODE:REORDER:NOROOT(0)
        DATA
//  119 CONST byte gNWK_INDIRECT_MSG_MAX_ALL = NWK_INDIRECT_MSG_MAX_ALL;
gNWK_INDIRECT_MSG_MAX_ALL:
        DB 9
//  120 
//  121 #if defined ( RTR_NWK )
//  122   // change this if using a different stack profile...
//  123   // Cskip array

        RSEG XDATA_Z:XDATA:NOROOT(0)
//  124   uint16 *Cskip;
Cskip:
        DS 2
        REQUIRE __INIT_XDATA_Z
//  125 
//  126   #if ( STACK_PROFILE_ID == HOME_CONTROLS )

        RSEG XDATA_I:XDATA:NOROOT(0)
        DATA
//  127     byte CskipRtrs[MAX_NODE_DEPTH+1] = {6,6,6,6,6,0};
CskipRtrs:
        DS 6
        REQUIRE `?<Initializer for CskipRtrs>`
        REQUIRE __INIT_XDATA_I

        RSEG XDATA_I:XDATA:NOROOT(0)
        DATA
//  128     byte CskipChldrn[MAX_NODE_DEPTH+1] = {20,20,20,20,20,0};
CskipChldrn:
        DS 6
        REQUIRE `?<Initializer for CskipChldrn>`
        REQUIRE __INIT_XDATA_I
//  129   #elif ( STACK_PROFILE_ID == GENERIC_STAR )
//  130     byte CskipRtrs[MAX_NODE_DEPTH+1] = {5,5,5,5,5,0};
//  131     byte CskipChldrn[MAX_NODE_DEPTH+1] = {5,5,5,5,5,0};
//  132   #elif ( STACK_PROFILE_ID == NETWORK_SPECIFIC )
//  133     byte CskipRtrs[MAX_NODE_DEPTH+1] = {5,5,5,5,5,0};
//  134     byte CskipChldrn[MAX_NODE_DEPTH+1] = {5,5,5,5,5,0};
//  135   #endif // STACK_PROFILE_ID
//  136 #endif  // RTR_NWK
//  137 
//  138 
//  139 // Minimum lqi value that is required for association

        RSEG XDATA_I:XDATA:NOROOT(0)
        DATA
//  140 byte gMIN_TREE_LINK_COST = MIN_LQI_COST_3;
gMIN_TREE_LINK_COST:
        DS 1
        REQUIRE `?<Initializer for gMIN_TREE_LINK_COST>`
        REQUIRE __INIT_XDATA_I
//  141 
//  142 #if defined(RTR_NWK)
//  143   // Statically defined Associated Device List

        RSEG XDATA_Z:XDATA:NOROOT(0)
//  144   associated_devices_t AssociatedDevList[NWK_MAX_DEVICES];
AssociatedDevList:
        DS 294
        REQUIRE __INIT_XDATA_Z
//  145 #endif
//  146 

        RSEG CODE_C:CODE:REORDER:NOROOT(0)
        DATA
//  147 CONST byte gMAX_RTG_ENTRIES = MAX_RTG_ENTRIES;
gMAX_RTG_ENTRIES:
        DB 20

        RSEG CODE_C:CODE:REORDER:NOROOT(0)
        DATA
//  148 CONST byte gMAX_UNRESERVED_RTG_ENTRIES = MAX_UNRESERVED_RTG_ENTRIES;
gMAX_UNRESERVED_RTG_ENTRIES:
        DB 16

        RSEG CODE_C:CODE:REORDER:NOROOT(0)
        DATA
//  149 CONST byte gMAX_RREQ_ENTRIES = MAX_RREQ_ENTRIES;
gMAX_RREQ_ENTRIES:
        DB 10
//  150 

        RSEG CODE_C:CODE:REORDER:NOROOT(0)
        DATA
//  151 CONST byte gMAX_NEIGHBOR_ENTRIES = MAX_NEIGHBOR_ENTRIES;
gMAX_NEIGHBOR_ENTRIES:
        DB 8
//  152 
//  153  // Table of neighboring nodes (not including child nodes)

        RSEG XDATA_Z:XDATA:NOROOT(0)
//  154 neighborEntry_t neighborTable[MAX_NEIGHBOR_ENTRIES];
neighborTable:
        DS 88
        REQUIRE __INIT_XDATA_Z
//  155 
//  156 #if defined ( RTR_NWK )
//  157   // Routing table

        RSEG XDATA_Z:XDATA:NOROOT(0)
//  158   rtgEntry_t rtgTable[MAX_RTG_ENTRIES];
rtgTable:
        DS 120
        REQUIRE __INIT_XDATA_Z
//  159 
//  160   // Table of current RREQ packets in the network

        RSEG XDATA_Z:XDATA:NOROOT(0)
//  161   rtDiscEntry_t rtDiscTable[MAX_RREQ_ENTRIES];
rtDiscTable:
        DS 80
        REQUIRE __INIT_XDATA_Z
//  162   
//  163   // Table of data broadcast packets currently in circulation.

        RSEG XDATA_Z:XDATA:NOROOT(0)
//  164   bcastEntry_t bcastTable[MAX_BCAST];
bcastTable:
        DS 72
        REQUIRE __INIT_XDATA_Z
//  165   
//  166   // These 2 arrays are to be used as an array of struct { uint8, uint32 }.

        RSEG XDATA_Z:XDATA:NOROOT(0)
//  167   uint8 bcastHoldHandle[MAX_BCAST];
bcastHoldHandle:
        DS 9
        REQUIRE __INIT_XDATA_Z

        RSEG XDATA_Z:XDATA:NOROOT(0)
//  168   uint32 bcastHoldAckMask[MAX_BCAST];
bcastHoldAckMask:
        DS 36
        REQUIRE __INIT_XDATA_Z
//  169   

        RSEG CODE_C:CODE:REORDER:NOROOT(0)
        DATA
//  170   CONST byte gMAX_BCAST = MAX_BCAST;
gMAX_BCAST:
        DB 9
//  171 #endif
//  172 
//  173 /*********************************************************************
//  174  * APS GLOBAL VARIABLES
//  175  */
//  176 
//  177 //#if defined ( REFLECTOR )
//  178   // The Maximum number of binding records
//  179   // This number is defined in BindingTable.h - change it there.

        RSEG CODE_C:CODE:REORDER:NOROOT(0)
        DATA
//  180   CONST uint16 gNWK_MAX_BINDING_ENTRIES = NWK_MAX_BINDING_ENTRIES;
gNWK_MAX_BINDING_ENTRIES:
        DW 10
//  181 #if defined ( REFLECTOR )
//  182   // The Maximum number of cluster IDs in a binding record
//  183   // This number is defined in BindingTable.h - change it there.

        RSEG CODE_C:CODE:REORDER:NOROOT(0)
        DATA
//  184   CONST byte gMAX_BINDING_CLUSTER_IDS = MAX_BINDING_CLUSTER_IDS;
gMAX_BINDING_CLUSTER_IDS:
        DB 5
//  185 

        RSEG CODE_C:CODE:REORDER:NOROOT(0)
        DATA
//  186   CONST uint16 gBIND_REC_SIZE = sizeof( BindingEntry_t );
gBIND_REC_SIZE:
        DW 16
//  187 
//  188   // Binding Table

        RSEG XDATA_Z:XDATA:NOROOT(0)
//  189   BindingEntry_t BindingTable[NWK_MAX_BINDING_ENTRIES];
BindingTable:
        DS 160
        REQUIRE __INIT_XDATA_Z
//  190 #endif
//  191 
//  192 // Maximum number allowed in the groups table.

        RSEG CODE_C:CODE:REORDER:NOROOT(0)
        DATA
//  193 CONST uint8 gAPS_MAX_GROUPS = APS_MAX_GROUPS;
gAPS_MAX_GROUPS:
        DB 16
//  194 
//  195 // The size of a tx window when using fragmentation

        RSEG CODE_C:CODE:REORDER:NOROOT(0)
        DATA
//  196 CONST uint8 apscMaxWindowSize = APS_DEFAULT_WINDOW_SIZE;
apscMaxWindowSize:
        DB 5
//  197 
//  198 // The delay between tx packets when using fragmentaition

        RSEG CODE_C:CODE:REORDER:NOROOT(0)
        DATA
//  199 CONST uint16 gAPS_INTERFRAME_DELAY = APS_DEFAULT_INTERFRAME_DELAY;
gAPS_INTERFRAME_DELAY:
        DW 50
//  200 
//  201 
//  202 /*********************************************************************
//  203  * SECURITY GLOBAL VARIABLES
//  204  */
//  205 
//  206 // This is the default pre-configured key,
//  207 // change this to make a unique key
//  208 // SEC_KEY_LEN is defined in ssp.h.

        RSEG CODE_C:CODE:REORDER:NOROOT(0)
        DATA
//  209 CONST byte defaultKey[SEC_KEY_LEN] =
defaultKey:
        DB 0, 1, 2, 3, 4, 5, 6, 7, 8, 9, 10, 11, 12, 13, 14, 15
//  210 {
//  211 #if defined ( APP_TP ) || defined ( APP_TP2 )
//  212   // Key for ZigBee Conformance Testing
//  213   0x00, 0x00, 0x00, 0x00, 0x00, 0x00, 0x00, 0x00,
//  214   0x89, 0x67, 0x45, 0x23, 0x01, 0xEF, 0xCD, 0xAB
//  215 #else
//  216   // Key for In-House Testing
//  217   0x00, 0x01, 0x02, 0x03, 0x04, 0x05, 0x06, 0x07,
//  218   0x08, 0x09, 0x0A, 0x0B, 0x0C, 0x0D, 0x0E, 0x0F
//  219 #endif
//  220 };
//  221 
//  222 
//  223 /*********************************************************************
//  224  * STATUS STRINGS
//  225  */
//  226 #if defined ( LCD_SUPPORTED )

        RSEG XDATA_I:XDATA:NOROOT(0)
        DATA
//  227   const char PingStr[]         = "Ping Rcvd from";
PingStr:
        DS 15
        REQUIRE `?<Initializer for PingStr>`
        REQUIRE __INIT_XDATA_I

        RSEG XDATA_I:XDATA:NOROOT(0)
        DATA
//  228   const char AssocCnfStr[]     = "Assoc Cnf";
AssocCnfStr:
        DS 10
        REQUIRE `?<Initializer for AssocCnfStr>`
        REQUIRE __INIT_XDATA_I

        RSEG XDATA_I:XDATA:NOROOT(0)
        DATA
//  229   const char SuccessStr[]      = "Success";
SuccessStr:
        DS 8
        REQUIRE `?<Initializer for SuccessStr>`
        REQUIRE __INIT_XDATA_I

        RSEG XDATA_I:XDATA:NOROOT(0)
        DATA
//  230   const char EndDeviceStr[]    = "EndDevice:";
EndDeviceStr:
        DS 11
        REQUIRE `?<Initializer for EndDeviceStr>`
        REQUIRE __INIT_XDATA_I

        RSEG XDATA_I:XDATA:NOROOT(0)
        DATA
//  231   const char ParentStr[]       = "Parent:";
ParentStr:
        DS 8
        REQUIRE `?<Initializer for ParentStr>`
        REQUIRE __INIT_XDATA_I

        RSEG XDATA_I:XDATA:NOROOT(0)
        DATA
//  232   const char ZigbeeCoordStr[]  = "ZigBee Coord";
ZigbeeCoordStr:
        DS 13
        REQUIRE `?<Initializer for ZigbeeCoordStr>`
        REQUIRE __INIT_XDATA_I

        RSEG XDATA_I:XDATA:NOROOT(0)
        DATA
//  233   const char NetworkIDStr[]    = "Network ID:";
NetworkIDStr:
        DS 12
        REQUIRE `?<Initializer for NetworkIDStr>`
        REQUIRE __INIT_XDATA_I

        RSEG XDATA_I:XDATA:NOROOT(0)
        DATA
//  234   const char RouterStr[]       = "Router:";
RouterStr:
        DS 8
        REQUIRE `?<Initializer for RouterStr>`
        REQUIRE __INIT_XDATA_I

        RSEG XDATA_I:XDATA:NOROOT(0)
        DATA
//  235   const char OrphanRspStr[]    = "Orphan Response";
OrphanRspStr:
        DS 16
        REQUIRE `?<Initializer for OrphanRspStr>`
        REQUIRE __INIT_XDATA_I

        RSEG XDATA_I:XDATA:NOROOT(0)
        DATA
//  236   const char SentStr[]         = "Sent";
SentStr:
        DS 5
        REQUIRE `?<Initializer for SentStr>`
        REQUIRE __INIT_XDATA_I

        RSEG XDATA_I:XDATA:NOROOT(0)
        DATA
//  237   const char FailedStr[]       = "Failed";
FailedStr:
        DS 7
        REQUIRE `?<Initializer for FailedStr>`
        REQUIRE __INIT_XDATA_I

        RSEG XDATA_I:XDATA:NOROOT(0)
        DATA
//  238   const char AssocRspFailStr[] = "Assoc Rsp fail";
AssocRspFailStr:
        DS 15
        REQUIRE `?<Initializer for AssocRspFailStr>`
        REQUIRE __INIT_XDATA_I

        RSEG XDATA_I:XDATA:NOROOT(0)
        DATA
//  239   const char AssocIndStr[]     = "Assoc Ind";
AssocIndStr:
        DS 10
        REQUIRE `?<Initializer for AssocIndStr>`
        REQUIRE __INIT_XDATA_I

        RSEG XDATA_I:XDATA:NOROOT(0)
        DATA
//  240   const char AssocCnfFailStr[] = "Assoc Cnf fail";
AssocCnfFailStr:
        DS 15
        REQUIRE `?<Initializer for AssocCnfFailStr>`
        REQUIRE __INIT_XDATA_I

        RSEG XDATA_I:XDATA:NOROOT(0)
        DATA
//  241   const char EnergyLevelStr[]  = "Energy Level";
EnergyLevelStr:
        DS 13
        REQUIRE `?<Initializer for EnergyLevelStr>`
        REQUIRE __INIT_XDATA_I

        RSEG XDATA_I:XDATA:NOROOT(0)
        DATA
//  242   const char ScanFailedStr[]   = "Scan Failed";
ScanFailedStr:
        DS 12
        REQUIRE `?<Initializer for ScanFailedStr>`
        REQUIRE __INIT_XDATA_I
//  243 #endif
//  244 
//  245 /*********************************************************************
//  246  * @fn       nwk_globals_init()
//  247  *
//  248  * @brief
//  249  *
//  250  *   Initialize nwk layer globals.  These are the system defaults and
//  251  *   should be changed by the user here.  The default definitions are
//  252  *   defined in nwk.h or NLMEDE.h.
//  253  *
//  254  * @param   none
//  255  *
//  256  * @return  none
//  257  */

        RSEG BANKED_CODE:CODE:NOROOT(0)
//  258 void nwk_globals_init( void )
nwk_globals_init:
        CFI Block cfiBlock0 Using cfiCommon0
        CFI Function nwk_globals_init
//  259 {
        FUNCALL nwk_globals_init, AddrMgrInit
        LOCFRAME ISTACK, 2, STACK
        LOCFRAME PSTACK, 0, STACK
        LOCFRAME XSTACK, 0, STACK
        LOCFRAME IOVERLAY, 0, STATIC
        LOCFRAME DOVERLAY, 0, STATIC
        ARGFRAME ISTACK, 2, STACK
        ARGFRAME PSTACK, 0, STACK
        ARGFRAME XSTACK, 0, STACK
        ARGFRAME IOVERLAY, 0, STATIC
        ARGFRAME DOVERLAY, 0, STATIC
        FUNCALL nwk_globals_init, osal_mem_alloc
        LOCFRAME ISTACK, 2, STACK
        LOCFRAME PSTACK, 0, STACK
        LOCFRAME XSTACK, 0, STACK
        LOCFRAME IOVERLAY, 0, STATIC
        LOCFRAME DOVERLAY, 0, STATIC
        ARGFRAME ISTACK, 2, STACK
        ARGFRAME PSTACK, 0, STACK
        ARGFRAME XSTACK, 0, STACK
        ARGFRAME IOVERLAY, 0, STATIC
        ARGFRAME DOVERLAY, 0, STATIC
        FUNCALL nwk_globals_init, RTG_FillCSkipTable
        LOCFRAME ISTACK, 2, STACK
        LOCFRAME PSTACK, 0, STACK
        LOCFRAME XSTACK, 2, STACK
        LOCFRAME IOVERLAY, 0, STATIC
        LOCFRAME DOVERLAY, 0, STATIC
        ARGFRAME ISTACK, 2, STACK
        ARGFRAME PSTACK, 0, STACK
        ARGFRAME XSTACK, 2, STACK
        ARGFRAME IOVERLAY, 0, STATIC
        ARGFRAME DOVERLAY, 0, STATIC
        PUSH    DPL
        CFI DPL0 Frame(CFA_SP, 4)
        CFI CFA_SP SP+-4
        PUSH    DPH
        CFI DPH0 Frame(CFA_SP, 5)
        CFI CFA_SP SP+-5
        ; Saved register size: 2
        ; Auto size: 0
//  260   AddrMgrInit( NWK_MAX_ADDRESSES );
        ; Setup parameters for call to function AddrMgrInit
        MOV     R2,#0x20
        MOV     R3,#0x0
        LCALL   ??AddrMgrInit?relay
//  261 
//  262 #if defined ( RTR_NWK )
//  263   // Initialize the Cskip Table
//  264   Cskip = osal_mem_alloc(sizeof(uint16) *(MAX_NODE_DEPTH+1));
        ; Setup parameters for call to function osal_mem_alloc
        MOV     R2,#0xc
        MOV     R3,#0x0
        LCALL   ??osal_mem_alloc?relay
        MOV     DPTR,#Cskip
        MOV     A,R2
        MOVX    @DPTR,A
        INC     DPTR
        MOV     A,R3
        MOVX    @DPTR,A
//  265   RTG_FillCSkipTable(CskipChldrn, CskipRtrs, MAX_NODE_DEPTH, Cskip);
        ; Setup parameters for call to function RTG_FillCSkipTable
        MOV     DPTR,#Cskip
        LCALL   ?PUSH_XSTACK8_X_TWO
        CFI CFA_XSP16 add(XSP16, 2)
        MOV     R1,#0x5
        MOV     R4,#(CskipRtrs & 0xff)
        MOV     R5,#((CskipRtrs >> 8) & 0xff)
        MOV     R2,#(CskipChldrn & 0xff)
        MOV     R3,#((CskipChldrn >> 8) & 0xff)
        LCALL   ??RTG_FillCSkipTable?relay
        MOV     A,#0x2
        LCALL   ?DEALLOC_XSTACK8
        CFI EndBlock cfiBlock0
//  266 #endif
//  267 }
        REQUIRE ?Subroutine1
        ; // Fall through to label ?Subroutine1

        RSEG BANKED_CODE:CODE:NOROOT(0)
?Subroutine1:
        CFI Block cfiBlock1 Using cfiCommon0
        CFI NoFunction
        CFI CFA_SP SP+-5
        CFI DPL0 Frame(CFA_SP, 4)
        CFI DPH0 Frame(CFA_SP, 5)
        POP     DPH
        CFI CFA_SP SP+-4
        CFI DPH0 SameValue
        POP     DPL
        CFI CFA_SP SP+-3
        CFI DPL0 SameValue
        LJMP    ?BRET
        CFI EndBlock cfiBlock1
//  268 
//  269 /*********************************************************************
//  270  * @fn       NIB_init()
//  271  *
//  272  * @brief
//  273  *
//  274  *   Initialize attribute values in NIB
//  275  *
//  276  * @param   none
//  277  *
//  278  * @return  none
//  279  */

        RSEG BANKED_CODE:CODE:NOROOT(0)
//  280 void NIB_init()
NIB_init:
        CFI Block cfiBlock2 Using cfiCommon0
        CFI Function NIB_init
//  281 {
        FUNCALL NIB_init, osal_memset
        LOCFRAME ISTACK, 2, STACK
        LOCFRAME PSTACK, 0, STACK
        LOCFRAME XSTACK, 0, STACK
        LOCFRAME IOVERLAY, 0, STATIC
        LOCFRAME DOVERLAY, 0, STATIC
        ARGFRAME ISTACK, 2, STACK
        ARGFRAME PSTACK, 0, STACK
        ARGFRAME XSTACK, 0, STACK
        ARGFRAME IOVERLAY, 0, STATIC
        ARGFRAME DOVERLAY, 0, STATIC
        FUNCALL NIB_init, osal_cpyExtAddr
        LOCFRAME ISTACK, 2, STACK
        LOCFRAME PSTACK, 0, STACK
        LOCFRAME XSTACK, 0, STACK
        LOCFRAME IOVERLAY, 0, STATIC
        LOCFRAME DOVERLAY, 0, STATIC
        ARGFRAME ISTACK, 2, STACK
        ARGFRAME PSTACK, 0, STACK
        ARGFRAME XSTACK, 0, STACK
        ARGFRAME IOVERLAY, 0, STATIC
        ARGFRAME DOVERLAY, 0, STATIC
        PUSH    DPL
        CFI DPL0 Frame(CFA_SP, 4)
        CFI CFA_SP SP+-4
        PUSH    DPH
        CFI DPH0 Frame(CFA_SP, 5)
        CFI CFA_SP SP+-5
        ; Saved register size: 2
        ; Auto size: 0
//  282 #if defined ( AUTO_SOFT_START )
//  283   byte extAddr[Z_EXTADDR_LEN];
//  284   ZMacGetReq( ZMacExtAddr, extAddr );
//  285   _NIB.SequenceNum = extAddr[0];
//  286 #else
//  287   _NIB.SequenceNum = 1;
        MOV     A,#0x1
        MOV     DPTR,#_NIB
        MOVX    @DPTR,A
//  288 #endif
//  289 
//  290   _NIB.nwkProtocolVersion = ZB_PROT_VERS;
        MOV     A,#0x2
        MOV     DPTR,#(_NIB + 17)
        MOVX    @DPTR,A
//  291   _NIB.MaxDepth = MAX_NODE_DEPTH;
        MOV     A,#0x5
        MOV     DPTR,#(_NIB + 4)
        MOVX    @DPTR,A
//  292 
//  293 #if ( NWK_MODE == NWK_MODE_MESH )
//  294   _NIB.beaconOrder = BEACON_ORDER_NO_BEACONS;
        MOV     A,#0xf
        MOV     DPTR,#(_NIB + 40)
        MOVX    @DPTR,A
//  295   _NIB.superFrameOrder = BEACON_ORDER_NO_BEACONS;
        MOV     DPTR,#(_NIB + 41)
        MOVX    @DPTR,A
//  296 #endif
//  297 
//  298    // BROADCAST SETTINGS:
//  299    // *******************
//  300    //   Broadcast Delivery Time
//  301    //     - set to multiples of 100ms 
//  302    //     - should be 500ms more than the retry time
//  303    //       -  "retry time" = PassiveAckTimeout * (MaxBroadcastRetries + 1)
//  304    //   Passive Ack Timeout
//  305    //     - set to multiples of 100ms 
//  306    _NIB.BroadcastDeliveryTime = zgBcastDeliveryTime;
        MOV     DPTR,#zgBcastDeliveryTime
        MOVX    A,@DPTR
        MOV     DPTR,#(_NIB + 7)
        MOVX    @DPTR,A
//  307    _NIB.PassiveAckTimeout     = zgPassiveAckTimeout;
        MOV     DPTR,#zgPassiveAckTimeout
        MOVX    A,@DPTR
        MOV     DPTR,#(_NIB + 1)
        MOVX    @DPTR,A
//  308    _NIB.MaxBroadcastRetries   = zgMaxBcastRetires;
        MOV     DPTR,#zgMaxBcastRetires
        MOVX    A,@DPTR
        MOV     DPTR,#(_NIB + 2)
        MOVX    @DPTR,A
//  309 
//  310    _NIB.ReportConstantCost = 0;
        CLR     A
        MOV     DPTR,#(_NIB + 8)
        MOVX    @DPTR,A
//  311    _NIB.RouteDiscRetries = 0;
        MOV     DPTR,#(_NIB + 9)
        MOVX    @DPTR,A
//  312    _NIB.SecureAllFrames = USE_NWK_SECURITY;
        MOV     DPTR,#(_NIB + 11)
        MOVX    @DPTR,A
//  313    _NIB.SecurityLevel = zgSecurityLevel;
        MOV     DPTR,#zgSecurityLevel
        MOVX    A,@DPTR
        MOV     DPTR,#(_NIB + 12)
        MOVX    @DPTR,A
//  314    _NIB.SymLink = 0;
        CLR     A
        MOV     DPTR,#(_NIB + 13)
        MOVX    @DPTR,A
//  315    _NIB.CapabilityInfo = ZDO_Config_Node_Descriptor.CapabilityFlags;
        MOV     DPTR,#(ZDO_Config_Node_Descriptor + 2)
        MOVX    A,@DPTR
        MOV     DPTR,#(_NIB + 14)
        MOVX    @DPTR,A
//  316 
//  317    _NIB.TransactionPersistenceTime = zgIndirectMsgTimeout;
        MOV     DPTR,#zgIndirectMsgTimeout
        MOVX    A,@DPTR
        MOV     DPTR,#(_NIB + 15)
        MOVX    @DPTR,A
        INC     DPTR
        CLR     A
        MOVX    @DPTR,A
//  318 
//  319    _NIB.RouteDiscoveryTime = 5;
        MOV     A,#0x5
        MOV     DPTR,#(_NIB + 18)
        MOVX    @DPTR,A
//  320    _NIB.RouteExpiryTime = zgRouteExpiryTime;
        MOV     DPTR,#zgRouteExpiryTime
        MOVX    A,@DPTR
        MOV     DPTR,#(_NIB + 19)
        MOVX    @DPTR,A
//  321 
//  322    _NIB.nwkDevAddress = INVALID_NODE_ADDR;
        MOV     DPTR,#(_NIB + 20)
        MOV     A,#-0x2
        MOVX    @DPTR,A
        INC     DPTR
        MOV     A,#-0x1
        MOVX    @DPTR,A
//  323    _NIB.nwkLogicalChannel = 0;
        CLR     A
        MOV     DPTR,#(_NIB + 22)
        MOVX    @DPTR,A
//  324    _NIB.nwkCoordAddress = INVALID_NODE_ADDR;
        MOV     DPTR,#(_NIB + 23)
        MOV     A,#-0x2
        MOVX    @DPTR,A
        INC     DPTR
        MOV     A,#-0x1
        MOVX    @DPTR,A
//  325    osal_memset( _NIB.nwkCoordExtAddress, 0, Z_EXTADDR_LEN );
        ; Setup parameters for call to function osal_memset
        MOV     R4,#0x8
        MOV     R5,#0x0
        MOV     R1,#0x0
        MOV     R2,#((_NIB + 25) & 0xff)
        MOV     R3,#(((_NIB + 25) >> 8) & 0xff)
        LCALL   ??osal_memset?relay
//  326    _NIB.nwkPanId = INVALID_NODE_ADDR;
        MOV     DPTR,#(_NIB + 33)
        MOV     A,#-0x2
        MOVX    @DPTR,A
        INC     DPTR
        MOV     A,#-0x1
        MOVX    @DPTR,A
//  327 
//  328    osal_cpyExtAddr( _NIB.extendedPANID, zgExtendedPANID );
        ; Setup parameters for call to function osal_cpyExtAddr
        MOV     R4,#(zgExtendedPANID & 0xff)
        MOV     R5,#((zgExtendedPANID >> 8) & 0xff)
        MOV     R2,#((_NIB + 53) & 0xff)
        MOV     R3,#(((_NIB + 53) >> 8) & 0xff)
        LCALL   ??osal_cpyExtAddr?relay
//  329    
//  330    _NIB.nwkKeyLoaded = FALSE;
        CLR     A
        MOV     DPTR,#(_NIB + 61)
        MOVX    @DPTR,A
//  331 }
        LJMP    ?Subroutine1 & 0xFFFF
        CFI EndBlock cfiBlock2
//  332 
//  333 /*********************************************************************
//  334  * @fn       nwk_Status()
//  335  *
//  336  * @brief
//  337  *
//  338  *   Status report.
//  339  *
//  340  * @param   statusCode
//  341  * @param   statusValue
//  342  *
//  343  * @return  none
//  344  */

        RSEG BANKED_CODE:CODE:NOROOT(0)
//  345 void nwk_Status( uint16 statusCode, uint16 statusValue )
nwk_Status:
        CFI Block cfiBlock3 Using cfiCommon0
        CFI Function nwk_Status
//  346 {
        FUNCALL nwk_Status, HalLcdWriteString
        LOCFRAME ISTACK, 0, STACK
        LOCFRAME PSTACK, 0, STACK
        LOCFRAME XSTACK, 12, STACK
        LOCFRAME IOVERLAY, 0, STATIC
        LOCFRAME DOVERLAY, 0, STATIC
        ARGFRAME ISTACK, 0, STACK
        ARGFRAME PSTACK, 0, STACK
        ARGFRAME XSTACK, 12, STACK
        ARGFRAME IOVERLAY, 0, STATIC
        ARGFRAME DOVERLAY, 0, STATIC
        FUNCALL nwk_Status, HalLcdWriteStringValue
        LOCFRAME ISTACK, 0, STACK
        LOCFRAME PSTACK, 0, STACK
        LOCFRAME XSTACK, 13, STACK
        LOCFRAME IOVERLAY, 0, STATIC
        LOCFRAME DOVERLAY, 0, STATIC
        ARGFRAME ISTACK, 0, STACK
        ARGFRAME PSTACK, 0, STACK
        ARGFRAME XSTACK, 13, STACK
        ARGFRAME IOVERLAY, 0, STATIC
        ARGFRAME DOVERLAY, 0, STATIC
        FUNCALL nwk_Status, BuzzerControl
        LOCFRAME ISTACK, 0, STACK
        LOCFRAME PSTACK, 0, STACK
        LOCFRAME XSTACK, 12, STACK
        LOCFRAME IOVERLAY, 0, STATIC
        LOCFRAME DOVERLAY, 0, STATIC
        ARGFRAME ISTACK, 0, STACK
        ARGFRAME PSTACK, 0, STACK
        ARGFRAME XSTACK, 12, STACK
        ARGFRAME IOVERLAY, 0, STATIC
        ARGFRAME DOVERLAY, 0, STATIC
        FUNCALL nwk_Status, HalLcdWriteStringValue
        LOCFRAME ISTACK, 0, STACK
        LOCFRAME PSTACK, 0, STACK
        LOCFRAME XSTACK, 13, STACK
        LOCFRAME IOVERLAY, 0, STATIC
        LOCFRAME DOVERLAY, 0, STATIC
        ARGFRAME ISTACK, 0, STACK
        ARGFRAME PSTACK, 0, STACK
        ARGFRAME XSTACK, 13, STACK
        ARGFRAME IOVERLAY, 0, STATIC
        ARGFRAME DOVERLAY, 0, STATIC
        FUNCALL nwk_Status, HalLcdWriteScreen
        LOCFRAME ISTACK, 0, STACK
        LOCFRAME PSTACK, 0, STACK
        LOCFRAME XSTACK, 12, STACK
        LOCFRAME IOVERLAY, 0, STATIC
        LOCFRAME DOVERLAY, 0, STATIC
        ARGFRAME ISTACK, 0, STACK
        ARGFRAME PSTACK, 0, STACK
        ARGFRAME XSTACK, 12, STACK
        ARGFRAME IOVERLAY, 0, STATIC
        ARGFRAME DOVERLAY, 0, STATIC
        FUNCALL nwk_Status, HalLcdWriteScreen
        LOCFRAME ISTACK, 0, STACK
        LOCFRAME PSTACK, 0, STACK
        LOCFRAME XSTACK, 12, STACK
        LOCFRAME IOVERLAY, 0, STATIC
        LOCFRAME DOVERLAY, 0, STATIC
        ARGFRAME ISTACK, 0, STACK
        ARGFRAME PSTACK, 0, STACK
        ARGFRAME XSTACK, 12, STACK
        ARGFRAME IOVERLAY, 0, STATIC
        ARGFRAME DOVERLAY, 0, STATIC
        FUNCALL nwk_Status, HalLcdWriteString
        LOCFRAME ISTACK, 0, STACK
        LOCFRAME PSTACK, 0, STACK
        LOCFRAME XSTACK, 12, STACK
        LOCFRAME IOVERLAY, 0, STATIC
        LOCFRAME DOVERLAY, 0, STATIC
        ARGFRAME ISTACK, 0, STACK
        ARGFRAME PSTACK, 0, STACK
        ARGFRAME XSTACK, 12, STACK
        ARGFRAME IOVERLAY, 0, STATIC
        ARGFRAME DOVERLAY, 0, STATIC
        FUNCALL nwk_Status, HalLcdWriteValue
        LOCFRAME ISTACK, 0, STACK
        LOCFRAME PSTACK, 0, STACK
        LOCFRAME XSTACK, 13, STACK
        LOCFRAME IOVERLAY, 0, STATIC
        LOCFRAME DOVERLAY, 0, STATIC
        ARGFRAME ISTACK, 0, STACK
        ARGFRAME PSTACK, 0, STACK
        ARGFRAME XSTACK, 13, STACK
        ARGFRAME IOVERLAY, 0, STATIC
        ARGFRAME DOVERLAY, 0, STATIC
        FUNCALL nwk_Status, HalLcdWriteStringValue
        LOCFRAME ISTACK, 0, STACK
        LOCFRAME PSTACK, 0, STACK
        LOCFRAME XSTACK, 13, STACK
        LOCFRAME IOVERLAY, 0, STATIC
        LOCFRAME DOVERLAY, 0, STATIC
        ARGFRAME ISTACK, 0, STACK
        ARGFRAME PSTACK, 0, STACK
        ARGFRAME XSTACK, 13, STACK
        ARGFRAME IOVERLAY, 0, STATIC
        ARGFRAME DOVERLAY, 0, STATIC
        FUNCALL nwk_Status, HalLcdWriteScreen
        LOCFRAME ISTACK, 0, STACK
        LOCFRAME PSTACK, 0, STACK
        LOCFRAME XSTACK, 12, STACK
        LOCFRAME IOVERLAY, 0, STATIC
        LOCFRAME DOVERLAY, 0, STATIC
        ARGFRAME ISTACK, 0, STACK
        ARGFRAME PSTACK, 0, STACK
        ARGFRAME XSTACK, 12, STACK
        ARGFRAME IOVERLAY, 0, STATIC
        ARGFRAME DOVERLAY, 0, STATIC
        FUNCALL nwk_Status, HalLcdWriteString
        LOCFRAME ISTACK, 0, STACK
        LOCFRAME PSTACK, 0, STACK
        LOCFRAME XSTACK, 12, STACK
        LOCFRAME IOVERLAY, 0, STATIC
        LOCFRAME DOVERLAY, 0, STATIC
        ARGFRAME ISTACK, 0, STACK
        ARGFRAME PSTACK, 0, STACK
        ARGFRAME XSTACK, 12, STACK
        ARGFRAME IOVERLAY, 0, STATIC
        ARGFRAME DOVERLAY, 0, STATIC
        FUNCALL nwk_Status, HalLcdWriteValue
        LOCFRAME ISTACK, 0, STACK
        LOCFRAME PSTACK, 0, STACK
        LOCFRAME XSTACK, 13, STACK
        LOCFRAME IOVERLAY, 0, STATIC
        LOCFRAME DOVERLAY, 0, STATIC
        ARGFRAME ISTACK, 0, STACK
        ARGFRAME PSTACK, 0, STACK
        ARGFRAME XSTACK, 13, STACK
        ARGFRAME IOVERLAY, 0, STATIC
        ARGFRAME DOVERLAY, 0, STATIC
        FUNCALL nwk_Status, HalLcdWriteScreen
        LOCFRAME ISTACK, 0, STACK
        LOCFRAME PSTACK, 0, STACK
        LOCFRAME XSTACK, 12, STACK
        LOCFRAME IOVERLAY, 0, STATIC
        LOCFRAME DOVERLAY, 0, STATIC
        ARGFRAME ISTACK, 0, STACK
        ARGFRAME PSTACK, 0, STACK
        ARGFRAME XSTACK, 12, STACK
        ARGFRAME IOVERLAY, 0, STATIC
        ARGFRAME DOVERLAY, 0, STATIC
        MOV     A,#-0xc
        LCALL   ?BANKED_ENTER_XDATA
        CFI DPH0 load(1, XDATA, add(CFA_XSP16, literal(-1)))
        CFI DPL0 load(1, XDATA, add(CFA_XSP16, literal(-2)))
        CFI ?BRET_EXT load(1, XDATA, add(CFA_XSP16, literal(-3)))
        CFI ?RET_HIGH load(1, XDATA, add(CFA_XSP16, literal(-4)))
        CFI ?RET_LOW load(1, XDATA, add(CFA_XSP16, literal(-5)))
        CFI R7 load(1, XDATA, add(CFA_XSP16, literal(-6)))
        CFI V3 load(1, XDATA, add(CFA_XSP16, literal(-7)))
        CFI V2 load(1, XDATA, add(CFA_XSP16, literal(-8)))
        CFI V1 load(1, XDATA, add(CFA_XSP16, literal(-9)))
        CFI V0 load(1, XDATA, add(CFA_XSP16, literal(-10)))
        CFI VB load(1, XDATA, add(CFA_XSP16, literal(-11)))
        CFI R6 load(1, XDATA, add(CFA_XSP16, literal(-12)))
        CFI CFA_SP SP+0
        CFI CFA_XSP16 add(XSP16, 12)
        ; Saved register size: 12
        ; Auto size: 0
        MOV     ?V0 + 0,R4
        MOV     ?V0 + 1,R5
//  347 #if defined ( LCD_SUPPORTED )
//  348   switch ( statusCode )
        MOV     ?V0 + 2,R2
        MOV     ?V0 + 3,R3
        MOV     R0,#?V0 + 2
        LCALL   ?US_SWITCH_SPARSE
`?<Jumptable for nwk_Status>_0`:
        DATA
        DW        0
        DW        8
        DW        2
        DW        ??nwk_Status_0
        DW        4
        DW        ??nwk_Status_1
        DW        5
        DW        ??nwk_Status_2
        DW        6
        DW        ??nwk_Status_3
        DW        7
        DW        ??nwk_Status_4
        DW        4097
        DW        ??nwk_Status_5
        DW        4099
        DW        ??nwk_Status_6
        DW        4100
        DW        ??nwk_Status_7
        DW        ??nwk_Status_8
        CODE
//  349   {
//  350 
//  351 #if defined( RTR_NWK )
//  352     case NWK_STATUS_COORD_ADDR:
//  353       HalLcdWriteString( (char*)ZigbeeCoordStr, HAL_LCD_LINE_1 );
??nwk_Status_2:
        ; Setup parameters for call to function HalLcdWriteString
        MOV     R1,#0x0
        MOV     R2,#(ZigbeeCoordStr & 0xff)
        MOV     R3,#((ZigbeeCoordStr >> 8) & 0xff)
        LCALL   ?Subroutine0 & 0xFFFF
//  354       HalLcdWriteStringValue( (char*)NetworkIDStr, (uint32)statusValue, 16, HAL_LCD_LINE_2 );
??CrossCallReturnLabel_0:
        LCALL   ?PUSH_XSTACK_I_ONE
        CFI CFA_XSP16 add(XSP16, 13)
        MOV     R1,#0x10
        MOV     R4,?V0 + 0
        MOV     R5,?V0 + 1
        MOV     R2,#(NetworkIDStr & 0xff)
        MOV     R3,#((NetworkIDStr >> 8) & 0xff)
        LCALL   ??HalLcdWriteStringValue?relay
        MOV     A,#0x1
        LCALL   ?DEALLOC_XSTACK8
        CFI CFA_XSP16 add(XSP16, 12)
//  355       BuzzerControl( BUZZER_BLIP );
        ; Setup parameters for call to function BuzzerControl
        MOV     R1,#0x2
        LCALL   ??BuzzerControl?relay
        SJMP    ??nwk_Status_8
//  356       break;
//  357 
//  358     case NWK_STATUS_ROUTER_ADDR:
//  359       HalLcdWriteStringValue( (char*)RouterStr, (uint32)statusValue, 16, HAL_LCD_LINE_1 );
??nwk_Status_3:
        ; Setup parameters for call to function HalLcdWriteStringValue
        MOV     ?V0 + 2,#0x0
        MOV     R0,#?V0 + 2
        LCALL   ?PUSH_XSTACK_I_ONE
        CFI CFA_XSP16 add(XSP16, 13)
        MOV     R1,#0x10
        MOV     R2,#(RouterStr & 0xff)
        MOV     R3,#((RouterStr >> 8) & 0xff)
??nwk_Status_9:
        LCALL   ??HalLcdWriteStringValue?relay
??nwk_Status_10:
        MOV     A,#0x1
        LCALL   ?DEALLOC_XSTACK8
        CFI CFA_XSP16 add(XSP16, 12)
        SJMP    ??nwk_Status_8
//  360       break;
//  361 
//  362     case NWK_STATUS_ORPHAN_RSP:
//  363       if ( statusValue == ZSuccess )
??nwk_Status_4:
        MOV     A,R4
        JNZ     ??nwk_Status_11
        MOV     A,R5
??nwk_Status_11:
        JNZ     ??nwk_Status_12
//  364         HalLcdWriteScreen( (char*)OrphanRspStr, (char*)SentStr );
        ; Setup parameters for call to function HalLcdWriteScreen
        MOV     R4,#(SentStr & 0xff)
        MOV     R5,#((SentStr >> 8) & 0xff)
??nwk_Status_13:
        MOV     R2,#(OrphanRspStr & 0xff)
        MOV     R3,#((OrphanRspStr >> 8) & 0xff)
        SJMP    ??nwk_Status_14
//  365       else
//  366         HalLcdWriteScreen( (char*)OrphanRspStr, (char*)FailedStr );
??nwk_Status_12:
        ; Setup parameters for call to function HalLcdWriteScreen
        MOV     R4,#(FailedStr & 0xff)
        MOV     R5,#((FailedStr >> 8) & 0xff)
        SJMP    ??nwk_Status_13
//  367       break;
//  368 
//  369     case NWK_ERROR_ASSOC_RSP:
//  370       HalLcdWriteString( (char*)AssocRspFailStr, HAL_LCD_LINE_1 );
??nwk_Status_5:
        ; Setup parameters for call to function HalLcdWriteString
        MOV     R1,#0x0
        MOV     R2,#(AssocRspFailStr & 0xff)
        MOV     R3,#((AssocRspFailStr >> 8) & 0xff)
??nwk_Status_15:
        LCALL   ?Subroutine0 & 0xFFFF
//  371       HalLcdWriteValue( (uint32)(statusValue), 16, HAL_LCD_LINE_2 );
??CrossCallReturnLabel_1:
        LCALL   ?PUSH_XSTACK_I_ONE
        CFI CFA_XSP16 add(XSP16, 13)
        MOV     R1,#0x10
        MOV     R2,?V0 + 0
        MOV     R3,?V0 + 1
        MOV     R4,#0x0
        MOV     R5,#0x0
        LCALL   ??HalLcdWriteValue?relay
        SJMP    ??nwk_Status_10
        CFI CFA_XSP16 add(XSP16, 12)
//  372       break;
//  373 #else
//  374     case NWK_STATUS_ED_ADDR:
//  375             HalLcdWriteStringValue( (char*)EndDeviceStr, (uint32)statusValue, 16, HAL_LCD_LINE_1 );
//  376       break;
//  377 #endif
//  378 
//  379     case NWK_STATUS_PARENT_ADDR:
//  380             HalLcdWriteStringValue( (char*)ParentStr, (uint32)statusValue, 16, HAL_LCD_LINE_2 );
??nwk_Status_1:
        ; Setup parameters for call to function HalLcdWriteStringValue
        MOV     ?V0 + 2,#0x2
        MOV     R0,#?V0 + 2
        LCALL   ?PUSH_XSTACK_I_ONE
        CFI CFA_XSP16 add(XSP16, 13)
        MOV     R1,#0x10
        MOV     R2,#(ParentStr & 0xff)
        MOV     R3,#((ParentStr >> 8) & 0xff)
        SJMP    ??nwk_Status_9
        CFI CFA_XSP16 add(XSP16, 12)
//  381       break;
//  382 
//  383     case NWK_STATUS_ASSOC_CNF:
//  384       HalLcdWriteScreen( (char*)AssocCnfStr, (char*)SuccessStr );
??nwk_Status_0:
        ; Setup parameters for call to function HalLcdWriteScreen
        MOV     R4,#(SuccessStr & 0xff)
        MOV     R5,#((SuccessStr >> 8) & 0xff)
        MOV     R2,#(AssocCnfStr & 0xff)
        MOV     R3,#((AssocCnfStr >> 8) & 0xff)
        SJMP    ??nwk_Status_14
//  385       break;
//  386 
//  387     case NWK_ERROR_ASSOC_CNF_DENIED:
//  388       HalLcdWriteString((char*)AssocCnfFailStr, HAL_LCD_LINE_1 );
??nwk_Status_6:
        ; Setup parameters for call to function HalLcdWriteString
        MOV     R1,#0x0
        MOV     R2,#(AssocCnfFailStr & 0xff)
        MOV     R3,#((AssocCnfFailStr >> 8) & 0xff)
        SJMP    ??nwk_Status_15
//  389       HalLcdWriteValue( (uint32)(statusValue), 16, HAL_LCD_LINE_2 );
//  390       break;
//  391 
//  392     case NWK_ERROR_ENERGY_SCAN_FAILED:
//  393       HalLcdWriteScreen( (char*)EnergyLevelStr, (char*)ScanFailedStr );
??nwk_Status_7:
        ; Setup parameters for call to function HalLcdWriteScreen
        MOV     R4,#(ScanFailedStr & 0xff)
        MOV     R5,#((ScanFailedStr >> 8) & 0xff)
        MOV     R2,#(EnergyLevelStr & 0xff)
        MOV     R3,#((EnergyLevelStr >> 8) & 0xff)
??nwk_Status_14:
        LCALL   ??HalLcdWriteScreen?relay
//  394       break;
//  395   }
//  396 #endif
//  397 }
??nwk_Status_8:
        MOV     R7,#0x4
        LJMP    ?BANKED_LEAVE_XDATA
        CFI EndBlock cfiBlock3

        RSEG BANKED_CODE:CODE:NOROOT(0)
?Subroutine0:
        CFI Block cfiCond4 Using cfiCommon0
        CFI NoFunction
        CFI Conditional ??CrossCallReturnLabel_0
        CFI R6 load(1, XDATA, add(CFA_XSP16, literal(-12)))
        CFI VB load(1, XDATA, add(CFA_XSP16, literal(-11)))
        CFI V0 load(1, XDATA, add(CFA_XSP16, literal(-10)))
        CFI V1 load(1, XDATA, add(CFA_XSP16, literal(-9)))
        CFI V2 load(1, XDATA, add(CFA_XSP16, literal(-8)))
        CFI V3 load(1, XDATA, add(CFA_XSP16, literal(-7)))
        CFI R7 load(1, XDATA, add(CFA_XSP16, literal(-6)))
        CFI ?RET_LOW load(1, XDATA, add(CFA_XSP16, literal(-5)))
        CFI ?RET_HIGH load(1, XDATA, add(CFA_XSP16, literal(-4)))
        CFI ?BRET_EXT load(1, XDATA, add(CFA_XSP16, literal(-3)))
        CFI DPL0 load(1, XDATA, add(CFA_XSP16, literal(-2)))
        CFI DPH0 load(1, XDATA, add(CFA_XSP16, literal(-1)))
        CFI CFA_SP SP+0
        CFI CFA_XSP16 add(XSP16, 12)
        CFI Block cfiCond5 Using cfiCommon0
        CFI (cfiCond5) NoFunction
        CFI (cfiCond5) Conditional ??CrossCallReturnLabel_1
        CFI (cfiCond5) R6 load(1, XDATA, add(CFA_XSP16, literal(-12)))
        CFI (cfiCond5) VB load(1, XDATA, add(CFA_XSP16, literal(-11)))
        CFI (cfiCond5) V0 load(1, XDATA, add(CFA_XSP16, literal(-10)))
        CFI (cfiCond5) V1 load(1, XDATA, add(CFA_XSP16, literal(-9)))
        CFI (cfiCond5) V2 load(1, XDATA, add(CFA_XSP16, literal(-8)))
        CFI (cfiCond5) V3 load(1, XDATA, add(CFA_XSP16, literal(-7)))
        CFI (cfiCond5) R7 load(1, XDATA, add(CFA_XSP16, literal(-6)))
        CFI (cfiCond5) ?RET_LOW load(1, XDATA, add(CFA_XSP16, literal(-5)))
        CFI (cfiCond5) ?RET_HIGH load(1, XDATA, add(CFA_XSP16, literal(-4)))
        CFI (cfiCond5) ?BRET_EXT load(1, XDATA, add(CFA_XSP16, literal(-3)))
        CFI (cfiCond5) DPL0 load(1, XDATA, add(CFA_XSP16, literal(-2)))
        CFI (cfiCond5) DPH0 load(1, XDATA, add(CFA_XSP16, literal(-1)))
        CFI (cfiCond5) CFA_SP SP+0
        CFI (cfiCond5) CFA_XSP16 add(XSP16, 12)
        CFI Block cfiPicker6 Using cfiCommon1
        CFI (cfiPicker6) NoFunction
        CFI (cfiPicker6) Picker
        LCALL   ??HalLcdWriteString?relay
        ; Setup parameters for call to function HalLcdWriteStringValue
        ; Setup parameters for call to function HalLcdWriteValue
        MOV     ?V0 + 2,#0x2
        MOV     R0,#?V0 + 2
        RET
        CFI EndBlock cfiCond4
        CFI EndBlock cfiCond5
        CFI EndBlock cfiPicker6

        RSEG XDATA_ID:CODE:NOROOT(0)
        DATA
`?<Initializer for CskipRtrs>`:
        DB 6, 6, 6, 6, 6, 0

        RSEG XDATA_ID:CODE:NOROOT(0)
        DATA
`?<Initializer for CskipChldrn>`:
        DB 20, 20, 20, 20, 20, 0

        RSEG XDATA_ID:CODE:NOROOT(0)
        DATA
`?<Initializer for gMIN_TREE_LINK_COST>`:
        DB 6

        RSEG XDATA_ID:CODE:NOROOT(0)
        DATA
`?<Initializer for PingStr>`:
        DB "Ping Rcvd from"

        RSEG XDATA_ID:CODE:NOROOT(0)
        DATA
`?<Initializer for AssocCnfStr>`:
        DB "Assoc Cnf"

        RSEG XDATA_ID:CODE:NOROOT(0)
        DATA
`?<Initializer for SuccessStr>`:
        DB "Success"

        RSEG XDATA_ID:CODE:NOROOT(0)
        DATA
`?<Initializer for EndDeviceStr>`:
        DB "EndDevice:"

        RSEG XDATA_ID:CODE:NOROOT(0)
        DATA
`?<Initializer for ParentStr>`:
        DB "Parent:"

        RSEG XDATA_ID:CODE:NOROOT(0)
        DATA
`?<Initializer for ZigbeeCoordStr>`:
        DB "ZigBee Coord"

        RSEG XDATA_ID:CODE:NOROOT(0)
        DATA
`?<Initializer for NetworkIDStr>`:
        DB "Network ID:"

        RSEG XDATA_ID:CODE:NOROOT(0)
        DATA
`?<Initializer for RouterStr>`:
        DB "Router:"

        RSEG XDATA_ID:CODE:NOROOT(0)
        DATA
`?<Initializer for OrphanRspStr>`:
        DB "Orphan Response"

        RSEG XDATA_ID:CODE:NOROOT(0)
        DATA
`?<Initializer for SentStr>`:
        DB "Sent"

        RSEG XDATA_ID:CODE:NOROOT(0)
        DATA
`?<Initializer for FailedStr>`:
        DB "Failed"

        RSEG XDATA_ID:CODE:NOROOT(0)
        DATA
`?<Initializer for AssocRspFailStr>`:
        DB "Assoc Rsp fail"

        RSEG XDATA_ID:CODE:NOROOT(0)
        DATA
`?<Initializer for AssocIndStr>`:
        DB "Assoc Ind"

        RSEG XDATA_ID:CODE:NOROOT(0)
        DATA
`?<Initializer for AssocCnfFailStr>`:
        DB "Assoc Cnf fail"

        RSEG XDATA_ID:CODE:NOROOT(0)
        DATA
`?<Initializer for EnergyLevelStr>`:
        DB "Energy Level"

        RSEG XDATA_ID:CODE:NOROOT(0)
        DATA
`?<Initializer for ScanFailedStr>`:
        DB "Scan Failed"

        RSEG BANK_RELAYS:CODE:REORDER:NOROOT(0)
??nwk_globals_init?relay:
        LCALL   ?BDISPATCH
        DATA
        DC24    nwk_globals_init

        RSEG BANK_RELAYS:CODE:REORDER:NOROOT(0)
??NIB_init?relay:
        LCALL   ?BDISPATCH
        DATA
        DC24    NIB_init

        RSEG BANK_RELAYS:CODE:REORDER:NOROOT(0)
??nwk_Status?relay:
        LCALL   ?BDISPATCH
        DATA
        DC24    nwk_Status

        END
//  398 
//  399 /*********************************************************************
//  400 *********************************************************************/
// 
// 464 bytes in segment BANKED_CODE
//  18 bytes in segment BANK_RELAYS
//  39 bytes in segment CODE_C
// 191 bytes in segment XDATA_I
// 191 bytes in segment XDATA_ID
// 861 bytes in segment XDATA_Z
// 
//   712 bytes of CODE  memory
// 1 052 bytes of XDATA memory
//
//Errors: none
//Warnings: none
