///////////////////////////////////////////////////////////////////////////////
//                                                                            /
// IAR 8051 C/C++ Compiler V7.30B/W32                   12/Mar/2013  15:45:37 /
// Copyright 2004-2007 IAR Systems. All rights reserved.                      /
//                                                                            /
//    Core               =  plain                                             /
//    Code model         =  banked                                            /
//    Data model         =  large                                             /
//    Calling convention =  xdata reentrant                                   /
//    Constant location  =  data                                              /
//    Dptr setup         =  1,16                                              /
//    Source file        =  C:\Texas Instruments\ZStack-1.4.3-1.2.1\Component /
//                          s\zmac\f8w\zmac.c                                 /
//    Command line       =  -f "C:\Texas Instruments\ZStack-1.4.3-1.2.1\Proje /
//                          cts\zstack\Samples\cc2430-zstack-adxl345\CC2430DB /
//                          \..\..\..\Tools\CC2430DB\f8wCoord.cfg"            /
//                          (-DCPU32MHZ -DFORCE_MAC_NEAR -DROOT=__near_func   /
//                          -DMAC_CFG_APP_PENDING_QUEUE=TRUE                  /
//                          -DZDO_COORDINATOR -DRTR_NWK -DBLINK_LEDS          /
//                          "-DCONST=const __code" -DGENERIC=__generic) -f    /
//                          "C:\Texas Instruments\ZStack-1.4.3-1.2.1\Projects /
//                          \zstack\Samples\cc2430-zstack-adxl345\CC2430DB\.. /
//                          \..\..\Tools\CC2430DB\f8wConfig.cfg" (-DSECURE=0  /
//                          -DDEFAULT_CHANLIST=0x00000800                     /
//                          -DZDAPP_CONFIG_PAN_ID=0xFFFF                      /
//                          -DNWK_START_DELAY=100 -DEXTENDED_JOINING_RANDOM_M /
//                          ASK=0x007F -DBEACON_REQUEST_DELAY=100             /
//                          -DBEACON_REQ_DELAY_MASK=0x00FF                    /
//                          -DROUTE_EXPIRY_TIME=30 -DAPSC_ACK_WAIT_DURATION_P /
//                          OLLED=3000 -DNWK_INDIRECT_MSG_TIMEOUT=7           /
//                          -DMAX_RREQ_ENTRIES=10 -DAPSC_MAX_FRAME_RETRIES=3  /
//                          -DNWK_MAX_DATA_RETRIES=2                          /
//                          -DMAX_POLL_FAILURE_RETRIES=2 -DMAX_BCAST=9        /
//                          -DAPS_MAX_GROUPS=16 -DMAX_RTG_ENTRIES=20          /
//                          -DNWK_MAX_BINDING_ENTRIES=10                      /
//                          -DMAX_BINDING_CLUSTER_IDS=5                       /
//                          "-DDEFAULT_KEY={0x01, 0x03, 0x05, 0x07, 0x09,     /
//                          0x0B, 0x0D, 0x0F, 0x00, 0x02, 0x04, 0x06, 0x08,   /
//                          0x0A, 0x0C, 0x0D}" -DRFD_RCVC_ALWAYS_ON=FALSE     /
//                          -DPOLL_RATE=1000 -DQUEUED_POLL_RATE=100           /
//                          -DRESPONSE_POLL_RATE=100) -DREJOIN_POLL_RATE=440  /
//                          "C:\Texas Instruments\ZStack-1.4.3-1.2.1\Componen /
//                          ts\zmac\f8w\zmac.c" -D CC2430EB -D REFLECTOR -D   /
//                          HAL_UART -D xZTOOL_P1 -D AXD_COR -D MT_TASK -D    /
//                          xMT_ZDO_FUNC -D LCD_SUPPORTED=DEBUG -lC           /
//                          "C:\Texas Instruments\ZStack-1.4.3-1.2.1\Projects /
//                          \zstack\Samples\cc2430-zstack-adxl345\CC2430DB\Co /
//                          ordinatorEB\List\" -lA "C:\Texas                  /
//                          Instruments\ZStack-1.4.3-1.2.1\Projects\zstack\Sa /
//                          mples\cc2430-zstack-adxl345\CC2430DB\CoordinatorE /
//                          B\List\" --diag_suppress Pe001,Pa010              /
//                          --diag_remark pe550 -o "C:\Texas                  /
//                          Instruments\ZStack-1.4.3-1.2.1\Projects\zstack\Sa /
//                          mples\cc2430-zstack-adxl345\CC2430DB\CoordinatorE /
//                          B\Obj\" -e --require_prototypes -z9               /
//                          --no_code_motion --debug --core=plain             /
//                          --dptr=16,1 --data_model=large                    /
//                          --code_model=banked --calling_convention=xdata_re /
//                          entrant --place_constants=data --nr_virtual_regs  /
//                          8 -I "C:\Texas Instruments\ZStack-1.4.3-1.2.1\Pro /
//                          jects\zstack\Samples\cc2430-zstack-adxl345\CC2430 /
//                          DB\" -I "C:\Texas Instruments\ZStack-1.4.3-1.2.1\ /
//                          Projects\zstack\Samples\cc2430-zstack-adxl345\CC2 /
//                          430DB\..\SOURCE\" -I "C:\Texas                    /
//                          Instruments\ZStack-1.4.3-1.2.1\Projects\zstack\Sa /
//                          mples\cc2430-zstack-adxl345\CC2430DB\..\Drivers\" /
//                           -I "C:\Texas Instruments\ZStack-1.4.3-1.2.1\Proj /
//                          ects\zstack\Samples\cc2430-zstack-adxl345\CC2430D /
//                          B\..\..\..\ZMAIN\TI2430DB\" -I "C:\Texas          /
//                          Instruments\ZStack-1.4.3-1.2.1\Projects\zstack\Sa /
//                          mples\cc2430-zstack-adxl345\CC2430DB\..\..\..\..\ /
//                          ..\COMPONENTS\MT\" -I "C:\Texas                   /
//                          Instruments\ZStack-1.4.3-1.2.1\Projects\zstack\Sa /
//                          mples\cc2430-zstack-adxl345\CC2430DB\..\..\..\..\ /
//                          ..\COMPONENTS\HAL\INCLUDE\" -I "C:\Texas          /
//                          Instruments\ZStack-1.4.3-1.2.1\Projects\zstack\Sa /
//                          mples\cc2430-zstack-adxl345\CC2430DB\..\..\..\..\ /
//                          ..\COMPONENTS\HAL\TARGET\CC2430EB\" -I "C:\Texas  /
//                          Instruments\ZStack-1.4.3-1.2.1\Projects\zstack\Sa /
//                          mples\cc2430-zstack-adxl345\CC2430DB\..\..\..\..\ /
//                          ..\COMPONENTS\OSAL\MCU\CCSOC\" -I "C:\Texas       /
//                          Instruments\ZStack-1.4.3-1.2.1\Projects\zstack\Sa /
//                          mples\cc2430-zstack-adxl345\CC2430DB\..\..\..\..\ /
//                          ..\COMPONENTS\OSAL\INCLUDE\" -I "C:\Texas         /
//                          Instruments\ZStack-1.4.3-1.2.1\Projects\zstack\Sa /
//                          mples\cc2430-zstack-adxl345\CC2430DB\..\..\..\..\ /
//                          ..\COMPONENTS\STACK\AF\" -I "C:\Texas             /
//                          Instruments\ZStack-1.4.3-1.2.1\Projects\zstack\Sa /
//                          mples\cc2430-zstack-adxl345\CC2430DB\..\..\..\..\ /
//                          ..\COMPONENTS\STACK\NWK\" -I "C:\Texas            /
//                          Instruments\ZStack-1.4.3-1.2.1\Projects\zstack\Sa /
//                          mples\cc2430-zstack-adxl345\CC2430DB\..\..\..\..\ /
//                          ..\COMPONENTS\STACK\SEC\" -I "C:\Texas            /
//                          Instruments\ZStack-1.4.3-1.2.1\Projects\zstack\Sa /
//                          mples\cc2430-zstack-adxl345\CC2430DB\..\..\..\..\ /
//                          ..\COMPONENTS\STACK\SYS\" -I "C:\Texas            /
//                          Instruments\ZStack-1.4.3-1.2.1\Projects\zstack\Sa /
//                          mples\cc2430-zstack-adxl345\CC2430DB\..\..\..\..\ /
//                          ..\COMPONENTS\STACK\ZDO\" -I "C:\Texas            /
//                          Instruments\ZStack-1.4.3-1.2.1\Projects\zstack\Sa /
//                          mples\cc2430-zstack-adxl345\CC2430DB\..\..\..\..\ /
//                          ..\COMPONENTS\ZMAC\F8W\" -I "C:\Texas             /
//                          Instruments\ZStack-1.4.3-1.2.1\Projects\zstack\Sa /
//                          mples\cc2430-zstack-adxl345\CC2430DB\..\..\..\..\ /
//                          ..\COMPONENTS\ZMAC\" -I "C:\Texas                 /
//                          Instruments\ZStack-1.4.3-1.2.1\Projects\zstack\Sa /
//                          mples\cc2430-zstack-adxl345\CC2430DB\..\..\..\..\ /
//                          ..\COMPONENTS\SERVICES\SADDR\" -I "C:\Texas       /
//                          Instruments\ZStack-1.4.3-1.2.1\Projects\zstack\Sa /
//                          mples\cc2430-zstack-adxl345\CC2430DB\..\..\..\..\ /
//                          ..\COMPONENTS\SERVICES\SDATA\" -I "C:\Texas       /
//                          Instruments\ZStack-1.4.3-1.2.1\Projects\zstack\Sa /
//                          mples\cc2430-zstack-adxl345\CC2430DB\..\..\..\..\ /
//                          ..\COMPONENTS\MAC\INCLUDE\" -I "C:\Texas          /
//                          Instruments\ZStack-1.4.3-1.2.1\Projects\zstack\Sa /
//                          mples\cc2430-zstack-adxl345\CC2430DB\..\..\..\..\ /
//                          ..\COMPONENTS\MAC\HIGH_LEVEL\" -I "C:\Texas       /
//                          Instruments\ZStack-1.4.3-1.2.1\Projects\zstack\Sa /
//                          mples\cc2430-zstack-adxl345\CC2430DB\..\..\..\..\ /
//                          ..\COMPONENTS\MAC\LOW_LEVEL\SRF03\" -I "C:\Texas  /
//                          Instruments\ZStack-1.4.3-1.2.1\Projects\zstack\Sa /
//                          mples\cc2430-zstack-adxl345\CC2430DB\..\..\..\..\ /
//                          ..\COMPONENTS\MAC\LOW_LEVEL\SRF03\SINGLE_CHIP\"   /
//                          -I "C:\Program Files\IAR Systems\Embedded         /
//                          Workbench 4.0 Evaluation version\8051\INC\" -I    /
//                          "C:\Program Files\IAR Systems\Embedded Workbench  /
//                          4.0 Evaluation version\8051\INC\CLIB\"            /
//    List file          =  C:\Texas Instruments\ZStack-1.4.3-1.2.1\Projects\ /
//                          zstack\Samples\cc2430-zstack-adxl345\CC2430DB\Coo /
//                          rdinatorEB\List\zmac.s51                          /
//                                                                            /
//                                                                            /
///////////////////////////////////////////////////////////////////////////////

        NAME zmac

        RTMODEL "__calling_convention", "xdata_reentrant"
        RTMODEL "__code_model", "banked"
        RTMODEL "__core", "plain"
        RTMODEL "__data_model", "large"
        RTMODEL "__dptr_size", "16"
        RTMODEL "__extended_stack", "disabled"
        RTMODEL "__location_for_constants", "data"
        RTMODEL "__number_of_dptrs", "1"
        RTMODEL "__rt_version", "1"

        RSEG DOVERLAY:DATA:NOROOT(0)
        RSEG IOVERLAY:IDATA:NOROOT(0)
        RSEG ISTACK:IDATA:NOROOT(0)
        RSEG PSTACK:XDATA:NOROOT(0)
        RSEG XSTACK:XDATA:NOROOT(0)

        EXTERN ?ALLOC_XSTACK8
        EXTERN ?BDISPATCH
        EXTERN ?BRET
        EXTERN ?DEALLOC_XSTACK8
        EXTERN ?FUNC_ENTER_XDATA
        EXTERN ?FUNC_LEAVE_XDATA
        EXTERN ?L_MOV_TO_X
        EXTERN ?L_MOV_X
        EXTERN ?PUSH_XSTACK_I_THREE
        EXTERN ?V0
        EXTERN ?XSP
        EXTERN __INIT_XDATA_Z

        PUBLIC ??ZMacPwrOnReq?relay
        FUNCTION ??ZMacPwrOnReq?relay,0203H
        PUBLIC ??ZMac_PwrMode?relay
        FUNCTION ??ZMac_PwrMode?relay,0203H
        PUBLIC ZMacAssociateReq
        FUNCTION ZMacAssociateReq,021203H
        ARGFRAME XSTACK, 0, STACK
        LOCFRAME ISTACK, 3, STACK
        PUBLIC ZMacAssociateRsp
        FUNCTION ZMacAssociateRsp,021203H
        ARGFRAME XSTACK, 0, STACK
        LOCFRAME ISTACK, 3, STACK
        PUBLIC ZMacDataReq
        FUNCTION ZMacDataReq,021203H
        ARGFRAME XSTACK, 0, STACK
        LOCFRAME ISTACK, 1, STACK
        LOCFRAME XSTACK, 16, STACK
        PUBLIC ZMacDisassociateReq
        FUNCTION ZMacDisassociateReq,021203H
        ARGFRAME XSTACK, 0, STACK
        LOCFRAME ISTACK, 3, STACK
        PUBLIC ZMacGetReq
        FUNCTION ZMacGetReq,021203H
        ARGFRAME XSTACK, 0, STACK
        LOCFRAME ISTACK, 2, STACK
        PUBLIC ZMacInit
        FUNCTION ZMacInit,021203H
        ARGFRAME XSTACK, 0, STACK
        LOCFRAME XSTACK, 8, STACK
        PUBLIC ZMacOrphanRsp
        FUNCTION ZMacOrphanRsp,021203H
        ARGFRAME XSTACK, 0, STACK
        LOCFRAME ISTACK, 3, STACK
        PUBLIC ZMacPollReq
        FUNCTION ZMacPollReq,021203H
        ARGFRAME XSTACK, 0, STACK
        LOCFRAME ISTACK, 3, STACK
        PUBLIC ZMacPurgeReq
        FUNCTION ZMacPurgeReq,021203H
        ARGFRAME XSTACK, 0, STACK
        LOCFRAME ISTACK, 2, STACK
        PUBLIC ZMacPwrOnReq
        FUNCTION ZMacPwrOnReq,021203H
        ARGFRAME XSTACK, 0, STACK
        LOCFRAME ISTACK, 2, STACK
        PUBLIC ZMacReset
        FUNCTION ZMacReset,021203H
        ARGFRAME XSTACK, 8, STACK
        ARGFRAME IOVERLAY, 0, STATIC
        ARGFRAME DOVERLAY, 0, STATIC
        LOCFRAME ISTACK, 1, STACK
        LOCFRAME XSTACK, 9, STACK
        PUBLIC ZMacRxEnableReq
        FUNCTION ZMacRxEnableReq,0203H
        ARGFRAME XSTACK, 0, STACK
        PUBLIC ZMacScanReq
        FUNCTION ZMacScanReq,021203H
        ARGFRAME XSTACK, 0, STACK
        LOCFRAME ISTACK, 1, STACK
        LOCFRAME XSTACK, 11, STACK
        PUBLIC ZMacSendNoData
        FUNCTION ZMacSendNoData,021203H
        ARGFRAME XSTACK, 0, STACK
        LOCFRAME ISTACK, 1, STACK
        LOCFRAME XSTACK, 11, STACK
        PUBLIC ZMacSetReq
        FUNCTION ZMacSetReq,021203H
        ARGFRAME XSTACK, 0, STACK
        LOCFRAME XSTACK, 8, STACK
        PUBLIC ZMacSetTransmitPower
        FUNCTION ZMacSetTransmitPower,021203H
        ARGFRAME XSTACK, 0, STACK
        LOCFRAME ISTACK, 1, STACK
        LOCFRAME XSTACK, 10, STACK
        PUBLIC ZMacStartReq
        FUNCTION ZMacStartReq,021203H
        ARGFRAME XSTACK, 0, STACK
        LOCFRAME ISTACK, 1, STACK
        LOCFRAME XSTACK, 9, STACK
        PUBLIC ZMacSyncReq
        FUNCTION ZMacSyncReq,021203H
        ARGFRAME XSTACK, 0, STACK
        LOCFRAME ISTACK, 2, STACK
        PUBLIC ZMacUpdate
        FUNCTION ZMacUpdate,0203H
        ARGFRAME XSTACK, 0, STACK
        PUBLIC ZMac_PwrMode
        FUNCTION ZMac_PwrMode,021203H
        ARGFRAME XSTACK, 0, STACK
        LOCFRAME ISTACK, 2, STACK
        PUBLIC ZMac_ScanBuf
        PUBLIC _ScanChannels
        
        CFI Names cfiNames0
        CFI StackFrame CFA_SP SP DATA
        CFI StackFrame CFA_PSP16 PSP16 XDATA
        CFI StackFrame CFA_XSP16 XSP16 XDATA
        CFI StaticOverlayFrame CFA_IOVERLAY IOVERLAY
        CFI StaticOverlayFrame CFA_DOVERLAY DOVERLAY
        CFI Resource `PSW.CY`:1, `B.BR0`:1, `B.BR1`:1, `B.BR2`:1, `B.BR3`:1
        CFI Resource `B.BR4`:1, `B.BR5`:1, `B.BR6`:1, `B.BR7`:1, `VB.BR8`:1
        CFI Resource `VB.BR9`:1, `VB.BR10`:1, `VB.BR11`:1, `VB.BR12`:1
        CFI Resource `VB.BR13`:1, `VB.BR14`:1, `VB.BR15`:1, VB:8, B:8, A:8
        CFI Resource PSW:8, DPL0:8, DPH0:8, R0:8, R1:8, R2:8, R3:8, R4:8, R5:8
        CFI Resource R6:8, R7:8, V0:8, V1:8, V2:8, V3:8, V4:8, V5:8, V6:8, V7:8
        CFI Resource SP:8, PSPH:8, PSPL:8, PSP16:16, XSPH:8, XSPL:8, XSP16:16
        CFI VirtualResource ?RET:24
        CFI Resource ?BRET_EXT:8
        CFI VirtualResource ?RET_HIGH:8, ?RET_LOW:8
        CFI ResourceParts PSP16 PSPH, PSPL
        CFI ResourceParts XSP16 XSPH, XSPL
        CFI ResourceParts ?RET ?BRET_EXT, ?RET_HIGH, ?RET_LOW
        CFI EndNames cfiNames0
        
        CFI Common cfiCommon0 Using cfiNames0
        CFI CodeAlign 1
        CFI DataAlign -1
        CFI ReturnAddress ?RET CODE
        CFI CFA_DOVERLAY Used
        CFI CFA_IOVERLAY Used
        CFI CFA_SP SP+-2
        CFI CFA_PSP16 PSP16+0
        CFI CFA_XSP16 XSP16+0
        CFI `PSW.CY` SameValue
        CFI `B.BR0` SameValue
        CFI `B.BR1` SameValue
        CFI `B.BR2` SameValue
        CFI `B.BR3` SameValue
        CFI `B.BR4` SameValue
        CFI `B.BR5` SameValue
        CFI `B.BR6` SameValue
        CFI `B.BR7` SameValue
        CFI `VB.BR8` SameValue
        CFI `VB.BR9` SameValue
        CFI `VB.BR10` SameValue
        CFI `VB.BR11` SameValue
        CFI `VB.BR12` SameValue
        CFI `VB.BR13` SameValue
        CFI `VB.BR14` SameValue
        CFI `VB.BR15` SameValue
        CFI VB SameValue
        CFI B Undefined
        CFI A Undefined
        CFI PSW SameValue
        CFI DPL0 SameValue
        CFI DPH0 SameValue
        CFI R0 Undefined
        CFI R1 Undefined
        CFI R2 Undefined
        CFI R3 Undefined
        CFI R4 Undefined
        CFI R5 Undefined
        CFI R6 SameValue
        CFI R7 SameValue
        CFI V0 SameValue
        CFI V1 SameValue
        CFI V2 SameValue
        CFI V3 SameValue
        CFI V4 SameValue
        CFI V5 SameValue
        CFI V6 SameValue
        CFI V7 SameValue
        CFI PSPH Undefined
        CFI PSPL Undefined
        CFI XSPH Undefined
        CFI XSPL Undefined
        CFI ?RET Concat
        CFI ?BRET_EXT SameValue
        CFI ?RET_HIGH Frame(CFA_SP, 2)
        CFI ?RET_LOW Frame(CFA_SP, 1)
        CFI EndCommon cfiCommon0
        
        
        CFI Common cfiCommon1 Using cfiNames0
        CFI CodeAlign 1
        CFI DataAlign -1
        CFI ReturnAddress ?RET CODE
        CFI CFA_DOVERLAY Used
        CFI CFA_IOVERLAY Used
        CFI CFA_SP SP+-2
        CFI CFA_PSP16 PSP16+0
        CFI CFA_XSP16 XSP16+0
        CFI `PSW.CY` SameValue
        CFI `B.BR0` SameValue
        CFI `B.BR1` SameValue
        CFI `B.BR2` SameValue
        CFI `B.BR3` SameValue
        CFI `B.BR4` SameValue
        CFI `B.BR5` SameValue
        CFI `B.BR6` SameValue
        CFI `B.BR7` SameValue
        CFI `VB.BR8` SameValue
        CFI `VB.BR9` SameValue
        CFI `VB.BR10` SameValue
        CFI `VB.BR11` SameValue
        CFI `VB.BR12` SameValue
        CFI `VB.BR13` SameValue
        CFI `VB.BR14` SameValue
        CFI `VB.BR15` SameValue
        CFI VB SameValue
        CFI B SameValue
        CFI A SameValue
        CFI PSW SameValue
        CFI DPL0 SameValue
        CFI DPH0 SameValue
        CFI R0 SameValue
        CFI R1 SameValue
        CFI R2 SameValue
        CFI R3 SameValue
        CFI R4 SameValue
        CFI R5 SameValue
        CFI R6 SameValue
        CFI R7 SameValue
        CFI V0 SameValue
        CFI V1 SameValue
        CFI V2 SameValue
        CFI V3 SameValue
        CFI V4 SameValue
        CFI V5 SameValue
        CFI V6 SameValue
        CFI V7 SameValue
        CFI PSPH Undefined
        CFI PSPL Undefined
        CFI XSPH Undefined
        CFI XSPL Undefined
        CFI ?RET Concat
        CFI ?BRET_EXT SameValue
        CFI ?RET_HIGH Frame(CFA_SP, 2)
        CFI ?RET_LOW Frame(CFA_SP, 1)
        CFI EndCommon cfiCommon1
        
        
        CFI Common cfiCommon2 Using cfiNames0
        CFI CodeAlign 1
        CFI DataAlign -1
        CFI ReturnAddress ?RET CODE
        CFI CFA_DOVERLAY Used
        CFI CFA_IOVERLAY Used
        CFI CFA_SP SP+-3
        CFI CFA_PSP16 PSP16+0
        CFI CFA_XSP16 XSP16+0
        CFI `PSW.CY` SameValue
        CFI `B.BR0` SameValue
        CFI `B.BR1` SameValue
        CFI `B.BR2` SameValue
        CFI `B.BR3` SameValue
        CFI `B.BR4` SameValue
        CFI `B.BR5` SameValue
        CFI `B.BR6` SameValue
        CFI `B.BR7` SameValue
        CFI `VB.BR8` SameValue
        CFI `VB.BR9` SameValue
        CFI `VB.BR10` SameValue
        CFI `VB.BR11` SameValue
        CFI `VB.BR12` SameValue
        CFI `VB.BR13` SameValue
        CFI `VB.BR14` SameValue
        CFI `VB.BR15` SameValue
        CFI VB SameValue
        CFI B Undefined
        CFI A Undefined
        CFI PSW SameValue
        CFI DPL0 SameValue
        CFI DPH0 SameValue
        CFI R0 Undefined
        CFI R1 Undefined
        CFI R2 Undefined
        CFI R3 Undefined
        CFI R4 Undefined
        CFI R5 Undefined
        CFI R6 SameValue
        CFI R7 SameValue
        CFI V0 SameValue
        CFI V1 SameValue
        CFI V2 SameValue
        CFI V3 SameValue
        CFI V4 SameValue
        CFI V5 SameValue
        CFI V6 SameValue
        CFI V7 SameValue
        CFI PSPH Undefined
        CFI PSPL Undefined
        CFI XSPH Undefined
        CFI XSPL Undefined
        CFI ?RET Concat
        CFI ?BRET_EXT Frame(CFA_SP, 3)
        CFI ?RET_HIGH Frame(CFA_SP, 2)
        CFI ?RET_LOW Frame(CFA_SP, 1)
        CFI EndCommon cfiCommon2
        
MAC_Init            SYMBOL "MAC_Init"
MAC_InitDevice      SYMBOL "MAC_InitDevice"
MAC_InitCoord       SYMBOL "MAC_InitCoord"
osal_int_disable    SYMBOL "osal_int_disable"
MAC_MlmeResetReq    SYMBOL "MAC_MlmeResetReq"
MAC_MlmeSetReq      SYMBOL "MAC_MlmeSetReq"
osal_mem_free       SYMBOL "osal_mem_free"
osal_cpyExtAddr     SYMBOL "osal_cpyExtAddr"
MAC_MlmeGetReq      SYMBOL "MAC_MlmeGetReq"
MAC_MlmeAssociateReq SYMBOL "MAC_MlmeAssociateReq"
MAC_MlmeAssociateRsp SYMBOL "MAC_MlmeAssociateRsp"
MAC_MlmeDisassociateReq SYMBOL "MAC_MlmeDisassociateReq"
MAC_MlmeOrphanRsp   SYMBOL "MAC_MlmeOrphanRsp"
osal_mem_alloc      SYMBOL "osal_mem_alloc"
osal_memset         SYMBOL "osal_memset"
MAC_MlmeScanReq     SYMBOL "MAC_MlmeScanReq"
MAC_MlmeStartReq    SYMBOL "MAC_MlmeStartReq"
MAC_MlmeSyncReq     SYMBOL "MAC_MlmeSyncReq"
MAC_MlmePollReq     SYMBOL "MAC_MlmePollReq"
MAC_McpsDataAlloc   SYMBOL "MAC_McpsDataAlloc"
osal_memcpy         SYMBOL "osal_memcpy"
MAC_McpsDataReq     SYMBOL "MAC_McpsDataReq"
MAC_McpsPurgeReq    SYMBOL "MAC_McpsPurgeReq"
MAC_PwrOnReq        SYMBOL "MAC_PwrOnReq"
MAC_PwrMode         SYMBOL "MAC_PwrMode"
??MAC_Init?relay    SYMBOL "?relay", MAC_Init
??MAC_InitCoord?relay SYMBOL "?relay", MAC_InitCoord
??MAC_InitDevice?relay SYMBOL "?relay", MAC_InitDevice
??MAC_McpsDataAlloc?relay SYMBOL "?relay", MAC_McpsDataAlloc
??MAC_McpsDataReq?relay SYMBOL "?relay", MAC_McpsDataReq
??MAC_McpsPurgeReq?relay SYMBOL "?relay", MAC_McpsPurgeReq
??MAC_MlmeAssociateReq?relay SYMBOL "?relay", MAC_MlmeAssociateReq
??MAC_MlmeAssociateRsp?relay SYMBOL "?relay", MAC_MlmeAssociateRsp
??MAC_MlmeDisassociateReq?relay SYMBOL "?relay", MAC_MlmeDisassociateReq
??MAC_MlmeGetReq?relay SYMBOL "?relay", MAC_MlmeGetReq
??MAC_MlmeOrphanRsp?relay SYMBOL "?relay", MAC_MlmeOrphanRsp
??MAC_MlmePollReq?relay SYMBOL "?relay", MAC_MlmePollReq
??MAC_MlmeResetReq?relay SYMBOL "?relay", MAC_MlmeResetReq
??MAC_MlmeScanReq?relay SYMBOL "?relay", MAC_MlmeScanReq
??MAC_MlmeSetReq?relay SYMBOL "?relay", MAC_MlmeSetReq
??MAC_MlmeStartReq?relay SYMBOL "?relay", MAC_MlmeStartReq
??MAC_MlmeSyncReq?relay SYMBOL "?relay", MAC_MlmeSyncReq
??MAC_PwrMode?relay SYMBOL "?relay", MAC_PwrMode
??MAC_PwrOnReq?relay SYMBOL "?relay", MAC_PwrOnReq
??osal_cpyExtAddr?relay SYMBOL "?relay", osal_cpyExtAddr
??osal_int_disable?relay SYMBOL "?relay", osal_int_disable
??osal_mem_alloc?relay SYMBOL "?relay", osal_mem_alloc
??osal_mem_free?relay SYMBOL "?relay", osal_mem_free
??osal_memcpy?relay SYMBOL "?relay", osal_memcpy
??osal_memset?relay SYMBOL "?relay", osal_memset
ZMacPwrOnReq        SYMBOL "ZMacPwrOnReq"
??ZMacPwrOnReq?relay SYMBOL "?relay", ZMacPwrOnReq
ZMac_PwrMode        SYMBOL "ZMac_PwrMode"
??ZMac_PwrMode?relay SYMBOL "?relay", ZMac_PwrMode

        EXTERN MAC_Init
        FUNCTION MAC_Init,0202H
        ARGFRAME ISTACK, 0, STACK
        ARGFRAME PSTACK, 0, STACK
        ARGFRAME XSTACK, 8, STACK
        ARGFRAME IOVERLAY, 0, STATIC
        ARGFRAME DOVERLAY, 0, STATIC
        EXTERN MAC_InitDevice
        FUNCTION MAC_InitDevice,0202H
        ARGFRAME ISTACK, 0, STACK
        ARGFRAME PSTACK, 0, STACK
        ARGFRAME XSTACK, 8, STACK
        ARGFRAME IOVERLAY, 0, STATIC
        ARGFRAME DOVERLAY, 0, STATIC
        EXTERN MAC_InitCoord
        FUNCTION MAC_InitCoord,0202H
        ARGFRAME ISTACK, 0, STACK
        ARGFRAME PSTACK, 0, STACK
        ARGFRAME XSTACK, 8, STACK
        ARGFRAME IOVERLAY, 0, STATIC
        ARGFRAME DOVERLAY, 0, STATIC
        EXTERN osal_int_disable
        FUNCTION osal_int_disable,0202H
        ARGFRAME ISTACK, 0, STACK
        ARGFRAME PSTACK, 0, STACK
        ARGFRAME XSTACK, 8, STACK
        ARGFRAME IOVERLAY, 0, STATIC
        ARGFRAME DOVERLAY, 0, STATIC
        EXTERN MAC_MlmeResetReq
        FUNCTION MAC_MlmeResetReq,0202H
        ARGFRAME ISTACK, 0, STACK
        ARGFRAME PSTACK, 0, STACK
        ARGFRAME XSTACK, 9, STACK
        ARGFRAME IOVERLAY, 0, STATIC
        ARGFRAME DOVERLAY, 0, STATIC
        EXTERN MAC_MlmeSetReq
        FUNCTION MAC_MlmeSetReq,0202H
        ARGFRAME ISTACK, 0, STACK
        ARGFRAME PSTACK, 0, STACK
        ARGFRAME XSTACK, 10, STACK
        ARGFRAME IOVERLAY, 0, STATIC
        ARGFRAME DOVERLAY, 0, STATIC
        EXTERN osal_mem_free
        FUNCTION osal_mem_free,0202H
        ARGFRAME ISTACK, 0, STACK
        ARGFRAME PSTACK, 0, STACK
        ARGFRAME XSTACK, 9, STACK
        ARGFRAME IOVERLAY, 0, STATIC
        ARGFRAME DOVERLAY, 0, STATIC
        EXTERN osal_cpyExtAddr
        FUNCTION osal_cpyExtAddr,0202H
        ARGFRAME ISTACK, 2, STACK
        ARGFRAME PSTACK, 0, STACK
        ARGFRAME XSTACK, 8, STACK
        ARGFRAME IOVERLAY, 0, STATIC
        ARGFRAME DOVERLAY, 0, STATIC
        EXTERN MAC_MlmeGetReq
        FUNCTION MAC_MlmeGetReq,0202H
        ARGFRAME ISTACK, 2, STACK
        ARGFRAME PSTACK, 0, STACK
        ARGFRAME XSTACK, 0, STACK
        ARGFRAME IOVERLAY, 0, STATIC
        ARGFRAME DOVERLAY, 0, STATIC
        EXTERN MAC_MlmeAssociateReq
        FUNCTION MAC_MlmeAssociateReq,0202H
        ARGFRAME ISTACK, 2, STACK
        ARGFRAME PSTACK, 0, STACK
        ARGFRAME XSTACK, 0, STACK
        ARGFRAME IOVERLAY, 0, STATIC
        ARGFRAME DOVERLAY, 0, STATIC
        EXTERN MAC_MlmeAssociateRsp
        FUNCTION MAC_MlmeAssociateRsp,0202H
        ARGFRAME ISTACK, 2, STACK
        ARGFRAME PSTACK, 0, STACK
        ARGFRAME XSTACK, 0, STACK
        ARGFRAME IOVERLAY, 0, STATIC
        ARGFRAME DOVERLAY, 0, STATIC
        EXTERN MAC_MlmeDisassociateReq
        FUNCTION MAC_MlmeDisassociateReq,0202H
        ARGFRAME ISTACK, 2, STACK
        ARGFRAME PSTACK, 0, STACK
        ARGFRAME XSTACK, 0, STACK
        ARGFRAME IOVERLAY, 0, STATIC
        ARGFRAME DOVERLAY, 0, STATIC
        EXTERN MAC_MlmeOrphanRsp
        FUNCTION MAC_MlmeOrphanRsp,0202H
        ARGFRAME ISTACK, 2, STACK
        ARGFRAME PSTACK, 0, STACK
        ARGFRAME XSTACK, 0, STACK
        ARGFRAME IOVERLAY, 0, STATIC
        ARGFRAME DOVERLAY, 0, STATIC
        EXTERN osal_mem_alloc
        FUNCTION osal_mem_alloc,0202H
        ARGFRAME ISTACK, 0, STACK
        ARGFRAME PSTACK, 0, STACK
        ARGFRAME XSTACK, 11, STACK
        ARGFRAME IOVERLAY, 0, STATIC
        ARGFRAME DOVERLAY, 0, STATIC
        EXTERN osal_memset
        FUNCTION osal_memset,0202H
        ARGFRAME ISTACK, 0, STACK
        ARGFRAME PSTACK, 0, STACK
        ARGFRAME XSTACK, 11, STACK
        ARGFRAME IOVERLAY, 0, STATIC
        ARGFRAME DOVERLAY, 0, STATIC
        EXTERN MAC_MlmeScanReq
        FUNCTION MAC_MlmeScanReq,0202H
        ARGFRAME ISTACK, 0, STACK
        ARGFRAME PSTACK, 0, STACK
        ARGFRAME XSTACK, 11, STACK
        ARGFRAME IOVERLAY, 0, STATIC
        ARGFRAME DOVERLAY, 0, STATIC
        EXTERN MAC_MlmeStartReq
        FUNCTION MAC_MlmeStartReq,0202H
        ARGFRAME ISTACK, 0, STACK
        ARGFRAME PSTACK, 0, STACK
        ARGFRAME XSTACK, 9, STACK
        ARGFRAME IOVERLAY, 0, STATIC
        ARGFRAME DOVERLAY, 0, STATIC
        EXTERN MAC_MlmeSyncReq
        FUNCTION MAC_MlmeSyncReq,0202H
        ARGFRAME ISTACK, 2, STACK
        ARGFRAME PSTACK, 0, STACK
        ARGFRAME XSTACK, 0, STACK
        ARGFRAME IOVERLAY, 0, STATIC
        ARGFRAME DOVERLAY, 0, STATIC
        EXTERN MAC_MlmePollReq
        FUNCTION MAC_MlmePollReq,0202H
        ARGFRAME ISTACK, 2, STACK
        ARGFRAME PSTACK, 0, STACK
        ARGFRAME XSTACK, 0, STACK
        ARGFRAME IOVERLAY, 0, STATIC
        ARGFRAME DOVERLAY, 0, STATIC
        EXTERN MAC_McpsDataAlloc
        FUNCTION MAC_McpsDataAlloc,0202H
        ARGFRAME ISTACK, 0, STACK
        ARGFRAME PSTACK, 0, STACK
        ARGFRAME XSTACK, 13, STACK
        ARGFRAME IOVERLAY, 0, STATIC
        ARGFRAME DOVERLAY, 0, STATIC
        EXTERN osal_memcpy
        FUNCTION osal_memcpy,0202H
        ARGFRAME ISTACK, 0, STACK
        ARGFRAME PSTACK, 0, STACK
        ARGFRAME XSTACK, 16, STACK
        ARGFRAME IOVERLAY, 0, STATIC
        ARGFRAME DOVERLAY, 0, STATIC
        EXTERN MAC_McpsDataReq
        FUNCTION MAC_McpsDataReq,0202H
        ARGFRAME ISTACK, 0, STACK
        ARGFRAME PSTACK, 0, STACK
        ARGFRAME XSTACK, 13, STACK
        ARGFRAME IOVERLAY, 0, STATIC
        ARGFRAME DOVERLAY, 0, STATIC
        EXTERN MAC_McpsPurgeReq
        FUNCTION MAC_McpsPurgeReq,0202H
        ARGFRAME ISTACK, 2, STACK
        ARGFRAME PSTACK, 0, STACK
        ARGFRAME XSTACK, 0, STACK
        ARGFRAME IOVERLAY, 0, STATIC
        ARGFRAME DOVERLAY, 0, STATIC
        EXTERN MAC_PwrOnReq
        FUNCTION MAC_PwrOnReq,0202H
        ARGFRAME ISTACK, 2, STACK
        ARGFRAME PSTACK, 0, STACK
        ARGFRAME XSTACK, 0, STACK
        ARGFRAME IOVERLAY, 0, STATIC
        ARGFRAME DOVERLAY, 0, STATIC
        EXTERN MAC_PwrMode
        FUNCTION MAC_PwrMode,0202H
        ARGFRAME ISTACK, 2, STACK
        ARGFRAME PSTACK, 0, STACK
        ARGFRAME XSTACK, 0, STACK
        ARGFRAME IOVERLAY, 0, STATIC
        ARGFRAME DOVERLAY, 0, STATIC
        EXTERN ??MAC_Init?relay
        FUNCTION ??MAC_Init?relay,00H
        EXTERN ??MAC_InitCoord?relay
        FUNCTION ??MAC_InitCoord?relay,00H
        EXTERN ??MAC_InitDevice?relay
        FUNCTION ??MAC_InitDevice?relay,00H
        EXTERN ??MAC_McpsDataAlloc?relay
        FUNCTION ??MAC_McpsDataAlloc?relay,00H
        EXTERN ??MAC_McpsDataReq?relay
        FUNCTION ??MAC_McpsDataReq?relay,00H
        EXTERN ??MAC_McpsPurgeReq?relay
        FUNCTION ??MAC_McpsPurgeReq?relay,00H
        EXTERN ??MAC_MlmeAssociateReq?relay
        FUNCTION ??MAC_MlmeAssociateReq?relay,00H
        EXTERN ??MAC_MlmeAssociateRsp?relay
        FUNCTION ??MAC_MlmeAssociateRsp?relay,00H
        EXTERN ??MAC_MlmeDisassociateReq?relay
        FUNCTION ??MAC_MlmeDisassociateReq?relay,00H
        EXTERN ??MAC_MlmeGetReq?relay
        FUNCTION ??MAC_MlmeGetReq?relay,00H
        EXTERN ??MAC_MlmeOrphanRsp?relay
        FUNCTION ??MAC_MlmeOrphanRsp?relay,00H
        EXTERN ??MAC_MlmePollReq?relay
        FUNCTION ??MAC_MlmePollReq?relay,00H
        EXTERN ??MAC_MlmeResetReq?relay
        FUNCTION ??MAC_MlmeResetReq?relay,00H
        EXTERN ??MAC_MlmeScanReq?relay
        FUNCTION ??MAC_MlmeScanReq?relay,00H
        EXTERN ??MAC_MlmeSetReq?relay
        FUNCTION ??MAC_MlmeSetReq?relay,00H
        EXTERN ??MAC_MlmeStartReq?relay
        FUNCTION ??MAC_MlmeStartReq?relay,00H
        EXTERN ??MAC_MlmeSyncReq?relay
        FUNCTION ??MAC_MlmeSyncReq?relay,00H
        EXTERN ??MAC_PwrMode?relay
        FUNCTION ??MAC_PwrMode?relay,00H
        EXTERN ??MAC_PwrOnReq?relay
        FUNCTION ??MAC_PwrOnReq?relay,00H
        EXTERN ??osal_cpyExtAddr?relay
        FUNCTION ??osal_cpyExtAddr?relay,00H
        EXTERN ??osal_int_disable?relay
        FUNCTION ??osal_int_disable?relay,00H
        EXTERN ??osal_mem_alloc?relay
        FUNCTION ??osal_mem_alloc?relay,00H
        EXTERN ??osal_mem_free?relay
        FUNCTION ??osal_mem_free?relay,00H
        EXTERN ??osal_memcpy?relay
        FUNCTION ??osal_memcpy?relay,00H
        EXTERN ??osal_memset?relay
        FUNCTION ??osal_memset?relay,00H
        EXTERN aExtendedAddress

// C:\Texas Instruments\ZStack-1.4.3-1.2.1\Components\zmac\f8w\zmac.c
//    1 /**************************************************************************************************
//    2   Filename:       zmac.c
//    3   Revised:        $Date: 2007-10-28 18:43:04 -0700 (Sun, 28 Oct 2007) $
//    4   Revision:       $Revision: 15800 $
//    5 
//    6   Description:    This file contains the ZStack MAC Porting Layer
//    7 
//    8 
//    9   Copyright 2005-2007 Texas Instruments Incorporated. All rights reserved.
//   10 
//   11   IMPORTANT: Your use of this Software is limited to those specific rights
//   12   granted under the terms of a software license agreement between the user
//   13   who downloaded the software, his/her employer (which must be your employer)
//   14   and Texas Instruments Incorporated (the "License").  You may not use this
//   15   Software unless you agree to abide by the terms of the License. The License
//   16   limits your use, and you acknowledge, that the Software may not be modified,
//   17   copied or distributed unless embedded on a Texas Instruments microcontroller
//   18   or used solely and exclusively in conjunction with a Texas Instruments radio
//   19   frequency transceiver, which is integrated into your product.  Other than for
//   20   the foregoing purpose, you may not use, reproduce, copy, prepare derivative
//   21   works of, modify, distribute, perform, display or sell this Software and/or
//   22   its documentation for any purpose.
//   23 
//   24   YOU FURTHER ACKNOWLEDGE AND AGREE THAT THE SOFTWARE AND DOCUMENTATION ARE
//   25   PROVIDED “AS IS” WITHOUT WARRANTY OF ANY KIND, EITHER EXPRESS OR IMPLIED, 
//   26   INCLUDING WITHOUT LIMITATION, ANY WARRANTY OF MERCHANTABILITY, TITLE, 
//   27   NON-INFRINGEMENT AND FITNESS FOR A PARTICULAR PURPOSE. IN NO EVENT SHALL
//   28   TEXAS INSTRUMENTS OR ITS LICENSORS BE LIABLE OR OBLIGATED UNDER CONTRACT,
//   29   NEGLIGENCE, STRICT LIABILITY, CONTRIBUTION, BREACH OF WARRANTY, OR OTHER
//   30   LEGAL EQUITABLE THEORY ANY DIRECT OR INDIRECT DAMAGES OR EXPENSES
//   31   INCLUDING BUT NOT LIMITED TO ANY INCIDENTAL, SPECIAL, INDIRECT, PUNITIVE
//   32   OR CONSEQUENTIAL DAMAGES, LOST PROFITS OR LOST DATA, COST OF PROCUREMENT
//   33   OF SUBSTITUTE GOODS, TECHNOLOGY, SERVICES, OR ANY CLAIMS BY THIRD PARTIES
//   34   (INCLUDING BUT NOT LIMITED TO ANY DEFENSE THEREOF), OR OTHER SIMILAR COSTS.
//   35 
//   36   Should you have any questions regarding your right to use this Software,
//   37   contact Texas Instruments Incorporated at www.TI.com. 
//   38 **************************************************************************************************/
//   39 
//   40 /********************************************************************************************************
//   41  *                                               INCLUDES
//   42  ********************************************************************************************************/
//   43 
//   44 #include "ZComDef.h"
//   45 #include "OSAL.h"
//   46 #include "ZMAC.h"
//   47 
//   48 /********************************************************************************************************
//   49  *                                                 MACROS
//   50  ********************************************************************************************************/
//   51 
//   52 /********************************************************************************************************
//   53  *                                               CONSTANTS
//   54  ********************************************************************************************************/

        RSEG CODE_C:CODE:REORDER:NOROOT(0)
        DATA
//   55 static CONST byte TxPowerSettings[] =
TxPowerSettings:
        DB 0, 33, 35, 37, 39, 42, 47, 57
//   56 {
//   57   OUTPUT_POWER_0DBM,
//   58   OUTPUT_POWER_N1DBM,
//   59   OUTPUT_POWER_N3DBM,
//   60   OUTPUT_POWER_N5DBM,
//   61   OUTPUT_POWER_N7DBM,
//   62   OUTPUT_POWER_N10DBM,
//   63   OUTPUT_POWER_N15DBM,
//   64   OUTPUT_POWER_N25DBM
//   65 };
//   66 
//   67 /********************************************************************************************************
//   68  *                                               GLOBALS
//   69  ********************************************************************************************************/

        RSEG XDATA_Z:XDATA:NOROOT(0)
//   70 uint32 _ScanChannels;
_ScanChannels:
        DS 4
        REQUIRE __INIT_XDATA_Z
//   71 
//   72 extern uint8 aExtendedAddress[];
//   73 
//   74 /********************************************************************************************************
//   75  *                                               LOCALS
//   76  ********************************************************************************************************/
//   77 
//   78 /* Pointer to scan result buffer */

        RSEG XDATA_Z:XDATA:NOROOT(0)
//   79 void *ZMac_ScanBuf = NULL;
ZMac_ScanBuf:
        DS 2
        REQUIRE __INIT_XDATA_Z
//   80 
//   81 /********************************************************************************************************
//   82  * LOCAL FUNCTION PROTOTYPES
//   83  ********************************************************************************************************/
//   84 
//   85 /********************************************************************************************************
//   86  *                                                TYPEDEFS
//   87  ********************************************************************************************************/
//   88 
//   89 
//   90 /********************************************************************************************************
//   91  *                                                FUNCTIONS
//   92  ********************************************************************************************************/
//   93 
//   94 /********************************************************************************************************
//   95  * @fn      ZMacInit
//   96  *
//   97  * @brief   Initialize MAC.
//   98  *
//   99  * @param   none.
//  100  *
//  101  * @return  status.
//  102  ********************************************************************************************************/

        RSEG NEAR_CODE:CODE:NOROOT(0)
//  103 ROOT uint8 ZMacInit( void )
ZMacInit:
        CFI Block cfiBlock0 Using cfiCommon0
        CFI Function ZMacInit
//  104 {
        FUNCALL ZMacInit, MAC_Init
        LOCFRAME ISTACK, 0, STACK
        LOCFRAME PSTACK, 0, STACK
        LOCFRAME XSTACK, 8, STACK
        LOCFRAME IOVERLAY, 0, STATIC
        LOCFRAME DOVERLAY, 0, STATIC
        ARGFRAME ISTACK, 0, STACK
        ARGFRAME PSTACK, 0, STACK
        ARGFRAME XSTACK, 8, STACK
        ARGFRAME IOVERLAY, 0, STATIC
        ARGFRAME DOVERLAY, 0, STATIC
        FUNCALL ZMacInit, MAC_InitDevice
        LOCFRAME ISTACK, 0, STACK
        LOCFRAME PSTACK, 0, STACK
        LOCFRAME XSTACK, 8, STACK
        LOCFRAME IOVERLAY, 0, STATIC
        LOCFRAME DOVERLAY, 0, STATIC
        ARGFRAME ISTACK, 0, STACK
        ARGFRAME PSTACK, 0, STACK
        ARGFRAME XSTACK, 8, STACK
        ARGFRAME IOVERLAY, 0, STATIC
        ARGFRAME DOVERLAY, 0, STATIC
        FUNCALL ZMacInit, MAC_InitCoord
        LOCFRAME ISTACK, 0, STACK
        LOCFRAME PSTACK, 0, STACK
        LOCFRAME XSTACK, 8, STACK
        LOCFRAME IOVERLAY, 0, STATIC
        LOCFRAME DOVERLAY, 0, STATIC
        ARGFRAME ISTACK, 0, STACK
        ARGFRAME PSTACK, 0, STACK
        ARGFRAME XSTACK, 8, STACK
        ARGFRAME IOVERLAY, 0, STATIC
        ARGFRAME DOVERLAY, 0, STATIC
        FUNCALL ZMacInit, ZMacReset
        LOCFRAME ISTACK, 0, STACK
        LOCFRAME PSTACK, 0, STACK
        LOCFRAME XSTACK, 8, STACK
        LOCFRAME IOVERLAY, 0, STATIC
        LOCFRAME DOVERLAY, 0, STATIC
        ARGFRAME ISTACK, 0, STACK
        ARGFRAME PSTACK, 0, STACK
        ARGFRAME XSTACK, 8, STACK
        ARGFRAME IOVERLAY, 0, STATIC
        ARGFRAME DOVERLAY, 0, STATIC
        FUNCALL ZMacInit, osal_int_disable
        LOCFRAME ISTACK, 0, STACK
        LOCFRAME PSTACK, 0, STACK
        LOCFRAME XSTACK, 8, STACK
        LOCFRAME IOVERLAY, 0, STATIC
        LOCFRAME DOVERLAY, 0, STATIC
        ARGFRAME ISTACK, 0, STACK
        ARGFRAME PSTACK, 0, STACK
        ARGFRAME XSTACK, 8, STACK
        ARGFRAME IOVERLAY, 0, STATIC
        ARGFRAME DOVERLAY, 0, STATIC
        MOV     A,#-0x8
        LCALL   ?FUNC_ENTER_XDATA
        CFI DPH0 load(1, XDATA, add(CFA_XSP16, literal(-1)))
        CFI DPL0 load(1, XDATA, add(CFA_XSP16, literal(-2)))
        CFI ?RET_HIGH load(1, XDATA, add(CFA_XSP16, literal(-3)))
        CFI ?RET_LOW load(1, XDATA, add(CFA_XSP16, literal(-4)))
        CFI R7 load(1, XDATA, add(CFA_XSP16, literal(-5)))
        CFI V0 load(1, XDATA, add(CFA_XSP16, literal(-6)))
        CFI VB load(1, XDATA, add(CFA_XSP16, literal(-7)))
        CFI R6 load(1, XDATA, add(CFA_XSP16, literal(-8)))
        CFI CFA_SP SP+0
        CFI CFA_XSP16 add(XSP16, 8)
        ; Saved register size: 8
        ; Auto size: 0
//  105   uint8 stat;
//  106 
//  107   MAC_Init();
        ; Setup parameters for call to function MAC_Init
        LCALL   ??MAC_Init?relay
//  108   MAC_InitDevice();
        ; Setup parameters for call to function MAC_InitDevice
        LCALL   ??MAC_InitDevice?relay
//  109 
//  110 #if defined ( RTR_NWK )
//  111   MAC_InitCoord();
        ; Setup parameters for call to function MAC_InitCoord
        LCALL   ??MAC_InitCoord?relay
//  112 #endif
//  113 
//  114   // If OK, initialize the MAC
//  115   stat = ZMacReset( TRUE );
        ; Setup parameters for call to function ZMacReset
        MOV     R1,#0x1
        LCALL   ZMacReset
        MOV     A,R1
        MOV     R6,A
//  116 
//  117   // Turn off interrupts
//  118   osal_int_disable( INTS_ALL );
        ; Setup parameters for call to function osal_int_disable
        MOV     R1,#-0x1
        LCALL   ??osal_int_disable?relay
//  119 
//  120   return ( stat );
        MOV     A,R6
        MOV     R1,A
        SJMP    ??Subroutine6_0
        CFI EndBlock cfiBlock0
//  121 }

        RSEG NEAR_CODE:CODE:NOROOT(0)
?Subroutine6:
        CFI Block cfiBlock1 Using cfiCommon0
        CFI NoFunction
        CFI CFA_SP SP+0
        CFI CFA_XSP16 add(XSP16, 9)
        CFI VB load(1, XDATA, add(CFA_XSP16, literal(-7)))
        CFI DPL0 load(1, XDATA, add(CFA_XSP16, literal(-2)))
        CFI DPH0 load(1, XDATA, add(CFA_XSP16, literal(-1)))
        CFI R6 load(1, XDATA, add(CFA_XSP16, literal(-8)))
        CFI R7 load(1, XDATA, add(CFA_XSP16, literal(-5)))
        CFI V0 load(1, XDATA, add(CFA_XSP16, literal(-6)))
        CFI ?RET_HIGH load(1, XDATA, add(CFA_XSP16, literal(-3)))
        CFI ?RET_LOW load(1, XDATA, add(CFA_XSP16, literal(-4)))
        MOV     A,#0x1
        LCALL   ?DEALLOC_XSTACK8
        CFI CFA_XSP16 add(XSP16, 8)
??Subroutine6_0:
        MOV     R7,#0x1
        LJMP    ?FUNC_LEAVE_XDATA
        CFI EndBlock cfiBlock1
//  122 
//  123 /********************************************************************************************************
//  124  * @fn      ZMacUpdate
//  125  *
//  126  * @brief   Gives MAC (or others) some processing time.
//  127  *
//  128  * @param   none.
//  129  *
//  130  * @return  true if CPU needs to keep running (not sleep).
//  131  ********************************************************************************************************/

        RSEG NEAR_CODE:CODE:NOROOT(0)
//  132 ROOT byte ZMacUpdate( void )
ZMacUpdate:
        CFI Block cfiBlock2 Using cfiCommon0
        CFI Function ZMacUpdate
//  133 {
        ; Saved register size: 0
        ; Auto size: 0
//  134   /* Put code here that needs to run each OSAL event loop */
//  135   return ( false );
        MOV     R1,#0x0
        RET
        CFI EndBlock cfiBlock2
//  136 }
//  137 
//  138 /********************************************************************************************************
//  139  * @fn      ZMacReset
//  140  *
//  141  * @brief   Reset the MAC.
//  142  *
//  143  * @param   Default to PIB defaults.
//  144  *
//  145  * @return  status.
//  146  ********************************************************************************************************/

        RSEG NEAR_CODE:CODE:NOROOT(0)
//  147 ROOT uint8 ZMacReset( bool SetDefaultPIB )
ZMacReset:
        CFI Block cfiBlock3 Using cfiCommon0
        CFI Function ZMacReset
//  148 {
        FUNCALL ZMacReset, MAC_MlmeResetReq
        LOCFRAME ISTACK, 0, STACK
        LOCFRAME PSTACK, 0, STACK
        LOCFRAME XSTACK, 9, STACK
        LOCFRAME IOVERLAY, 0, STATIC
        LOCFRAME DOVERLAY, 0, STATIC
        ARGFRAME ISTACK, 0, STACK
        ARGFRAME PSTACK, 0, STACK
        ARGFRAME XSTACK, 9, STACK
        ARGFRAME IOVERLAY, 0, STATIC
        ARGFRAME DOVERLAY, 0, STATIC
        FUNCALL ZMacReset, MAC_MlmeSetReq
        LOCFRAME ISTACK, 0, STACK
        LOCFRAME PSTACK, 0, STACK
        LOCFRAME XSTACK, 9, STACK
        LOCFRAME IOVERLAY, 0, STATIC
        LOCFRAME DOVERLAY, 0, STATIC
        ARGFRAME ISTACK, 0, STACK
        ARGFRAME PSTACK, 0, STACK
        ARGFRAME XSTACK, 9, STACK
        ARGFRAME IOVERLAY, 0, STATIC
        ARGFRAME DOVERLAY, 0, STATIC
        FUNCALL ZMacReset, MAC_MlmeSetReq
        LOCFRAME ISTACK, 0, STACK
        LOCFRAME PSTACK, 0, STACK
        LOCFRAME XSTACK, 9, STACK
        LOCFRAME IOVERLAY, 0, STATIC
        LOCFRAME DOVERLAY, 0, STATIC
        ARGFRAME ISTACK, 0, STACK
        ARGFRAME PSTACK, 0, STACK
        ARGFRAME XSTACK, 9, STACK
        ARGFRAME IOVERLAY, 0, STATIC
        ARGFRAME DOVERLAY, 0, STATIC
        FUNCALL ZMacReset, osal_mem_free
        LOCFRAME ISTACK, 0, STACK
        LOCFRAME PSTACK, 0, STACK
        LOCFRAME XSTACK, 9, STACK
        LOCFRAME IOVERLAY, 0, STATIC
        LOCFRAME DOVERLAY, 0, STATIC
        ARGFRAME ISTACK, 0, STACK
        ARGFRAME PSTACK, 0, STACK
        ARGFRAME XSTACK, 9, STACK
        ARGFRAME IOVERLAY, 0, STATIC
        ARGFRAME DOVERLAY, 0, STATIC
        MOV     A,#-0x8
        LCALL   ?FUNC_ENTER_XDATA
        CFI DPH0 load(1, XDATA, add(CFA_XSP16, literal(-1)))
        CFI DPL0 load(1, XDATA, add(CFA_XSP16, literal(-2)))
        CFI ?RET_HIGH load(1, XDATA, add(CFA_XSP16, literal(-3)))
        CFI ?RET_LOW load(1, XDATA, add(CFA_XSP16, literal(-4)))
        CFI R7 load(1, XDATA, add(CFA_XSP16, literal(-5)))
        CFI V0 load(1, XDATA, add(CFA_XSP16, literal(-6)))
        CFI VB load(1, XDATA, add(CFA_XSP16, literal(-7)))
        CFI R6 load(1, XDATA, add(CFA_XSP16, literal(-8)))
        CFI CFA_SP SP+0
        CFI CFA_XSP16 add(XSP16, 8)
        ; Saved register size: 8
        ; Auto size: 1
        MOV     A,#-0x1
        LCALL   ?ALLOC_XSTACK8
        CFI CFA_XSP16 add(XSP16, 9)
//  149   byte stat;
//  150   byte value;
//  151 
//  152   stat = MAC_MlmeResetReq( SetDefaultPIB );
        ; Setup parameters for call to function MAC_MlmeResetReq
        LCALL   ??MAC_MlmeResetReq?relay
        MOV     A,R1
        MOV     R6,A
//  153 
//  154   // Don't send PAN ID conflict
//  155   value = FALSE;
        CLR     A
        MOV     DPL,?XSP + 0
        MOV     DPH,?XSP + 1
        MOVX    @DPTR,A
//  156   MAC_MlmeSetReq( MAC_ASSOCIATED_PAN_COORD, &value );
        ; Setup parameters for call to function MAC_MlmeSetReq
        MOV     R2,DPL
        MOV     R3,DPH
        MOV     R1,#0x56
        LCALL   ??MAC_MlmeSetReq?relay
//  157   MAC_MlmeSetReq( MAC_EXTENDED_ADDRESS, &aExtendedAddress );
        ; Setup parameters for call to function MAC_MlmeSetReq
        MOV     R2,#(aExtendedAddress & 0xff)
        MOV     R3,#((aExtendedAddress >> 8) & 0xff)
        MOV     R1,#-0x1e
        LCALL   ??MAC_MlmeSetReq?relay
//  158 
//  159   if (ZMac_ScanBuf)
        MOV     DPTR,#ZMac_ScanBuf
        MOVX    A,@DPTR
        JNZ     ??ZMacReset_0
        INC     DPTR
        MOVX    A,@DPTR
??ZMacReset_0:
        JZ      ??ZMacReset_1
//  160   {
//  161     osal_mem_free(ZMac_ScanBuf);
        ; Setup parameters for call to function osal_mem_free
        MOV     DPTR,#ZMac_ScanBuf
        MOVX    A,@DPTR
        MOV     R2,A
        INC     DPTR
        MOVX    A,@DPTR
        MOV     R3,A
        LCALL   ??osal_mem_free?relay
//  162     ZMac_ScanBuf = NULL;
        MOV     DPTR,#ZMac_ScanBuf
        CLR     A
        MOVX    @DPTR,A
        INC     DPTR
        MOVX    @DPTR,A
//  163   }
//  164 
//  165   return ( stat );
??ZMacReset_1:
        MOV     A,R6
        MOV     R1,A
        SJMP    ?Subroutine6
        CFI EndBlock cfiBlock3
//  166 }
//  167 
//  168 
//  169 /********************************************************************************************************
//  170  * @fn      ZMacGetReq
//  171  *
//  172  * @brief   Read a MAC PIB attribute.
//  173  *
//  174  * @param   attr - PIB attribute to get
//  175  * @param   value - pointer to the buffer to store the attribute
//  176  *
//  177  * @return  status
//  178  ********************************************************************************************************/

        RSEG NEAR_CODE:CODE:NOROOT(0)
//  179 ROOT uint8 ZMacGetReq( uint8 attr, uint8 *value )
ZMacGetReq:
        CFI Block cfiBlock4 Using cfiCommon0
        CFI Function ZMacGetReq
//  180 {
        FUNCALL ZMacGetReq, osal_cpyExtAddr
        LOCFRAME ISTACK, 2, STACK
        LOCFRAME PSTACK, 0, STACK
        LOCFRAME XSTACK, 0, STACK
        LOCFRAME IOVERLAY, 0, STATIC
        LOCFRAME DOVERLAY, 0, STATIC
        ARGFRAME ISTACK, 2, STACK
        ARGFRAME PSTACK, 0, STACK
        ARGFRAME XSTACK, 0, STACK
        ARGFRAME IOVERLAY, 0, STATIC
        ARGFRAME DOVERLAY, 0, STATIC
        FUNCALL ZMacGetReq, MAC_MlmeGetReq
        LOCFRAME ISTACK, 2, STACK
        LOCFRAME PSTACK, 0, STACK
        LOCFRAME XSTACK, 0, STACK
        LOCFRAME IOVERLAY, 0, STATIC
        LOCFRAME DOVERLAY, 0, STATIC
        ARGFRAME ISTACK, 2, STACK
        ARGFRAME PSTACK, 0, STACK
        ARGFRAME XSTACK, 0, STACK
        ARGFRAME IOVERLAY, 0, STATIC
        ARGFRAME DOVERLAY, 0, STATIC
        PUSH    DPL
        CFI DPL0 Frame(CFA_SP, 3)
        CFI CFA_SP SP+-3
        PUSH    DPH
        CFI DPH0 Frame(CFA_SP, 4)
        CFI CFA_SP SP+-4
        ; Saved register size: 2
        ; Auto size: 0
//  181   if ( attr == ZMacExtAddr )
        MOV     A,#-0x1e
        XRL     A,R1
        JNZ     ??ZMacGetReq_0
//  182   {
//  183     osal_cpyExtAddr( value, &aExtendedAddress );
        ; Setup parameters for call to function osal_cpyExtAddr
        MOV     R4,#(aExtendedAddress & 0xff)
        MOV     R5,#((aExtendedAddress >> 8) & 0xff)
        LCALL   ??osal_cpyExtAddr?relay
//  184     return ZMacSuccess;
        MOV     R1,#0x0
        SJMP    ??ZMacGetReq_1
//  185   }
//  186 
//  187   return (ZMacStatus_t) MAC_MlmeGetReq( attr, value );
??ZMacGetReq_0:
        ; Setup parameters for call to function MAC_MlmeGetReq
        LCALL   ??MAC_MlmeGetReq?relay
??ZMacGetReq_1:
        LJMP    ??Subroutine7_0
        CFI EndBlock cfiBlock4
//  188 }
//  189 
//  190 
//  191 /********************************************************************************************************
//  192  * @fn      ZMacSetReq
//  193  *
//  194  * @brief   Write a MAC PIB attribute.
//  195  *
//  196  * @param   attr - PIB attribute to Set
//  197  * @param   value - pointer to the data
//  198  *
//  199  * @return  status
//  200  ********************************************************************************************************/

        RSEG NEAR_CODE:CODE:NOROOT(0)
//  201 ROOT uint8 ZMacSetReq( uint8 attr, byte *value )
ZMacSetReq:
        CFI Block cfiBlock5 Using cfiCommon0
        CFI Function ZMacSetReq
//  202 {
        FUNCALL ZMacSetReq, osal_cpyExtAddr
        LOCFRAME ISTACK, 0, STACK
        LOCFRAME PSTACK, 0, STACK
        LOCFRAME XSTACK, 8, STACK
        LOCFRAME IOVERLAY, 0, STATIC
        LOCFRAME DOVERLAY, 0, STATIC
        ARGFRAME ISTACK, 0, STACK
        ARGFRAME PSTACK, 0, STACK
        ARGFRAME XSTACK, 8, STACK
        ARGFRAME IOVERLAY, 0, STATIC
        ARGFRAME DOVERLAY, 0, STATIC
        FUNCALL ZMacSetReq, MAC_MlmeSetReq
        LOCFRAME ISTACK, 0, STACK
        LOCFRAME PSTACK, 0, STACK
        LOCFRAME XSTACK, 8, STACK
        LOCFRAME IOVERLAY, 0, STATIC
        LOCFRAME DOVERLAY, 0, STATIC
        ARGFRAME ISTACK, 0, STACK
        ARGFRAME PSTACK, 0, STACK
        ARGFRAME XSTACK, 8, STACK
        ARGFRAME IOVERLAY, 0, STATIC
        ARGFRAME DOVERLAY, 0, STATIC
        MOV     A,#-0x8
        LCALL   ?FUNC_ENTER_XDATA
        CFI DPH0 load(1, XDATA, add(CFA_XSP16, literal(-1)))
        CFI DPL0 load(1, XDATA, add(CFA_XSP16, literal(-2)))
        CFI ?RET_HIGH load(1, XDATA, add(CFA_XSP16, literal(-3)))
        CFI ?RET_LOW load(1, XDATA, add(CFA_XSP16, literal(-4)))
        CFI R7 load(1, XDATA, add(CFA_XSP16, literal(-5)))
        CFI V0 load(1, XDATA, add(CFA_XSP16, literal(-6)))
        CFI VB load(1, XDATA, add(CFA_XSP16, literal(-7)))
        CFI R6 load(1, XDATA, add(CFA_XSP16, literal(-8)))
        CFI CFA_SP SP+0
        CFI CFA_XSP16 add(XSP16, 8)
        ; Saved register size: 8
        ; Auto size: 0
        MOV     ?V0 + 0,R1
        MOV     A,R2
        MOV     R6,A
        MOV     A,R3
        MOV     R7,A
//  203   if ( attr == ZMacExtAddr )
        MOV     A,#-0x1e
        XRL     A,?V0 + 0
        JNZ     ??ZMacSetReq_0
//  204   {
//  205     osal_cpyExtAddr( &aExtendedAddress, value );
        ; Setup parameters for call to function osal_cpyExtAddr
        MOV     A,R6
        MOV     R4,A
        MOV     A,R7
        MOV     R5,A
        MOV     R2,#(aExtendedAddress & 0xff)
        MOV     R3,#((aExtendedAddress >> 8) & 0xff)
        LCALL   ??osal_cpyExtAddr?relay
//  206   }
//  207 
//  208   return (ZMacStatus_t) MAC_MlmeSetReq( attr, value );
??ZMacSetReq_0:
        ; Setup parameters for call to function MAC_MlmeSetReq
        MOV     A,R6
        MOV     R2,A
        MOV     A,R7
        MOV     R3,A
        MOV     R1,?V0 + 0
        LCALL   ??MAC_MlmeSetReq?relay
        LJMP    ??Subroutine6_0
        CFI EndBlock cfiBlock5
//  209 }
//  210 
//  211 /********************************************************************************************************
//  212  * @fn      ZMacAssociateReq
//  213  *
//  214  * @brief   Request an association with a coordinator.
//  215  *
//  216  * @param   structure with info need to associate.
//  217  *
//  218  * @return  status
//  219  ********************************************************************************************************/

        RSEG NEAR_CODE:CODE:NOROOT(0)
//  220 ROOT uint8 ZMacAssociateReq( ZMacAssociateReq_t *pData )
ZMacAssociateReq:
        CFI Block cfiBlock6 Using cfiCommon0
        CFI Function ZMacAssociateReq
//  221 {
        FUNCALL ZMacAssociateReq, MAC_MlmeAssociateReq
        LOCFRAME ISTACK, 2, STACK
        LOCFRAME PSTACK, 0, STACK
        LOCFRAME XSTACK, 0, STACK
        LOCFRAME IOVERLAY, 0, STATIC
        LOCFRAME DOVERLAY, 0, STATIC
        ARGFRAME ISTACK, 2, STACK
        ARGFRAME PSTACK, 0, STACK
        ARGFRAME XSTACK, 0, STACK
        ARGFRAME IOVERLAY, 0, STATIC
        ARGFRAME DOVERLAY, 0, STATIC
        PUSH    DPL
        CFI DPL0 Frame(CFA_SP, 3)
        CFI CFA_SP SP+-3
        PUSH    DPH
        CFI DPH0 Frame(CFA_SP, 4)
        CFI CFA_SP SP+-4
        ; Saved register size: 2
        ; Auto size: 0
//  222   /* Right now, set security to zero */
//  223   pData->Sec.SecurityLevel = false;
        MOV     A,R2
        ADD     A,#0x16
        LCALL   ?Subroutine2
//  224 
//  225   MAC_MlmeAssociateReq ( (macMlmeAssociateReq_t *)pData);
??CrossCallReturnLabel_5:
        ; Setup parameters for call to function MAC_MlmeAssociateReq
        LCALL   ??MAC_MlmeAssociateReq?relay
//  226   return ( ZMacSuccess );
        LJMP    ?Subroutine7
        CFI EndBlock cfiBlock6
//  227 }

        RSEG NEAR_CODE:CODE:NOROOT(0)
?Subroutine2:
        CFI Block cfiCond7 Using cfiCommon0
        CFI NoFunction
        CFI Conditional ??CrossCallReturnLabel_5
        CFI DPL0 Frame(CFA_SP, 3)
        CFI DPH0 Frame(CFA_SP, 4)
        CFI CFA_SP SP+-4
        CFI Block cfiCond8 Using cfiCommon0
        CFI (cfiCond8) NoFunction
        CFI (cfiCond8) Conditional ??CrossCallReturnLabel_6
        CFI (cfiCond8) DPL0 Frame(CFA_SP, 3)
        CFI (cfiCond8) DPH0 Frame(CFA_SP, 4)
        CFI (cfiCond8) CFA_SP SP+-4
        CFI Block cfiCond9 Using cfiCommon0
        CFI (cfiCond9) NoFunction
        CFI (cfiCond9) Conditional ??CrossCallReturnLabel_9
        CFI (cfiCond9) R6 load(1, XDATA, add(CFA_XSP16, literal(-11)))
        CFI (cfiCond9) VB load(1, XDATA, add(CFA_XSP16, literal(-10)))
        CFI (cfiCond9) V0 load(1, XDATA, add(CFA_XSP16, literal(-9)))
        CFI (cfiCond9) V1 load(1, XDATA, add(CFA_XSP16, literal(-8)))
        CFI (cfiCond9) V2 load(1, XDATA, add(CFA_XSP16, literal(-7)))
        CFI (cfiCond9) V3 load(1, XDATA, add(CFA_XSP16, literal(-6)))
        CFI (cfiCond9) R7 load(1, XDATA, add(CFA_XSP16, literal(-5)))
        CFI (cfiCond9) ?RET_LOW load(1, XDATA, add(CFA_XSP16, literal(-4)))
        CFI (cfiCond9) ?RET_HIGH load(1, XDATA, add(CFA_XSP16, literal(-3)))
        CFI (cfiCond9) DPL0 load(1, XDATA, add(CFA_XSP16, literal(-2)))
        CFI (cfiCond9) DPH0 load(1, XDATA, add(CFA_XSP16, literal(-1)))
        CFI (cfiCond9) CFA_SP SP+0
        CFI (cfiCond9) CFA_XSP16 add(XSP16, 11)
        CFI Block cfiCond10 Using cfiCommon0
        CFI (cfiCond10) NoFunction
        CFI (cfiCond10) Conditional ??CrossCallReturnLabel_10
        CFI (cfiCond10) R6 load(1, XDATA, add(CFA_XSP16, literal(-11)))
        CFI (cfiCond10) VB load(1, XDATA, add(CFA_XSP16, literal(-10)))
        CFI (cfiCond10) V0 load(1, XDATA, add(CFA_XSP16, literal(-9)))
        CFI (cfiCond10) V1 load(1, XDATA, add(CFA_XSP16, literal(-8)))
        CFI (cfiCond10) V2 load(1, XDATA, add(CFA_XSP16, literal(-7)))
        CFI (cfiCond10) V3 load(1, XDATA, add(CFA_XSP16, literal(-6)))
        CFI (cfiCond10) R7 load(1, XDATA, add(CFA_XSP16, literal(-5)))
        CFI (cfiCond10) ?RET_LOW load(1, XDATA, add(CFA_XSP16, literal(-4)))
        CFI (cfiCond10) ?RET_HIGH load(1, XDATA, add(CFA_XSP16, literal(-3)))
        CFI (cfiCond10) DPL0 load(1, XDATA, add(CFA_XSP16, literal(-2)))
        CFI (cfiCond10) DPH0 load(1, XDATA, add(CFA_XSP16, literal(-1)))
        CFI (cfiCond10) CFA_SP SP+0
        CFI (cfiCond10) CFA_XSP16 add(XSP16, 11)
        CFI Block cfiPicker11 Using cfiCommon1
        CFI (cfiPicker11) NoFunction
        CFI (cfiPicker11) Picker
        MOV     DPL,A
        MOV     A,R3
        CFI Block cfiCond12 Using cfiCommon0
        CFI (cfiCond12) NoFunction
        CFI (cfiCond12) Conditional ??CrossCallReturnLabel_7
        CFI (cfiCond12) R6 load(1, XDATA, add(CFA_XSP16, literal(-11)))
        CFI (cfiCond12) VB load(1, XDATA, add(CFA_XSP16, literal(-10)))
        CFI (cfiCond12) V0 load(1, XDATA, add(CFA_XSP16, literal(-9)))
        CFI (cfiCond12) V1 load(1, XDATA, add(CFA_XSP16, literal(-8)))
        CFI (cfiCond12) V2 load(1, XDATA, add(CFA_XSP16, literal(-7)))
        CFI (cfiCond12) V3 load(1, XDATA, add(CFA_XSP16, literal(-6)))
        CFI (cfiCond12) R7 load(1, XDATA, add(CFA_XSP16, literal(-5)))
        CFI (cfiCond12) ?RET_LOW load(1, XDATA, add(CFA_XSP16, literal(-4)))
        CFI (cfiCond12) ?RET_HIGH load(1, XDATA, add(CFA_XSP16, literal(-3)))
        CFI (cfiCond12) DPL0 load(1, XDATA, add(CFA_XSP16, literal(-2)))
        CFI (cfiCond12) DPH0 load(1, XDATA, add(CFA_XSP16, literal(-1)))
        CFI (cfiCond12) CFA_SP SP+0
        CFI (cfiCond12) CFA_XSP16 add(XSP16, 11)
        CFI Block cfiCond13 Using cfiCommon0
        CFI (cfiCond13) NoFunction
        CFI (cfiCond13) Conditional ??CrossCallReturnLabel_8
        CFI (cfiCond13) R6 load(1, XDATA, add(CFA_XSP16, literal(-8)))
        CFI (cfiCond13) VB load(1, XDATA, add(CFA_XSP16, literal(-7)))
        CFI (cfiCond13) V0 load(1, XDATA, add(CFA_XSP16, literal(-6)))
        CFI (cfiCond13) R7 load(1, XDATA, add(CFA_XSP16, literal(-5)))
        CFI (cfiCond13) ?RET_LOW load(1, XDATA, add(CFA_XSP16, literal(-4)))
        CFI (cfiCond13) ?RET_HIGH load(1, XDATA, add(CFA_XSP16, literal(-3)))
        CFI (cfiCond13) DPL0 load(1, XDATA, add(CFA_XSP16, literal(-2)))
        CFI (cfiCond13) DPH0 load(1, XDATA, add(CFA_XSP16, literal(-1)))
        CFI (cfiCond13) CFA_SP SP+0
        CFI (cfiCond13) CFA_XSP16 add(XSP16, 9)
??Subroutine2_0:
        LCALL   ?Subroutine5
??CrossCallReturnLabel_21:
        RET
        CFI EndBlock cfiCond7
        CFI EndBlock cfiCond8
        CFI EndBlock cfiCond9
        CFI EndBlock cfiCond10
        CFI EndBlock cfiPicker11
        CFI EndBlock cfiCond12
        CFI EndBlock cfiCond13
//  228 
//  229 /********************************************************************************************************
//  230  * @fn      ZMacAssociateRsp
//  231  *
//  232  * @brief   Request to send an association response message.
//  233  *
//  234  * @param   structure with associate response and info needed to send it.
//  235  *
//  236  * @return  status
//  237  ********************************************************************************************************/

        RSEG NEAR_CODE:CODE:NOROOT(0)
//  238 ROOT uint8 ZMacAssociateRsp( ZMacAssociateRsp_t *pData )
ZMacAssociateRsp:
        CFI Block cfiBlock14 Using cfiCommon0
        CFI Function ZMacAssociateRsp
//  239 {
        FUNCALL ZMacAssociateRsp, MAC_MlmeAssociateRsp
        LOCFRAME ISTACK, 2, STACK
        LOCFRAME PSTACK, 0, STACK
        LOCFRAME XSTACK, 0, STACK
        LOCFRAME IOVERLAY, 0, STATIC
        LOCFRAME DOVERLAY, 0, STATIC
        ARGFRAME ISTACK, 2, STACK
        ARGFRAME PSTACK, 0, STACK
        ARGFRAME XSTACK, 0, STACK
        ARGFRAME IOVERLAY, 0, STATIC
        ARGFRAME DOVERLAY, 0, STATIC
        PUSH    DPL
        CFI DPL0 Frame(CFA_SP, 3)
        CFI CFA_SP SP+-3
        PUSH    DPH
        CFI DPH0 Frame(CFA_SP, 4)
        CFI CFA_SP SP+-4
        ; Saved register size: 2
        ; Auto size: 0
//  240   /* Right now, set security to zero */
//  241   pData->Sec.SecurityLevel = false;
        LCALL   ?Subroutine0
//  242 
//  243   MAC_MlmeAssociateRsp( (macMlmeAssociateRsp_t *) pData );
??CrossCallReturnLabel_0:
        ; Setup parameters for call to function MAC_MlmeAssociateRsp
        LCALL   ??MAC_MlmeAssociateRsp?relay
//  244   return ( ZMacSuccess );
        LJMP    ?Subroutine7
        CFI EndBlock cfiBlock14
//  245 }
//  246 
//  247 /********************************************************************************************************
//  248  * @fn      ZMacDisassociateReq
//  249  *
//  250  * @brief   Request to send a disassociate request message.
//  251  *
//  252  * @param   structure with info need send it.
//  253  *
//  254  * @return  status
//  255  ********************************************************************************************************/

        RSEG NEAR_CODE:CODE:NOROOT(0)
//  256 ROOT uint8 ZMacDisassociateReq( ZMacDisassociateReq_t *pData )
ZMacDisassociateReq:
        CFI Block cfiBlock15 Using cfiCommon0
        CFI Function ZMacDisassociateReq
//  257 {
        FUNCALL ZMacDisassociateReq, MAC_MlmeDisassociateReq
        LOCFRAME ISTACK, 2, STACK
        LOCFRAME PSTACK, 0, STACK
        LOCFRAME XSTACK, 0, STACK
        LOCFRAME IOVERLAY, 0, STATIC
        LOCFRAME DOVERLAY, 0, STATIC
        ARGFRAME ISTACK, 2, STACK
        ARGFRAME PSTACK, 0, STACK
        ARGFRAME XSTACK, 0, STACK
        ARGFRAME IOVERLAY, 0, STATIC
        ARGFRAME DOVERLAY, 0, STATIC
        PUSH    DPL
        CFI DPL0 Frame(CFA_SP, 3)
        CFI CFA_SP SP+-3
        PUSH    DPH
        CFI DPH0 Frame(CFA_SP, 4)
        CFI CFA_SP SP+-4
        ; Saved register size: 2
        ; Auto size: 0
//  258   /* Right now, set security to zero */
//  259   pData->Sec.SecurityLevel = false;
        MOV     A,R2
        ADD     A,#0x15
        LCALL   ?Subroutine2
//  260 
//  261   MAC_MlmeDisassociateReq( (macMlmeDisassociateReq_t *)pData);
??CrossCallReturnLabel_6:
        ; Setup parameters for call to function MAC_MlmeDisassociateReq
        LCALL   ??MAC_MlmeDisassociateReq?relay
//  262   return ( ZMacSuccess );
        LJMP    ?Subroutine7
        CFI EndBlock cfiBlock15
//  263 }
//  264 
//  265 /********************************************************************************************************
//  266  * @fn      ZMacOrphanRsp
//  267  *
//  268  * @brief   Allows next higher layer to respond to an orphan indication message.
//  269  *
//  270  * @param   structure with info need send it.
//  271  *
//  272  * @return  status
//  273  ********************************************************************************************************/

        RSEG NEAR_CODE:CODE:NOROOT(0)
//  274 ROOT uint8 ZMacOrphanRsp( ZMacOrphanRsp_t *pData )
ZMacOrphanRsp:
        CFI Block cfiBlock16 Using cfiCommon0
        CFI Function ZMacOrphanRsp
//  275 {
        FUNCALL ZMacOrphanRsp, MAC_MlmeOrphanRsp
        LOCFRAME ISTACK, 2, STACK
        LOCFRAME PSTACK, 0, STACK
        LOCFRAME XSTACK, 0, STACK
        LOCFRAME IOVERLAY, 0, STATIC
        LOCFRAME DOVERLAY, 0, STATIC
        ARGFRAME ISTACK, 2, STACK
        ARGFRAME PSTACK, 0, STACK
        ARGFRAME XSTACK, 0, STACK
        ARGFRAME IOVERLAY, 0, STATIC
        ARGFRAME DOVERLAY, 0, STATIC
        PUSH    DPL
        CFI DPL0 Frame(CFA_SP, 3)
        CFI CFA_SP SP+-3
        PUSH    DPH
        CFI DPH0 Frame(CFA_SP, 4)
        CFI CFA_SP SP+-4
        ; Saved register size: 2
        ; Auto size: 0
//  276   /* Right now, set security to zero */
//  277   pData->Sec.SecurityLevel = false;
        LCALL   ?Subroutine0
//  278 
//  279   MAC_MlmeOrphanRsp( (macMlmeOrphanRsp_t *)pData);
??CrossCallReturnLabel_1:
        ; Setup parameters for call to function MAC_MlmeOrphanRsp
        LCALL   ??MAC_MlmeOrphanRsp?relay
//  280   return ( ZMacSuccess );
        LJMP    ?Subroutine7
        CFI EndBlock cfiBlock16
//  281 }

        RSEG NEAR_CODE:CODE:NOROOT(0)
?Subroutine0:
        CFI Block cfiCond17 Using cfiCommon0
        CFI NoFunction
        CFI Conditional ??CrossCallReturnLabel_0
        CFI DPL0 Frame(CFA_SP, 3)
        CFI DPH0 Frame(CFA_SP, 4)
        CFI CFA_SP SP+-4
        CFI Block cfiCond18 Using cfiCommon0
        CFI (cfiCond18) NoFunction
        CFI (cfiCond18) Conditional ??CrossCallReturnLabel_1
        CFI (cfiCond18) DPL0 Frame(CFA_SP, 3)
        CFI (cfiCond18) DPH0 Frame(CFA_SP, 4)
        CFI (cfiCond18) CFA_SP SP+-4
        CFI Block cfiCond19 Using cfiCommon0
        CFI (cfiCond19) NoFunction
        CFI (cfiCond19) Conditional ??CrossCallReturnLabel_2
        CFI (cfiCond19) DPL0 Frame(CFA_SP, 3)
        CFI (cfiCond19) DPH0 Frame(CFA_SP, 4)
        CFI (cfiCond19) CFA_SP SP+-4
        CFI Block cfiPicker20 Using cfiCommon1
        CFI (cfiPicker20) NoFunction
        CFI (cfiPicker20) Picker
        MOV     A,R2
        ADD     A,#0x13
        MOV     DPL,A
        MOV     A,R3
        LCALL   ?Subroutine5
??CrossCallReturnLabel_19:
        RET
        CFI EndBlock cfiCond17
        CFI EndBlock cfiCond18
        CFI EndBlock cfiCond19
        CFI EndBlock cfiPicker20

        RSEG NEAR_CODE:CODE:NOROOT(0)
?Subroutine5:
        CFI Block cfiCond21 Using cfiCommon0
        CFI NoFunction
        CFI Conditional ??CrossCallReturnLabel_21, ??CrossCallReturnLabel_5
        CFI DPL0 Frame(CFA_SP, 3)
        CFI DPH0 Frame(CFA_SP, 4)
        CFI CFA_SP SP+-4
        CFI Block cfiCond22 Using cfiCommon0
        CFI (cfiCond22) NoFunction
        CFI (cfiCond22) Conditional ??CrossCallReturnLabel_21, ??CrossCallReturnLabel_6
        CFI (cfiCond22) DPL0 Frame(CFA_SP, 3)
        CFI (cfiCond22) DPH0 Frame(CFA_SP, 4)
        CFI (cfiCond22) CFA_SP SP+-4
        CFI Block cfiCond23 Using cfiCommon0
        CFI (cfiCond23) NoFunction
        CFI (cfiCond23) Conditional ??CrossCallReturnLabel_21, ??CrossCallReturnLabel_9
        CFI (cfiCond23) R6 load(1, XDATA, add(CFA_XSP16, literal(-11)))
        CFI (cfiCond23) VB load(1, XDATA, add(CFA_XSP16, literal(-10)))
        CFI (cfiCond23) V0 load(1, XDATA, add(CFA_XSP16, literal(-9)))
        CFI (cfiCond23) V1 load(1, XDATA, add(CFA_XSP16, literal(-8)))
        CFI (cfiCond23) V2 load(1, XDATA, add(CFA_XSP16, literal(-7)))
        CFI (cfiCond23) V3 load(1, XDATA, add(CFA_XSP16, literal(-6)))
        CFI (cfiCond23) R7 load(1, XDATA, add(CFA_XSP16, literal(-5)))
        CFI (cfiCond23) ?RET_LOW load(1, XDATA, add(CFA_XSP16, literal(-4)))
        CFI (cfiCond23) ?RET_HIGH load(1, XDATA, add(CFA_XSP16, literal(-3)))
        CFI (cfiCond23) DPL0 load(1, XDATA, add(CFA_XSP16, literal(-2)))
        CFI (cfiCond23) DPH0 load(1, XDATA, add(CFA_XSP16, literal(-1)))
        CFI (cfiCond23) CFA_SP SP+0
        CFI (cfiCond23) CFA_XSP16 add(XSP16, 11)
        CFI Block cfiCond24 Using cfiCommon0
        CFI (cfiCond24) NoFunction
        CFI (cfiCond24) Conditional ??CrossCallReturnLabel_21, ??CrossCallReturnLabel_10
        CFI (cfiCond24) R6 load(1, XDATA, add(CFA_XSP16, literal(-11)))
        CFI (cfiCond24) VB load(1, XDATA, add(CFA_XSP16, literal(-10)))
        CFI (cfiCond24) V0 load(1, XDATA, add(CFA_XSP16, literal(-9)))
        CFI (cfiCond24) V1 load(1, XDATA, add(CFA_XSP16, literal(-8)))
        CFI (cfiCond24) V2 load(1, XDATA, add(CFA_XSP16, literal(-7)))
        CFI (cfiCond24) V3 load(1, XDATA, add(CFA_XSP16, literal(-6)))
        CFI (cfiCond24) R7 load(1, XDATA, add(CFA_XSP16, literal(-5)))
        CFI (cfiCond24) ?RET_LOW load(1, XDATA, add(CFA_XSP16, literal(-4)))
        CFI (cfiCond24) ?RET_HIGH load(1, XDATA, add(CFA_XSP16, literal(-3)))
        CFI (cfiCond24) DPL0 load(1, XDATA, add(CFA_XSP16, literal(-2)))
        CFI (cfiCond24) DPH0 load(1, XDATA, add(CFA_XSP16, literal(-1)))
        CFI (cfiCond24) CFA_SP SP+0
        CFI (cfiCond24) CFA_XSP16 add(XSP16, 11)
        CFI Block cfiCond25 Using cfiCommon0
        CFI (cfiCond25) NoFunction
        CFI (cfiCond25) Conditional ??CrossCallReturnLabel_21, ??CrossCallReturnLabel_7
        CFI (cfiCond25) R6 load(1, XDATA, add(CFA_XSP16, literal(-11)))
        CFI (cfiCond25) VB load(1, XDATA, add(CFA_XSP16, literal(-10)))
        CFI (cfiCond25) V0 load(1, XDATA, add(CFA_XSP16, literal(-9)))
        CFI (cfiCond25) V1 load(1, XDATA, add(CFA_XSP16, literal(-8)))
        CFI (cfiCond25) V2 load(1, XDATA, add(CFA_XSP16, literal(-7)))
        CFI (cfiCond25) V3 load(1, XDATA, add(CFA_XSP16, literal(-6)))
        CFI (cfiCond25) R7 load(1, XDATA, add(CFA_XSP16, literal(-5)))
        CFI (cfiCond25) ?RET_LOW load(1, XDATA, add(CFA_XSP16, literal(-4)))
        CFI (cfiCond25) ?RET_HIGH load(1, XDATA, add(CFA_XSP16, literal(-3)))
        CFI (cfiCond25) DPL0 load(1, XDATA, add(CFA_XSP16, literal(-2)))
        CFI (cfiCond25) DPH0 load(1, XDATA, add(CFA_XSP16, literal(-1)))
        CFI (cfiCond25) CFA_SP SP+0
        CFI (cfiCond25) CFA_XSP16 add(XSP16, 11)
        CFI Block cfiCond26 Using cfiCommon0
        CFI (cfiCond26) NoFunction
        CFI (cfiCond26) Conditional ??CrossCallReturnLabel_21, ??CrossCallReturnLabel_8
        CFI (cfiCond26) R6 load(1, XDATA, add(CFA_XSP16, literal(-8)))
        CFI (cfiCond26) VB load(1, XDATA, add(CFA_XSP16, literal(-7)))
        CFI (cfiCond26) V0 load(1, XDATA, add(CFA_XSP16, literal(-6)))
        CFI (cfiCond26) R7 load(1, XDATA, add(CFA_XSP16, literal(-5)))
        CFI (cfiCond26) ?RET_LOW load(1, XDATA, add(CFA_XSP16, literal(-4)))
        CFI (cfiCond26) ?RET_HIGH load(1, XDATA, add(CFA_XSP16, literal(-3)))
        CFI (cfiCond26) DPL0 load(1, XDATA, add(CFA_XSP16, literal(-2)))
        CFI (cfiCond26) DPH0 load(1, XDATA, add(CFA_XSP16, literal(-1)))
        CFI (cfiCond26) CFA_SP SP+0
        CFI (cfiCond26) CFA_XSP16 add(XSP16, 9)
        CFI Block cfiCond27 Using cfiCommon0
        CFI (cfiCond27) NoFunction
        CFI (cfiCond27) Conditional ??CrossCallReturnLabel_19, ??CrossCallReturnLabel_0
        CFI (cfiCond27) DPL0 Frame(CFA_SP, 3)
        CFI (cfiCond27) DPH0 Frame(CFA_SP, 4)
        CFI (cfiCond27) CFA_SP SP+-4
        CFI Block cfiCond28 Using cfiCommon0
        CFI (cfiCond28) NoFunction
        CFI (cfiCond28) Conditional ??CrossCallReturnLabel_19, ??CrossCallReturnLabel_1
        CFI (cfiCond28) DPL0 Frame(CFA_SP, 3)
        CFI (cfiCond28) DPH0 Frame(CFA_SP, 4)
        CFI (cfiCond28) CFA_SP SP+-4
        CFI Block cfiCond29 Using cfiCommon0
        CFI (cfiCond29) NoFunction
        CFI (cfiCond29) Conditional ??CrossCallReturnLabel_19, ??CrossCallReturnLabel_2
        CFI (cfiCond29) DPL0 Frame(CFA_SP, 3)
        CFI (cfiCond29) DPH0 Frame(CFA_SP, 4)
        CFI (cfiCond29) CFA_SP SP+-4
        CFI Block cfiCond30 Using cfiCommon0
        CFI (cfiCond30) NoFunction
        CFI (cfiCond30) Conditional ??CrossCallReturnLabel_20, ??CrossCallReturnLabel_3
        CFI (cfiCond30) R6 load(1, XDATA, add(CFA_XSP16, literal(-8)))
        CFI (cfiCond30) VB load(1, XDATA, add(CFA_XSP16, literal(-7)))
        CFI (cfiCond30) V0 load(1, XDATA, add(CFA_XSP16, literal(-6)))
        CFI (cfiCond30) R7 load(1, XDATA, add(CFA_XSP16, literal(-5)))
        CFI (cfiCond30) ?RET_LOW load(1, XDATA, add(CFA_XSP16, literal(-4)))
        CFI (cfiCond30) ?RET_HIGH load(1, XDATA, add(CFA_XSP16, literal(-3)))
        CFI (cfiCond30) DPL0 load(1, XDATA, add(CFA_XSP16, literal(-2)))
        CFI (cfiCond30) DPH0 load(1, XDATA, add(CFA_XSP16, literal(-1)))
        CFI (cfiCond30) CFA_SP SP+0
        CFI (cfiCond30) CFA_XSP16 add(XSP16, 9)
        CFI Block cfiCond31 Using cfiCommon0
        CFI (cfiCond31) NoFunction
        CFI (cfiCond31) Conditional ??CrossCallReturnLabel_20, ??CrossCallReturnLabel_4
        CFI (cfiCond31) R6 load(1, XDATA, add(CFA_XSP16, literal(-13)))
        CFI (cfiCond31) VB load(1, XDATA, add(CFA_XSP16, literal(-12)))
        CFI (cfiCond31) V0 load(1, XDATA, add(CFA_XSP16, literal(-11)))
        CFI (cfiCond31) V1 load(1, XDATA, add(CFA_XSP16, literal(-10)))
        CFI (cfiCond31) V2 load(1, XDATA, add(CFA_XSP16, literal(-9)))
        CFI (cfiCond31) V3 load(1, XDATA, add(CFA_XSP16, literal(-8)))
        CFI (cfiCond31) V4 load(1, XDATA, add(CFA_XSP16, literal(-7)))
        CFI (cfiCond31) V5 load(1, XDATA, add(CFA_XSP16, literal(-6)))
        CFI (cfiCond31) R7 load(1, XDATA, add(CFA_XSP16, literal(-5)))
        CFI (cfiCond31) ?RET_LOW load(1, XDATA, add(CFA_XSP16, literal(-4)))
        CFI (cfiCond31) ?RET_HIGH load(1, XDATA, add(CFA_XSP16, literal(-3)))
        CFI (cfiCond31) DPL0 load(1, XDATA, add(CFA_XSP16, literal(-2)))
        CFI (cfiCond31) DPH0 load(1, XDATA, add(CFA_XSP16, literal(-1)))
        CFI (cfiCond31) CFA_SP SP+0
        CFI (cfiCond31) CFA_XSP16 add(XSP16, 13)
        CFI Block cfiPicker32 Using cfiCommon1
        CFI (cfiPicker32) NoFunction
        CFI (cfiPicker32) Picker
        ADDC    A,#0x0
        MOV     DPH,A
        CLR     A
        MOVX    @DPTR,A
        RET
        CFI EndBlock cfiCond21
        CFI EndBlock cfiCond22
        CFI EndBlock cfiCond23
        CFI EndBlock cfiCond24
        CFI EndBlock cfiCond25
        CFI EndBlock cfiCond26
        CFI EndBlock cfiCond27
        CFI EndBlock cfiCond28
        CFI EndBlock cfiCond29
        CFI EndBlock cfiCond30
        CFI EndBlock cfiCond31
        CFI EndBlock cfiPicker32
//  282 
//  283 /********************************************************************************************************
//  284  * @fn      ZMacRxEnableReq
//  285  *
//  286  * @brief   This function contains timing information that tells the
//  287  *          device when to enable or disable its receiver, in order
//  288  *          to schedule a data transfer between itself and another
//  289  *          device. The information is sent from the upper layers
//  290  *          directly to the MAC sublayer.
//  291  *
//  292  * @param   structure with info need send it.
//  293  *
//  294  * @return  status
//  295  ********************************************************************************************************/

        RSEG NEAR_CODE:CODE:NOROOT(0)
//  296 ROOT uint8 ZMacRxEnableReq( ZMacRxEnableReq_t *pData )
ZMacRxEnableReq:
        CFI Block cfiBlock33 Using cfiCommon0
        CFI Function ZMacRxEnableReq
//  297 {
        ; Saved register size: 0
        ; Auto size: 0
//  298   /* This feature is no longer in the TIMAC */
//  299   return ( ZMacUnsupported );
        MOV     R1,#-0xb
        RET
        CFI EndBlock cfiBlock33
//  300 }
//  301 
//  302 /********************************************************************************************************
//  303  * @fn      ZMacScanReq
//  304  *
//  305  * @brief   This function is called to perform a network scan.
//  306  *
//  307  * @param   param - structure with info need send it.
//  308  *
//  309  * @return  status
//  310  ********************************************************************************************************/

        RSEG NEAR_CODE:CODE:NOROOT(0)
//  311 ROOT uint8 ZMacScanReq( ZMacScanReq_t *pData )
ZMacScanReq:
        CFI Block cfiBlock34 Using cfiCommon0
        CFI Function ZMacScanReq
//  312 {
        FUNCALL ZMacScanReq, osal_mem_alloc
        LOCFRAME ISTACK, 0, STACK
        LOCFRAME PSTACK, 0, STACK
        LOCFRAME XSTACK, 11, STACK
        LOCFRAME IOVERLAY, 0, STATIC
        LOCFRAME DOVERLAY, 0, STATIC
        ARGFRAME ISTACK, 0, STACK
        ARGFRAME PSTACK, 0, STACK
        ARGFRAME XSTACK, 11, STACK
        ARGFRAME IOVERLAY, 0, STATIC
        ARGFRAME DOVERLAY, 0, STATIC
        FUNCALL ZMacScanReq, osal_memset
        LOCFRAME ISTACK, 0, STACK
        LOCFRAME PSTACK, 0, STACK
        LOCFRAME XSTACK, 11, STACK
        LOCFRAME IOVERLAY, 0, STATIC
        LOCFRAME DOVERLAY, 0, STATIC
        ARGFRAME ISTACK, 0, STACK
        ARGFRAME PSTACK, 0, STACK
        ARGFRAME XSTACK, 11, STACK
        ARGFRAME IOVERLAY, 0, STATIC
        ARGFRAME DOVERLAY, 0, STATIC
        FUNCALL ZMacScanReq, osal_mem_alloc
        LOCFRAME ISTACK, 0, STACK
        LOCFRAME PSTACK, 0, STACK
        LOCFRAME XSTACK, 11, STACK
        LOCFRAME IOVERLAY, 0, STATIC
        LOCFRAME DOVERLAY, 0, STATIC
        ARGFRAME ISTACK, 0, STACK
        ARGFRAME PSTACK, 0, STACK
        ARGFRAME XSTACK, 11, STACK
        ARGFRAME IOVERLAY, 0, STATIC
        ARGFRAME DOVERLAY, 0, STATIC
        FUNCALL ZMacScanReq, MAC_MlmeScanReq
        LOCFRAME ISTACK, 0, STACK
        LOCFRAME PSTACK, 0, STACK
        LOCFRAME XSTACK, 11, STACK
        LOCFRAME IOVERLAY, 0, STATIC
        LOCFRAME DOVERLAY, 0, STATIC
        ARGFRAME ISTACK, 0, STACK
        ARGFRAME PSTACK, 0, STACK
        ARGFRAME XSTACK, 11, STACK
        ARGFRAME IOVERLAY, 0, STATIC
        ARGFRAME DOVERLAY, 0, STATIC
        MOV     A,#-0xb
        LCALL   ?FUNC_ENTER_XDATA
        CFI DPH0 load(1, XDATA, add(CFA_XSP16, literal(-1)))
        CFI DPL0 load(1, XDATA, add(CFA_XSP16, literal(-2)))
        CFI ?RET_HIGH load(1, XDATA, add(CFA_XSP16, literal(-3)))
        CFI ?RET_LOW load(1, XDATA, add(CFA_XSP16, literal(-4)))
        CFI R7 load(1, XDATA, add(CFA_XSP16, literal(-5)))
        CFI V3 load(1, XDATA, add(CFA_XSP16, literal(-6)))
        CFI V2 load(1, XDATA, add(CFA_XSP16, literal(-7)))
        CFI V1 load(1, XDATA, add(CFA_XSP16, literal(-8)))
        CFI V0 load(1, XDATA, add(CFA_XSP16, literal(-9)))
        CFI VB load(1, XDATA, add(CFA_XSP16, literal(-10)))
        CFI R6 load(1, XDATA, add(CFA_XSP16, literal(-11)))
        CFI CFA_SP SP+0
        CFI CFA_XSP16 add(XSP16, 11)
        ; Saved register size: 11
        ; Auto size: 0
        MOV     A,R2
        MOV     R6,A
        MOV     A,R3
        MOV     R7,A
//  313   _ScanChannels = pData->ScanChannels;
        MOV     DPL,R6
        MOV     DPH,R7
        MOV     R0,#?V0 + 0
        LCALL   ?L_MOV_X
        MOV     DPTR,#_ScanChannels
        MOV     R0,#?V0 + 0
        LCALL   ?L_MOV_TO_X
//  314 
//  315   /* scan in progress */
//  316   if (ZMac_ScanBuf != NULL)
        MOV     DPTR,#ZMac_ScanBuf
        MOVX    A,@DPTR
        JNZ     ??ZMacScanReq_0
        INC     DPTR
        MOVX    A,@DPTR
??ZMacScanReq_0:
        JZ      ??ZMacScanReq_1
//  317   {
//  318     return MAC_SCAN_IN_PROGRESS;
        MOV     R1,#-0x4
        LJMP    ??ZMacScanReq_2
//  319   }
//  320 
//  321   if (pData->ScanType != ZMAC_ORPHAN_SCAN)
??ZMacScanReq_1:
        MOV     DPL,R6
        MOV     DPH,R7
        INC     DPTR
        INC     DPTR
        INC     DPTR
        INC     DPTR
        MOVX    A,@DPTR
        XRL     A,#0x3
        JNZ     $+5
        LJMP    ??ZMacScanReq_3
//  322   {
//  323     /* Allocate memory depends on the scan type */
//  324     if (pData->ScanType == ZMAC_ED_SCAN)
        MOV     DPL,R6
        MOV     DPH,R7
        INC     DPTR
        INC     DPTR
        INC     DPTR
        INC     DPTR
        MOVX    A,@DPTR
        JNZ     ??ZMacScanReq_4
//  325     {
//  326       if ((ZMac_ScanBuf = osal_mem_alloc(ZMAC_ED_SCAN_MAXCHANNELS)) == NULL)
        ; Setup parameters for call to function osal_mem_alloc
        MOV     R2,#0x1b
        MOV     R3,#0x0
        LCALL   ??osal_mem_alloc?relay
        MOV     ?V0 + 0,R2
        MOV     ?V0 + 1,R3
        MOV     R0,?V0 + 0
        MOV     R1,?V0 + 1
        MOV     DPTR,#ZMac_ScanBuf
        MOV     A,R0
        MOVX    @DPTR,A
        INC     DPTR
        MOV     A,R1
        MOVX    @DPTR,A
        MOV     A,R0
        JNZ     ??ZMacScanReq_5
        MOV     A,R1
??ZMacScanReq_5:
        JNZ     ??ZMacScanReq_6
//  327       {
//  328         return MAC_NO_RESOURCES;
??ZMacScanReq_7:
        MOV     R1,#0x1a
        LJMP    ??ZMacScanReq_2
//  329       }
//  330       osal_memset(ZMac_ScanBuf, 0, ZMAC_ED_SCAN_MAXCHANNELS);
??ZMacScanReq_6:
        ; Setup parameters for call to function osal_memset
        MOV     R4,#0x1b
        MOV     R5,#0x0
        MOV     R1,#0x0
        LCALL   ??osal_memset?relay
//  331       pData->Result.pEnergyDetect = ((uint8*)ZMac_ScanBuf) + MAC_CHAN_11;
        MOV     DPTR,#ZMac_ScanBuf
        MOVX    A,@DPTR
        ADD     A,#0xb
        MOV     R0,A
        INC     DPTR
        MOVX    A,@DPTR
        ADDC    A,#0x0
        MOV     R1,A
        MOV     A,R6
        ADD     A,#0x13
        MOV     DPL,A
        MOV     A,R7
        LCALL   ??Subroutine4_0
??CrossCallReturnLabel_13:
        MOV     A,R0
        MOVX    @DPTR,A
        INC     DPTR
        MOV     A,R1
        MOVX    @DPTR,A
        SJMP    ??ZMacScanReq_3
//  332     }
//  333     else if (pData->MaxResults > 0)
??ZMacScanReq_4:
        MOV     DPL,R6
        MOV     DPH,R7
        INC     DPTR
        INC     DPTR
        INC     DPTR
        INC     DPTR
        INC     DPTR
        INC     DPTR
        INC     DPTR
        MOVX    A,@DPTR
        JZ      ??ZMacScanReq_3
//  334     {
//  335       if ((ZMac_ScanBuf = pData->Result.pPanDescriptor =
//  336            osal_mem_alloc( sizeof( ZMacPanDesc_t ) * pData->MaxResults )) == NULL)
        MOV     A,R6
        ADD     A,#0x13
        MOV     ?V0 + 0,A
        MOV     A,R7
        ADDC    A,#0x0
        MOV     ?V0 + 1,A
        ; Setup parameters for call to function osal_mem_alloc
        MOV     DPL,R6
        MOV     DPH,R7
        INC     DPTR
        INC     DPTR
        INC     DPTR
        INC     DPTR
        INC     DPTR
        INC     DPTR
        INC     DPTR
        MOVX    A,@DPTR
        MOV     B,#0x21
        MUL     AB
        MOV     R2,A
        MOV     R3,B
        LCALL   ??osal_mem_alloc?relay
        MOV     DPL,?V0 + 0
        MOV     DPH,?V0 + 1
        MOV     A,R2
        MOVX    @DPTR,A
        INC     DPTR
        MOV     A,R3
        MOVX    @DPTR,A
        MOV     DPL,?V0 + 0
        MOV     DPH,?V0 + 1
        MOVX    A,@DPTR
        MOV     R0,A
        INC     DPTR
        MOVX    A,@DPTR
        MOV     R1,A
        MOV     DPTR,#ZMac_ScanBuf
        MOV     A,R0
        MOVX    @DPTR,A
        INC     DPTR
        MOV     A,R1
        MOVX    @DPTR,A
        MOV     DPTR,#ZMac_ScanBuf
        MOVX    A,@DPTR
        JNZ     ??ZMacScanReq_8
        INC     DPTR
        MOVX    A,@DPTR
??ZMacScanReq_8:
        JZ      ??ZMacScanReq_7
//  337       {
//  338         return MAC_NO_RESOURCES;
//  339       }
//  340     }
//  341   }
//  342 
//  343   /* Right now, set security to zero */
//  344   pData->Sec.SecurityLevel = false;
??ZMacScanReq_3:
        MOV     A,R6
        ADD     A,#0x10
        MOV     DPL,A
        MOV     A,R7
        LCALL   ??Subroutine2_0
//  345 
//  346   /* Channel Page */
//  347   pData->ChannelPage = 0x00;
??CrossCallReturnLabel_7:
        MOV     DPL,R6
        MOV     DPH,R7
        INC     DPTR
        INC     DPTR
        INC     DPTR
        INC     DPTR
        INC     DPTR
        INC     DPTR
        MOVX    @DPTR,A
//  348 
//  349   MAC_MlmeScanReq ((macMlmeScanReq_t *)pData);
        ; Setup parameters for call to function MAC_MlmeScanReq
        MOV     A,R6
        MOV     R2,A
        MOV     A,R7
        MOV     R3,A
        LCALL   ??MAC_MlmeScanReq?relay
//  350 
//  351   return ZMacSuccess;
        MOV     R1,#0x0
        CFI EndBlock cfiBlock34
??ZMacScanReq_2:
        REQUIRE ?Subroutine8
        ; // Fall through to label ?Subroutine8
//  352 }

        RSEG NEAR_CODE:CODE:NOROOT(0)
?Subroutine8:
        CFI Block cfiBlock35 Using cfiCommon0
        CFI NoFunction
        CFI CFA_SP SP+0
        CFI CFA_XSP16 add(XSP16, 11)
        CFI VB load(1, XDATA, add(CFA_XSP16, literal(-10)))
        CFI DPL0 load(1, XDATA, add(CFA_XSP16, literal(-2)))
        CFI DPH0 load(1, XDATA, add(CFA_XSP16, literal(-1)))
        CFI R6 load(1, XDATA, add(CFA_XSP16, literal(-11)))
        CFI R7 load(1, XDATA, add(CFA_XSP16, literal(-5)))
        CFI V0 load(1, XDATA, add(CFA_XSP16, literal(-9)))
        CFI V1 load(1, XDATA, add(CFA_XSP16, literal(-8)))
        CFI V2 load(1, XDATA, add(CFA_XSP16, literal(-7)))
        CFI V3 load(1, XDATA, add(CFA_XSP16, literal(-6)))
        CFI ?RET_HIGH load(1, XDATA, add(CFA_XSP16, literal(-3)))
        CFI ?RET_LOW load(1, XDATA, add(CFA_XSP16, literal(-4)))
        MOV     R7,#0x4
        LJMP    ?FUNC_LEAVE_XDATA
        CFI EndBlock cfiBlock35
//  353 
//  354 
//  355 /********************************************************************************************************
//  356  * @fn      ZMacStartReq
//  357  *
//  358  * @brief   This function is called to tell the MAC to transmit beacons
//  359  *          and become a coordinator.
//  360  *
//  361  * @param   structure with info need send it.
//  362  *
//  363  * @return  status
//  364  ********************************************************************************************************/

        RSEG NEAR_CODE:CODE:NOROOT(0)
//  365 ROOT uint8 ZMacStartReq( ZMacStartReq_t *pData )
ZMacStartReq:
        CFI Block cfiBlock36 Using cfiCommon0
        CFI Function ZMacStartReq
//  366 {
        FUNCALL ZMacStartReq, MAC_MlmeSetReq
        LOCFRAME ISTACK, 0, STACK
        LOCFRAME PSTACK, 0, STACK
        LOCFRAME XSTACK, 9, STACK
        LOCFRAME IOVERLAY, 0, STATIC
        LOCFRAME DOVERLAY, 0, STATIC
        ARGFRAME ISTACK, 0, STACK
        ARGFRAME PSTACK, 0, STACK
        ARGFRAME XSTACK, 9, STACK
        ARGFRAME IOVERLAY, 0, STATIC
        ARGFRAME DOVERLAY, 0, STATIC
        FUNCALL ZMacStartReq, MAC_MlmeStartReq
        LOCFRAME ISTACK, 0, STACK
        LOCFRAME PSTACK, 0, STACK
        LOCFRAME XSTACK, 9, STACK
        LOCFRAME IOVERLAY, 0, STATIC
        LOCFRAME DOVERLAY, 0, STATIC
        ARGFRAME ISTACK, 0, STACK
        ARGFRAME PSTACK, 0, STACK
        ARGFRAME XSTACK, 9, STACK
        ARGFRAME IOVERLAY, 0, STATIC
        ARGFRAME DOVERLAY, 0, STATIC
        MOV     A,#-0x8
        LCALL   ?FUNC_ENTER_XDATA
        CFI DPH0 load(1, XDATA, add(CFA_XSP16, literal(-1)))
        CFI DPL0 load(1, XDATA, add(CFA_XSP16, literal(-2)))
        CFI ?RET_HIGH load(1, XDATA, add(CFA_XSP16, literal(-3)))
        CFI ?RET_LOW load(1, XDATA, add(CFA_XSP16, literal(-4)))
        CFI R7 load(1, XDATA, add(CFA_XSP16, literal(-5)))
        CFI V0 load(1, XDATA, add(CFA_XSP16, literal(-6)))
        CFI VB load(1, XDATA, add(CFA_XSP16, literal(-7)))
        CFI R6 load(1, XDATA, add(CFA_XSP16, literal(-8)))
        CFI CFA_SP SP+0
        CFI CFA_XSP16 add(XSP16, 8)
        ; Saved register size: 8
        ; Auto size: 1
        MOV     A,#-0x1
        LCALL   ?ALLOC_XSTACK8
        CFI CFA_XSP16 add(XSP16, 9)
        MOV     A,R2
        MOV     R6,A
        MOV     A,R3
        MOV     R7,A
//  367   uint8 stat;
//  368 
//  369   // Probably want to keep the receiver on
//  370   stat = true;
        MOV     A,#0x1
        MOV     DPL,?XSP + 0
        MOV     DPH,?XSP + 1
        MOVX    @DPTR,A
//  371   MAC_MlmeSetReq( MAC_RX_ON_WHEN_IDLE, &stat );
        ; Setup parameters for call to function MAC_MlmeSetReq
        MOV     R2,DPL
        MOV     R3,DPH
        MOV     R1,#0x52
        LCALL   ??MAC_MlmeSetReq?relay
//  372 
//  373   /* Right now, set security to zero */
//  374   pData->RealignSec.SecurityLevel = false;
        MOV     A,R6
        ADD     A,#0x15
        MOV     DPL,A
        MOV     A,R7
        LCALL   ??Subroutine2_0
//  375   pData->BeaconSec.SecurityLevel = false;
??CrossCallReturnLabel_8:
        MOV     A,R6
        ADD     A,#0x20
        LCALL   ?Subroutine1
//  376 
//  377 
//  378   MAC_MlmeStartReq((macMlmeStartReq_t *) pData);
??CrossCallReturnLabel_3:
        LCALL   ??MAC_MlmeStartReq?relay
//  379 
//  380   // MAC does not issue mlmeStartConfirm(), so we have to
//  381   // mlmeStartConfirm( stat );  This needs to be addressed some how
//  382 
//  383   return ZMacSuccess;
        MOV     R1,#0x0
        LJMP    ?Subroutine6
        CFI EndBlock cfiBlock36
//  384 }
//  385 
//  386 /********************************************************************************************************
//  387  * @fn      ZMacSyncReq
//  388  *
//  389  * @brief   This function is called to request a sync to the current
//  390  *          networks beacons.
//  391  *
//  392  * @param   LogicalChannel -
//  393  * @param   TrackBeacon - true/false
//  394  *
//  395  * @return  status
//  396  ********************************************************************************************************/

        RSEG NEAR_CODE:CODE:NOROOT(0)
//  397 ROOT uint8 ZMacSyncReq( ZMacSyncReq_t *pData )
ZMacSyncReq:
        CFI Block cfiBlock37 Using cfiCommon0
        CFI Function ZMacSyncReq
//  398 {
        FUNCALL ZMacSyncReq, MAC_MlmeSyncReq
        LOCFRAME ISTACK, 2, STACK
        LOCFRAME PSTACK, 0, STACK
        LOCFRAME XSTACK, 0, STACK
        LOCFRAME IOVERLAY, 0, STATIC
        LOCFRAME DOVERLAY, 0, STATIC
        ARGFRAME ISTACK, 2, STACK
        ARGFRAME PSTACK, 0, STACK
        ARGFRAME XSTACK, 0, STACK
        ARGFRAME IOVERLAY, 0, STATIC
        ARGFRAME DOVERLAY, 0, STATIC
        PUSH    DPL
        CFI DPL0 Frame(CFA_SP, 3)
        CFI CFA_SP SP+-3
        PUSH    DPH
        CFI DPH0 Frame(CFA_SP, 4)
        CFI CFA_SP SP+-4
        ; Saved register size: 2
        ; Auto size: 0
//  399   MAC_MlmeSyncReq( (macMlmeSyncReq_t *)pData);
        ; Setup parameters for call to function MAC_MlmeSyncReq
        LCALL   ??MAC_MlmeSyncReq?relay
        CFI EndBlock cfiBlock37
//  400   return ZMacSuccess;
        REQUIRE ?Subroutine7
        ; // Fall through to label ?Subroutine7
//  401 }

        RSEG NEAR_CODE:CODE:NOROOT(0)
?Subroutine7:
        CFI Block cfiBlock38 Using cfiCommon0
        CFI NoFunction
        CFI CFA_SP SP+-4
        CFI DPL0 Frame(CFA_SP, 3)
        CFI DPH0 Frame(CFA_SP, 4)
        MOV     R1,#0x0
??Subroutine7_0:
        POP     DPH
        CFI CFA_SP SP+-3
        CFI DPH0 SameValue
        POP     DPL
        CFI CFA_SP SP+-2
        CFI DPL0 SameValue
        RET
        CFI EndBlock cfiBlock38
//  402 
//  403 /********************************************************************************************************
//  404  * @fn      ZMacPollReq
//  405  *
//  406  * @brief   This function is called to request MAC data request poll.
//  407  *
//  408  * @param   coordAddr -
//  409  * @param   coordPanId -
//  410  * @param   SecurityEnable - true or false.
//  411  *
//  412  * @return  status
//  413  ********************************************************************************************************/

        RSEG NEAR_CODE:CODE:NOROOT(0)
//  414 ROOT uint8 ZMacPollReq( ZMacPollReq_t *pData )
ZMacPollReq:
        CFI Block cfiBlock39 Using cfiCommon0
        CFI Function ZMacPollReq
//  415 {
        FUNCALL ZMacPollReq, MAC_MlmePollReq
        LOCFRAME ISTACK, 2, STACK
        LOCFRAME PSTACK, 0, STACK
        LOCFRAME XSTACK, 0, STACK
        LOCFRAME IOVERLAY, 0, STATIC
        LOCFRAME DOVERLAY, 0, STATIC
        ARGFRAME ISTACK, 2, STACK
        ARGFRAME PSTACK, 0, STACK
        ARGFRAME XSTACK, 0, STACK
        ARGFRAME IOVERLAY, 0, STATIC
        ARGFRAME DOVERLAY, 0, STATIC
        PUSH    DPL
        CFI DPL0 Frame(CFA_SP, 3)
        CFI CFA_SP SP+-3
        PUSH    DPH
        CFI DPH0 Frame(CFA_SP, 4)
        CFI CFA_SP SP+-4
        ; Saved register size: 2
        ; Auto size: 0
//  416   /* Right now, set security to zero */
//  417   pData->Sec.SecurityLevel = false;
        LCALL   ?Subroutine0
//  418 
//  419   MAC_MlmePollReq ((macMlmePollReq_t *)pData);
??CrossCallReturnLabel_2:
        ; Setup parameters for call to function MAC_MlmePollReq
        LCALL   ??MAC_MlmePollReq?relay
//  420   return ( ZMacSuccess );
        SJMP    ?Subroutine7
        CFI EndBlock cfiBlock39
//  421 }
//  422 
//  423 /********************************************************************************************************
//  424  * @fn      ZMacDataReq
//  425  *
//  426  * @brief   Send a MAC Data Frame packet.
//  427  *
//  428  * @param   structure containing data and where to send it.
//  429  *
//  430  * @return  status
//  431  ********************************************************************************************************/

        RSEG NEAR_CODE:CODE:NOROOT(0)
//  432 ROOT uint8 ZMacDataReq( ZMacDataReq_t *pData )
ZMacDataReq:
        CFI Block cfiBlock40 Using cfiCommon0
        CFI Function ZMacDataReq
//  433 {
        FUNCALL ZMacDataReq, MAC_McpsDataAlloc
        LOCFRAME ISTACK, 0, STACK
        LOCFRAME PSTACK, 0, STACK
        LOCFRAME XSTACK, 13, STACK
        LOCFRAME IOVERLAY, 0, STATIC
        LOCFRAME DOVERLAY, 0, STATIC
        ARGFRAME ISTACK, 0, STACK
        ARGFRAME PSTACK, 0, STACK
        ARGFRAME XSTACK, 13, STACK
        ARGFRAME IOVERLAY, 0, STATIC
        ARGFRAME DOVERLAY, 0, STATIC
        FUNCALL ZMacDataReq, osal_memcpy
        LOCFRAME ISTACK, 0, STACK
        LOCFRAME PSTACK, 0, STACK
        LOCFRAME XSTACK, 16, STACK
        LOCFRAME IOVERLAY, 0, STATIC
        LOCFRAME DOVERLAY, 0, STATIC
        ARGFRAME ISTACK, 0, STACK
        ARGFRAME PSTACK, 0, STACK
        ARGFRAME XSTACK, 16, STACK
        ARGFRAME IOVERLAY, 0, STATIC
        ARGFRAME DOVERLAY, 0, STATIC
        FUNCALL ZMacDataReq, osal_memcpy
        LOCFRAME ISTACK, 0, STACK
        LOCFRAME PSTACK, 0, STACK
        LOCFRAME XSTACK, 16, STACK
        LOCFRAME IOVERLAY, 0, STATIC
        LOCFRAME DOVERLAY, 0, STATIC
        ARGFRAME ISTACK, 0, STACK
        ARGFRAME PSTACK, 0, STACK
        ARGFRAME XSTACK, 16, STACK
        ARGFRAME IOVERLAY, 0, STATIC
        ARGFRAME DOVERLAY, 0, STATIC
        FUNCALL ZMacDataReq, MAC_McpsDataReq
        LOCFRAME ISTACK, 0, STACK
        LOCFRAME PSTACK, 0, STACK
        LOCFRAME XSTACK, 13, STACK
        LOCFRAME IOVERLAY, 0, STATIC
        LOCFRAME DOVERLAY, 0, STATIC
        ARGFRAME ISTACK, 0, STACK
        ARGFRAME PSTACK, 0, STACK
        ARGFRAME XSTACK, 13, STACK
        ARGFRAME IOVERLAY, 0, STATIC
        ARGFRAME DOVERLAY, 0, STATIC
        MOV     A,#-0xd
        LCALL   ?FUNC_ENTER_XDATA
        CFI DPH0 load(1, XDATA, add(CFA_XSP16, literal(-1)))
        CFI DPL0 load(1, XDATA, add(CFA_XSP16, literal(-2)))
        CFI ?RET_HIGH load(1, XDATA, add(CFA_XSP16, literal(-3)))
        CFI ?RET_LOW load(1, XDATA, add(CFA_XSP16, literal(-4)))
        CFI R7 load(1, XDATA, add(CFA_XSP16, literal(-5)))
        CFI V5 load(1, XDATA, add(CFA_XSP16, literal(-6)))
        CFI V4 load(1, XDATA, add(CFA_XSP16, literal(-7)))
        CFI V3 load(1, XDATA, add(CFA_XSP16, literal(-8)))
        CFI V2 load(1, XDATA, add(CFA_XSP16, literal(-9)))
        CFI V1 load(1, XDATA, add(CFA_XSP16, literal(-10)))
        CFI V0 load(1, XDATA, add(CFA_XSP16, literal(-11)))
        CFI VB load(1, XDATA, add(CFA_XSP16, literal(-12)))
        CFI R6 load(1, XDATA, add(CFA_XSP16, literal(-13)))
        CFI CFA_SP SP+0
        CFI CFA_XSP16 add(XSP16, 13)
        ; Saved register size: 13
        ; Auto size: 0
        MOV     ?V0 + 4,R2
        MOV     ?V0 + 5,R3
//  434   macMcpsDataReq_t *pBuf;
//  435 
//  436   /* Allocate memory */
//  437   pBuf = MAC_McpsDataAlloc(pData->msduLength, MAC_SEC_LEVEL_NONE, MAC_KEY_ID_MODE_NONE);
        ; Setup parameters for call to function MAC_McpsDataAlloc
        MOV     R3,#0x0
        MOV     R2,#0x0
        MOV     A,?V0 + 4
        ADD     A,#0x1b
        MOV     DPL,A
        MOV     A,?V0 + 5
        LCALL   ??Subroutine4_0
??CrossCallReturnLabel_14:
        MOVX    A,@DPTR
        MOV     R1,A
        LCALL   ??MAC_McpsDataAlloc?relay
        MOV     ?V0 + 0,R2
        MOV     ?V0 + 1,R3
        MOV     R6,?V0 + 0
        MOV     R7,?V0 + 1
//  438 
//  439   if (pBuf)
        MOV     A,R6
        JNZ     ??ZMacDataReq_0
        MOV     A,R7
??ZMacDataReq_0:
        JZ      ??ZMacDataReq_1
//  440   {
//  441     /* Copy the addresses */
//  442     osal_memcpy (&pBuf->mac, pData, sizeof (macDataReq_t));
        ; Setup parameters for call to function osal_memcpy
        MOV     ?V0 + 0,?V0 + 4
        MOV     ?V0 + 1,?V0 + 5
        MOV     ?V0 + 2,#0x0
        MOV     R0,#?V0 + 0
        LCALL   ?PUSH_XSTACK_I_THREE
        CFI CFA_XSP16 add(XSP16, 16)
        MOV     R4,#0x10
        MOV     R5,#0x0
        MOV     A,R6
        ADD     A,#0x22
        MOV     R2,A
        MOV     A,R7
        ADDC    A,#0x0
        MOV     R3,A
        LCALL   ??osal_memcpy?relay
        MOV     A,#0x3
        LCALL   ?DEALLOC_XSTACK8
        CFI CFA_XSP16 add(XSP16, 13)
//  443 
//  444     /* Copy data */
//  445     pBuf->msdu.len = pData->msduLength;
        MOV     A,?V0 + 4
        ADD     A,#0x1b
        MOV     R0,A
        MOV     A,?V0 + 5
        ADDC    A,#0x0
        MOV     R1,A
        MOV     A,R0
        MOV     R2,A
        MOV     A,R1
        MOV     R3,A
        MOV     DPL,R2
        MOV     DPH,R3
        MOVX    A,@DPTR
        MOV     DPL,R6
        MOV     DPH,R7
        INC     DPTR
        INC     DPTR
        INC     DPTR
        INC     DPTR
        MOVX    @DPTR,A
//  446     osal_memcpy (pBuf->msdu.p, pData->msdu, pData->msduLength);
        ; Setup parameters for call to function osal_memcpy
        MOV     A,?V0 + 4
        ADD     A,#0x1c
        MOV     DPL,A
        MOV     A,?V0 + 5
        LCALL   ??Subroutine4_0
??CrossCallReturnLabel_15:
        MOVX    A,@DPTR
        MOV     ?V0 + 0,A
        INC     DPTR
        MOVX    A,@DPTR
        MOV     ?V0 + 1,A
        MOV     R0,#?V0 + 0
        LCALL   ?PUSH_XSTACK_I_THREE
        CFI CFA_XSP16 add(XSP16, 16)
        MOV     DPL,R2
        MOV     DPH,R3
        MOVX    A,@DPTR
        MOV     R4,A
        MOV     R5,#0x0
        MOV     DPL,R6
        MOV     DPH,R7
        INC     DPTR
        INC     DPTR
        MOVX    A,@DPTR
        MOV     R2,A
        INC     DPTR
        MOVX    A,@DPTR
        MOV     R3,A
        LCALL   ??osal_memcpy?relay
        MOV     A,#0x3
        LCALL   ?DEALLOC_XSTACK8
        CFI CFA_XSP16 add(XSP16, 13)
//  447 
//  448     /* Right now, set security to zero */
//  449     pBuf->sec.securityLevel = false;
        MOV     A,R6
        ADD     A,#0x1f
        LCALL   ?Subroutine1
//  450 
//  451     /* Call Mac Data Request */
//  452     MAC_McpsDataReq(pBuf);
??CrossCallReturnLabel_4:
        LCALL   ??MAC_McpsDataReq?relay
//  453 
//  454     return ( ZMacSuccess );
        MOV     R1,#0x0
        SJMP    ??ZMacDataReq_2
//  455   }
//  456 
//  457   return MAC_NO_RESOURCES;
??ZMacDataReq_1:
        MOV     R1,#0x1a
??ZMacDataReq_2:
        MOV     R7,#0x6
        LJMP    ?FUNC_LEAVE_XDATA
        CFI EndBlock cfiBlock40
//  458 }

        RSEG NEAR_CODE:CODE:NOROOT(0)
?Subroutine4:
        CFI Block cfiCond41 Using cfiCommon0
        CFI NoFunction
        CFI Conditional ??CrossCallReturnLabel_16
        CFI R6 load(1, XDATA, add(CFA_XSP16, literal(-11)))
        CFI VB load(1, XDATA, add(CFA_XSP16, literal(-10)))
        CFI V0 load(1, XDATA, add(CFA_XSP16, literal(-9)))
        CFI V1 load(1, XDATA, add(CFA_XSP16, literal(-8)))
        CFI V2 load(1, XDATA, add(CFA_XSP16, literal(-7)))
        CFI V3 load(1, XDATA, add(CFA_XSP16, literal(-6)))
        CFI R7 load(1, XDATA, add(CFA_XSP16, literal(-5)))
        CFI ?RET_LOW load(1, XDATA, add(CFA_XSP16, literal(-4)))
        CFI ?RET_HIGH load(1, XDATA, add(CFA_XSP16, literal(-3)))
        CFI DPL0 load(1, XDATA, add(CFA_XSP16, literal(-2)))
        CFI DPH0 load(1, XDATA, add(CFA_XSP16, literal(-1)))
        CFI CFA_SP SP+0
        CFI CFA_XSP16 add(XSP16, 11)
        CFI Block cfiCond42 Using cfiCommon0
        CFI (cfiCond42) NoFunction
        CFI (cfiCond42) Conditional ??CrossCallReturnLabel_17
        CFI (cfiCond42) R6 load(1, XDATA, add(CFA_XSP16, literal(-11)))
        CFI (cfiCond42) VB load(1, XDATA, add(CFA_XSP16, literal(-10)))
        CFI (cfiCond42) V0 load(1, XDATA, add(CFA_XSP16, literal(-9)))
        CFI (cfiCond42) V1 load(1, XDATA, add(CFA_XSP16, literal(-8)))
        CFI (cfiCond42) V2 load(1, XDATA, add(CFA_XSP16, literal(-7)))
        CFI (cfiCond42) V3 load(1, XDATA, add(CFA_XSP16, literal(-6)))
        CFI (cfiCond42) R7 load(1, XDATA, add(CFA_XSP16, literal(-5)))
        CFI (cfiCond42) ?RET_LOW load(1, XDATA, add(CFA_XSP16, literal(-4)))
        CFI (cfiCond42) ?RET_HIGH load(1, XDATA, add(CFA_XSP16, literal(-3)))
        CFI (cfiCond42) DPL0 load(1, XDATA, add(CFA_XSP16, literal(-2)))
        CFI (cfiCond42) DPH0 load(1, XDATA, add(CFA_XSP16, literal(-1)))
        CFI (cfiCond42) CFA_SP SP+0
        CFI (cfiCond42) CFA_XSP16 add(XSP16, 11)
        CFI Block cfiCond43 Using cfiCommon0
        CFI (cfiCond43) NoFunction
        CFI (cfiCond43) Conditional ??CrossCallReturnLabel_18
        CFI (cfiCond43) R6 load(1, XDATA, add(CFA_XSP16, literal(-11)))
        CFI (cfiCond43) VB load(1, XDATA, add(CFA_XSP16, literal(-10)))
        CFI (cfiCond43) V0 load(1, XDATA, add(CFA_XSP16, literal(-9)))
        CFI (cfiCond43) V1 load(1, XDATA, add(CFA_XSP16, literal(-8)))
        CFI (cfiCond43) V2 load(1, XDATA, add(CFA_XSP16, literal(-7)))
        CFI (cfiCond43) V3 load(1, XDATA, add(CFA_XSP16, literal(-6)))
        CFI (cfiCond43) R7 load(1, XDATA, add(CFA_XSP16, literal(-5)))
        CFI (cfiCond43) ?RET_LOW load(1, XDATA, add(CFA_XSP16, literal(-4)))
        CFI (cfiCond43) ?RET_HIGH load(1, XDATA, add(CFA_XSP16, literal(-3)))
        CFI (cfiCond43) DPL0 load(1, XDATA, add(CFA_XSP16, literal(-2)))
        CFI (cfiCond43) DPH0 load(1, XDATA, add(CFA_XSP16, literal(-1)))
        CFI (cfiCond43) CFA_SP SP+0
        CFI (cfiCond43) CFA_XSP16 add(XSP16, 11)
        CFI Block cfiPicker44 Using cfiCommon1
        CFI (cfiPicker44) NoFunction
        CFI (cfiPicker44) Picker
        MOV     DPL,A
        MOV     A,R3
        CFI Block cfiCond45 Using cfiCommon0
        CFI (cfiCond45) NoFunction
        CFI (cfiCond45) Conditional ??CrossCallReturnLabel_13
        CFI (cfiCond45) R6 load(1, XDATA, add(CFA_XSP16, literal(-11)))
        CFI (cfiCond45) VB load(1, XDATA, add(CFA_XSP16, literal(-10)))
        CFI (cfiCond45) V0 load(1, XDATA, add(CFA_XSP16, literal(-9)))
        CFI (cfiCond45) V1 load(1, XDATA, add(CFA_XSP16, literal(-8)))
        CFI (cfiCond45) V2 load(1, XDATA, add(CFA_XSP16, literal(-7)))
        CFI (cfiCond45) V3 load(1, XDATA, add(CFA_XSP16, literal(-6)))
        CFI (cfiCond45) R7 load(1, XDATA, add(CFA_XSP16, literal(-5)))
        CFI (cfiCond45) ?RET_LOW load(1, XDATA, add(CFA_XSP16, literal(-4)))
        CFI (cfiCond45) ?RET_HIGH load(1, XDATA, add(CFA_XSP16, literal(-3)))
        CFI (cfiCond45) DPL0 load(1, XDATA, add(CFA_XSP16, literal(-2)))
        CFI (cfiCond45) DPH0 load(1, XDATA, add(CFA_XSP16, literal(-1)))
        CFI (cfiCond45) CFA_SP SP+0
        CFI (cfiCond45) CFA_XSP16 add(XSP16, 11)
        CFI Block cfiCond46 Using cfiCommon0
        CFI (cfiCond46) NoFunction
        CFI (cfiCond46) Conditional ??CrossCallReturnLabel_14
        CFI (cfiCond46) R6 load(1, XDATA, add(CFA_XSP16, literal(-13)))
        CFI (cfiCond46) VB load(1, XDATA, add(CFA_XSP16, literal(-12)))
        CFI (cfiCond46) V0 load(1, XDATA, add(CFA_XSP16, literal(-11)))
        CFI (cfiCond46) V1 load(1, XDATA, add(CFA_XSP16, literal(-10)))
        CFI (cfiCond46) V2 load(1, XDATA, add(CFA_XSP16, literal(-9)))
        CFI (cfiCond46) V3 load(1, XDATA, add(CFA_XSP16, literal(-8)))
        CFI (cfiCond46) V4 load(1, XDATA, add(CFA_XSP16, literal(-7)))
        CFI (cfiCond46) V5 load(1, XDATA, add(CFA_XSP16, literal(-6)))
        CFI (cfiCond46) R7 load(1, XDATA, add(CFA_XSP16, literal(-5)))
        CFI (cfiCond46) ?RET_LOW load(1, XDATA, add(CFA_XSP16, literal(-4)))
        CFI (cfiCond46) ?RET_HIGH load(1, XDATA, add(CFA_XSP16, literal(-3)))
        CFI (cfiCond46) DPL0 load(1, XDATA, add(CFA_XSP16, literal(-2)))
        CFI (cfiCond46) DPH0 load(1, XDATA, add(CFA_XSP16, literal(-1)))
        CFI (cfiCond46) CFA_SP SP+0
        CFI (cfiCond46) CFA_XSP16 add(XSP16, 13)
        CFI Block cfiCond47 Using cfiCommon0
        CFI (cfiCond47) NoFunction
        CFI (cfiCond47) Conditional ??CrossCallReturnLabel_15
        CFI (cfiCond47) R6 load(1, XDATA, add(CFA_XSP16, literal(-13)))
        CFI (cfiCond47) VB load(1, XDATA, add(CFA_XSP16, literal(-12)))
        CFI (cfiCond47) V0 load(1, XDATA, add(CFA_XSP16, literal(-11)))
        CFI (cfiCond47) V1 load(1, XDATA, add(CFA_XSP16, literal(-10)))
        CFI (cfiCond47) V2 load(1, XDATA, add(CFA_XSP16, literal(-9)))
        CFI (cfiCond47) V3 load(1, XDATA, add(CFA_XSP16, literal(-8)))
        CFI (cfiCond47) V4 load(1, XDATA, add(CFA_XSP16, literal(-7)))
        CFI (cfiCond47) V5 load(1, XDATA, add(CFA_XSP16, literal(-6)))
        CFI (cfiCond47) R7 load(1, XDATA, add(CFA_XSP16, literal(-5)))
        CFI (cfiCond47) ?RET_LOW load(1, XDATA, add(CFA_XSP16, literal(-4)))
        CFI (cfiCond47) ?RET_HIGH load(1, XDATA, add(CFA_XSP16, literal(-3)))
        CFI (cfiCond47) DPL0 load(1, XDATA, add(CFA_XSP16, literal(-2)))
        CFI (cfiCond47) DPH0 load(1, XDATA, add(CFA_XSP16, literal(-1)))
        CFI (cfiCond47) CFA_SP SP+0
        CFI (cfiCond47) CFA_XSP16 add(XSP16, 13)
??Subroutine4_0:
        ADDC    A,#0x0
        MOV     DPH,A
        RET
        CFI EndBlock cfiCond41
        CFI EndBlock cfiCond42
        CFI EndBlock cfiCond43
        CFI EndBlock cfiPicker44
        CFI EndBlock cfiCond45
        CFI EndBlock cfiCond46
        CFI EndBlock cfiCond47

        RSEG NEAR_CODE:CODE:NOROOT(0)
?Subroutine1:
        CFI Block cfiCond48 Using cfiCommon0
        CFI NoFunction
        CFI Conditional ??CrossCallReturnLabel_3
        CFI R6 load(1, XDATA, add(CFA_XSP16, literal(-8)))
        CFI VB load(1, XDATA, add(CFA_XSP16, literal(-7)))
        CFI V0 load(1, XDATA, add(CFA_XSP16, literal(-6)))
        CFI R7 load(1, XDATA, add(CFA_XSP16, literal(-5)))
        CFI ?RET_LOW load(1, XDATA, add(CFA_XSP16, literal(-4)))
        CFI ?RET_HIGH load(1, XDATA, add(CFA_XSP16, literal(-3)))
        CFI DPL0 load(1, XDATA, add(CFA_XSP16, literal(-2)))
        CFI DPH0 load(1, XDATA, add(CFA_XSP16, literal(-1)))
        CFI CFA_SP SP+0
        CFI CFA_XSP16 add(XSP16, 9)
        CFI Block cfiCond49 Using cfiCommon0
        CFI (cfiCond49) NoFunction
        CFI (cfiCond49) Conditional ??CrossCallReturnLabel_4
        CFI (cfiCond49) R6 load(1, XDATA, add(CFA_XSP16, literal(-13)))
        CFI (cfiCond49) VB load(1, XDATA, add(CFA_XSP16, literal(-12)))
        CFI (cfiCond49) V0 load(1, XDATA, add(CFA_XSP16, literal(-11)))
        CFI (cfiCond49) V1 load(1, XDATA, add(CFA_XSP16, literal(-10)))
        CFI (cfiCond49) V2 load(1, XDATA, add(CFA_XSP16, literal(-9)))
        CFI (cfiCond49) V3 load(1, XDATA, add(CFA_XSP16, literal(-8)))
        CFI (cfiCond49) V4 load(1, XDATA, add(CFA_XSP16, literal(-7)))
        CFI (cfiCond49) V5 load(1, XDATA, add(CFA_XSP16, literal(-6)))
        CFI (cfiCond49) R7 load(1, XDATA, add(CFA_XSP16, literal(-5)))
        CFI (cfiCond49) ?RET_LOW load(1, XDATA, add(CFA_XSP16, literal(-4)))
        CFI (cfiCond49) ?RET_HIGH load(1, XDATA, add(CFA_XSP16, literal(-3)))
        CFI (cfiCond49) DPL0 load(1, XDATA, add(CFA_XSP16, literal(-2)))
        CFI (cfiCond49) DPH0 load(1, XDATA, add(CFA_XSP16, literal(-1)))
        CFI (cfiCond49) CFA_SP SP+0
        CFI (cfiCond49) CFA_XSP16 add(XSP16, 13)
        CFI Block cfiPicker50 Using cfiCommon1
        CFI (cfiPicker50) NoFunction
        CFI (cfiPicker50) Picker
        MOV     DPL,A
        MOV     A,R7
        LCALL   ?Subroutine5
??CrossCallReturnLabel_20:
        ; Setup parameters for call to function MAC_MlmeStartReq
        ; Setup parameters for call to function MAC_McpsDataReq
        MOV     A,R6
        MOV     R2,A
        MOV     A,R7
        MOV     R3,A
        RET
        CFI EndBlock cfiCond48
        CFI EndBlock cfiCond49
        CFI EndBlock cfiPicker50
//  459 
//  460 /********************************************************************************************************
//  461  * @fn      ZMacPurgeReq
//  462  *
//  463  * @brief   Purge a MAC Data Frame packet.
//  464  *
//  465  * @param   MSDU data handle.
//  466  *
//  467  * @return  status
//  468  ********************************************************************************************************/

        RSEG NEAR_CODE:CODE:NOROOT(0)
//  469 ROOT uint8 ZMacPurgeReq( byte Handle )
ZMacPurgeReq:
        CFI Block cfiBlock51 Using cfiCommon0
        CFI Function ZMacPurgeReq
//  470 {
        FUNCALL ZMacPurgeReq, MAC_McpsPurgeReq
        LOCFRAME ISTACK, 2, STACK
        LOCFRAME PSTACK, 0, STACK
        LOCFRAME XSTACK, 0, STACK
        LOCFRAME IOVERLAY, 0, STATIC
        LOCFRAME DOVERLAY, 0, STATIC
        ARGFRAME ISTACK, 2, STACK
        ARGFRAME PSTACK, 0, STACK
        ARGFRAME XSTACK, 0, STACK
        ARGFRAME IOVERLAY, 0, STATIC
        ARGFRAME DOVERLAY, 0, STATIC
        PUSH    DPL
        CFI DPL0 Frame(CFA_SP, 3)
        CFI CFA_SP SP+-3
        PUSH    DPH
        CFI DPH0 Frame(CFA_SP, 4)
        CFI CFA_SP SP+-4
        ; Saved register size: 2
        ; Auto size: 0
//  471   MAC_McpsPurgeReq( Handle );
        ; Setup parameters for call to function MAC_McpsPurgeReq
        LCALL   ??MAC_McpsPurgeReq?relay
//  472   return ZMacSuccess;
        LJMP    ?Subroutine7
        CFI EndBlock cfiBlock51
//  473 }
//  474 
//  475 /********************************************************************************************************
//  476  * @fn      - ZMACPwrOnReq
//  477  *
//  478  * @brief   - This function requests the MAC to power on the radio hardware
//  479  *            and wake up.  When the power on procedure is complete the MAC
//  480  *            will send a MAC_PWR_ON_CNF to the application.
//  481  *
//  482  * @input   - None.
//  483  *
//  484  * @output  - None.
//  485  *
//  486  * @return  - None.
//  487  ********************************************************************************************************/

        RSEG BANKED_CODE:CODE:NOROOT(0)
//  488 void ZMacPwrOnReq ( void )
ZMacPwrOnReq:
        CFI Block cfiBlock52 Using cfiCommon2
        CFI Function ZMacPwrOnReq
//  489 {
        FUNCALL ZMacPwrOnReq, MAC_PwrOnReq
        LOCFRAME ISTACK, 2, STACK
        LOCFRAME PSTACK, 0, STACK
        LOCFRAME XSTACK, 0, STACK
        LOCFRAME IOVERLAY, 0, STATIC
        LOCFRAME DOVERLAY, 0, STATIC
        ARGFRAME ISTACK, 2, STACK
        ARGFRAME PSTACK, 0, STACK
        ARGFRAME XSTACK, 0, STACK
        ARGFRAME IOVERLAY, 0, STATIC
        ARGFRAME DOVERLAY, 0, STATIC
        PUSH    DPL
        CFI DPL0 Frame(CFA_SP, 4)
        CFI CFA_SP SP+-4
        PUSH    DPH
        CFI DPH0 Frame(CFA_SP, 5)
        CFI CFA_SP SP+-5
        ; Saved register size: 2
        ; Auto size: 0
//  490   MAC_PwrOnReq();
        ; Setup parameters for call to function MAC_PwrOnReq
        LCALL   ??MAC_PwrOnReq?relay
        CFI EndBlock cfiBlock52
//  491 }
        REQUIRE ?Subroutine9
        ; // Fall through to label ?Subroutine9

        RSEG BANKED_CODE:CODE:NOROOT(0)
?Subroutine9:
        CFI Block cfiBlock53 Using cfiCommon2
        CFI NoFunction
        CFI CFA_SP SP+-5
        CFI DPL0 Frame(CFA_SP, 4)
        CFI DPH0 Frame(CFA_SP, 5)
        POP     DPH
        CFI CFA_SP SP+-4
        CFI DPH0 SameValue
        POP     DPL
        CFI CFA_SP SP+-3
        CFI DPL0 SameValue
        LJMP    ?BRET
        CFI EndBlock cfiBlock53
//  492 
//  493 /********************************************************************************************************
//  494  * @fn          MAC_PwrMode
//  495  *
//  496  * @brief       This function returns the current power mode of the MAC.
//  497  *
//  498  * input parameters
//  499  *
//  500  * None.
//  501  *
//  502  * output parameters
//  503  *
//  504  * None.
//  505  *
//  506  * @return      The current power mode of the MAC.
//  507  ********************************************************************************************************/

        RSEG BANKED_CODE:CODE:NOROOT(0)
//  508 uint8 ZMac_PwrMode(void)
ZMac_PwrMode:
        CFI Block cfiBlock54 Using cfiCommon2
        CFI Function ZMac_PwrMode
//  509 {
        FUNCALL ZMac_PwrMode, MAC_PwrMode
        LOCFRAME ISTACK, 2, STACK
        LOCFRAME PSTACK, 0, STACK
        LOCFRAME XSTACK, 0, STACK
        LOCFRAME IOVERLAY, 0, STATIC
        LOCFRAME DOVERLAY, 0, STATIC
        ARGFRAME ISTACK, 2, STACK
        ARGFRAME PSTACK, 0, STACK
        ARGFRAME XSTACK, 0, STACK
        ARGFRAME IOVERLAY, 0, STATIC
        ARGFRAME DOVERLAY, 0, STATIC
        PUSH    DPL
        CFI DPL0 Frame(CFA_SP, 4)
        CFI CFA_SP SP+-4
        PUSH    DPH
        CFI DPH0 Frame(CFA_SP, 5)
        CFI CFA_SP SP+-5
        ; Saved register size: 2
        ; Auto size: 0
//  510   return (MAC_PwrMode());
        ; Setup parameters for call to function MAC_PwrMode
        LCALL   ??MAC_PwrMode?relay
        SJMP    ?Subroutine9
        CFI EndBlock cfiBlock54
//  511 }
//  512 
//  513 /********************************************************************************************************
//  514  * @fn      ZMacSetTransmitPower
//  515  *
//  516  * @brief   Set the transmitter power according to the level setting param.
//  517  *
//  518  * @param   Valid power level setting as defined in ZMAC.h.
//  519  *
//  520  * @return  ZMacSuccess if PHY_TRANSMIT_POWER found or ZMacUnsupportedAttribute.
//  521  ********************************************************************************************************/

        RSEG NEAR_CODE:CODE:NOROOT(0)
//  522 ROOT uint8 ZMacSetTransmitPower( ZMacTransmitPower_t level )
ZMacSetTransmitPower:
        CFI Block cfiBlock55 Using cfiCommon0
        CFI Function ZMacSetTransmitPower
//  523 {
        FUNCALL ZMacSetTransmitPower, MAC_MlmeSetReq
        LOCFRAME ISTACK, 0, STACK
        LOCFRAME PSTACK, 0, STACK
        LOCFRAME XSTACK, 10, STACK
        LOCFRAME IOVERLAY, 0, STATIC
        LOCFRAME DOVERLAY, 0, STATIC
        ARGFRAME ISTACK, 0, STACK
        ARGFRAME PSTACK, 0, STACK
        ARGFRAME XSTACK, 10, STACK
        ARGFRAME IOVERLAY, 0, STATIC
        ARGFRAME DOVERLAY, 0, STATIC
        MOV     A,#-0x9
        LCALL   ?FUNC_ENTER_XDATA
        CFI DPH0 load(1, XDATA, add(CFA_XSP16, literal(-1)))
        CFI DPL0 load(1, XDATA, add(CFA_XSP16, literal(-2)))
        CFI ?RET_HIGH load(1, XDATA, add(CFA_XSP16, literal(-3)))
        CFI ?RET_LOW load(1, XDATA, add(CFA_XSP16, literal(-4)))
        CFI R7 load(1, XDATA, add(CFA_XSP16, literal(-5)))
        CFI V1 load(1, XDATA, add(CFA_XSP16, literal(-6)))
        CFI V0 load(1, XDATA, add(CFA_XSP16, literal(-7)))
        CFI VB load(1, XDATA, add(CFA_XSP16, literal(-8)))
        CFI R6 load(1, XDATA, add(CFA_XSP16, literal(-9)))
        CFI CFA_SP SP+0
        CFI CFA_XSP16 add(XSP16, 9)
        ; Saved register size: 9
        ; Auto size: 1
        MOV     A,#-0x1
        LCALL   ?ALLOC_XSTACK8
        CFI CFA_XSP16 add(XSP16, 10)
//  524   uint8 pwr;
//  525 
//  526   if ( (level /= 2) >= 8 )
        MOV     A,R1
        CLR     C
        RRC     A
        MOV     R1,A
        CLR     C
        SUBB    A,#0x8
        JC      ??ZMacSetTransmitPower_0
//  527   {
//  528     pwr = TxPowerSettings[0];
        CLR     A
        SJMP    ??ZMacSetTransmitPower_1
//  529   }
//  530   else
//  531   {
//  532     pwr = TxPowerSettings[level];
??ZMacSetTransmitPower_0:
        MOV     A,R1
        ADD     A,#(TxPowerSettings & 0xff)
        MOV     DPL,A
        CLR     A
        ADDC    A,#((TxPowerSettings >> 8) & 0xff)
        MOV     DPH,A
        CLR     A
        MOVC    A,@A+DPTR
??ZMacSetTransmitPower_1:
        MOV     DPL,?XSP + 0
        MOV     DPH,?XSP + 1
        MOVX    @DPTR,A
//  533   }
//  534 
//  535   if ( MAC_MlmeSetReq( ZMacPhyTransmitPower, &pwr ) == ZSUCCESS )
        ; Setup parameters for call to function MAC_MlmeSetReq
        MOV     R2,DPL
        MOV     R3,DPH
        MOV     R1,#-0x20
        LCALL   ??MAC_MlmeSetReq?relay
        MOV     A,R1
        JNZ     ??ZMacSetTransmitPower_2
//  536   {
//  537     //msupSetTransmitPower();
//  538     return ZMacSuccess;
        MOV     R1,#0x0
        SJMP    ??ZMacSetTransmitPower_3
//  539   }
//  540 
//  541   return ZMacUnsupportedAttribute;
??ZMacSetTransmitPower_2:
        MOV     R1,#-0xc
??ZMacSetTransmitPower_3:
        MOV     A,#0x1
        LCALL   ?DEALLOC_XSTACK8
        CFI CFA_XSP16 add(XSP16, 9)
        MOV     R7,#0x2
        LJMP    ?FUNC_LEAVE_XDATA
        CFI EndBlock cfiBlock55
//  542 }
//  543 
//  544 /********************************************************************************************************
//  545  * @fn      ZMacSendNoData
//  546  *
//  547  * @brief   This function sends an empty msg
//  548  *
//  549  * @param   DstAddr   - destination short address
//  550  *          DstPANId  - destination pan id
//  551  *
//  552  * @return  None
//  553  ********************************************************************************************************/

        RSEG NEAR_CODE:CODE:NOROOT(0)
//  554 ROOT void ZMacSendNoData ( uint16 DstAddr, uint16 DstPANId )
ZMacSendNoData:
        CFI Block cfiBlock56 Using cfiCommon0
        CFI Function ZMacSendNoData
//  555 {
        FUNCALL ZMacSendNoData, MAC_McpsDataAlloc
        LOCFRAME ISTACK, 0, STACK
        LOCFRAME PSTACK, 0, STACK
        LOCFRAME XSTACK, 11, STACK
        LOCFRAME IOVERLAY, 0, STATIC
        LOCFRAME DOVERLAY, 0, STATIC
        ARGFRAME ISTACK, 0, STACK
        ARGFRAME PSTACK, 0, STACK
        ARGFRAME XSTACK, 11, STACK
        ARGFRAME IOVERLAY, 0, STATIC
        ARGFRAME DOVERLAY, 0, STATIC
        FUNCALL ZMacSendNoData, MAC_McpsDataReq
        LOCFRAME ISTACK, 0, STACK
        LOCFRAME PSTACK, 0, STACK
        LOCFRAME XSTACK, 11, STACK
        LOCFRAME IOVERLAY, 0, STATIC
        LOCFRAME DOVERLAY, 0, STATIC
        ARGFRAME ISTACK, 0, STACK
        ARGFRAME PSTACK, 0, STACK
        ARGFRAME XSTACK, 11, STACK
        ARGFRAME IOVERLAY, 0, STATIC
        ARGFRAME DOVERLAY, 0, STATIC
        MOV     A,#-0xb
        LCALL   ?FUNC_ENTER_XDATA
        CFI DPH0 load(1, XDATA, add(CFA_XSP16, literal(-1)))
        CFI DPL0 load(1, XDATA, add(CFA_XSP16, literal(-2)))
        CFI ?RET_HIGH load(1, XDATA, add(CFA_XSP16, literal(-3)))
        CFI ?RET_LOW load(1, XDATA, add(CFA_XSP16, literal(-4)))
        CFI R7 load(1, XDATA, add(CFA_XSP16, literal(-5)))
        CFI V3 load(1, XDATA, add(CFA_XSP16, literal(-6)))
        CFI V2 load(1, XDATA, add(CFA_XSP16, literal(-7)))
        CFI V1 load(1, XDATA, add(CFA_XSP16, literal(-8)))
        CFI V0 load(1, XDATA, add(CFA_XSP16, literal(-9)))
        CFI VB load(1, XDATA, add(CFA_XSP16, literal(-10)))
        CFI R6 load(1, XDATA, add(CFA_XSP16, literal(-11)))
        CFI CFA_SP SP+0
        CFI CFA_XSP16 add(XSP16, 11)
        ; Saved register size: 11
        ; Auto size: 0
        MOV     ?V0 + 0,R2
        MOV     ?V0 + 1,R3
        MOV     A,R4
        MOV     R6,A
        MOV     A,R5
        MOV     R7,A
//  556   macMcpsDataReq_t *pBuf;
//  557 
//  558   /* Allocate memory */
//  559   pBuf = MAC_McpsDataAlloc(0, MAC_SEC_LEVEL_NONE, MAC_KEY_ID_MODE_NONE);
        ; Setup parameters for call to function MAC_McpsDataAlloc
        MOV     R3,#0x0
        MOV     R2,#0x0
        MOV     R1,#0x0
        LCALL   ??MAC_McpsDataAlloc?relay
//  560 
//  561   if (pBuf)
        MOV     A,R2
        JNZ     ??ZMacSendNoData_0
        MOV     A,R3
??ZMacSendNoData_0:
        JZ      ??ZMacSendNoData_1
//  562   {
//  563     /* Fill in src information */
//  564     pBuf->mac.srcAddrMode              = SADDR_MODE_SHORT;
        MOV     A,R2
        ADD     A,#0x2d
        LCALL   ?Subroutine3
//  565 
//  566     /* Fill in dst information */
//  567     pBuf->mac.dstAddr.addr.shortAddr   = DstAddr;
??CrossCallReturnLabel_11:
        ADD     A,#0x22
        LCALL   ?Subroutine4
??CrossCallReturnLabel_16:
        MOV     A,?V0 + 0
        MOVX    @DPTR,A
        INC     DPTR
        MOV     A,?V0 + 1
        MOVX    @DPTR,A
//  568     pBuf->mac.dstAddr.addrMode         = SADDR_MODE_SHORT;
        MOV     A,R2
        ADD     A,#0x2a
        LCALL   ?Subroutine3
//  569     pBuf->mac.dstPanId                 = DstPANId;
??CrossCallReturnLabel_12:
        ADD     A,#0x2b
        LCALL   ?Subroutine4
??CrossCallReturnLabel_17:
        MOV     A,R6
        MOVX    @DPTR,A
        INC     DPTR
        MOV     A,R7
        MOVX    @DPTR,A
//  570 
//  571     /* Misc information */
//  572     pBuf->mac.msduHandle               = 0;
        MOV     A,R2
        ADD     A,#0x2e
        LCALL   ?Subroutine2
//  573     pBuf->mac.txOptions                = ZMAC_TXOPTION_ACK | ZMAC_TXOPTION_NO_RETRANS | ZMAC_TXOPTION_NO_CNF;
??CrossCallReturnLabel_9:
        MOV     A,R2
        ADD     A,#0x2f
        LCALL   ?Subroutine4
??CrossCallReturnLabel_18:
        MOV     A,#0x31
        MOVX    @DPTR,A
//  574 
//  575     /* Right now, set security to zero */
//  576     pBuf->sec.securityLevel = false;
        MOV     A,R2
        ADD     A,#0x1f
        LCALL   ?Subroutine2
//  577 
//  578     /* Call Mac Data Request */
//  579     MAC_McpsDataReq(pBuf);
??CrossCallReturnLabel_10:
        ; Setup parameters for call to function MAC_McpsDataReq
        LCALL   ??MAC_McpsDataReq?relay
//  580   }
//  581 
//  582 }
??ZMacSendNoData_1:
        LJMP    ?Subroutine8
        CFI EndBlock cfiBlock56

        RSEG NEAR_CODE:CODE:NOROOT(0)
?Subroutine3:
        CFI Block cfiCond57 Using cfiCommon0
        CFI NoFunction
        CFI Conditional ??CrossCallReturnLabel_11
        CFI R6 load(1, XDATA, add(CFA_XSP16, literal(-11)))
        CFI VB load(1, XDATA, add(CFA_XSP16, literal(-10)))
        CFI V0 load(1, XDATA, add(CFA_XSP16, literal(-9)))
        CFI V1 load(1, XDATA, add(CFA_XSP16, literal(-8)))
        CFI V2 load(1, XDATA, add(CFA_XSP16, literal(-7)))
        CFI V3 load(1, XDATA, add(CFA_XSP16, literal(-6)))
        CFI R7 load(1, XDATA, add(CFA_XSP16, literal(-5)))
        CFI ?RET_LOW load(1, XDATA, add(CFA_XSP16, literal(-4)))
        CFI ?RET_HIGH load(1, XDATA, add(CFA_XSP16, literal(-3)))
        CFI DPL0 load(1, XDATA, add(CFA_XSP16, literal(-2)))
        CFI DPH0 load(1, XDATA, add(CFA_XSP16, literal(-1)))
        CFI CFA_SP SP+0
        CFI CFA_XSP16 add(XSP16, 11)
        CFI Block cfiCond58 Using cfiCommon0
        CFI (cfiCond58) NoFunction
        CFI (cfiCond58) Conditional ??CrossCallReturnLabel_12
        CFI (cfiCond58) R6 load(1, XDATA, add(CFA_XSP16, literal(-11)))
        CFI (cfiCond58) VB load(1, XDATA, add(CFA_XSP16, literal(-10)))
        CFI (cfiCond58) V0 load(1, XDATA, add(CFA_XSP16, literal(-9)))
        CFI (cfiCond58) V1 load(1, XDATA, add(CFA_XSP16, literal(-8)))
        CFI (cfiCond58) V2 load(1, XDATA, add(CFA_XSP16, literal(-7)))
        CFI (cfiCond58) V3 load(1, XDATA, add(CFA_XSP16, literal(-6)))
        CFI (cfiCond58) R7 load(1, XDATA, add(CFA_XSP16, literal(-5)))
        CFI (cfiCond58) ?RET_LOW load(1, XDATA, add(CFA_XSP16, literal(-4)))
        CFI (cfiCond58) ?RET_HIGH load(1, XDATA, add(CFA_XSP16, literal(-3)))
        CFI (cfiCond58) DPL0 load(1, XDATA, add(CFA_XSP16, literal(-2)))
        CFI (cfiCond58) DPH0 load(1, XDATA, add(CFA_XSP16, literal(-1)))
        CFI (cfiCond58) CFA_SP SP+0
        CFI (cfiCond58) CFA_XSP16 add(XSP16, 11)
        CFI Block cfiPicker59 Using cfiCommon1
        CFI (cfiPicker59) NoFunction
        CFI (cfiPicker59) Picker
        MOV     DPL,A
        MOV     A,R3
        ADDC    A,#0x0
        MOV     DPH,A
        MOV     A,#0x2
        MOVX    @DPTR,A
        MOV     A,R2
        RET
        CFI EndBlock cfiCond57
        CFI EndBlock cfiCond58
        CFI EndBlock cfiPicker59

        RSEG BANK_RELAYS:CODE:REORDER:NOROOT(0)
??ZMacPwrOnReq?relay:
        LCALL   ?BDISPATCH
        DATA
        DC24    ZMacPwrOnReq

        RSEG BANK_RELAYS:CODE:REORDER:NOROOT(0)
??ZMac_PwrMode?relay:
        LCALL   ?BDISPATCH
        DATA
        DC24    ZMac_PwrMode

        END
// 
//  23 bytes in segment BANKED_CODE
//  12 bytes in segment BANK_RELAYS
//   8 bytes in segment CODE_C
// 981 bytes in segment NEAR_CODE
//   6 bytes in segment XDATA_Z
// 
// 1 024 bytes of CODE  memory
//     6 bytes of XDATA memory
//
//Errors: none
//Warnings: none
