///////////////////////////////////////////////////////////////////////////////
//                                                                            /
// IAR 8051 C/C++ Compiler V7.30B/W32                   28/Dec/2012  21:17:13 /
// Copyright 2004-2007 IAR Systems. All rights reserved.                      /
//                                                                            /
//    Core               =  plain                                             /
//    Code model         =  banked                                            /
//    Data model         =  large                                             /
//    Calling convention =  xdata reentrant                                   /
//    Constant location  =  data                                              /
//    Dptr setup         =  1,16                                              /
//    Source file        =  C:\Texas Instruments\ZStack-1.4.3-1.2.1\Component /
//                          s\stack\zdo\ZDProfile.c                           /
//    Command line       =  -f "C:\Texas Instruments\ZStack-1.4.3-1.2.1\Proje /
//                          cts\zstack\Samples\AXDApp\CC2430DB\..\..\..\Tools /
//                          \CC2430DB\f8wCoord.cfg" (-DCPU32MHZ               /
//                          -DFORCE_MAC_NEAR -DROOT=__near_func               /
//                          -DMAC_CFG_APP_PENDING_QUEUE=TRUE                  /
//                          -DZDO_COORDINATOR -DRTR_NWK -DBLINK_LEDS          /
//                          "-DCONST=const __code" -DGENERIC=__generic) -f    /
//                          "C:\Texas Instruments\ZStack-1.4.3-1.2.1\Projects /
//                          \zstack\Samples\AXDApp\CC2430DB\..\..\..\Tools\CC /
//                          2430DB\f8wConfig.cfg" (-DSECURE=0                 /
//                          -DDEFAULT_CHANLIST=0x00000800                     /
//                          -DZDAPP_CONFIG_PAN_ID=0xFFFF                      /
//                          -DNWK_START_DELAY=100 -DEXTENDED_JOINING_RANDOM_M /
//                          ASK=0x007F -DBEACON_REQUEST_DELAY=100             /
//                          -DBEACON_REQ_DELAY_MASK=0x00FF                    /
//                          -DROUTE_EXPIRY_TIME=30 -DAPSC_ACK_WAIT_DURATION_P /
//                          OLLED=3000 -DNWK_INDIRECT_MSG_TIMEOUT=7           /
//                          -DMAX_RREQ_ENTRIES=10 -DAPSC_MAX_FRAME_RETRIES=3  /
//                          -DNWK_MAX_DATA_RETRIES=2                          /
//                          -DMAX_POLL_FAILURE_RETRIES=2 -DMAX_BCAST=9        /
//                          -DAPS_MAX_GROUPS=16 -DMAX_RTG_ENTRIES=20          /
//                          -DNWK_MAX_BINDING_ENTRIES=10                      /
//                          -DMAX_BINDING_CLUSTER_IDS=5                       /
//                          "-DDEFAULT_KEY={0x01, 0x03, 0x05, 0x07, 0x09,     /
//                          0x0B, 0x0D, 0x0F, 0x00, 0x02, 0x04, 0x06, 0x08,   /
//                          0x0A, 0x0C, 0x0D}" -DRFD_RCVC_ALWAYS_ON=FALSE     /
//                          -DPOLL_RATE=1000 -DQUEUED_POLL_RATE=100           /
//                          -DRESPONSE_POLL_RATE=100) -DREJOIN_POLL_RATE=440  /
//                          "C:\Texas Instruments\ZStack-1.4.3-1.2.1\Componen /
//                          ts\stack\zdo\ZDProfile.c" -D CC2430DB -D          /
//                          REFLECTOR -D xZTOOL_P2 -D xMT_TASK -D             /
//                          xMT_ZDO_FUNC -D xLCD_SUPPORTED=DEBUG -lC          /
//                          "C:\Texas Instruments\ZStack-1.4.3-1.2.1\Projects /
//                          \zstack\Samples\AXDApp\CC2430DB\CoordinatorDB\Lis /
//                          t\" -lA "C:\Texas Instruments\ZStack-1.4.3-1.2.1\ /
//                          Projects\zstack\Samples\AXDApp\CC2430DB\Coordinat /
//                          orDB\List\" --diag_suppress Pe001,Pa010           /
//                          --diag_remark pe550 -o "C:\Texas                  /
//                          Instruments\ZStack-1.4.3-1.2.1\Projects\zstack\Sa /
//                          mples\AXDApp\CC2430DB\CoordinatorDB\Obj\" -e      /
//                          --require_prototypes -z9 --no_code_motion         /
//                          --debug --core=plain --dptr=16,1                  /
//                          --data_model=large --code_model=banked            /
//                          --calling_convention=xdata_reentrant              /
//                          --place_constants=data --nr_virtual_regs 8 -I     /
//                          "C:\Texas Instruments\ZStack-1.4.3-1.2.1\Projects /
//                          \zstack\Samples\AXDApp\CC2430DB\" -I "C:\Texas    /
//                          Instruments\ZStack-1.4.3-1.2.1\Projects\zstack\Sa /
//                          mples\AXDApp\CC2430DB\..\SOURCE\" -I "C:\Texas    /
//                          Instruments\ZStack-1.4.3-1.2.1\Projects\zstack\Sa /
//                          mples\AXDApp\CC2430DB\..\..\..\ZMAIN\TI2430DB\"   /
//                          -I "C:\Texas Instruments\ZStack-1.4.3-1.2.1\Proje /
//                          cts\zstack\Samples\AXDApp\CC2430DB\..\..\..\..\.. /
//                          \COMPONENTS\MT\" -I "C:\Texas                     /
//                          Instruments\ZStack-1.4.3-1.2.1\Projects\zstack\Sa /
//                          mples\AXDApp\CC2430DB\..\..\..\..\..\COMPONENTS\H /
//                          AL\INCLUDE\" -I "C:\Texas                         /
//                          Instruments\ZStack-1.4.3-1.2.1\Projects\zstack\Sa /
//                          mples\AXDApp\CC2430DB\..\..\..\..\..\COMPONENTS\H /
//                          AL\TARGET\CC2430DB\" -I "C:\Texas                 /
//                          Instruments\ZStack-1.4.3-1.2.1\Projects\zstack\Sa /
//                          mples\AXDApp\CC2430DB\..\..\..\..\..\COMPONENTS\O /
//                          SAL\MCU\CCSOC\" -I "C:\Texas                      /
//                          Instruments\ZStack-1.4.3-1.2.1\Projects\zstack\Sa /
//                          mples\AXDApp\CC2430DB\..\..\..\..\..\COMPONENTS\O /
//                          SAL\INCLUDE\" -I "C:\Texas                        /
//                          Instruments\ZStack-1.4.3-1.2.1\Projects\zstack\Sa /
//                          mples\AXDApp\CC2430DB\..\..\..\..\..\COMPONENTS\S /
//                          TACK\AF\" -I "C:\Texas Instruments\ZStack-1.4.3-1 /
//                          .2.1\Projects\zstack\Samples\AXDApp\CC2430DB\..\. /
//                          .\..\..\..\COMPONENTS\STACK\NWK\" -I "C:\Texas    /
//                          Instruments\ZStack-1.4.3-1.2.1\Projects\zstack\Sa /
//                          mples\AXDApp\CC2430DB\..\..\..\..\..\COMPONENTS\S /
//                          TACK\SEC\" -I "C:\Texas                           /
//                          Instruments\ZStack-1.4.3-1.2.1\Projects\zstack\Sa /
//                          mples\AXDApp\CC2430DB\..\..\..\..\..\COMPONENTS\S /
//                          TACK\SYS\" -I "C:\Texas                           /
//                          Instruments\ZStack-1.4.3-1.2.1\Projects\zstack\Sa /
//                          mples\AXDApp\CC2430DB\..\..\..\..\..\COMPONENTS\S /
//                          TACK\ZDO\" -I "C:\Texas                           /
//                          Instruments\ZStack-1.4.3-1.2.1\Projects\zstack\Sa /
//                          mples\AXDApp\CC2430DB\..\..\..\..\..\COMPONENTS\Z /
//                          MAC\F8W\" -I "C:\Texas Instruments\ZStack-1.4.3-1 /
//                          .2.1\Projects\zstack\Samples\AXDApp\CC2430DB\..\. /
//                          .\..\..\..\COMPONENTS\ZMAC\" -I "C:\Texas         /
//                          Instruments\ZStack-1.4.3-1.2.1\Projects\zstack\Sa /
//                          mples\AXDApp\CC2430DB\..\..\..\..\..\COMPONENTS\S /
//                          ERVICES\SADDR\" -I "C:\Texas                      /
//                          Instruments\ZStack-1.4.3-1.2.1\Projects\zstack\Sa /
//                          mples\AXDApp\CC2430DB\..\..\..\..\..\COMPONENTS\S /
//                          ERVICES\SDATA\" -I "C:\Texas                      /
//                          Instruments\ZStack-1.4.3-1.2.1\Projects\zstack\Sa /
//                          mples\AXDApp\CC2430DB\..\..\..\..\..\COMPONENTS\M /
//                          AC\INCLUDE\" -I "C:\Texas                         /
//                          Instruments\ZStack-1.4.3-1.2.1\Projects\zstack\Sa /
//                          mples\AXDApp\CC2430DB\..\..\..\..\..\COMPONENTS\M /
//                          AC\HIGH_LEVEL\" -I "C:\Texas                      /
//                          Instruments\ZStack-1.4.3-1.2.1\Projects\zstack\Sa /
//                          mples\AXDApp\CC2430DB\..\..\..\..\..\COMPONENTS\M /
//                          AC\LOW_LEVEL\SRF03\" -I "C:\Texas                 /
//                          Instruments\ZStack-1.4.3-1.2.1\Projects\zstack\Sa /
//                          mples\AXDApp\CC2430DB\..\..\..\..\..\COMPONENTS\M /
//                          AC\LOW_LEVEL\SRF03\SINGLE_CHIP\" -I "C:\Program   /
//                          Files\IAR Systems\Embedded Workbench 4.0          /
//                          Evaluation version\8051\INC\" -I "C:\Program      /
//                          Files\IAR Systems\Embedded Workbench 4.0          /
//                          Evaluation version\8051\INC\CLIB\"                /
//    List file          =  C:\Texas Instruments\ZStack-1.4.3-1.2.1\Projects\ /
//                          zstack\Samples\AXDApp\CC2430DB\CoordinatorDB\List /
//                          \ZDProfile.s51                                    /
//                                                                            /
//                                                                            /
///////////////////////////////////////////////////////////////////////////////

        NAME ZDProfile

        RTMODEL "__calling_convention", "xdata_reentrant"
        RTMODEL "__code_model", "banked"
        RTMODEL "__core", "plain"
        RTMODEL "__data_model", "large"
        RTMODEL "__dptr_size", "16"
        RTMODEL "__extended_stack", "disabled"
        RTMODEL "__location_for_constants", "data"
        RTMODEL "__number_of_dptrs", "1"
        RTMODEL "__rt_version", "1"

        RSEG DOVERLAY:DATA:NOROOT(0)
        RSEG IOVERLAY:IDATA:NOROOT(0)
        RSEG ISTACK:IDATA:NOROOT(0)
        RSEG PSTACK:XDATA:NOROOT(0)
        RSEG XSTACK:XDATA:NOROOT(0)

        EXTERN ??ZDO_SendMsgCBs?relay
        EXTERN ??fillAndSend?relay
        EXTERN ?ALLOC_XSTACK8
        EXTERN ?BANKED_ENTER_XDATA
        EXTERN ?BANKED_LEAVE_XDATA
        EXTERN ?BDISPATCH
        EXTERN ?CALL_IND
        EXTERN ?DEALLOC_XSTACK8
        EXTERN ?PUSH_XSTACK_I_ONE
        EXTERN ?PUSH_XSTACK_I_THREE
        EXTERN ?PUSH_XSTACK_I_TWO
        EXTERN ?S_SHL
        EXTERN ?V0
        EXTERN ?XSP
        EXTERN ?XSTACK_DISP0_8
        EXTERN __INIT_XDATA_I
        EXTERN __INIT_XDATA_Z

        PUBLIC ??ZDO_RegisterForZDOMsg?relay
        FUNCTION ??ZDO_RegisterForZDOMsg?relay,0203H
        PUBLIC ??ZDO_RemoveRegisteredCB?relay
        FUNCTION ??ZDO_RemoveRegisteredCB?relay,0203H
        PUBLIC ??ZDO_SendMsgCBs?relay
        FUNCTION ??ZDO_SendMsgCBs?relay,0203H
        PUBLIC ??ZDP_BindUnbindReq?relay
        FUNCTION ??ZDP_BindUnbindReq?relay,0203H
        PUBLIC ??ZDP_EPRsp?relay
        FUNCTION ??ZDP_EPRsp?relay,0203H
        PUBLIC ??ZDP_EndDeviceBindReq?relay
        FUNCTION ??ZDP_EndDeviceBindReq?relay,0203H
        PUBLIC ??ZDP_GenericRsp?relay
        FUNCTION ??ZDP_GenericRsp?relay,0203H
        PUBLIC ??ZDP_IEEEAddrReq?relay
        FUNCTION ??ZDP_IEEEAddrReq?relay,0203H
        PUBLIC ??ZDP_IncomingData?relay
        FUNCTION ??ZDP_IncomingData?relay,0203H
        PUBLIC ??ZDP_MatchDescReq?relay
        FUNCTION ??ZDP_MatchDescReq?relay,0203H
        PUBLIC ??ZDP_NodeDescMsg?relay
        FUNCTION ??ZDP_NodeDescMsg?relay,0203H
        PUBLIC ??ZDP_NwkAddrReq?relay
        FUNCTION ??ZDP_NwkAddrReq?relay,0203H
        PUBLIC ??ZDP_PowerDescMsg?relay
        FUNCTION ??ZDP_PowerDescMsg?relay,0203H
        PUBLIC ??ZDP_SendData?relay
        FUNCTION ??ZDP_SendData?relay,0203H
        PUBLIC ??ZDP_SimpleDescMsg?relay
        FUNCTION ??ZDP_SimpleDescMsg?relay,0203H
        FUNCTION ??fillAndSend?relay,0203H
        PUBLIC ??zdpProcessAddrReq?relay
        FUNCTION ??zdpProcessAddrReq?relay,0203H
        PUBLIC ZDO_RegisterForZDOMsg
        FUNCTION ZDO_RegisterForZDOMsg,021203H
        ARGFRAME XSTACK, 0, STACK
        LOCFRAME ISTACK, 1, STACK
        LOCFRAME XSTACK, 14, STACK
        PUBLIC ZDO_RemoveRegisteredCB
        FUNCTION ZDO_RemoveRegisteredCB,021203H
        ARGFRAME XSTACK, 0, STACK
        LOCFRAME XSTACK, 9, STACK
        PUBLIC ZDO_SendMsgCBs
        FUNCTION ZDO_SendMsgCBs,021203H
        ARGFRAME XSTACK, 31, STACK
        ARGFRAME IOVERLAY, 0, STATIC
        ARGFRAME DOVERLAY, 0, STATIC
        LOCFRAME ISTACK, 1, STACK
        LOCFRAME XSTACK, 19, STACK
        PUBLIC ZDP_AF_ENDPOINT
        PUBLIC ZDP_BindUnbindReq
        FUNCTION ZDP_BindUnbindReq,021203H
        ARGFRAME XSTACK, 8, STACK
        LOCFRAME ISTACK, 1, STACK
        LOCFRAME XSTACK, 20, STACK
        PUBLIC ZDP_EPRsp
        FUNCTION ZDP_EPRsp,021203H
        ARGFRAME XSTACK, 7, STACK
        LOCFRAME ISTACK, 1, STACK
        LOCFRAME XSTACK, 20, STACK
        PUBLIC ZDP_EndDeviceBindReq
        FUNCTION ZDP_EndDeviceBindReq,021203H
        ARGFRAME XSTACK, 9, STACK
        LOCFRAME ISTACK, 1, STACK
        LOCFRAME XSTACK, 21, STACK
        PUBLIC ZDP_GenericRsp
        FUNCTION ZDP_GenericRsp,021203H
        ARGFRAME XSTACK, 4, STACK
        LOCFRAME ISTACK, 1, STACK
        LOCFRAME XSTACK, 13, STACK
        PUBLIC ZDP_IEEEAddrReq
        FUNCTION ZDP_IEEEAddrReq,021203H
        ARGFRAME XSTACK, 0, STACK
        LOCFRAME ISTACK, 1, STACK
        LOCFRAME XSTACK, 21, STACK
        PUBLIC ZDP_IncomingData
        FUNCTION ZDP_IncomingData,021203H
        ARGFRAME XSTACK, 0, STACK
        LOCFRAME ISTACK, 1, STACK
        LOCFRAME XSTACK, 31, STACK
        PUBLIC ZDP_MatchDescReq
        FUNCTION ZDP_MatchDescReq,021203H
        ARGFRAME XSTACK, 8, STACK
        LOCFRAME ISTACK, 1, STACK
        LOCFRAME XSTACK, 18, STACK
        PUBLIC ZDP_NodeDescMsg
        FUNCTION ZDP_NodeDescMsg,021203H
        ARGFRAME XSTACK, 2, STACK
        LOCFRAME ISTACK, 1, STACK
        LOCFRAME XSTACK, 12, STACK
        PUBLIC ZDP_NwkAddrReq
        FUNCTION ZDP_NwkAddrReq,021203H
        ARGFRAME XSTACK, 0, STACK
        LOCFRAME ISTACK, 1, STACK
        LOCFRAME XSTACK, 23, STACK
        PUBLIC ZDP_PowerDescMsg
        FUNCTION ZDP_PowerDescMsg,021203H
        ARGFRAME XSTACK, 2, STACK
        LOCFRAME ISTACK, 1, STACK
        LOCFRAME XSTACK, 12, STACK
        PUBLIC ZDP_SendData
        FUNCTION ZDP_SendData,021203H
        ARGFRAME XSTACK, 5, STACK
        LOCFRAME ISTACK, 1, STACK
        LOCFRAME XSTACK, 16, STACK
        PUBLIC ZDP_SimpleDescMsg
        FUNCTION ZDP_SimpleDescMsg,021203H
        ARGFRAME XSTACK, 0, STACK
        LOCFRAME ISTACK, 1, STACK
        LOCFRAME XSTACK, 16, STACK
        PUBLIC ZDP_TransID
        FUNCTION fillAndSend,021203H
        ARGFRAME XSTACK, 23, STACK
        ARGFRAME IOVERLAY, 0, STATIC
        ARGFRAME DOVERLAY, 0, STATIC
        LOCFRAME ISTACK, 1, STACK
        LOCFRAME XSTACK, 28, STACK
        PUBLIC zdoMsgCBs
        PUBLIC zdpMsgProcs
        PUBLIC zdpProcessAddrReq
        FUNCTION zdpProcessAddrReq,021603H
        ARGFRAME XSTACK, 0, STACK
        LOCFRAME ISTACK, 1, STACK
        LOCFRAME XSTACK, 19, STACK
        
        CFI Names cfiNames0
        CFI StackFrame CFA_SP SP DATA
        CFI StackFrame CFA_PSP16 PSP16 XDATA
        CFI StackFrame CFA_XSP16 XSP16 XDATA
        CFI StaticOverlayFrame CFA_IOVERLAY IOVERLAY
        CFI StaticOverlayFrame CFA_DOVERLAY DOVERLAY
        CFI Resource `PSW.CY`:1, `B.BR0`:1, `B.BR1`:1, `B.BR2`:1, `B.BR3`:1
        CFI Resource `B.BR4`:1, `B.BR5`:1, `B.BR6`:1, `B.BR7`:1, `VB.BR8`:1
        CFI Resource `VB.BR9`:1, `VB.BR10`:1, `VB.BR11`:1, `VB.BR12`:1
        CFI Resource `VB.BR13`:1, `VB.BR14`:1, `VB.BR15`:1, VB:8, B:8, A:8
        CFI Resource PSW:8, DPL0:8, DPH0:8, R0:8, R1:8, R2:8, R3:8, R4:8, R5:8
        CFI Resource R6:8, R7:8, V0:8, V1:8, V2:8, V3:8, V4:8, V5:8, V6:8, V7:8
        CFI Resource SP:8, PSPH:8, PSPL:8, PSP16:16, XSPH:8, XSPL:8, XSP16:16
        CFI VirtualResource ?RET:24
        CFI Resource ?BRET_EXT:8
        CFI VirtualResource ?RET_HIGH:8, ?RET_LOW:8
        CFI ResourceParts PSP16 PSPH, PSPL
        CFI ResourceParts XSP16 XSPH, XSPL
        CFI ResourceParts ?RET ?BRET_EXT, ?RET_HIGH, ?RET_LOW
        CFI EndNames cfiNames0
        
        CFI Common cfiCommon0 Using cfiNames0
        CFI CodeAlign 1
        CFI DataAlign -1
        CFI ReturnAddress ?RET CODE
        CFI CFA_DOVERLAY Used
        CFI CFA_IOVERLAY Used
        CFI CFA_SP SP+-3
        CFI CFA_PSP16 PSP16+0
        CFI CFA_XSP16 XSP16+0
        CFI `PSW.CY` SameValue
        CFI `B.BR0` SameValue
        CFI `B.BR1` SameValue
        CFI `B.BR2` SameValue
        CFI `B.BR3` SameValue
        CFI `B.BR4` SameValue
        CFI `B.BR5` SameValue
        CFI `B.BR6` SameValue
        CFI `B.BR7` SameValue
        CFI `VB.BR8` SameValue
        CFI `VB.BR9` SameValue
        CFI `VB.BR10` SameValue
        CFI `VB.BR11` SameValue
        CFI `VB.BR12` SameValue
        CFI `VB.BR13` SameValue
        CFI `VB.BR14` SameValue
        CFI `VB.BR15` SameValue
        CFI VB SameValue
        CFI B Undefined
        CFI A Undefined
        CFI PSW SameValue
        CFI DPL0 SameValue
        CFI DPH0 SameValue
        CFI R0 Undefined
        CFI R1 Undefined
        CFI R2 Undefined
        CFI R3 Undefined
        CFI R4 Undefined
        CFI R5 Undefined
        CFI R6 SameValue
        CFI R7 SameValue
        CFI V0 SameValue
        CFI V1 SameValue
        CFI V2 SameValue
        CFI V3 SameValue
        CFI V4 SameValue
        CFI V5 SameValue
        CFI V6 SameValue
        CFI V7 SameValue
        CFI PSPH Undefined
        CFI PSPL Undefined
        CFI XSPH Undefined
        CFI XSPL Undefined
        CFI ?RET Concat
        CFI ?BRET_EXT Frame(CFA_SP, 3)
        CFI ?RET_HIGH Frame(CFA_SP, 2)
        CFI ?RET_LOW Frame(CFA_SP, 1)
        CFI EndCommon cfiCommon0
        
        
        CFI Common cfiCommon1 Using cfiNames0
        CFI CodeAlign 1
        CFI DataAlign -1
        CFI ReturnAddress ?RET CODE
        CFI CFA_DOVERLAY Used
        CFI CFA_IOVERLAY Used
        CFI CFA_SP SP+-2
        CFI CFA_PSP16 PSP16+0
        CFI CFA_XSP16 XSP16+0
        CFI `PSW.CY` SameValue
        CFI `B.BR0` SameValue
        CFI `B.BR1` SameValue
        CFI `B.BR2` SameValue
        CFI `B.BR3` SameValue
        CFI `B.BR4` SameValue
        CFI `B.BR5` SameValue
        CFI `B.BR6` SameValue
        CFI `B.BR7` SameValue
        CFI `VB.BR8` SameValue
        CFI `VB.BR9` SameValue
        CFI `VB.BR10` SameValue
        CFI `VB.BR11` SameValue
        CFI `VB.BR12` SameValue
        CFI `VB.BR13` SameValue
        CFI `VB.BR14` SameValue
        CFI `VB.BR15` SameValue
        CFI VB SameValue
        CFI B SameValue
        CFI A SameValue
        CFI PSW SameValue
        CFI DPL0 SameValue
        CFI DPH0 SameValue
        CFI R0 SameValue
        CFI R1 SameValue
        CFI R2 SameValue
        CFI R3 SameValue
        CFI R4 SameValue
        CFI R5 SameValue
        CFI R6 SameValue
        CFI R7 SameValue
        CFI V0 SameValue
        CFI V1 SameValue
        CFI V2 SameValue
        CFI V3 SameValue
        CFI V4 SameValue
        CFI V5 SameValue
        CFI V6 SameValue
        CFI V7 SameValue
        CFI PSPH Undefined
        CFI PSPL Undefined
        CFI XSPH Undefined
        CFI XSPL Undefined
        CFI ?RET Concat
        CFI ?BRET_EXT SameValue
        CFI ?RET_HIGH Frame(CFA_SP, 2)
        CFI ?RET_LOW Frame(CFA_SP, 1)
        CFI EndCommon cfiCommon1
        
AF_DataRequest      SYMBOL "AF_DataRequest"
osal_ExtAddrEqual   SYMBOL "osal_ExtAddrEqual"
osal_cpyExtAddr     SYMBOL "osal_cpyExtAddr"
AssocMakeList       SYMBOL "AssocMakeList"
osal_mem_free       SYMBOL "osal_mem_free"
osal_memcpy         SYMBOL "osal_memcpy"
NLME_GetShortAddr   SYMBOL "NLME_GetShortAddr"
NLME_GetExtAddr     SYMBOL "NLME_GetExtAddr"
osal_mem_alloc      SYMBOL "osal_mem_alloc"
osal_msg_allocate   SYMBOL "osal_msg_allocate"
osal_msg_send       SYMBOL "osal_msg_send"
ZDApp_InMsgCB       SYMBOL "ZDApp_InMsgCB"
??AF_DataRequest?relay SYMBOL "?relay", AF_DataRequest
??AssocMakeList?relay SYMBOL "?relay", AssocMakeList
??NLME_GetExtAddr?relay SYMBOL "?relay", NLME_GetExtAddr
??NLME_GetShortAddr?relay SYMBOL "?relay", NLME_GetShortAddr
??ZDApp_InMsgCB?relay SYMBOL "?relay", ZDApp_InMsgCB
`?<Name ZDO_ProcessActiveEPR 17>` SYMBOL "ZDO_ProcessActiveEPReq"
??ZDO_ProcessActiveEPReq?relay SYMBOL "?relay", `?<Name ZDO_ProcessActiveEPR 17>`
`?<Name ZDO_ProcessMatchDesc 19>` SYMBOL "ZDO_ProcessMatchDescReq"
??ZDO_ProcessMatchDescReq?relay SYMBOL "?relay", `?<Name ZDO_ProcessMatchDesc 19>`
`?<Name ZDO_ProcessNodeDescR 21>` SYMBOL "ZDO_ProcessNodeDescReq"
??ZDO_ProcessNodeDescReq?relay SYMBOL "?relay", `?<Name ZDO_ProcessNodeDescR 21>`
`?<Name ZDO_ProcessPowerDesc 23>` SYMBOL "ZDO_ProcessPowerDescReq"
??ZDO_ProcessPowerDescReq?relay SYMBOL "?relay", `?<Name ZDO_ProcessPowerDesc 23>`
`?<Name ZDO_ProcessSimpleDes 25>` SYMBOL "ZDO_ProcessSimpleDescReq"
??ZDO_ProcessSimpleDescReq?relay SYMBOL "?relay", `?<Name ZDO_ProcessSimpleDes 25>`
??osal_ExtAddrEqual?relay SYMBOL "?relay", osal_ExtAddrEqual
??osal_cpyExtAddr?relay SYMBOL "?relay", osal_cpyExtAddr
??osal_mem_alloc?relay SYMBOL "?relay", osal_mem_alloc
??osal_mem_free?relay SYMBOL "?relay", osal_mem_free
??osal_memcpy?relay SYMBOL "?relay", osal_memcpy
??osal_msg_allocate?relay SYMBOL "?relay", osal_msg_allocate
??osal_msg_send?relay SYMBOL "?relay", osal_msg_send
ZDO_RegisterForZDOMsg SYMBOL "ZDO_RegisterForZDOMsg"
??ZDO_RegisterForZDOMsg?relay SYMBOL "?relay", ZDO_RegisterForZDOMsg
ZDO_RemoveRegisteredCB SYMBOL "ZDO_RemoveRegisteredCB"
??ZDO_RemoveRegisteredCB?relay SYMBOL "?relay", ZDO_RemoveRegisteredCB
ZDO_SendMsgCBs      SYMBOL "ZDO_SendMsgCBs"
??ZDO_SendMsgCBs?relay SYMBOL "?relay", ZDO_SendMsgCBs
ZDP_BindUnbindReq   SYMBOL "ZDP_BindUnbindReq"
??ZDP_BindUnbindReq?relay SYMBOL "?relay", ZDP_BindUnbindReq
ZDP_EPRsp           SYMBOL "ZDP_EPRsp"
??ZDP_EPRsp?relay   SYMBOL "?relay", ZDP_EPRsp
ZDP_EndDeviceBindReq SYMBOL "ZDP_EndDeviceBindReq"
??ZDP_EndDeviceBindReq?relay SYMBOL "?relay", ZDP_EndDeviceBindReq
ZDP_GenericRsp      SYMBOL "ZDP_GenericRsp"
??ZDP_GenericRsp?relay SYMBOL "?relay", ZDP_GenericRsp
ZDP_IEEEAddrReq     SYMBOL "ZDP_IEEEAddrReq"
??ZDP_IEEEAddrReq?relay SYMBOL "?relay", ZDP_IEEEAddrReq
ZDP_IncomingData    SYMBOL "ZDP_IncomingData"
??ZDP_IncomingData?relay SYMBOL "?relay", ZDP_IncomingData
ZDP_MatchDescReq    SYMBOL "ZDP_MatchDescReq"
??ZDP_MatchDescReq?relay SYMBOL "?relay", ZDP_MatchDescReq
ZDP_NodeDescMsg     SYMBOL "ZDP_NodeDescMsg"
??ZDP_NodeDescMsg?relay SYMBOL "?relay", ZDP_NodeDescMsg
ZDP_NwkAddrReq      SYMBOL "ZDP_NwkAddrReq"
??ZDP_NwkAddrReq?relay SYMBOL "?relay", ZDP_NwkAddrReq
ZDP_PowerDescMsg    SYMBOL "ZDP_PowerDescMsg"
??ZDP_PowerDescMsg?relay SYMBOL "?relay", ZDP_PowerDescMsg
ZDP_SendData        SYMBOL "ZDP_SendData"
??ZDP_SendData?relay SYMBOL "?relay", ZDP_SendData
ZDP_SimpleDescMsg   SYMBOL "ZDP_SimpleDescMsg"
??ZDP_SimpleDescMsg?relay SYMBOL "?relay", ZDP_SimpleDescMsg
zdpProcessAddrReq   SYMBOL "zdpProcessAddrReq"
??zdpProcessAddrReq?relay SYMBOL "?relay", zdpProcessAddrReq

        EXTERN AF_DataRequest
        FUNCTION AF_DataRequest,0202H
        ARGFRAME ISTACK, 0, STACK
        ARGFRAME PSTACK, 0, STACK
        ARGFRAME XSTACK, 28, STACK
        ARGFRAME IOVERLAY, 0, STATIC
        ARGFRAME DOVERLAY, 0, STATIC
        EXTERN osal_ExtAddrEqual
        FUNCTION osal_ExtAddrEqual,0202H
        ARGFRAME ISTACK, 0, STACK
        ARGFRAME PSTACK, 0, STACK
        ARGFRAME XSTACK, 21, STACK
        ARGFRAME IOVERLAY, 0, STATIC
        ARGFRAME DOVERLAY, 0, STATIC
        EXTERN osal_cpyExtAddr
        FUNCTION osal_cpyExtAddr,0202H
        ARGFRAME ISTACK, 0, STACK
        ARGFRAME PSTACK, 0, STACK
        ARGFRAME XSTACK, 21, STACK
        ARGFRAME IOVERLAY, 0, STATIC
        ARGFRAME DOVERLAY, 0, STATIC
        EXTERN AssocMakeList
        FUNCTION AssocMakeList,0202H
        ARGFRAME ISTACK, 0, STACK
        ARGFRAME PSTACK, 0, STACK
        ARGFRAME XSTACK, 17, STACK
        ARGFRAME IOVERLAY, 0, STATIC
        ARGFRAME DOVERLAY, 0, STATIC
        EXTERN osal_mem_free
        FUNCTION osal_mem_free,0202H
        ARGFRAME ISTACK, 0, STACK
        ARGFRAME PSTACK, 0, STACK
        ARGFRAME XSTACK, 17, STACK
        ARGFRAME IOVERLAY, 0, STATIC
        ARGFRAME DOVERLAY, 0, STATIC
        EXTERN osal_memcpy
        FUNCTION osal_memcpy,0202H
        ARGFRAME ISTACK, 0, STACK
        ARGFRAME PSTACK, 0, STACK
        ARGFRAME XSTACK, 20, STACK
        ARGFRAME IOVERLAY, 0, STATIC
        ARGFRAME DOVERLAY, 0, STATIC
        EXTERN NLME_GetShortAddr
        FUNCTION NLME_GetShortAddr,0202H
        ARGFRAME ISTACK, 0, STACK
        ARGFRAME PSTACK, 0, STACK
        ARGFRAME XSTACK, 19, STACK
        ARGFRAME IOVERLAY, 0, STATIC
        ARGFRAME DOVERLAY, 0, STATIC
        EXTERN NLME_GetExtAddr
        FUNCTION NLME_GetExtAddr,0202H
        ARGFRAME ISTACK, 0, STACK
        ARGFRAME PSTACK, 0, STACK
        ARGFRAME XSTACK, 19, STACK
        ARGFRAME IOVERLAY, 0, STATIC
        ARGFRAME DOVERLAY, 0, STATIC
        EXTERN osal_mem_alloc
        FUNCTION osal_mem_alloc,0202H
        ARGFRAME ISTACK, 0, STACK
        ARGFRAME PSTACK, 0, STACK
        ARGFRAME XSTACK, 14, STACK
        ARGFRAME IOVERLAY, 0, STATIC
        ARGFRAME DOVERLAY, 0, STATIC
        EXTERN osal_msg_allocate
        FUNCTION osal_msg_allocate,0202H
        ARGFRAME ISTACK, 0, STACK
        ARGFRAME PSTACK, 0, STACK
        ARGFRAME XSTACK, 16, STACK
        ARGFRAME IOVERLAY, 0, STATIC
        ARGFRAME DOVERLAY, 0, STATIC
        EXTERN osal_msg_send
        FUNCTION osal_msg_send,0202H
        ARGFRAME ISTACK, 0, STACK
        ARGFRAME PSTACK, 0, STACK
        ARGFRAME XSTACK, 16, STACK
        ARGFRAME IOVERLAY, 0, STATIC
        ARGFRAME DOVERLAY, 0, STATIC
        EXTERN ZDApp_InMsgCB
        FUNCTION ZDApp_InMsgCB,0202H
        ARGFRAME ISTACK, 0, STACK
        ARGFRAME PSTACK, 0, STACK
        ARGFRAME XSTACK, 31, STACK
        ARGFRAME IOVERLAY, 0, STATIC
        ARGFRAME DOVERLAY, 0, STATIC
        EXTERN ??AF_DataRequest?relay
        FUNCTION ??AF_DataRequest?relay,00H
        EXTERN ??AssocMakeList?relay
        FUNCTION ??AssocMakeList?relay,00H
        EXTERN ??NLME_GetExtAddr?relay
        FUNCTION ??NLME_GetExtAddr?relay,00H
        EXTERN ??NLME_GetShortAddr?relay
        FUNCTION ??NLME_GetShortAddr?relay,00H
        EXTERN ??ZDApp_InMsgCB?relay
        FUNCTION ??ZDApp_InMsgCB?relay,00H
        EXTERN ??ZDO_ProcessActiveEPReq?relay
        FUNCTION ??ZDO_ProcessActiveEPReq?relay,00H
        EXTERN ??ZDO_ProcessMatchDescReq?relay
        FUNCTION ??ZDO_ProcessMatchDescReq?relay,00H
        EXTERN ??ZDO_ProcessNodeDescReq?relay
        FUNCTION ??ZDO_ProcessNodeDescReq?relay,00H
        EXTERN ??ZDO_ProcessPowerDescReq?relay
        FUNCTION ??ZDO_ProcessPowerDescReq?relay,00H
        EXTERN ??ZDO_ProcessSimpleDescReq?relay
        FUNCTION ??ZDO_ProcessSimpleDescReq?relay,00H
        EXTERN ??osal_ExtAddrEqual?relay
        FUNCTION ??osal_ExtAddrEqual?relay,00H
        EXTERN ??osal_cpyExtAddr?relay
        FUNCTION ??osal_cpyExtAddr?relay,00H
        EXTERN ??osal_mem_alloc?relay
        FUNCTION ??osal_mem_alloc?relay,00H
        EXTERN ??osal_mem_free?relay
        FUNCTION ??osal_mem_free?relay,00H
        EXTERN ??osal_memcpy?relay
        FUNCTION ??osal_memcpy?relay,00H
        EXTERN ??osal_msg_allocate?relay
        FUNCTION ??osal_msg_allocate?relay,00H
        EXTERN ??osal_msg_send?relay
        FUNCTION ??osal_msg_send?relay,00H
        EXTERN ZDAppNwkAddr
        EXTERN ZDApp_epDesc
        EXTERN saveExtAddr

// C:\Texas Instruments\ZStack-1.4.3-1.2.1\Components\stack\zdo\ZDProfile.c
//    1 /**************************************************************************************************
//    2   Filename:       ZDProfile.c
//    3   Revised:        $Date: 2007-10-28 18:43:04 -0700 (Sun, 28 Oct 2007) $
//    4   Revision:       $Revision: 15800 $
//    5 
//    6   Description:    This is the Zigbee Device Profile.
//    7 
//    8 
//    9   Copyright 2004-2007 Texas Instruments Incorporated. All rights reserved.
//   10 
//   11   IMPORTANT: Your use of this Software is limited to those specific rights
//   12   granted under the terms of a software license agreement between the user
//   13   who downloaded the software, his/her employer (which must be your employer)
//   14   and Texas Instruments Incorporated (the "License").  You may not use this
//   15   Software unless you agree to abide by the terms of the License. The License
//   16   limits your use, and you acknowledge, that the Software may not be modified,
//   17   copied or distributed unless embedded on a Texas Instruments microcontroller
//   18   or used solely and exclusively in conjunction with a Texas Instruments radio
//   19   frequency transceiver, which is integrated into your product.  Other than for
//   20   the foregoing purpose, you may not use, reproduce, copy, prepare derivative
//   21   works of, modify, distribute, perform, display or sell this Software and/or
//   22   its documentation for any purpose.
//   23 
//   24   YOU FURTHER ACKNOWLEDGE AND AGREE THAT THE SOFTWARE AND DOCUMENTATION ARE
//   25   PROVIDED “AS IS” WITHOUT WARRANTY OF ANY KIND, EITHER EXPRESS OR IMPLIED, 
//   26   INCLUDING WITHOUT LIMITATION, ANY WARRANTY OF MERCHANTABILITY, TITLE, 
//   27   NON-INFRINGEMENT AND FITNESS FOR A PARTICULAR PURPOSE. IN NO EVENT SHALL
//   28   TEXAS INSTRUMENTS OR ITS LICENSORS BE LIABLE OR OBLIGATED UNDER CONTRACT,
//   29   NEGLIGENCE, STRICT LIABILITY, CONTRIBUTION, BREACH OF WARRANTY, OR OTHER
//   30   LEGAL EQUITABLE THEORY ANY DIRECT OR INDIRECT DAMAGES OR EXPENSES
//   31   INCLUDING BUT NOT LIMITED TO ANY INCIDENTAL, SPECIAL, INDIRECT, PUNITIVE
//   32   OR CONSEQUENTIAL DAMAGES, LOST PROFITS OR LOST DATA, COST OF PROCUREMENT
//   33   OF SUBSTITUTE GOODS, TECHNOLOGY, SERVICES, OR ANY CLAIMS BY THIRD PARTIES
//   34   (INCLUDING BUT NOT LIMITED TO ANY DEFENSE THEREOF), OR OTHER SIMILAR COSTS.
//   35 
//   36   Should you have any questions regarding your right to use this Software,
//   37   contact Texas Instruments Incorporated at www.TI.com. 
//   38 **************************************************************************************************/
//   39 
//   40 /*********************************************************************
//   41  * INCLUDES
//   42  */
//   43 #include "ZComdef.h"
//   44 #include "OSAL.h"
//   45 #include "AF.h"
//   46 #include "NLMEDE.h"
//   47 #include "nwk_util.h"
//   48 #include "APS.h"
//   49 
//   50 #include "AddrMgr.h"
//   51 #include "ZDConfig.h"
//   52 #include "ZDProfile.h"
//   53 #include "ZDObject.h"
//   54 
//   55 #if defined( LCD_SUPPORTED )
//   56   #include "OnBoard.h"
//   57 #endif
//   58 
//   59 #include "nwk_util.h"
//   60 
//   61 #if defined( MT_ZDO_FUNC )
//   62   #include "MT_ZDO.h"
//   63 #endif
//   64 
//   65 /*********************************************************************
//   66  * MACROS
//   67  */
//   68 
//   69 #define ZADDR_TO_AFADDR( pZADDR, AFADDR ) {                            \ 
//   70   (AFADDR).endPoint = ZDP_AF_ENDPOINT;                                 \ 
//   71   (AFADDR).addrMode = (afAddrMode_t)(pZADDR)->addrMode;                \ 
//   72   (AFADDR).addr.shortAddr = (pZADDR)->addr.shortAddr;                  \ 
//   73 }
//   74 
//   75 #define FillAndSendBuffer( TRANSSEQ, ADDR, ID, LEN, BUF ) {     \ 
//   76   afStatus_t stat;                                    \ 
//   77   ZDP_TmpBuf = (BUF)+1;                               \ 
//   78   stat = fillAndSend( (TRANSSEQ), (ADDR), (ID), (LEN) );          \ 
//   79   osal_mem_free( (BUF) );                             \ 
//   80   ZDP_TmpBuf = ZDP_Buf+1;                             \ 
//   81   return stat;                                        \ 
//   82 }
//   83 
//   84 #define FillAndSendTxOptions( TRANSSEQ, ADDR, ID, LEN, TxO ) {  \ 
//   85   afStatus_t stat;                                    \ 
//   86   ZDP_TxOptions = (TxO);                              \ 
//   87   stat = fillAndSend( (TRANSSEQ), (ADDR), (ID), (LEN) );          \ 
//   88   ZDP_TxOptions = AF_TX_OPTIONS_NONE;                 \ 
//   89   return stat;                                        \ 
//   90 }
//   91 
//   92 /*********************************************************************
//   93  * CONSTANTS
//   94  */
//   95 
//   96 #define ZDP_BUF_SZ          80
//   97 

        RSEG CODE_C:CODE:REORDER:NOROOT(0)
        DATA
//   98 CONST byte ZDP_AF_ENDPOINT = 0;
ZDP_AF_ENDPOINT:
        DB 0
//   99 
//  100 /*********************************************************************
//  101  * TYPEDEFS
//  102  */
//  103 typedef struct
//  104 {
//  105   void *next;
//  106   uint8 taskID;
//  107   uint16 clusterID;
//  108 } ZDO_MsgCB_t;
//  109 
//  110 
//  111 /*********************************************************************
//  112  * GLOBAL VARIABLES
//  113  */
//  114 

        RSEG XDATA_Z:XDATA:NOROOT(0)
//  115 byte ZDP_TransID = 0;
ZDP_TransID:
        DS 1
        REQUIRE __INIT_XDATA_Z
//  116 
//  117 /*********************************************************************
//  118  * EXTERNAL VARIABLES
//  119  */
//  120 
//  121 extern endPointDesc_t ZDApp_epDesc;
//  122 
//  123 /*********************************************************************
//  124  * EXTERNAL FUNCTIONS
//  125  */
//  126 
//  127 /*********************************************************************
//  128  * LOCAL FUNCTIONS
//  129  */
//  130 
//  131 static afStatus_t fillAndSend( uint8 *transSeq, zAddrType_t *addr, cId_t clusterID, byte len );
//  132 uint8 ZDO_SendMsgCBs( zdoIncomingMsg_t *inMsg );
//  133 void zdpProcessAddrReq( zdoIncomingMsg_t *inMsg );
//  134 
//  135 /*********************************************************************
//  136  * LOCAL VARIABLES
//  137  */
//  138 

        RSEG XDATA_Z:XDATA:NOROOT(0)
//  139 static uint8  ZDP_Buf[ ZDP_BUF_SZ ];
ZDP_Buf:
        DS 80
        REQUIRE __INIT_XDATA_Z

        RSEG XDATA_I:XDATA:NOROOT(0)
        DATA
//  140 static uint8 *ZDP_TmpBuf = ZDP_Buf+1;
ZDP_TmpBuf:
        DS 2
        REQUIRE `?<Initializer for ZDP_TmpBuf>`
        REQUIRE __INIT_XDATA_I

        RSEG XDATA_Z:XDATA:NOROOT(0)
//  141 static byte ZDP_TxOptions = AF_TX_OPTIONS_NONE;
ZDP_TxOptions:
        DS 1
        REQUIRE __INIT_XDATA_Z
//  142 

        RSEG XDATA_Z:XDATA:NOROOT(0)
//  143 ZDO_MsgCB_t *zdoMsgCBs = (ZDO_MsgCB_t *)NULL;
zdoMsgCBs:
        DS 2
        REQUIRE __INIT_XDATA_Z
//  144 
//  145 /*********************************************************************
//  146  * ZDO Message Processing table
//  147  */
//  148 
//  149 typedef void (*pfnZDPMsgProcessor)( zdoIncomingMsg_t *inMsg );
//  150 
//  151 typedef struct
//  152 {
//  153   uint16                clusterID;
//  154   pfnZDPMsgProcessor    pFn;
//  155 } zdpMsgProcItem_t;
//  156 

        RSEG CODE_C:CODE:REORDER:NOROOT(0)
        DATA
//  157 CONST zdpMsgProcItem_t zdpMsgProcs[] = 
zdpMsgProcs:
        DW 0, ??zdpProcessAddrReq?relay, 1, ??zdpProcessAddrReq?relay, 2
        DW ??ZDO_ProcessNodeDescReq?relay, 3, ??ZDO_ProcessPowerDescReq?relay
        DW 4, ??ZDO_ProcessSimpleDescReq?relay, 5
        DW ??ZDO_ProcessActiveEPReq?relay, 6, ??ZDO_ProcessMatchDescReq?relay
        DW 65535, 0H
//  158 {
//  159   { NWK_addr_req,           zdpProcessAddrReq },
//  160   { IEEE_addr_req,          zdpProcessAddrReq },
//  161   { Node_Desc_req,          ZDO_ProcessNodeDescReq },
//  162   { Power_Desc_req,         ZDO_ProcessPowerDescReq },
//  163   { Simple_Desc_req,        ZDO_ProcessSimpleDescReq },
//  164   { Active_EP_req,          ZDO_ProcessActiveEPReq },
//  165   { Match_Desc_req,         ZDO_ProcessMatchDescReq },
//  166 #if defined ( ZDO_MGMT_NWKDISC_RESPONSE )
//  167   { Mgmt_NWK_Disc_req,      ZDO_ProcessMgmtNwkDiscReq },
//  168 #endif
//  169 #if defined ( ZDO_MGMT_LQI_RESPONSE ) && defined ( RTR_NWK )
//  170   { Mgmt_Lqi_req,           ZDO_ProcessMgmtLqiReq },
//  171 #endif
//  172 #if defined ( ZDO_MGMT_RTG_RESPONSE ) && defined ( RTR_NWK )
//  173   { Mgmt_Rtg_req,           ZDO_ProcessMgmtRtgReq },
//  174 #endif
//  175 #if defined ( ZDO_MGMT_BIND_RESPONSE ) && defined ( REFLECTOR )
//  176   { Mgmt_Bind_req,          ZDO_ProcessMgmtBindReq },
//  177 #endif
//  178 #if defined ( ZDO_MGMT_JOINDIRECT_RESPONSE ) && defined ( RTR_NWK )
//  179   { Mgmt_Direct_Join_req,   ZDO_ProcessMgmtDirectJoinReq },
//  180 #endif
//  181 #if defined ( ZDO_MGMT_LEAVE_RESPONSE )
//  182   { Mgmt_Leave_req,         ZDO_ProcessMgmtLeaveReq },
//  183 #endif
//  184 #if defined ( ZDO_MGMT_PERMIT_JOIN_RESPONSE )  && defined ( RTR_NWK )
//  185   { Mgmt_Permit_Join_req,   ZDO_ProcessMgmtPermitJoinReq },
//  186 #endif
//  187 #if defined ( ZDO_USERDESC_RESPONSE )
//  188   { User_Desc_req,          ZDO_ProcessUserDescReq },
//  189 #endif
//  190 #if defined ( ZDO_USERDESCSET_RESPONSE )
//  191   { User_Desc_set,          ZDO_ProcessUserDescSet },
//  192 #endif
//  193 #if defined ( ZDO_SERVERDISC_RESPONSE )
//  194   { Server_Discovery_req,   ZDO_ProcessServerDiscReq },
//  195 #endif
//  196 #if defined ( ZDO_ENDDEVICE_ANNCE ) && defined ( RTR_NWK )
//  197   { End_Device_annce,       ZDO_ProcessEndDeviceAnnce },
//  198 #endif
//  199   {0xFFFF, NULL} // Last
//  200 };
//  201 
//  202 /*********************************************************************
//  203  * @fn          fillAndSend
//  204  *
//  205  * @brief       Combined to reduce space
//  206  *
//  207  * @param
//  208  * @param
//  209  *
//  210  * @return      afStatus_t
//  211  */

        RSEG BANKED_CODE:CODE:NOROOT(0)
//  212 static afStatus_t fillAndSend( uint8 *transSeq, zAddrType_t *addr, cId_t clusterID, byte len )
fillAndSend:
        CFI Block cfiBlock0 Using cfiCommon0
        CFI Function fillAndSend
//  213 {
        FUNCALL fillAndSend, AF_DataRequest
        LOCFRAME ISTACK, 0, STACK
        LOCFRAME PSTACK, 0, STACK
        LOCFRAME XSTACK, 28, STACK
        LOCFRAME IOVERLAY, 0, STATIC
        LOCFRAME DOVERLAY, 0, STATIC
        ARGFRAME ISTACK, 0, STACK
        ARGFRAME PSTACK, 0, STACK
        ARGFRAME XSTACK, 28, STACK
        ARGFRAME IOVERLAY, 0, STATIC
        ARGFRAME DOVERLAY, 0, STATIC
        MOV     A,#-0xf
        LCALL   ?BANKED_ENTER_XDATA
        CFI DPH0 load(1, XDATA, add(CFA_XSP16, literal(-1)))
        CFI DPL0 load(1, XDATA, add(CFA_XSP16, literal(-2)))
        CFI ?BRET_EXT load(1, XDATA, add(CFA_XSP16, literal(-3)))
        CFI ?RET_HIGH load(1, XDATA, add(CFA_XSP16, literal(-4)))
        CFI ?RET_LOW load(1, XDATA, add(CFA_XSP16, literal(-5)))
        CFI R7 load(1, XDATA, add(CFA_XSP16, literal(-6)))
        CFI V6 load(1, XDATA, add(CFA_XSP16, literal(-7)))
        CFI V5 load(1, XDATA, add(CFA_XSP16, literal(-8)))
        CFI V4 load(1, XDATA, add(CFA_XSP16, literal(-9)))
        CFI V3 load(1, XDATA, add(CFA_XSP16, literal(-10)))
        CFI V2 load(1, XDATA, add(CFA_XSP16, literal(-11)))
        CFI V1 load(1, XDATA, add(CFA_XSP16, literal(-12)))
        CFI V0 load(1, XDATA, add(CFA_XSP16, literal(-13)))
        CFI VB load(1, XDATA, add(CFA_XSP16, literal(-14)))
        CFI R6 load(1, XDATA, add(CFA_XSP16, literal(-15)))
        CFI CFA_SP SP+0
        CFI CFA_XSP16 add(XSP16, 15)
        ; Saved register size: 15
        ; Auto size: 4
        MOV     A,#-0x4
        LCALL   ?ALLOC_XSTACK8
        CFI CFA_XSP16 add(XSP16, 19)
        MOV     ?V0 + 0,R2
        MOV     ?V0 + 1,R3
        MOV     A,#0x13
        LCALL   ?XSTACK_DISP0_8
        MOVX    A,@DPTR
        MOV     ?V0 + 2,A
        INC     DPTR
        MOVX    A,@DPTR
        MOV     ?V0 + 3,A
//  214   afAddrType_t afAddr;
//  215 
//  216   ZADDR_TO_AFADDR( addr, afAddr );
        MOV     A,#0x3
        LCALL   ?XSTACK_DISP0_8
        CLR     A
        MOVX    @DPTR,A
        MOV     DPL,R4
        MOV     DPH,R5
        INC     DPTR
        INC     DPTR
        INC     DPTR
        INC     DPTR
        INC     DPTR
        INC     DPTR
        INC     DPTR
        INC     DPTR
        MOVX    A,@DPTR
        PUSH    A
        CFI CFA_SP SP+-1
        MOV     A,#0x2
        LCALL   ?XSTACK_DISP0_8
        POP     A
        CFI CFA_SP SP+0
        MOVX    @DPTR,A
        MOV     DPL,R4
        MOV     DPH,R5
        LCALL   ??Subroutine15_0 & 0xFFFF
??CrossCallReturnLabel_46:
        MOV     DPL,?XSP + 0
        MOV     DPH,?XSP + 1
        LCALL   ?Subroutine25 & 0xFFFF
//  217 
//  218   *(ZDP_TmpBuf-1) = *transSeq;
??CrossCallReturnLabel_75:
        MOV     DPTR,#ZDP_TmpBuf
        MOVX    A,@DPTR
        ADD     A,#-0x1
        MOV     ?V0 + 4,A
        INC     DPTR
        MOVX    A,@DPTR
        ADDC    A,#-0x1
        MOV     ?V0 + 5,A
        MOV     DPL,?V0 + 0
        MOV     DPH,?V0 + 1
        MOVX    A,@DPTR
        MOV     DPL,?V0 + 4
        MOV     DPH,?V0 + 5
        MOVX    @DPTR,A
//  219 
//  220   return AF_DataRequest( &afAddr, &ZDApp_epDesc, clusterID,
//  221                            (uint16)(len+1), (uint8*)(ZDP_TmpBuf-1),
//  222                            transSeq, ZDP_TxOptions,  AF_DEFAULT_RADIUS );
        ; Setup parameters for call to function AF_DataRequest
        MOV     ?V0 + 6,#0xa
        MOV     R0,#?V0 + 6
        LCALL   ?PUSH_XSTACK_I_ONE
        CFI CFA_XSP16 add(XSP16, 20)
        MOV     R0,#?V0 + 0
        LCALL   ?PUSH_XSTACK_I_TWO
        CFI CFA_XSP16 add(XSP16, 22)
        MOV     R0,#?V0 + 4
        LCALL   ?PUSH_XSTACK_I_TWO
        CFI CFA_XSP16 add(XSP16, 24)
        MOV     ?V0 + 0,R1
        MOV     A,#0x1
        ADD     A,?V0 + 0
        MOV     ?V0 + 0,A
        CLR     A
        ADDC    A,#0x0
        MOV     ?V0 + 1,A
        MOV     R0,#?V0 + 0
        LCALL   ?PUSH_XSTACK_I_TWO
        CFI CFA_XSP16 add(XSP16, 26)
        MOV     R0,#?V0 + 2
        LCALL   ?PUSH_XSTACK_I_TWO
        CFI CFA_XSP16 add(XSP16, 28)
        MOV     DPTR,#ZDP_TxOptions
        MOVX    A,@DPTR
        MOV     R1,A
        MOV     R4,#(ZDApp_epDesc & 0xff)
        MOV     R5,#((ZDApp_epDesc >> 8) & 0xff)
        MOV     A,#0x9
        LCALL   ?XSTACK_DISP0_8
        MOV     R2,DPL
        MOV     R3,DPH
        LCALL   ??AF_DataRequest?relay
        MOV     A,#0x9
        LCALL   ?DEALLOC_XSTACK8
        CFI CFA_XSP16 add(XSP16, 19)
        MOV     A,#0x4
        LCALL   ?DEALLOC_XSTACK8
        CFI CFA_XSP16 add(XSP16, 15)
        MOV     R7,#0x7
        LJMP    ?BANKED_LEAVE_XDATA
        CFI EndBlock cfiBlock0
//  223 
//  224 }
//  225 
//  226 /*********************************************************************
//  227  * @fn          ZDP_SendData
//  228  *
//  229  * @brief       This builds and send a request message that has
//  230  *              NWKAddrOfInterest as its only parameter.
//  231  *
//  232  * @param       dstAddr - destination address
//  233  * @param       cmd - clusterID
//  234  * @param       dataLen - number of bytes of data
//  235  * @param       data - pointer to the data
//  236  * @param       SecurityEnable - Security Options
//  237  *
//  238  * @return      afStatus_t
//  239  */

        RSEG BANKED_CODE:CODE:NOROOT(0)
//  240 afStatus_t ZDP_SendData( byte *TransSeq, zAddrType_t *dstAddr, uint16 cmd,
ZDP_SendData:
        CFI Block cfiBlock1 Using cfiCommon0
        CFI Function ZDP_SendData
//  241                         byte len, byte *buf, byte SecurityEnable )
//  242 {
        FUNCALL ZDP_SendData, fillAndSend
        LOCFRAME ISTACK, 0, STACK
        LOCFRAME PSTACK, 0, STACK
        LOCFRAME XSTACK, 16, STACK
        LOCFRAME IOVERLAY, 0, STATIC
        LOCFRAME DOVERLAY, 0, STATIC
        ARGFRAME ISTACK, 0, STACK
        ARGFRAME PSTACK, 0, STACK
        ARGFRAME XSTACK, 16, STACK
        ARGFRAME IOVERLAY, 0, STATIC
        ARGFRAME DOVERLAY, 0, STATIC
        MOV     A,#-0xe
        LCALL   ?BANKED_ENTER_XDATA
        CFI DPH0 load(1, XDATA, add(CFA_XSP16, literal(-1)))
        CFI DPL0 load(1, XDATA, add(CFA_XSP16, literal(-2)))
        CFI ?BRET_EXT load(1, XDATA, add(CFA_XSP16, literal(-3)))
        CFI ?RET_HIGH load(1, XDATA, add(CFA_XSP16, literal(-4)))
        CFI ?RET_LOW load(1, XDATA, add(CFA_XSP16, literal(-5)))
        CFI R7 load(1, XDATA, add(CFA_XSP16, literal(-6)))
        CFI V5 load(1, XDATA, add(CFA_XSP16, literal(-7)))
        CFI V4 load(1, XDATA, add(CFA_XSP16, literal(-8)))
        CFI V3 load(1, XDATA, add(CFA_XSP16, literal(-9)))
        CFI V2 load(1, XDATA, add(CFA_XSP16, literal(-10)))
        CFI V1 load(1, XDATA, add(CFA_XSP16, literal(-11)))
        CFI V0 load(1, XDATA, add(CFA_XSP16, literal(-12)))
        CFI VB load(1, XDATA, add(CFA_XSP16, literal(-13)))
        CFI R6 load(1, XDATA, add(CFA_XSP16, literal(-14)))
        CFI CFA_SP SP+0
        CFI CFA_XSP16 add(XSP16, 14)
        ; Saved register size: 14
        ; Auto size: 0
        MOV     ?V0 + 2,R1
        MOV     A,#0xe
        LCALL   ?XSTACK_DISP0_8
        LCALL   ?Subroutine3 & 0xFFFF
??CrossCallReturnLabel_6:
        MOV     A,#0x10
        LCALL   ?XSTACK_DISP0_8
        LCALL   ?Subroutine19 & 0xFFFF
??CrossCallReturnLabel_60:
        MOV     A,#0x12
        LCALL   ?XSTACK_DISP0_8
        LCALL   ?Subroutine4 & 0xFFFF
//  243   byte *pBuf = ZDP_TmpBuf;
//  244   byte cnt = len;
??CrossCallReturnLabel_13:
        MOV     ?V0 + 4,?V0 + 2
        SJMP    ??ZDP_SendData_0
//  245 
//  246   while ( cnt-- )
//  247   {
//  248     *pBuf++ = *buf++;
??ZDP_SendData_1:
        MOV     DPL,R6
        MOV     DPH,R7
        LCALL   ?Subroutine16 & 0xFFFF
??CrossCallReturnLabel_52:
        MOV     DPL,R6
        MOV     DPH,R7
        INC     DPTR
        MOV     R6,DPL
        MOV     R7,DPH
        MOV     DPL,R0
        MOV     DPH,R1
        INC     DPTR
        MOV     R0,DPL
        MOV     R1,DPH
//  249   }
??ZDP_SendData_0:
        MOV     ?V0 + 5,?V0 + 4
        MOV     A,#-0x1
        ADD     A,?V0 + 5
        MOV     ?V0 + 4,A
        MOV     A,?V0 + 5
        JNZ     ??ZDP_SendData_1
//  250 
//  251   FillAndSendTxOptions( TransSeq, dstAddr, cmd, len,
//  252                (AF_DEFAULT_RADIUS | ((SecurityEnable) ? AF_EN_SECURITY : 0)) );
        MOV     A,?V0 + 3
        JZ      ??ZDP_SendData_2
        MOV     R0,#0x40
        SJMP    ??ZDP_SendData_3
??ZDP_SendData_2:
        MOV     R0,#0x0
??ZDP_SendData_3:
        MOV     A,R0
        ORL     A,#0xa
        MOV     DPTR,#ZDP_TxOptions
        MOVX    @DPTR,A
        ; Setup parameters for call to function fillAndSend
        MOV     R0,#?V0 + 0
        LCALL   ?PUSH_XSTACK_I_TWO
        CFI CFA_XSP16 add(XSP16, 16)
        MOV     R1,?V0 + 2
        LCALL   ?Subroutine51 & 0xFFFF
??CrossCallReturnLabel_145:
        LCALL   ?DEALLOC_XSTACK8
        CFI CFA_XSP16 add(XSP16, 14)
        CLR     A
        MOV     DPTR,#ZDP_TxOptions
        MOVX    @DPTR,A
        CFI EndBlock cfiBlock1
        REQUIRE ?Subroutine46
        ; // Fall through to label ?Subroutine46
//  253 }

        RSEG BANKED_CODE:CODE:NOROOT(0)
?Subroutine46:
        CFI Block cfiBlock2 Using cfiCommon0
        CFI NoFunction
        CFI CFA_SP SP+0
        CFI CFA_XSP16 add(XSP16, 14)
        CFI VB load(1, XDATA, add(CFA_XSP16, literal(-13)))
        CFI DPL0 load(1, XDATA, add(CFA_XSP16, literal(-2)))
        CFI DPH0 load(1, XDATA, add(CFA_XSP16, literal(-1)))
        CFI R6 load(1, XDATA, add(CFA_XSP16, literal(-14)))
        CFI R7 load(1, XDATA, add(CFA_XSP16, literal(-6)))
        CFI V0 load(1, XDATA, add(CFA_XSP16, literal(-12)))
        CFI V1 load(1, XDATA, add(CFA_XSP16, literal(-11)))
        CFI V2 load(1, XDATA, add(CFA_XSP16, literal(-10)))
        CFI V3 load(1, XDATA, add(CFA_XSP16, literal(-9)))
        CFI V4 load(1, XDATA, add(CFA_XSP16, literal(-8)))
        CFI V5 load(1, XDATA, add(CFA_XSP16, literal(-7)))
        CFI ?BRET_EXT load(1, XDATA, add(CFA_XSP16, literal(-3)))
        CFI ?RET_HIGH load(1, XDATA, add(CFA_XSP16, literal(-4)))
        CFI ?RET_LOW load(1, XDATA, add(CFA_XSP16, literal(-5)))
        MOV     R7,#0x6
        LJMP    ?BANKED_LEAVE_XDATA
        CFI EndBlock cfiBlock2
//  254 
//  255 #if defined ( ZDO_NODEDESC_REQUEST ) || defined ( ZDO_POWERDESC_REQUEST ) ||\ 
//  256     defined ( ZDO_ACTIVEEP_REQUEST ) || defined ( ZDO_COMPLEXDESC_REQUEST ) ||\ 
//  257     defined ( ZDO_USERDESC_REQUEST )
//  258 /*********************************************************************
//  259  * @fn          ZDP_NWKAddrOfInterestReq
//  260  *
//  261  * @brief       This builds and send a request message that has
//  262  *              NWKAddrOfInterest as its only parameter.
//  263  *
//  264  * @param       dstAddr - destination address
//  265  * @param       nwkAddr - 16 bit address
//  266  * @param       SecurityEnable - Security Options
//  267  *
//  268  * @return      afStatus_t
//  269  */
//  270 afStatus_t ZDP_NWKAddrOfInterestReq( zAddrType_t *dstAddr, uint16 nwkAddr,
//  271                                      byte cmd, byte SecurityEnable )
//  272 {
//  273   ZDP_TmpBuf[0] = LO_UINT16( nwkAddr );
//  274   ZDP_TmpBuf[1] = HI_UINT16( nwkAddr );
//  275 
//  276   return fillAndSend( &ZDP_TransID, dstAddr, cmd, 2 );
//  277 }
//  278 #endif // ZDO_NODEDESC_REQUEST ZDO_POWERDESC_REQUEST ZDO_ACTIVEEP_REQUEST ZDO_COMPLEXDESC_REQUEST  ZDO_USERDESC_REQUEST
//  279 
//  280 /*********************************************************************
//  281  * Address Requests
//  282  */
//  283 
//  284 #if defined ( ZDO_NWKADDR_REQUEST )
//  285 /*********************************************************************
//  286  * @fn          ZDP_NwkAddrReq
//  287  *
//  288  * @brief       This builds and send a NWK_addr_req message.  This
//  289  *              function sends a broadcast message looking for a 16
//  290  *              bit address with a 64 bit address as bait.
//  291  *
//  292  * @param       IEEEAddress - looking for this device
//  293  * @param       SecurityEnable - Security Options
//  294  *
//  295  * @return      afStatus_t
//  296  */

        RSEG BANKED_CODE:CODE:NOROOT(0)
//  297 afStatus_t ZDP_NwkAddrReq( byte *IEEEAddress, byte ReqType,
ZDP_NwkAddrReq:
        CFI Block cfiBlock3 Using cfiCommon0
        CFI Function ZDP_NwkAddrReq
//  298                            byte StartIndex, byte SecurityEnable )
//  299 {
        FUNCALL ZDP_NwkAddrReq, osal_ExtAddrEqual
        LOCFRAME ISTACK, 0, STACK
        LOCFRAME PSTACK, 0, STACK
        LOCFRAME XSTACK, 21, STACK
        LOCFRAME IOVERLAY, 0, STATIC
        LOCFRAME DOVERLAY, 0, STATIC
        ARGFRAME ISTACK, 0, STACK
        ARGFRAME PSTACK, 0, STACK
        ARGFRAME XSTACK, 21, STACK
        ARGFRAME IOVERLAY, 0, STATIC
        ARGFRAME DOVERLAY, 0, STATIC
        FUNCALL ZDP_NwkAddrReq, osal_cpyExtAddr
        LOCFRAME ISTACK, 0, STACK
        LOCFRAME PSTACK, 0, STACK
        LOCFRAME XSTACK, 21, STACK
        LOCFRAME IOVERLAY, 0, STATIC
        LOCFRAME DOVERLAY, 0, STATIC
        ARGFRAME ISTACK, 0, STACK
        ARGFRAME PSTACK, 0, STACK
        ARGFRAME XSTACK, 21, STACK
        ARGFRAME IOVERLAY, 0, STATIC
        ARGFRAME DOVERLAY, 0, STATIC
        FUNCALL ZDP_NwkAddrReq, fillAndSend
        LOCFRAME ISTACK, 0, STACK
        LOCFRAME PSTACK, 0, STACK
        LOCFRAME XSTACK, 23, STACK
        LOCFRAME IOVERLAY, 0, STATIC
        LOCFRAME DOVERLAY, 0, STATIC
        ARGFRAME ISTACK, 0, STACK
        ARGFRAME PSTACK, 0, STACK
        ARGFRAME XSTACK, 23, STACK
        ARGFRAME IOVERLAY, 0, STATIC
        ARGFRAME DOVERLAY, 0, STATIC
        MOV     A,#-0xc
        LCALL   ?BANKED_ENTER_XDATA
        CFI DPH0 load(1, XDATA, add(CFA_XSP16, literal(-1)))
        CFI DPL0 load(1, XDATA, add(CFA_XSP16, literal(-2)))
        CFI ?BRET_EXT load(1, XDATA, add(CFA_XSP16, literal(-3)))
        CFI ?RET_HIGH load(1, XDATA, add(CFA_XSP16, literal(-4)))
        CFI ?RET_LOW load(1, XDATA, add(CFA_XSP16, literal(-5)))
        CFI R7 load(1, XDATA, add(CFA_XSP16, literal(-6)))
        CFI V3 load(1, XDATA, add(CFA_XSP16, literal(-7)))
        CFI V2 load(1, XDATA, add(CFA_XSP16, literal(-8)))
        CFI V1 load(1, XDATA, add(CFA_XSP16, literal(-9)))
        CFI V0 load(1, XDATA, add(CFA_XSP16, literal(-10)))
        CFI VB load(1, XDATA, add(CFA_XSP16, literal(-11)))
        CFI R6 load(1, XDATA, add(CFA_XSP16, literal(-12)))
        CFI CFA_SP SP+0
        CFI CFA_XSP16 add(XSP16, 12)
        ; Saved register size: 12
        ; Auto size: 9
        MOV     A,#-0x9
        LCALL   ?ALLOC_XSTACK8
        CFI CFA_XSP16 add(XSP16, 21)
        MOV     ?V0 + 2,R2
        MOV     ?V0 + 3,R3
        MOV     ?V0 + 0,R1
        MOV     ?V0 + 1,R4
//  300   byte *pBuf = ZDP_TmpBuf;
        MOV     DPTR,#ZDP_TmpBuf
        LCALL   ?Subroutine19 & 0xFFFF
//  301   byte len = Z_EXTADDR_LEN + 1 + 1;  // IEEEAddress + ReqType + StartIndex.
//  302   zAddrType_t dstAddr;
//  303 
//  304   if ( osal_ExtAddrEqual( saveExtAddr, IEEEAddress ) == FALSE )
??CrossCallReturnLabel_61:
        ; Setup parameters for call to function osal_ExtAddrEqual
        MOV     R4,?V0 + 2
        MOV     R5,?V0 + 3
        MOV     R2,#(saveExtAddr & 0xff)
        MOV     R3,#((saveExtAddr >> 8) & 0xff)
        LCALL   ??osal_ExtAddrEqual?relay
        MOV     A,R1
        JNZ     ??ZDP_NwkAddrReq_0
//  305   {
//  306     dstAddr.addrMode = AddrBroadcast;
        MOV     A,#0x8
        LCALL   ?XSTACK_DISP0_8
        MOV     A,#0xf
        LCALL   ?Subroutine22 & 0xFFFF
//  307     dstAddr.addr.shortAddr = NWK_BROADCAST_SHORTADDR;
??CrossCallReturnLabel_66:
        MOV     A,#-0x1
        MOVX    @DPTR,A
        INC     DPTR
        SJMP    ??ZDP_NwkAddrReq_1
//  308   }
//  309   else
//  310   {
//  311     dstAddr.addrMode = Addr16Bit;
??ZDP_NwkAddrReq_0:
        MOV     A,#0x8
        LCALL   ?XSTACK_DISP0_8
        MOV     A,#0x2
        MOVX    @DPTR,A
//  312     dstAddr.addr.shortAddr = ZDAppNwkAddr.addr.shortAddr;
        MOV     DPTR,#ZDAppNwkAddr
        LCALL   ??Subroutine4_1 & 0xFFFF
??CrossCallReturnLabel_15:
        MOV     DPL,?XSP + 0
        MOV     DPH,?XSP + 1
        MOV     A,R0
        MOVX    @DPTR,A
        INC     DPTR
        MOV     A,R1
??ZDP_NwkAddrReq_1:
        MOVX    @DPTR,A
//  313   }
//  314 
//  315   pBuf = osal_cpyExtAddr( pBuf, IEEEAddress );
        ; Setup parameters for call to function osal_cpyExtAddr
        MOV     R4,?V0 + 2
        MOV     R5,?V0 + 3
        MOV     A,R6
        MOV     R2,A
        MOV     A,R7
        MOV     R3,A
        LCALL   ??osal_cpyExtAddr?relay
        MOV     ?V0 + 2,R2
        MOV     ?V0 + 3,R3
        MOV     R6,?V0 + 2
        MOV     R7,?V0 + 3
//  316 
//  317   *pBuf++ = ReqType;
        MOV     DPL,R6
        MOV     DPH,R7
        MOV     A,?V0 + 0
        MOVX    @DPTR,A
        INC     DPTR
//  318   *pBuf++ = StartIndex;
        MOV     A,?V0 + 1
        MOVX    @DPTR,A
//  319 
//  320   return fillAndSend( &ZDP_TransID, &dstAddr, NWK_addr_req, len );
        ; Setup parameters for call to function fillAndSend
        MOV     ?V0 + 0,#0x0
        MOV     ?V0 + 1,#0x0
        MOV     R0,#?V0 + 0
        LCALL   ?PUSH_XSTACK_I_TWO
        CFI CFA_XSP16 add(XSP16, 23)
        MOV     R1,#0xa
        MOV     A,#0x2
        LCALL   ?XSTACK_DISP0_8
        LCALL   ?Subroutine31 & 0xFFFF
??CrossCallReturnLabel_142:
        LCALL   ?DEALLOC_XSTACK8
        CFI CFA_XSP16 add(XSP16, 21)
        MOV     A,#0x9
        CFI EndBlock cfiBlock3
        REQUIRE ?Subroutine47
        ; // Fall through to label ?Subroutine47
//  321 }

        RSEG BANKED_CODE:CODE:NOROOT(0)
?Subroutine47:
        CFI Block cfiBlock4 Using cfiCommon0
        CFI NoFunction
        CFI CFA_SP SP+0
        CFI CFA_XSP16 add(XSP16, 21)
        CFI VB load(1, XDATA, add(CFA_XSP16, literal(-11)))
        CFI DPL0 load(1, XDATA, add(CFA_XSP16, literal(-2)))
        CFI DPH0 load(1, XDATA, add(CFA_XSP16, literal(-1)))
        CFI R6 load(1, XDATA, add(CFA_XSP16, literal(-12)))
        CFI R7 load(1, XDATA, add(CFA_XSP16, literal(-6)))
        CFI V0 load(1, XDATA, add(CFA_XSP16, literal(-10)))
        CFI V1 load(1, XDATA, add(CFA_XSP16, literal(-9)))
        CFI V2 load(1, XDATA, add(CFA_XSP16, literal(-8)))
        CFI V3 load(1, XDATA, add(CFA_XSP16, literal(-7)))
        CFI ?BRET_EXT load(1, XDATA, add(CFA_XSP16, literal(-3)))
        CFI ?RET_HIGH load(1, XDATA, add(CFA_XSP16, literal(-4)))
        CFI ?RET_LOW load(1, XDATA, add(CFA_XSP16, literal(-5)))
        CFI Invalid
        LCALL   ?DEALLOC_XSTACK8
        CFI CFA_XSP16 add(XSP16, 12)
        CFI Valid
        MOV     R7,#0x4
        LJMP    ?BANKED_LEAVE_XDATA
        CFI EndBlock cfiBlock4
//  322 #endif
//  323 
//  324 #if defined ( ZDO_IEEEADDR_REQUEST )
//  325 /*********************************************************************
//  326  * @fn          ZDP_IEEEAddrReq
//  327  *
//  328  * @brief       This builds and send a IEEE_addr_req message.  This
//  329  *              function sends a unicast message looking for a 64
//  330  *              bit IEEE address with a 16 bit address as bait.
//  331  *
//  332  * @param       ReqType - ZDP_IEEEADDR_REQTYPE_SINGLE or
//  333  *                        ZDP_IEEEADDR_REQTYPE_EXTENDED
//  334  * @param       SecurityEnable - Security Options
//  335  *
//  336  * @return      afStatus_t
//  337  */

        RSEG BANKED_CODE:CODE:NOROOT(0)
//  338 afStatus_t ZDP_IEEEAddrReq( uint16 shortAddr, byte ReqType,
ZDP_IEEEAddrReq:
        CFI Block cfiBlock5 Using cfiCommon0
        CFI Function ZDP_IEEEAddrReq
//  339                             byte StartIndex, byte SecurityEnable )
//  340 {
        FUNCALL ZDP_IEEEAddrReq, fillAndSend
        LOCFRAME ISTACK, 0, STACK
        LOCFRAME PSTACK, 0, STACK
        LOCFRAME XSTACK, 21, STACK
        LOCFRAME IOVERLAY, 0, STATIC
        LOCFRAME DOVERLAY, 0, STATIC
        ARGFRAME ISTACK, 0, STACK
        ARGFRAME PSTACK, 0, STACK
        ARGFRAME XSTACK, 21, STACK
        ARGFRAME IOVERLAY, 0, STATIC
        ARGFRAME DOVERLAY, 0, STATIC
        MOV     A,#-0xa
        LCALL   ?BANKED_ENTER_XDATA
        CFI DPH0 load(1, XDATA, add(CFA_XSP16, literal(-1)))
        CFI DPL0 load(1, XDATA, add(CFA_XSP16, literal(-2)))
        CFI ?BRET_EXT load(1, XDATA, add(CFA_XSP16, literal(-3)))
        CFI ?RET_HIGH load(1, XDATA, add(CFA_XSP16, literal(-4)))
        CFI ?RET_LOW load(1, XDATA, add(CFA_XSP16, literal(-5)))
        CFI R7 load(1, XDATA, add(CFA_XSP16, literal(-6)))
        CFI V1 load(1, XDATA, add(CFA_XSP16, literal(-7)))
        CFI V0 load(1, XDATA, add(CFA_XSP16, literal(-8)))
        CFI VB load(1, XDATA, add(CFA_XSP16, literal(-9)))
        CFI R6 load(1, XDATA, add(CFA_XSP16, literal(-10)))
        CFI CFA_SP SP+0
        CFI CFA_XSP16 add(XSP16, 10)
        ; Saved register size: 10
        ; Auto size: 9
        MOV     A,#-0x9
        LCALL   ?ALLOC_XSTACK8
        CFI CFA_XSP16 add(XSP16, 19)
        MOV     A,R1
        MOV     R5,A
//  341   byte *pBuf = ZDP_TmpBuf;
        LCALL   ??Subroutine4_0 & 0xFFFF
//  342   byte len = 2 + 1 + 1;  // shortAddr + ReqType + StartIndex.
//  343   zAddrType_t dstAddr;
//  344 
//  345   dstAddr.addrMode = (afAddrMode_t)Addr16Bit;
??CrossCallReturnLabel_16:
        MOV     A,#0x8
        LCALL   ?XSTACK_DISP0_8
        MOV     A,#0x2
        LCALL   ?Subroutine22 & 0xFFFF
//  346   dstAddr.addr.shortAddr = shortAddr;
??CrossCallReturnLabel_67:
        LCALL   ?Subroutine25 & 0xFFFF
//  347 
//  348   *pBuf++ = LO_UINT16( shortAddr );
??CrossCallReturnLabel_76:
        MOV     A,R2
        MOV     DPL,R0
        MOV     DPH,R1
        LCALL   ??Subroutine25_0 & 0xFFFF
//  349   *pBuf++ = HI_UINT16( shortAddr );
??CrossCallReturnLabel_74:
        INC     DPTR
//  350 
//  351   *pBuf++ = ReqType;
        MOV     A,R5
        MOVX    @DPTR,A
        INC     DPTR
//  352   *pBuf++ = StartIndex;
        MOV     A,R4
        MOVX    @DPTR,A
//  353 
//  354   return fillAndSend( &ZDP_TransID, &dstAddr, IEEE_addr_req, len );
        ; Setup parameters for call to function fillAndSend
        MOV     ?V0 + 0,#0x1
        MOV     ?V0 + 1,#0x0
        MOV     R0,#?V0 + 0
        LCALL   ?PUSH_XSTACK_I_TWO
        CFI CFA_XSP16 add(XSP16, 21)
        MOV     R1,#0x4
        MOV     A,#0x2
        LCALL   ?XSTACK_DISP0_8
        LCALL   ?Subroutine31 & 0xFFFF
??CrossCallReturnLabel_143:
        LCALL   ?DEALLOC_XSTACK8
        CFI CFA_XSP16 add(XSP16, 19)
        MOV     A,#0x9
        SJMP    ??Subroutine48_0
        CFI EndBlock cfiBlock5
//  355 }

        RSEG BANKED_CODE:CODE:NOROOT(0)
?Subroutine48:
        CFI Block cfiBlock6 Using cfiCommon0
        CFI NoFunction
        CFI CFA_SP SP+0
        CFI CFA_XSP16 add(XSP16, 12)
        CFI VB load(1, XDATA, add(CFA_XSP16, literal(-9)))
        CFI DPL0 load(1, XDATA, add(CFA_XSP16, literal(-2)))
        CFI DPH0 load(1, XDATA, add(CFA_XSP16, literal(-1)))
        CFI R6 load(1, XDATA, add(CFA_XSP16, literal(-10)))
        CFI R7 load(1, XDATA, add(CFA_XSP16, literal(-6)))
        CFI V0 load(1, XDATA, add(CFA_XSP16, literal(-8)))
        CFI V1 load(1, XDATA, add(CFA_XSP16, literal(-7)))
        CFI ?BRET_EXT load(1, XDATA, add(CFA_XSP16, literal(-3)))
        CFI ?RET_HIGH load(1, XDATA, add(CFA_XSP16, literal(-4)))
        CFI ?RET_LOW load(1, XDATA, add(CFA_XSP16, literal(-5)))
        LCALL   ?Subroutine30 & 0xFFFF
??Subroutine48_0:
        LCALL   ?DEALLOC_XSTACK8
        CFI CFA_XSP16 add(XSP16, 10)
        MOV     R7,#0x2
        LJMP    ?BANKED_LEAVE_XDATA
        CFI EndBlock cfiBlock6

        RSEG BANKED_CODE:CODE:NOROOT(0)
?Subroutine22:
        CFI Block cfiCond7 Using cfiCommon0
        CFI NoFunction
        CFI Conditional ??CrossCallReturnLabel_66
        CFI R6 load(1, XDATA, add(CFA_XSP16, literal(-12)))
        CFI VB load(1, XDATA, add(CFA_XSP16, literal(-11)))
        CFI V0 load(1, XDATA, add(CFA_XSP16, literal(-10)))
        CFI V1 load(1, XDATA, add(CFA_XSP16, literal(-9)))
        CFI V2 load(1, XDATA, add(CFA_XSP16, literal(-8)))
        CFI V3 load(1, XDATA, add(CFA_XSP16, literal(-7)))
        CFI R7 load(1, XDATA, add(CFA_XSP16, literal(-6)))
        CFI ?RET_LOW load(1, XDATA, add(CFA_XSP16, literal(-5)))
        CFI ?RET_HIGH load(1, XDATA, add(CFA_XSP16, literal(-4)))
        CFI ?BRET_EXT load(1, XDATA, add(CFA_XSP16, literal(-3)))
        CFI DPL0 load(1, XDATA, add(CFA_XSP16, literal(-2)))
        CFI DPH0 load(1, XDATA, add(CFA_XSP16, literal(-1)))
        CFI CFA_SP SP+0
        CFI CFA_XSP16 add(XSP16, 21)
        CFI Block cfiCond8 Using cfiCommon0
        CFI (cfiCond8) NoFunction
        CFI (cfiCond8) Conditional ??CrossCallReturnLabel_67
        CFI (cfiCond8) R6 load(1, XDATA, add(CFA_XSP16, literal(-10)))
        CFI (cfiCond8) VB load(1, XDATA, add(CFA_XSP16, literal(-9)))
        CFI (cfiCond8) V0 load(1, XDATA, add(CFA_XSP16, literal(-8)))
        CFI (cfiCond8) V1 load(1, XDATA, add(CFA_XSP16, literal(-7)))
        CFI (cfiCond8) R7 load(1, XDATA, add(CFA_XSP16, literal(-6)))
        CFI (cfiCond8) ?RET_LOW load(1, XDATA, add(CFA_XSP16, literal(-5)))
        CFI (cfiCond8) ?RET_HIGH load(1, XDATA, add(CFA_XSP16, literal(-4)))
        CFI (cfiCond8) ?BRET_EXT load(1, XDATA, add(CFA_XSP16, literal(-3)))
        CFI (cfiCond8) DPL0 load(1, XDATA, add(CFA_XSP16, literal(-2)))
        CFI (cfiCond8) DPH0 load(1, XDATA, add(CFA_XSP16, literal(-1)))
        CFI (cfiCond8) CFA_SP SP+0
        CFI (cfiCond8) CFA_XSP16 add(XSP16, 19)
        CFI Block cfiCond9 Using cfiCommon0
        CFI (cfiCond9) NoFunction
        CFI (cfiCond9) Conditional ??CrossCallReturnLabel_68
        CFI (cfiCond9) R6 load(1, XDATA, add(CFA_XSP16, literal(-12)))
        CFI (cfiCond9) VB load(1, XDATA, add(CFA_XSP16, literal(-11)))
        CFI (cfiCond9) V0 load(1, XDATA, add(CFA_XSP16, literal(-10)))
        CFI (cfiCond9) V1 load(1, XDATA, add(CFA_XSP16, literal(-9)))
        CFI (cfiCond9) V2 load(1, XDATA, add(CFA_XSP16, literal(-8)))
        CFI (cfiCond9) V3 load(1, XDATA, add(CFA_XSP16, literal(-7)))
        CFI (cfiCond9) R7 load(1, XDATA, add(CFA_XSP16, literal(-6)))
        CFI (cfiCond9) ?RET_LOW load(1, XDATA, add(CFA_XSP16, literal(-5)))
        CFI (cfiCond9) ?RET_HIGH load(1, XDATA, add(CFA_XSP16, literal(-4)))
        CFI (cfiCond9) ?BRET_EXT load(1, XDATA, add(CFA_XSP16, literal(-3)))
        CFI (cfiCond9) DPL0 load(1, XDATA, add(CFA_XSP16, literal(-2)))
        CFI (cfiCond9) DPH0 load(1, XDATA, add(CFA_XSP16, literal(-1)))
        CFI (cfiCond9) CFA_SP SP+0
        CFI (cfiCond9) CFA_XSP16 add(XSP16, 31)
        CFI Block cfiPicker10 Using cfiCommon1
        CFI (cfiPicker10) NoFunction
        CFI (cfiPicker10) Picker
        MOVX    @DPTR,A
        ; Setup parameters for call to function ZDO_SendMsgCBs
        MOV     DPL,?XSP + 0
        MOV     DPH,?XSP + 1
        RET
        CFI EndBlock cfiCond7
        CFI EndBlock cfiCond8
        CFI EndBlock cfiCond9
        CFI EndBlock cfiPicker10
//  356 #endif
//  357 
//  358 #if defined ( ZDO_MATCH_REQUEST )
//  359 /*********************************************************************
//  360  * @fn          ZDP_MatchDescReq
//  361  *
//  362  * @brief       This builds and send a Match_Desc_req message.  This
//  363  *              function sends a broadcast or unicast message
//  364  *              requesting the list of endpoint/interfaces that
//  365  *              match profile ID and cluster IDs.
//  366  *
//  367  * @param       dstAddr - destination address
//  368  * @param       ProfileID - Profile ID
//  369  * @param       NumInClusters - number of input clusters
//  370  * @param       InClusterList - input cluster ID list
//  371  * @param       NumOutClusters - number of output clusters
//  372  * @param       OutClusterList - output cluster ID list
//  373  * @param       SecurityEnable - Security Options
//  374  *
//  375  * @return      afStatus_t
//  376  */

        RSEG BANKED_CODE:CODE:NOROOT(0)
//  377 afStatus_t ZDP_MatchDescReq( zAddrType_t *dstAddr, uint16 nwkAddr,
ZDP_MatchDescReq:
        CFI Block cfiBlock11 Using cfiCommon0
        CFI Function ZDP_MatchDescReq
//  378                                 uint16 ProfileID,
//  379                                 byte NumInClusters, cId_t *InClusterList,
//  380                                 byte NumOutClusters, cId_t *OutClusterList,
//  381                                 byte SecurityEnable )
//  382 {
        FUNCALL ZDP_MatchDescReq, fillAndSend
        LOCFRAME ISTACK, 0, STACK
        LOCFRAME PSTACK, 0, STACK
        LOCFRAME XSTACK, 18, STACK
        LOCFRAME IOVERLAY, 0, STATIC
        LOCFRAME DOVERLAY, 0, STATIC
        ARGFRAME ISTACK, 0, STACK
        ARGFRAME PSTACK, 0, STACK
        ARGFRAME XSTACK, 18, STACK
        ARGFRAME IOVERLAY, 0, STATIC
        ARGFRAME DOVERLAY, 0, STATIC
        MOV     A,#-0x10
        LCALL   ?BANKED_ENTER_XDATA
        CFI DPH0 load(1, XDATA, add(CFA_XSP16, literal(-1)))
        CFI DPL0 load(1, XDATA, add(CFA_XSP16, literal(-2)))
        CFI ?BRET_EXT load(1, XDATA, add(CFA_XSP16, literal(-3)))
        CFI ?RET_HIGH load(1, XDATA, add(CFA_XSP16, literal(-4)))
        CFI ?RET_LOW load(1, XDATA, add(CFA_XSP16, literal(-5)))
        CFI R7 load(1, XDATA, add(CFA_XSP16, literal(-6)))
        CFI V7 load(1, XDATA, add(CFA_XSP16, literal(-7)))
        CFI V6 load(1, XDATA, add(CFA_XSP16, literal(-8)))
        CFI V5 load(1, XDATA, add(CFA_XSP16, literal(-9)))
        CFI V4 load(1, XDATA, add(CFA_XSP16, literal(-10)))
        CFI V3 load(1, XDATA, add(CFA_XSP16, literal(-11)))
        CFI V2 load(1, XDATA, add(CFA_XSP16, literal(-12)))
        CFI V1 load(1, XDATA, add(CFA_XSP16, literal(-13)))
        CFI V0 load(1, XDATA, add(CFA_XSP16, literal(-14)))
        CFI VB load(1, XDATA, add(CFA_XSP16, literal(-15)))
        CFI R6 load(1, XDATA, add(CFA_XSP16, literal(-16)))
        CFI CFA_SP SP+0
        CFI CFA_XSP16 add(XSP16, 16)
        ; Saved register size: 16
        ; Auto size: 0
        MOV     ?V0 + 6,R2
        MOV     ?V0 + 7,R3
        MOV     A,R1
        MOV     R7,A
        MOV     A,#0x10
        LCALL   ?XSTACK_DISP0_8
        LCALL   ??Subroutine15_0 & 0xFFFF
??CrossCallReturnLabel_47:
        MOV     A,#0x12
        LCALL   ?XSTACK_DISP0_8
        LCALL   ?Subroutine3 & 0xFFFF
??CrossCallReturnLabel_7:
        MOV     A,#0x14
        LCALL   ?XSTACK_DISP0_8
        MOVX    A,@DPTR
        MOV     ?V0 + 4,A
        MOV     A,#0x15
        LCALL   ?XSTACK_DISP0_8
        MOVX    A,@DPTR
        MOV     ?V0 + 2,A
        INC     DPTR
        LCALL   ?Subroutine4 & 0xFFFF
//  383   byte *pBuf = ZDP_TmpBuf;
//  384   // nwkAddr+ProfileID+NumInClusters+NumOutClusters.
//  385   byte i, len = 2 + 2 + 1 + 1;  // nwkAddr+ProfileID+NumInClusters+NumOutClusters.
//  386   
//  387   len += (NumInClusters + NumOutClusters) * sizeof(uint16);
??CrossCallReturnLabel_14:
        MOV     A,?V0 + 4
        ADD     A,R7
        CLR     C
        RLC     A
        ADD     A,#0x6
        MOV     R6,A
//  388 
//  389   if ( len >= ZDP_BUF_SZ-1 )
        CLR     C
        SUBB    A,#0x4f
        JC      ??ZDP_MatchDescReq_0
//  390   {
//  391     return afStatus_MEM_FAIL;
        MOV     R1,#-0x7f
        SJMP    ??ZDP_MatchDescReq_1
//  392   }
//  393 
//  394   *pBuf++ = LO_UINT16( nwkAddr );   // NWKAddrOfInterest
??ZDP_MatchDescReq_0:
        MOV     A,R4
        MOV     DPL,R0
        MOV     DPH,R1
        MOVX    @DPTR,A
        INC     DPTR
//  395   *pBuf++ = HI_UINT16( nwkAddr );
        MOV     A,R5
        MOVX    @DPTR,A
        INC     DPTR
//  396 
//  397   *pBuf++ = LO_UINT16( ProfileID );   // Profile ID
        LCALL   ?Subroutine25 & 0xFFFF
//  398   *pBuf++ = HI_UINT16( ProfileID );
??CrossCallReturnLabel_73:
        INC     DPTR
//  399 
//  400   *pBuf++ = NumInClusters; // Input cluster list
        MOV     A,R7
        LCALL   ?Subroutine26 & 0xFFFF
//  401   if ( NumInClusters )
??CrossCallReturnLabel_135:
        JZ      ??ZDP_MatchDescReq_2
//  402   {
//  403     for (i=0; i<NumInClusters; ++i)  {
        MOV     ?V0 + 5,#0x0
//  404       *pBuf++ = LO_UINT16( InClusterList[i] );
??ZDP_MatchDescReq_3:
        MOV     A,?V0 + 5
        CLR     C
        RLC     A
        MOV     R2,A
        CLR     A
        RLC     A
        MOV     R3,A
        MOV     A,?V0 + 0
        ADD     A,R2
        MOV     R4,A
        MOV     A,?V0 + 1
        ADDC    A,R3
        MOV     R5,A
        MOV     DPL,R4
        MOV     DPH,R5
        LCALL   ?Subroutine7 & 0xFFFF
//  405       *pBuf++ = HI_UINT16( InClusterList[i] );
??CrossCallReturnLabel_31:
        MOV     DPL,R4
        MOV     DPH,R5
        LCALL   ?Subroutine10 & 0xFFFF
//  406     }
??CrossCallReturnLabel_38:
        SUBB    A,R7
        JC      ??ZDP_MatchDescReq_3
//  407   }
//  408 
//  409   *pBuf++ = NumOutClusters; // Output cluster list
??ZDP_MatchDescReq_2:
        MOV     DPL,R0
        MOV     DPH,R1
        MOV     A,?V0 + 4
        LCALL   ?Subroutine26 & 0xFFFF
//  410   if ( NumOutClusters )
??CrossCallReturnLabel_136:
        JZ      ??ZDP_MatchDescReq_4
//  411   {
//  412     for (i=0; i<NumOutClusters; ++i)  {
        MOV     ?V0 + 5,#0x0
//  413       *pBuf++ = LO_UINT16( OutClusterList[i] );
??ZDP_MatchDescReq_5:
        MOV     A,?V0 + 5
        CLR     C
        RLC     A
        MOV     R2,A
        CLR     A
        RLC     A
        MOV     R3,A
        MOV     A,?V0 + 2
        ADD     A,R2
        MOV     R2,A
        MOV     A,?V0 + 3
        ADDC    A,R3
        MOV     R3,A
        MOV     DPL,R2
        MOV     DPH,R3
        LCALL   ?Subroutine7 & 0xFFFF
//  414       *pBuf++ = HI_UINT16( OutClusterList[i] );
??CrossCallReturnLabel_32:
        MOV     DPL,R2
        MOV     DPH,R3
        LCALL   ?Subroutine10 & 0xFFFF
//  415     }
??CrossCallReturnLabel_39:
        SUBB    A,?V0 + 4
        JC      ??ZDP_MatchDescReq_5
//  416   }
//  417 
//  418   return fillAndSend( &ZDP_TransID, dstAddr, Match_Desc_req, len );
??ZDP_MatchDescReq_4:
        ; Setup parameters for call to function fillAndSend
        MOV     ?V0 + 0,#0x6
        MOV     ?V0 + 1,#0x0
        MOV     R0,#?V0 + 0
        LCALL   ?PUSH_XSTACK_I_TWO
        CFI CFA_XSP16 add(XSP16, 18)
        MOV     A,R6
        MOV     R1,A
        MOV     R4,?V0 + 6
        MOV     R5,?V0 + 7
        LCALL   ?Subroutine53 & 0xFFFF
??CrossCallReturnLabel_144:
        LCALL   ?DEALLOC_XSTACK8
        CFI CFA_XSP16 add(XSP16, 16)
??ZDP_MatchDescReq_1:
        LJMP    ??Subroutine52_1 & 0xFFFF
        CFI EndBlock cfiBlock11
//  419 }

        RSEG BANKED_CODE:CODE:NOROOT(0)
?Subroutine10:
        CFI Block cfiCond12 Using cfiCommon0
        CFI NoFunction
        CFI Conditional ??CrossCallReturnLabel_38
        CFI R6 load(1, XDATA, add(CFA_XSP16, literal(-16)))
        CFI VB load(1, XDATA, add(CFA_XSP16, literal(-15)))
        CFI V0 load(1, XDATA, add(CFA_XSP16, literal(-14)))
        CFI V1 load(1, XDATA, add(CFA_XSP16, literal(-13)))
        CFI V2 load(1, XDATA, add(CFA_XSP16, literal(-12)))
        CFI V3 load(1, XDATA, add(CFA_XSP16, literal(-11)))
        CFI V4 load(1, XDATA, add(CFA_XSP16, literal(-10)))
        CFI V5 load(1, XDATA, add(CFA_XSP16, literal(-9)))
        CFI V6 load(1, XDATA, add(CFA_XSP16, literal(-8)))
        CFI V7 load(1, XDATA, add(CFA_XSP16, literal(-7)))
        CFI R7 load(1, XDATA, add(CFA_XSP16, literal(-6)))
        CFI ?RET_LOW load(1, XDATA, add(CFA_XSP16, literal(-5)))
        CFI ?RET_HIGH load(1, XDATA, add(CFA_XSP16, literal(-4)))
        CFI ?BRET_EXT load(1, XDATA, add(CFA_XSP16, literal(-3)))
        CFI DPL0 load(1, XDATA, add(CFA_XSP16, literal(-2)))
        CFI DPH0 load(1, XDATA, add(CFA_XSP16, literal(-1)))
        CFI CFA_SP SP+0
        CFI CFA_XSP16 add(XSP16, 16)
        CFI Block cfiCond13 Using cfiCommon0
        CFI (cfiCond13) NoFunction
        CFI (cfiCond13) Conditional ??CrossCallReturnLabel_39
        CFI (cfiCond13) R6 load(1, XDATA, add(CFA_XSP16, literal(-16)))
        CFI (cfiCond13) VB load(1, XDATA, add(CFA_XSP16, literal(-15)))
        CFI (cfiCond13) V0 load(1, XDATA, add(CFA_XSP16, literal(-14)))
        CFI (cfiCond13) V1 load(1, XDATA, add(CFA_XSP16, literal(-13)))
        CFI (cfiCond13) V2 load(1, XDATA, add(CFA_XSP16, literal(-12)))
        CFI (cfiCond13) V3 load(1, XDATA, add(CFA_XSP16, literal(-11)))
        CFI (cfiCond13) V4 load(1, XDATA, add(CFA_XSP16, literal(-10)))
        CFI (cfiCond13) V5 load(1, XDATA, add(CFA_XSP16, literal(-9)))
        CFI (cfiCond13) V6 load(1, XDATA, add(CFA_XSP16, literal(-8)))
        CFI (cfiCond13) V7 load(1, XDATA, add(CFA_XSP16, literal(-7)))
        CFI (cfiCond13) R7 load(1, XDATA, add(CFA_XSP16, literal(-6)))
        CFI (cfiCond13) ?RET_LOW load(1, XDATA, add(CFA_XSP16, literal(-5)))
        CFI (cfiCond13) ?RET_HIGH load(1, XDATA, add(CFA_XSP16, literal(-4)))
        CFI (cfiCond13) ?BRET_EXT load(1, XDATA, add(CFA_XSP16, literal(-3)))
        CFI (cfiCond13) DPL0 load(1, XDATA, add(CFA_XSP16, literal(-2)))
        CFI (cfiCond13) DPH0 load(1, XDATA, add(CFA_XSP16, literal(-1)))
        CFI (cfiCond13) CFA_SP SP+0
        CFI (cfiCond13) CFA_XSP16 add(XSP16, 16)
        CFI Block cfiPicker14 Using cfiCommon1
        CFI (cfiPicker14) NoFunction
        CFI (cfiPicker14) Picker
        LCALL   ?Subroutine35 & 0xFFFF
??CrossCallReturnLabel_108:
        INC     ?V0 + 5
        MOV     A,?V0 + 5
        CLR     C
        RET
        CFI EndBlock cfiCond12
        CFI EndBlock cfiCond13
        CFI EndBlock cfiPicker14

        RSEG BANKED_CODE:CODE:NOROOT(0)
?Subroutine35:
        CFI Block cfiCond15 Using cfiCommon0
        CFI NoFunction
        CFI Conditional ??CrossCallReturnLabel_108, ??CrossCallReturnLabel_38
        CFI R6 load(1, XDATA, add(CFA_XSP16, literal(-16)))
        CFI VB load(1, XDATA, add(CFA_XSP16, literal(-15)))
        CFI V0 load(1, XDATA, add(CFA_XSP16, literal(-14)))
        CFI V1 load(1, XDATA, add(CFA_XSP16, literal(-13)))
        CFI V2 load(1, XDATA, add(CFA_XSP16, literal(-12)))
        CFI V3 load(1, XDATA, add(CFA_XSP16, literal(-11)))
        CFI V4 load(1, XDATA, add(CFA_XSP16, literal(-10)))
        CFI V5 load(1, XDATA, add(CFA_XSP16, literal(-9)))
        CFI V6 load(1, XDATA, add(CFA_XSP16, literal(-8)))
        CFI V7 load(1, XDATA, add(CFA_XSP16, literal(-7)))
        CFI R7 load(1, XDATA, add(CFA_XSP16, literal(-6)))
        CFI ?RET_LOW load(1, XDATA, add(CFA_XSP16, literal(-5)))
        CFI ?RET_HIGH load(1, XDATA, add(CFA_XSP16, literal(-4)))
        CFI ?BRET_EXT load(1, XDATA, add(CFA_XSP16, literal(-3)))
        CFI DPL0 load(1, XDATA, add(CFA_XSP16, literal(-2)))
        CFI DPH0 load(1, XDATA, add(CFA_XSP16, literal(-1)))
        CFI CFA_SP SP+0
        CFI CFA_XSP16 add(XSP16, 16)
        CFI Block cfiCond16 Using cfiCommon0
        CFI (cfiCond16) NoFunction
        CFI (cfiCond16) Conditional ??CrossCallReturnLabel_108, ??CrossCallReturnLabel_39
        CFI (cfiCond16) R6 load(1, XDATA, add(CFA_XSP16, literal(-16)))
        CFI (cfiCond16) VB load(1, XDATA, add(CFA_XSP16, literal(-15)))
        CFI (cfiCond16) V0 load(1, XDATA, add(CFA_XSP16, literal(-14)))
        CFI (cfiCond16) V1 load(1, XDATA, add(CFA_XSP16, literal(-13)))
        CFI (cfiCond16) V2 load(1, XDATA, add(CFA_XSP16, literal(-12)))
        CFI (cfiCond16) V3 load(1, XDATA, add(CFA_XSP16, literal(-11)))
        CFI (cfiCond16) V4 load(1, XDATA, add(CFA_XSP16, literal(-10)))
        CFI (cfiCond16) V5 load(1, XDATA, add(CFA_XSP16, literal(-9)))
        CFI (cfiCond16) V6 load(1, XDATA, add(CFA_XSP16, literal(-8)))
        CFI (cfiCond16) V7 load(1, XDATA, add(CFA_XSP16, literal(-7)))
        CFI (cfiCond16) R7 load(1, XDATA, add(CFA_XSP16, literal(-6)))
        CFI (cfiCond16) ?RET_LOW load(1, XDATA, add(CFA_XSP16, literal(-5)))
        CFI (cfiCond16) ?RET_HIGH load(1, XDATA, add(CFA_XSP16, literal(-4)))
        CFI (cfiCond16) ?BRET_EXT load(1, XDATA, add(CFA_XSP16, literal(-3)))
        CFI (cfiCond16) DPL0 load(1, XDATA, add(CFA_XSP16, literal(-2)))
        CFI (cfiCond16) DPH0 load(1, XDATA, add(CFA_XSP16, literal(-1)))
        CFI (cfiCond16) CFA_SP SP+0
        CFI (cfiCond16) CFA_XSP16 add(XSP16, 16)
        CFI Block cfiCond17 Using cfiCommon0
        CFI (cfiCond17) NoFunction
        CFI (cfiCond17) Conditional ??CrossCallReturnLabel_106, ??CrossCallReturnLabel_0
        CFI (cfiCond17) R6 load(1, XDATA, add(CFA_XSP16, literal(-14)))
        CFI (cfiCond17) VB load(1, XDATA, add(CFA_XSP16, literal(-13)))
        CFI (cfiCond17) V0 load(1, XDATA, add(CFA_XSP16, literal(-12)))
        CFI (cfiCond17) V1 load(1, XDATA, add(CFA_XSP16, literal(-11)))
        CFI (cfiCond17) V2 load(1, XDATA, add(CFA_XSP16, literal(-10)))
        CFI (cfiCond17) V3 load(1, XDATA, add(CFA_XSP16, literal(-9)))
        CFI (cfiCond17) V4 load(1, XDATA, add(CFA_XSP16, literal(-8)))
        CFI (cfiCond17) V5 load(1, XDATA, add(CFA_XSP16, literal(-7)))
        CFI (cfiCond17) R7 load(1, XDATA, add(CFA_XSP16, literal(-6)))
        CFI (cfiCond17) ?RET_LOW load(1, XDATA, add(CFA_XSP16, literal(-5)))
        CFI (cfiCond17) ?RET_HIGH load(1, XDATA, add(CFA_XSP16, literal(-4)))
        CFI (cfiCond17) ?BRET_EXT load(1, XDATA, add(CFA_XSP16, literal(-3)))
        CFI (cfiCond17) DPL0 load(1, XDATA, add(CFA_XSP16, literal(-2)))
        CFI (cfiCond17) DPH0 load(1, XDATA, add(CFA_XSP16, literal(-1)))
        CFI (cfiCond17) CFA_SP SP+0
        CFI (cfiCond17) CFA_XSP16 add(XSP16, 14)
        CFI Block cfiCond18 Using cfiCommon0
        CFI (cfiCond18) NoFunction
        CFI (cfiCond18) Conditional ??CrossCallReturnLabel_106, ??CrossCallReturnLabel_1
        CFI (cfiCond18) R6 load(1, XDATA, add(CFA_XSP16, literal(-14)))
        CFI (cfiCond18) VB load(1, XDATA, add(CFA_XSP16, literal(-13)))
        CFI (cfiCond18) V0 load(1, XDATA, add(CFA_XSP16, literal(-12)))
        CFI (cfiCond18) V1 load(1, XDATA, add(CFA_XSP16, literal(-11)))
        CFI (cfiCond18) V2 load(1, XDATA, add(CFA_XSP16, literal(-10)))
        CFI (cfiCond18) V3 load(1, XDATA, add(CFA_XSP16, literal(-9)))
        CFI (cfiCond18) V4 load(1, XDATA, add(CFA_XSP16, literal(-8)))
        CFI (cfiCond18) V5 load(1, XDATA, add(CFA_XSP16, literal(-7)))
        CFI (cfiCond18) R7 load(1, XDATA, add(CFA_XSP16, literal(-6)))
        CFI (cfiCond18) ?RET_LOW load(1, XDATA, add(CFA_XSP16, literal(-5)))
        CFI (cfiCond18) ?RET_HIGH load(1, XDATA, add(CFA_XSP16, literal(-4)))
        CFI (cfiCond18) ?BRET_EXT load(1, XDATA, add(CFA_XSP16, literal(-3)))
        CFI (cfiCond18) DPL0 load(1, XDATA, add(CFA_XSP16, literal(-2)))
        CFI (cfiCond18) DPH0 load(1, XDATA, add(CFA_XSP16, literal(-1)))
        CFI (cfiCond18) CFA_SP SP+0
        CFI (cfiCond18) CFA_XSP16 add(XSP16, 14)
        CFI Block cfiPicker19 Using cfiCommon1
        CFI (cfiPicker19) NoFunction
        CFI (cfiPicker19) Picker
        INC     DPTR
        CFI Block cfiCond20 Using cfiCommon0
        CFI (cfiCond20) NoFunction
        CFI (cfiCond20) Conditional ??CrossCallReturnLabel_107, ??CrossCallReturnLabel_26
        CFI (cfiCond20) R6 load(1, XDATA, add(CFA_XSP16, literal(-10)))
        CFI (cfiCond20) VB load(1, XDATA, add(CFA_XSP16, literal(-9)))
        CFI (cfiCond20) V0 load(1, XDATA, add(CFA_XSP16, literal(-8)))
        CFI (cfiCond20) V1 load(1, XDATA, add(CFA_XSP16, literal(-7)))
        CFI (cfiCond20) R7 load(1, XDATA, add(CFA_XSP16, literal(-6)))
        CFI (cfiCond20) ?RET_LOW load(1, XDATA, add(CFA_XSP16, literal(-5)))
        CFI (cfiCond20) ?RET_HIGH load(1, XDATA, add(CFA_XSP16, literal(-4)))
        CFI (cfiCond20) ?BRET_EXT load(1, XDATA, add(CFA_XSP16, literal(-3)))
        CFI (cfiCond20) DPL0 load(1, XDATA, add(CFA_XSP16, literal(-2)))
        CFI (cfiCond20) DPH0 load(1, XDATA, add(CFA_XSP16, literal(-1)))
        CFI (cfiCond20) CFA_SP SP+0
        CFI (cfiCond20) CFA_XSP16 add(XSP16, 10)
        CFI Block cfiCond21 Using cfiCommon0
        CFI (cfiCond21) NoFunction
        CFI (cfiCond21) Conditional ??CrossCallReturnLabel_107, ??CrossCallReturnLabel_27
        CFI (cfiCond21) R6 load(1, XDATA, add(CFA_XSP16, literal(-14)))
        CFI (cfiCond21) VB load(1, XDATA, add(CFA_XSP16, literal(-13)))
        CFI (cfiCond21) V0 load(1, XDATA, add(CFA_XSP16, literal(-12)))
        CFI (cfiCond21) V1 load(1, XDATA, add(CFA_XSP16, literal(-11)))
        CFI (cfiCond21) V2 load(1, XDATA, add(CFA_XSP16, literal(-10)))
        CFI (cfiCond21) V3 load(1, XDATA, add(CFA_XSP16, literal(-9)))
        CFI (cfiCond21) V4 load(1, XDATA, add(CFA_XSP16, literal(-8)))
        CFI (cfiCond21) V5 load(1, XDATA, add(CFA_XSP16, literal(-7)))
        CFI (cfiCond21) R7 load(1, XDATA, add(CFA_XSP16, literal(-6)))
        CFI (cfiCond21) ?RET_LOW load(1, XDATA, add(CFA_XSP16, literal(-5)))
        CFI (cfiCond21) ?RET_HIGH load(1, XDATA, add(CFA_XSP16, literal(-4)))
        CFI (cfiCond21) ?BRET_EXT load(1, XDATA, add(CFA_XSP16, literal(-3)))
        CFI (cfiCond21) DPL0 load(1, XDATA, add(CFA_XSP16, literal(-2)))
        CFI (cfiCond21) DPH0 load(1, XDATA, add(CFA_XSP16, literal(-1)))
        CFI (cfiCond21) CFA_SP SP+0
        CFI (cfiCond21) CFA_XSP16 add(XSP16, 14)
        CFI Block cfiCond22 Using cfiCommon0
        CFI (cfiCond22) NoFunction
        CFI (cfiCond22) Conditional ??CrossCallReturnLabel_107, ??CrossCallReturnLabel_28
        CFI (cfiCond22) R6 load(1, XDATA, add(CFA_XSP16, literal(-14)))
        CFI (cfiCond22) VB load(1, XDATA, add(CFA_XSP16, literal(-13)))
        CFI (cfiCond22) V0 load(1, XDATA, add(CFA_XSP16, literal(-12)))
        CFI (cfiCond22) V1 load(1, XDATA, add(CFA_XSP16, literal(-11)))
        CFI (cfiCond22) V2 load(1, XDATA, add(CFA_XSP16, literal(-10)))
        CFI (cfiCond22) V3 load(1, XDATA, add(CFA_XSP16, literal(-9)))
        CFI (cfiCond22) V4 load(1, XDATA, add(CFA_XSP16, literal(-8)))
        CFI (cfiCond22) V5 load(1, XDATA, add(CFA_XSP16, literal(-7)))
        CFI (cfiCond22) R7 load(1, XDATA, add(CFA_XSP16, literal(-6)))
        CFI (cfiCond22) ?RET_LOW load(1, XDATA, add(CFA_XSP16, literal(-5)))
        CFI (cfiCond22) ?RET_HIGH load(1, XDATA, add(CFA_XSP16, literal(-4)))
        CFI (cfiCond22) ?BRET_EXT load(1, XDATA, add(CFA_XSP16, literal(-3)))
        CFI (cfiCond22) DPL0 load(1, XDATA, add(CFA_XSP16, literal(-2)))
        CFI (cfiCond22) DPH0 load(1, XDATA, add(CFA_XSP16, literal(-1)))
        CFI (cfiCond22) CFA_SP SP+0
        CFI (cfiCond22) CFA_XSP16 add(XSP16, 14)
        CFI Block cfiCond23 Using cfiCommon0
        CFI (cfiCond23) NoFunction
        CFI (cfiCond23) Conditional ??CrossCallReturnLabel_109, ??CrossCallReturnLabel_42
        CFI (cfiCond23) R6 load(1, XDATA, add(CFA_XSP16, literal(-10)))
        CFI (cfiCond23) VB load(1, XDATA, add(CFA_XSP16, literal(-9)))
        CFI (cfiCond23) V0 load(1, XDATA, add(CFA_XSP16, literal(-8)))
        CFI (cfiCond23) V1 load(1, XDATA, add(CFA_XSP16, literal(-7)))
        CFI (cfiCond23) R7 load(1, XDATA, add(CFA_XSP16, literal(-6)))
        CFI (cfiCond23) ?RET_LOW load(1, XDATA, add(CFA_XSP16, literal(-5)))
        CFI (cfiCond23) ?RET_HIGH load(1, XDATA, add(CFA_XSP16, literal(-4)))
        CFI (cfiCond23) ?BRET_EXT load(1, XDATA, add(CFA_XSP16, literal(-3)))
        CFI (cfiCond23) DPL0 load(1, XDATA, add(CFA_XSP16, literal(-2)))
        CFI (cfiCond23) DPH0 load(1, XDATA, add(CFA_XSP16, literal(-1)))
        CFI (cfiCond23) CFA_SP SP+0
        CFI (cfiCond23) CFA_XSP16 add(XSP16, 10)
        CFI Block cfiCond24 Using cfiCommon0
        CFI (cfiCond24) NoFunction
        CFI (cfiCond24) Conditional ??CrossCallReturnLabel_109, ??CrossCallReturnLabel_43
        CFI (cfiCond24) R6 load(1, XDATA, add(CFA_XSP16, literal(-14)))
        CFI (cfiCond24) VB load(1, XDATA, add(CFA_XSP16, literal(-13)))
        CFI (cfiCond24) V0 load(1, XDATA, add(CFA_XSP16, literal(-12)))
        CFI (cfiCond24) V1 load(1, XDATA, add(CFA_XSP16, literal(-11)))
        CFI (cfiCond24) V2 load(1, XDATA, add(CFA_XSP16, literal(-10)))
        CFI (cfiCond24) V3 load(1, XDATA, add(CFA_XSP16, literal(-9)))
        CFI (cfiCond24) V4 load(1, XDATA, add(CFA_XSP16, literal(-8)))
        CFI (cfiCond24) V5 load(1, XDATA, add(CFA_XSP16, literal(-7)))
        CFI (cfiCond24) R7 load(1, XDATA, add(CFA_XSP16, literal(-6)))
        CFI (cfiCond24) ?RET_LOW load(1, XDATA, add(CFA_XSP16, literal(-5)))
        CFI (cfiCond24) ?RET_HIGH load(1, XDATA, add(CFA_XSP16, literal(-4)))
        CFI (cfiCond24) ?BRET_EXT load(1, XDATA, add(CFA_XSP16, literal(-3)))
        CFI (cfiCond24) DPL0 load(1, XDATA, add(CFA_XSP16, literal(-2)))
        CFI (cfiCond24) DPH0 load(1, XDATA, add(CFA_XSP16, literal(-1)))
        CFI (cfiCond24) CFA_SP SP+0
        CFI (cfiCond24) CFA_XSP16 add(XSP16, 14)
        CFI Block cfiCond25 Using cfiCommon0
        CFI (cfiCond25) NoFunction
        CFI (cfiCond25) Conditional ??CrossCallReturnLabel_109, ??CrossCallReturnLabel_44
        CFI (cfiCond25) R6 load(1, XDATA, add(CFA_XSP16, literal(-14)))
        CFI (cfiCond25) VB load(1, XDATA, add(CFA_XSP16, literal(-13)))
        CFI (cfiCond25) V0 load(1, XDATA, add(CFA_XSP16, literal(-12)))
        CFI (cfiCond25) V1 load(1, XDATA, add(CFA_XSP16, literal(-11)))
        CFI (cfiCond25) V2 load(1, XDATA, add(CFA_XSP16, literal(-10)))
        CFI (cfiCond25) V3 load(1, XDATA, add(CFA_XSP16, literal(-9)))
        CFI (cfiCond25) V4 load(1, XDATA, add(CFA_XSP16, literal(-8)))
        CFI (cfiCond25) V5 load(1, XDATA, add(CFA_XSP16, literal(-7)))
        CFI (cfiCond25) R7 load(1, XDATA, add(CFA_XSP16, literal(-6)))
        CFI (cfiCond25) ?RET_LOW load(1, XDATA, add(CFA_XSP16, literal(-5)))
        CFI (cfiCond25) ?RET_HIGH load(1, XDATA, add(CFA_XSP16, literal(-4)))
        CFI (cfiCond25) ?BRET_EXT load(1, XDATA, add(CFA_XSP16, literal(-3)))
        CFI (cfiCond25) DPL0 load(1, XDATA, add(CFA_XSP16, literal(-2)))
        CFI (cfiCond25) DPH0 load(1, XDATA, add(CFA_XSP16, literal(-1)))
        CFI (cfiCond25) CFA_SP SP+0
        CFI (cfiCond25) CFA_XSP16 add(XSP16, 14)
        CFI Block cfiCond26 Using cfiCommon0
        CFI (cfiCond26) NoFunction
        CFI (cfiCond26) Conditional ??CrossCallReturnLabel_109, ??CrossCallReturnLabel_45
        CFI (cfiCond26) R6 load(1, XDATA, add(CFA_XSP16, literal(-14)))
        CFI (cfiCond26) VB load(1, XDATA, add(CFA_XSP16, literal(-13)))
        CFI (cfiCond26) V0 load(1, XDATA, add(CFA_XSP16, literal(-12)))
        CFI (cfiCond26) V1 load(1, XDATA, add(CFA_XSP16, literal(-11)))
        CFI (cfiCond26) V2 load(1, XDATA, add(CFA_XSP16, literal(-10)))
        CFI (cfiCond26) V3 load(1, XDATA, add(CFA_XSP16, literal(-9)))
        CFI (cfiCond26) V4 load(1, XDATA, add(CFA_XSP16, literal(-8)))
        CFI (cfiCond26) V5 load(1, XDATA, add(CFA_XSP16, literal(-7)))
        CFI (cfiCond26) R7 load(1, XDATA, add(CFA_XSP16, literal(-6)))
        CFI (cfiCond26) ?RET_LOW load(1, XDATA, add(CFA_XSP16, literal(-5)))
        CFI (cfiCond26) ?RET_HIGH load(1, XDATA, add(CFA_XSP16, literal(-4)))
        CFI (cfiCond26) ?BRET_EXT load(1, XDATA, add(CFA_XSP16, literal(-3)))
        CFI (cfiCond26) DPL0 load(1, XDATA, add(CFA_XSP16, literal(-2)))
        CFI (cfiCond26) DPH0 load(1, XDATA, add(CFA_XSP16, literal(-1)))
        CFI (cfiCond26) CFA_SP SP+0
        CFI (cfiCond26) CFA_XSP16 add(XSP16, 14)
??Subroutine35_0:
        LCALL   ?Subroutine43 & 0xFFFF
??CrossCallReturnLabel_124:
        INC     DPTR
        INC     R0
        MOV     R1,DPH
        RET
        CFI EndBlock cfiCond15
        CFI EndBlock cfiCond16
        CFI EndBlock cfiCond17
        CFI EndBlock cfiCond18
        CFI EndBlock cfiPicker19
        CFI EndBlock cfiCond20
        CFI EndBlock cfiCond21
        CFI EndBlock cfiCond22
        CFI EndBlock cfiCond23
        CFI EndBlock cfiCond24
        CFI EndBlock cfiCond25
        CFI EndBlock cfiCond26
//  420 #endif // ZDO_MATCH_REQUEST
//  421 
//  422 #if defined ( ZDO_SIMPLEDESC_REQUEST )
//  423 /*********************************************************************
//  424  * @fn          ZDP_SimpleDescReq
//  425  *
//  426  * @brief       This builds and send a NWK_Simple_Desc_req
//  427  *              message.  This function sends unicast message to the
//  428  *              destination device.
//  429  *
//  430  * @param       dstAddr - destination address
//  431  * @param       nwkAddr - 16 bit address
//  432  * @param       epIntf - endpoint/interface
//  433  * @param       SecurityEnable - Security Options
//  434  *
//  435  * @return      afStatus_t
//  436  */
//  437 afStatus_t ZDP_SimpleDescReq( zAddrType_t *dstAddr, uint16 nwkAddr,
//  438                                     byte endPoint, byte SecurityEnable )
//  439 
//  440 {
//  441   ZDP_TmpBuf[0] = LO_UINT16( nwkAddr );
//  442   ZDP_TmpBuf[1] = HI_UINT16( nwkAddr );
//  443   ZDP_TmpBuf[2] = endPoint;
//  444 
//  445   return fillAndSend( &ZDP_TransID, dstAddr, Simple_Desc_req, 3 );
//  446 }
//  447 #endif // ZDO_SIMPLEDESC_REQUEST
//  448 
//  449 #if defined ( ZDO_USERDESCSET_REQUEST )
//  450 /*********************************************************************
//  451  * @fn          ZDP_UserDescSet
//  452  *
//  453  * @brief       This builds and send a User_Desc_set message to set
//  454  *              the user descriptor.  This function sends unicast
//  455  *              message to the destination device.
//  456  *
//  457  * @param       dstAddr - destination address
//  458  * @param       nwkAddr - 16 bit address
//  459  * @param       UserDescriptor - user descriptor
//  460  * @param       SecurityEnable - Security Options
//  461  *
//  462  * @return      afStatus_t
//  463  */
//  464 afStatus_t ZDP_UserDescSet( zAddrType_t *dstAddr, uint16 nwkAddr,
//  465                           UserDescriptorFormat_t *UserDescriptor,
//  466                           byte SecurityEnable )
//  467 {
//  468   byte *pBuf = ZDP_TmpBuf;
//  469   byte len = (UserDescriptor->len < AF_MAX_USER_DESCRIPTOR_LEN) ?
//  470               UserDescriptor->len : AF_MAX_USER_DESCRIPTOR_LEN;
//  471   byte addrLen = 2;
//  472 
//  473   *pBuf++ = LO_UINT16( nwkAddr );
//  474   *pBuf++ = HI_UINT16( nwkAddr );
//  475 
//  476   *pBuf++ = len;
//  477   addrLen = 3;
//  478 
//  479   pBuf = osal_memcpy( pBuf, UserDescriptor->desc, len );
//  480   osal_memset( pBuf, AF_USER_DESCRIPTOR_FILL, AF_MAX_USER_DESCRIPTOR_LEN-len );
//  481 
//  482   return fillAndSend( &ZDP_TransID, dstAddr, User_Desc_set, (AF_MAX_USER_DESCRIPTOR_LEN + addrLen) );
//  483 }
//  484 #endif // ZDO_USERDESCSET_REQUEST
//  485 
//  486 #if defined ( ZDO_SERVERDISC_REQUEST )
//  487 /*********************************************************************
//  488  * @fn          ZDP_ServerDiscReq
//  489  *
//  490  * @brief       Build and send a Server_Discovery_req request message.
//  491  *
//  492  * @param       serverMask - 16-bit bit-mask of server services being sought.
//  493  * @param       SecurityEnable - Security Options
//  494  *
//  495  * @return      afStatus_t
//  496  */
//  497 afStatus_t ZDP_ServerDiscReq( uint16 serverMask, byte SecurityEnable )
//  498 {
//  499   byte *pBuf = ZDP_TmpBuf;
//  500   zAddrType_t dstAddr;
//  501 
//  502   dstAddr.addrMode = AddrBroadcast;
//  503   dstAddr.addr.shortAddr = NWK_BROADCAST_SHORTADDR_DEVZCZR;
//  504 
//  505   *pBuf++ = LO_UINT16( serverMask );
//  506   *pBuf = HI_UINT16( serverMask );
//  507 
//  508   FillAndSendTxOptions( &ZDP_TransID, &dstAddr, Server_Discovery_req, 2,
//  509              ((SecurityEnable) ? AF_EN_SECURITY : AF_TX_OPTIONS_NONE) );
//  510 }
//  511 #endif
//  512 
//  513 #if defined ( ZDO_ENDDEVICE_ANNCE_REQUEST ) || defined ( ZDO_ENDDEVICE_ANNCE_GENERATE )
//  514 /*********************************************************************
//  515  * @fn          ZDP_EndDeviceAnnce
//  516  *
//  517  * @brief       This builds and send an End_Device_Annce
//  518  *              message.  This function sends a broadcast message.
//  519  *
//  520  * @param       nwkAddr - 16 bit address of the device
//  521  * @param       IEEEAddr - 64 bit address of the device
//  522  * @param       capabilities - device capabilities.  This field is only
//  523  *                 sent for v1.1 networks.
//  524  * @param       SecurityEnable - Security Options
//  525  *
//  526  * @return      afStatus_t
//  527  */
//  528 afStatus_t ZDP_EndDeviceAnnce( uint16 nwkAddr, byte *IEEEAddr,
//  529                               byte capabilities, byte SecurityEnable )
//  530 {
//  531   zAddrType_t dstAddr;
//  532   uint8 len;
//  533 
//  534   dstAddr.addrMode = (afAddrMode_t)AddrBroadcast;
//  535   dstAddr.addr.shortAddr = NWK_BROADCAST_SHORTADDR;
//  536 
//  537   ZDP_TmpBuf[0] = LO_UINT16( nwkAddr );
//  538   ZDP_TmpBuf[1] = HI_UINT16( nwkAddr );
//  539   osal_cpyExtAddr( &ZDP_TmpBuf[2], IEEEAddr );
//  540   len = 2 + Z_EXTADDR_LEN;
//  541 
//  542   ZDP_TmpBuf[10] = capabilities;
//  543   len++;
//  544 
//  545   return fillAndSend( &ZDP_TransID, &dstAddr, End_Device_annce, len );
//  546 }
//  547 #endif // ZDO_ENDDEVICE_ANNCE_REQUEST
//  548 
//  549 /*********************************************************************
//  550  * Address Responses
//  551  */
//  552 
//  553 /*********************************************************************
//  554  * @fn      zdpProcessAddrReq
//  555  *
//  556  * @brief   Process an incoming NWK_addr_req or IEEE_addr_req message and then
//  557  *          build and send a corresponding NWK_addr_rsp or IEEE_addr_rsp msg.
//  558  *
//  559  * @param   inMsg - incoming message
//  560  *
//  561  * @return  none
//  562  */

        RSEG BANKED_CODE:CODE:NOROOT(0)
//  563 void zdpProcessAddrReq( zdoIncomingMsg_t *inMsg )
zdpProcessAddrReq:
        CFI Block cfiBlock27 Using cfiCommon0
        CFI Function zdpProcessAddrReq
//  564 {
        FUNCALL zdpProcessAddrReq, osal_ExtAddrEqual
        LOCFRAME ISTACK, 0, STACK
        LOCFRAME PSTACK, 0, STACK
        LOCFRAME XSTACK, 17, STACK
        LOCFRAME IOVERLAY, 0, STATIC
        LOCFRAME DOVERLAY, 0, STATIC
        ARGFRAME ISTACK, 0, STACK
        ARGFRAME PSTACK, 0, STACK
        ARGFRAME XSTACK, 17, STACK
        ARGFRAME IOVERLAY, 0, STATIC
        ARGFRAME DOVERLAY, 0, STATIC
        FUNCALL zdpProcessAddrReq, osal_cpyExtAddr
        LOCFRAME ISTACK, 0, STACK
        LOCFRAME PSTACK, 0, STACK
        LOCFRAME XSTACK, 17, STACK
        LOCFRAME IOVERLAY, 0, STATIC
        LOCFRAME DOVERLAY, 0, STATIC
        ARGFRAME ISTACK, 0, STACK
        ARGFRAME PSTACK, 0, STACK
        ARGFRAME XSTACK, 17, STACK
        ARGFRAME IOVERLAY, 0, STATIC
        ARGFRAME DOVERLAY, 0, STATIC
        FUNCALL zdpProcessAddrReq, AssocMakeList
        LOCFRAME ISTACK, 0, STACK
        LOCFRAME PSTACK, 0, STACK
        LOCFRAME XSTACK, 17, STACK
        LOCFRAME IOVERLAY, 0, STATIC
        LOCFRAME DOVERLAY, 0, STATIC
        ARGFRAME ISTACK, 0, STACK
        ARGFRAME PSTACK, 0, STACK
        ARGFRAME XSTACK, 17, STACK
        ARGFRAME IOVERLAY, 0, STATIC
        ARGFRAME DOVERLAY, 0, STATIC
        FUNCALL zdpProcessAddrReq, osal_mem_free
        LOCFRAME ISTACK, 0, STACK
        LOCFRAME PSTACK, 0, STACK
        LOCFRAME XSTACK, 17, STACK
        LOCFRAME IOVERLAY, 0, STATIC
        LOCFRAME DOVERLAY, 0, STATIC
        ARGFRAME ISTACK, 0, STACK
        ARGFRAME PSTACK, 0, STACK
        ARGFRAME XSTACK, 17, STACK
        ARGFRAME IOVERLAY, 0, STATIC
        ARGFRAME DOVERLAY, 0, STATIC
        FUNCALL zdpProcessAddrReq, fillAndSend
        LOCFRAME ISTACK, 0, STACK
        LOCFRAME PSTACK, 0, STACK
        LOCFRAME XSTACK, 19, STACK
        LOCFRAME IOVERLAY, 0, STATIC
        LOCFRAME DOVERLAY, 0, STATIC
        ARGFRAME ISTACK, 0, STACK
        ARGFRAME PSTACK, 0, STACK
        ARGFRAME XSTACK, 19, STACK
        ARGFRAME IOVERLAY, 0, STATIC
        ARGFRAME DOVERLAY, 0, STATIC
        MOV     A,#-0x10
        LCALL   ?BANKED_ENTER_XDATA
        CFI DPH0 load(1, XDATA, add(CFA_XSP16, literal(-1)))
        CFI DPL0 load(1, XDATA, add(CFA_XSP16, literal(-2)))
        CFI ?BRET_EXT load(1, XDATA, add(CFA_XSP16, literal(-3)))
        CFI ?RET_HIGH load(1, XDATA, add(CFA_XSP16, literal(-4)))
        CFI ?RET_LOW load(1, XDATA, add(CFA_XSP16, literal(-5)))
        CFI R7 load(1, XDATA, add(CFA_XSP16, literal(-6)))
        CFI V7 load(1, XDATA, add(CFA_XSP16, literal(-7)))
        CFI V6 load(1, XDATA, add(CFA_XSP16, literal(-8)))
        CFI V5 load(1, XDATA, add(CFA_XSP16, literal(-9)))
        CFI V4 load(1, XDATA, add(CFA_XSP16, literal(-10)))
        CFI V3 load(1, XDATA, add(CFA_XSP16, literal(-11)))
        CFI V2 load(1, XDATA, add(CFA_XSP16, literal(-12)))
        CFI V1 load(1, XDATA, add(CFA_XSP16, literal(-13)))
        CFI V0 load(1, XDATA, add(CFA_XSP16, literal(-14)))
        CFI VB load(1, XDATA, add(CFA_XSP16, literal(-15)))
        CFI R6 load(1, XDATA, add(CFA_XSP16, literal(-16)))
        CFI CFA_SP SP+0
        CFI CFA_XSP16 add(XSP16, 16)
        ; Saved register size: 16
        ; Auto size: 1
        MOV     A,#-0x1
        LCALL   ?ALLOC_XSTACK8
        CFI CFA_XSP16 add(XSP16, 17)
        MOV     ?V0 + 6,R2
        MOV     ?V0 + 7,R3
//  565   uint8 reqType;
//  566   uint16 aoi = INVALID_NODE_ADDR;
//  567   uint8 *ieee = NULL;
        MOV     ?V0 + 4,#0x0
        MOV     ?V0 + 5,#0x0
//  568 
//  569   reqType = inMsg->asdu[(inMsg->clusterID == NWK_addr_req) ? Z_EXTADDR_LEN : sizeof( uint16 ) ];
        MOV     A,R2
        ADD     A,#0xc
        MOV     DPL,A
        MOV     A,R3
        LCALL   ??Subroutine29_1 & 0xFFFF
??CrossCallReturnLabel_84:
        JNZ     ??zdpProcessAddrReq_0
        INC     DPTR
        MOVX    A,@DPTR
??zdpProcessAddrReq_0:
        JNZ     ??zdpProcessAddrReq_1
        MOV     R0,#0x8
        SJMP    ??zdpProcessAddrReq_2
??zdpProcessAddrReq_1:
        MOV     R0,#0x2
??zdpProcessAddrReq_2:
        MOV     A,R2
        ADD     A,#0x11
        MOV     DPL,A
        MOV     A,R3
        LCALL   ??Subroutine29_1 & 0xFFFF
??CrossCallReturnLabel_85:
        ADD     A,R0
        MOV     R2,A
        INC     DPTR
        MOVX    A,@DPTR
        ADDC    A,#0x0
        MOV     DPL,R2
        MOV     DPH,A
        MOVX    A,@DPTR
        MOV     ?V0 + 3,A
//  570   
//  571   if ( inMsg->clusterID == NWK_addr_req )
        MOV     A,?V0 + 6
        ADD     A,#0xc
        MOV     DPL,A
        MOV     A,R3
        LCALL   ??Subroutine29_1 & 0xFFFF
??CrossCallReturnLabel_86:
        JNZ     ??zdpProcessAddrReq_3
        INC     DPTR
        MOVX    A,@DPTR
??zdpProcessAddrReq_3:
        JNZ     ??zdpProcessAddrReq_4
//  572   {
//  573     ieee = inMsg->asdu;
        MOV     A,?V0 + 6
        ADD     A,#0x11
        MOV     DPL,A
        MOV     A,R3
        LCALL   ??Subroutine29_1 & 0xFFFF
??CrossCallReturnLabel_87:
        MOV     ?V0 + 4,A
        INC     DPTR
        MOVX    A,@DPTR
        MOV     ?V0 + 5,A
//  574 
//  575     if ( osal_ExtAddrEqual( saveExtAddr, ieee ) )
        ; Setup parameters for call to function osal_ExtAddrEqual
        MOV     R4,?V0 + 4
        MOV     R5,A
        MOV     R2,#(saveExtAddr & 0xff)
        MOV     R3,#((saveExtAddr >> 8) & 0xff)
        LCALL   ??osal_ExtAddrEqual?relay
        MOV     A,R1
        JNZ     $+5
        LJMP    ??zdpProcessAddrReq_5 & 0xFFFF
//  576     {
//  577       aoi = ZDAppNwkAddr.addr.shortAddr;
        MOV     DPTR,#ZDAppNwkAddr
        LCALL   ?Subroutine19 & 0xFFFF
??CrossCallReturnLabel_62:
        SJMP    ??zdpProcessAddrReq_6
//  578     }
//  579     /*
//  580     else if ( reqType == ZDP_ADDR_REQTYPE_MEMBERSHIP )
//  581     {
//  582       //ggg - what to do?
//  583     }
//  584     */
//  585   }
??zdpProcessAddrReq_4:
        MOV     A,?V0 + 6
        ADD     A,#0x11
        MOV     DPL,A
        MOV     A,R3
        ADDC    A,#0x0
        MOV     DPH,A
        LCALL   ??Subroutine4_1 & 0xFFFF
??CrossCallReturnLabel_17:
        MOV     DPL,R0
        MOV     DPH,R1
        MOVX    A,@DPTR
        MOV     R2,A
        INC     DPTR
        MOVX    A,@DPTR
        MOV     R1,A
        MOV     A,R2
        MOV     R6,A
        MOV     A,R1
        MOV     R7,A
//  586   else  // if ( inMsg->clusterID == IEEE_addr_req )
//  587   {
//  588     aoi = BUILD_UINT16( inMsg->asdu[0], inMsg->asdu[1] );
//  589 
//  590     if ( aoi == ZDAppNwkAddr.addr.shortAddr )
        MOV     DPTR,#ZDAppNwkAddr
        MOVX    A,@DPTR
        XRL     A,R6
        JNZ     ??zdpProcessAddrReq_7
        INC     DPTR
        MOVX    A,@DPTR
        XRL     A,R7
??zdpProcessAddrReq_7:
        JNZ     ??zdpProcessAddrReq_6
//  591     {
//  592       ieee = saveExtAddr;
        MOV     ?V0 + 4,#(saveExtAddr & 0xff)
        MOV     ?V0 + 5,#((saveExtAddr >> 8) & 0xff)
//  593     }
//  594   }
//  595 
//  596   if ( (aoi != INVALID_NODE_ADDR) && (ieee != NULL) )
??zdpProcessAddrReq_6:
        MOV     A,#-0x2
        XRL     A,R6
        JNZ     ??zdpProcessAddrReq_8
        MOV     A,#-0x1
        XRL     A,R7
??zdpProcessAddrReq_8:
        JNZ     $+5
        LJMP    ??zdpProcessAddrReq_5 & 0xFFFF
        MOV     A,?V0 + 4
        JNZ     ??zdpProcessAddrReq_9
        MOV     A,?V0 + 5
??zdpProcessAddrReq_9:
        JNZ     $+5
        LJMP    ??zdpProcessAddrReq_5 & 0xFFFF
//  597   {
//  598     byte *pBuf = ZDP_TmpBuf;
        MOV     DPTR,#ZDP_TmpBuf
        LCALL   ?Subroutine3 & 0xFFFF
//  599     // Status + IEEE-Addr + Nwk-Addr.
//  600     byte len = 1 + Z_EXTADDR_LEN + 2;
??CrossCallReturnLabel_8:
        MOV     ?V0 + 2,#0xb
//  601 
//  602     byte stat = ((reqType == ZDP_ADDR_REQTYPE_SINGLE) 
//  603             || (reqType == ZDP_ADDR_REQTYPE_EXTENDED) 
//  604           || ((reqType == ZDP_ADDR_REQTYPE_MEMBERSHIP) 
//  605          && (inMsg->clusterID == NWK_addr_req)) ) ? ZDP_SUCCESS : ZDP_INVALID_REQTYPE;
        MOV     A,?V0 + 3
        JZ      ??zdpProcessAddrReq_10
        MOV     A,#0x1
        XRL     A,?V0 + 3
        JZ      ??zdpProcessAddrReq_10
        MOV     A,#0x2
        XRL     A,?V0 + 3
        JNZ     ??zdpProcessAddrReq_11
        LCALL   ?Subroutine29 & 0xFFFF
??CrossCallReturnLabel_88:
        JNZ     ??zdpProcessAddrReq_12
        INC     DPTR
        MOVX    A,@DPTR
??zdpProcessAddrReq_12:
        JNZ     ??zdpProcessAddrReq_11
??zdpProcessAddrReq_10:
        MOV     R2,#0x0
        SJMP    ??zdpProcessAddrReq_13
??zdpProcessAddrReq_11:
        MOV     R2,#-0x80
??zdpProcessAddrReq_13:
        MOV     A,R2
//  606 
//  607     *pBuf++ = stat;
        MOV     DPL,?V0 + 0
        MOV     DPH,?V0 + 1
        LCALL   ?Subroutine21 & 0xFFFF
//  608 
//  609     pBuf = osal_cpyExtAddr( pBuf, ieee );
??CrossCallReturnLabel_132:
        ; Setup parameters for call to function osal_cpyExtAddr
        MOV     R4,?V0 + 4
        MOV     R5,?V0 + 5
        MOV     R2,?V0 + 0
        MOV     R3,?V0 + 1
        LCALL   ??osal_cpyExtAddr?relay
//  610 
//  611     *pBuf++ = LO_UINT16( aoi );
        MOV     A,R6
        MOV     DPL,R2
        MOV     DPH,R3
        MOVX    @DPTR,A
        INC     DPTR
//  612     *pBuf++ = HI_UINT16( aoi );
        MOV     A,R7
        LCALL   ?Subroutine21 & 0xFFFF
//  613 
//  614 #if defined( RTR_NWK )
//  615     if ( (reqType == ZDP_ADDR_REQTYPE_EXTENDED) &&
//  616          (aoi == ZDAppNwkAddr.addr.shortAddr) )
??CrossCallReturnLabel_133:
        MOV     A,#0x1
        XRL     A,?V0 + 3
        JZ      $+5
        LJMP    ??zdpProcessAddrReq_14 & 0xFFFF
        MOV     DPTR,#ZDAppNwkAddr
        MOVX    A,@DPTR
        XRL     A,R6
        JNZ     ??zdpProcessAddrReq_15
        INC     DPTR
        MOVX    A,@DPTR
        XRL     A,R7
??zdpProcessAddrReq_15:
        JZ      $+5
        LJMP    ??zdpProcessAddrReq_14 & 0xFFFF
//  617     {
//  618       byte cnt = 0;
        CLR     A
        MOV     DPL,?XSP + 0
        MOV     DPH,?XSP + 1
        MOVX    @DPTR,A
//  619       uint16 *list = AssocMakeList( &cnt );
        ; Setup parameters for call to function AssocMakeList
        MOV     R2,DPL
        MOV     R3,DPH
        LCALL   ??AssocMakeList?relay
//  620 
//  621       if ( list != NULL )
        MOV     A,R2
        JNZ     ??zdpProcessAddrReq_16
        MOV     A,R3
??zdpProcessAddrReq_16:
        JNZ     $+5
        LJMP    ??zdpProcessAddrReq_17 & 0xFFFF
//  622       {
//  623         byte idx = inMsg->asdu[(((inMsg->clusterID == NWK_addr_req) ? Z_EXTADDR_LEN : sizeof( uint16 )) + 1)];
        LCALL   ?Subroutine29 & 0xFFFF
??CrossCallReturnLabel_89:
        JNZ     ??zdpProcessAddrReq_18
        INC     DPTR
        MOVX    A,@DPTR
??zdpProcessAddrReq_18:
        JNZ     ??zdpProcessAddrReq_19
        MOV     R0,#0x8
        SJMP    ??zdpProcessAddrReq_20
??zdpProcessAddrReq_19:
        MOV     R0,#0x2
??zdpProcessAddrReq_20:
        MOV     A,?V0 + 6
        ADD     A,#0x11
        LCALL   ??Subroutine29_0 & 0xFFFF
??CrossCallReturnLabel_90:
        ADD     A,R0
        MOV     R4,A
        INC     DPTR
        MOVX    A,@DPTR
        ADDC    A,#0x0
        MOV     DPL,R4
        MOV     DPH,A
        INC     DPTR
        MOVX    A,@DPTR
        MOV     R4,A
//  624         uint16 *pList = list + idx;
        CLR     C
        RLC     A
        MOV     R0,A
        CLR     A
        RLC     A
        MOV     R1,A
        MOV     A,R2
        ADD     A,R0
        MOV     R0,A
        MOV     A,R3
        ADDC    A,R1
        MOV     R1,A
//  625 
//  626         // NumAssocDev field is only present on success.
//  627         if ( cnt > idx )
        MOV     DPL,?XSP + 0
        MOV     DPH,?XSP + 1
        MOVX    A,@DPTR
        MOV     R5,A
        MOV     A,R4
        CLR     C
        SUBB    A,R5
        JNC     ??zdpProcessAddrReq_21
//  628         {
//  629           cnt -= idx;
        MOVX    A,@DPTR
        CLR     C
        SUBB    A,R4
        MOVX    @DPTR,A
//  630           len += (cnt * sizeof( uint16 ));
        CLR     C
        RLC     A
        ADD     A,#0xb
        MOV     ?V0 + 2,A
        SJMP    ??zdpProcessAddrReq_22
//  631         }
//  632         else
//  633         {
//  634           cnt = 0;
??zdpProcessAddrReq_21:
        CLR     A
        MOVX    @DPTR,A
//  635         }
//  636         *pBuf++ = cnt;
??zdpProcessAddrReq_22:
        LCALL   ?Subroutine38 & 0xFFFF
//  637         len++;
//  638         
//  639         // StartIndex field is only present if NumAssocDev field is non-zero.
//  640         *pBuf++ = idx;
??CrossCallReturnLabel_112:
        MOV     A,R4
        LCALL   ?Subroutine21 & 0xFFFF
//  641         len++;
??CrossCallReturnLabel_134:
        INC     ?V0 + 2
        INC     ?V0 + 2
        SJMP    ??zdpProcessAddrReq_23
//  642 
//  643         while ( cnt != 0 )
//  644         {
//  645           *pBuf++ = LO_UINT16( *pList );
??zdpProcessAddrReq_24:
        MOV     DPL,R0
        MOV     DPH,R1
        LCALL   ?Subroutine13 & 0xFFFF
//  646           *pBuf++ = HI_UINT16( *pList );
??CrossCallReturnLabel_130:
        MOV     DPL,R0
        MOV     DPH,R1
        INC     DPTR
        LCALL   ?Subroutine13 & 0xFFFF
//  647           pList++;
??CrossCallReturnLabel_131:
        MOV     A,R0
        ADD     A,#0x2
        INC     R0
        INC     R0
        MOV     A,R1
        ADDC    A,#0x0
        MOV     R1,A
//  648           cnt--;
        MOV     DPL,?XSP + 0
        MOV     DPH,?XSP + 1
        MOVX    A,@DPTR
        DEC     A
        MOVX    @DPTR,A
//  649         }
??zdpProcessAddrReq_23:
        MOV     DPL,?XSP + 0
        MOV     DPH,?XSP + 1
        MOVX    A,@DPTR
        JNZ     ??zdpProcessAddrReq_24
//  650 
//  651         osal_mem_free( (uint8 *)list );
        ; Setup parameters for call to function osal_mem_free
        LCALL   ??osal_mem_free?relay
        SJMP    ??zdpProcessAddrReq_14
//  652       }
//  653       else
//  654       {
//  655         // NumAssocDev field is only present on success.
//  656         *pBuf++ = 0;
??zdpProcessAddrReq_17:
        CLR     A
        MOV     DPL,?V0 + 0
        MOV     DPH,?V0 + 1
        MOVX    @DPTR,A
//  657         len++;
        MOV     ?V0 + 2,#0xc
//  658       }
//  659     }
//  660 
//  661 #endif
//  662 
//  663     ZDP_TxOptions = AF_MSG_ACK_REQUEST;
??zdpProcessAddrReq_14:
        MOV     A,#0x10
        MOV     DPTR,#ZDP_TxOptions
        MOVX    @DPTR,A
//  664     fillAndSend( &(inMsg->TransSeq), &(inMsg->srcAddr), 
//  665                 (cId_t)(inMsg->clusterID | ZDO_RESPONSE_BIT), len );
        ; Setup parameters for call to function fillAndSend
        LCALL   ?Subroutine29 & 0xFFFF
??CrossCallReturnLabel_91:
        MOV     ?V0 + 0,A
        INC     DPTR
        MOVX    A,@DPTR
        ORL     A,#0x80
        MOV     ?V0 + 1,A
        MOV     R0,#?V0 + 0
        LCALL   ?PUSH_XSTACK_I_TWO
        CFI CFA_XSP16 add(XSP16, 19)
        MOV     R1,?V0 + 2
        MOV     A,?V0 + 6
        ADD     A,#0x2
        MOV     R4,A
        MOV     A,?V0 + 7
        ADDC    A,#0x0
        MOV     R5,A
        MOV     A,?V0 + 6
        ADD     A,#0xf
        MOV     R2,A
        MOV     A,?V0 + 7
        ADDC    A,#0x0
        MOV     R3,A
        LCALL   ?Subroutine51 & 0xFFFF
??CrossCallReturnLabel_146:
        LCALL   ?DEALLOC_XSTACK8
        CFI CFA_XSP16 add(XSP16, 17)
//  666     ZDP_TxOptions = AF_TX_OPTIONS_NONE;
        CLR     A
        MOV     DPTR,#ZDP_TxOptions
        MOVX    @DPTR,A
//  667   }
//  668 }
??zdpProcessAddrReq_5:
        LJMP    ?Subroutine52 & 0xFFFF
        CFI EndBlock cfiBlock27

        RSEG BANKED_CODE:CODE:NOROOT(0)
?Subroutine21:
        CFI Block cfiCond28 Using cfiCommon0
        CFI NoFunction
        CFI Conditional ??CrossCallReturnLabel_132
        CFI R6 load(1, XDATA, add(CFA_XSP16, literal(-16)))
        CFI VB load(1, XDATA, add(CFA_XSP16, literal(-15)))
        CFI V0 load(1, XDATA, add(CFA_XSP16, literal(-14)))
        CFI V1 load(1, XDATA, add(CFA_XSP16, literal(-13)))
        CFI V2 load(1, XDATA, add(CFA_XSP16, literal(-12)))
        CFI V3 load(1, XDATA, add(CFA_XSP16, literal(-11)))
        CFI V4 load(1, XDATA, add(CFA_XSP16, literal(-10)))
        CFI V5 load(1, XDATA, add(CFA_XSP16, literal(-9)))
        CFI V6 load(1, XDATA, add(CFA_XSP16, literal(-8)))
        CFI V7 load(1, XDATA, add(CFA_XSP16, literal(-7)))
        CFI R7 load(1, XDATA, add(CFA_XSP16, literal(-6)))
        CFI ?RET_LOW load(1, XDATA, add(CFA_XSP16, literal(-5)))
        CFI ?RET_HIGH load(1, XDATA, add(CFA_XSP16, literal(-4)))
        CFI ?BRET_EXT load(1, XDATA, add(CFA_XSP16, literal(-3)))
        CFI DPL0 load(1, XDATA, add(CFA_XSP16, literal(-2)))
        CFI DPH0 load(1, XDATA, add(CFA_XSP16, literal(-1)))
        CFI CFA_SP SP+0
        CFI CFA_XSP16 add(XSP16, 17)
        CFI Block cfiCond29 Using cfiCommon0
        CFI (cfiCond29) NoFunction
        CFI (cfiCond29) Conditional ??CrossCallReturnLabel_133
        CFI (cfiCond29) R6 load(1, XDATA, add(CFA_XSP16, literal(-16)))
        CFI (cfiCond29) VB load(1, XDATA, add(CFA_XSP16, literal(-15)))
        CFI (cfiCond29) V0 load(1, XDATA, add(CFA_XSP16, literal(-14)))
        CFI (cfiCond29) V1 load(1, XDATA, add(CFA_XSP16, literal(-13)))
        CFI (cfiCond29) V2 load(1, XDATA, add(CFA_XSP16, literal(-12)))
        CFI (cfiCond29) V3 load(1, XDATA, add(CFA_XSP16, literal(-11)))
        CFI (cfiCond29) V4 load(1, XDATA, add(CFA_XSP16, literal(-10)))
        CFI (cfiCond29) V5 load(1, XDATA, add(CFA_XSP16, literal(-9)))
        CFI (cfiCond29) V6 load(1, XDATA, add(CFA_XSP16, literal(-8)))
        CFI (cfiCond29) V7 load(1, XDATA, add(CFA_XSP16, literal(-7)))
        CFI (cfiCond29) R7 load(1, XDATA, add(CFA_XSP16, literal(-6)))
        CFI (cfiCond29) ?RET_LOW load(1, XDATA, add(CFA_XSP16, literal(-5)))
        CFI (cfiCond29) ?RET_HIGH load(1, XDATA, add(CFA_XSP16, literal(-4)))
        CFI (cfiCond29) ?BRET_EXT load(1, XDATA, add(CFA_XSP16, literal(-3)))
        CFI (cfiCond29) DPL0 load(1, XDATA, add(CFA_XSP16, literal(-2)))
        CFI (cfiCond29) DPH0 load(1, XDATA, add(CFA_XSP16, literal(-1)))
        CFI (cfiCond29) CFA_SP SP+0
        CFI (cfiCond29) CFA_XSP16 add(XSP16, 17)
        CFI Block cfiCond30 Using cfiCommon0
        CFI (cfiCond30) NoFunction
        CFI (cfiCond30) Conditional ??CrossCallReturnLabel_134
        CFI (cfiCond30) R6 load(1, XDATA, add(CFA_XSP16, literal(-16)))
        CFI (cfiCond30) VB load(1, XDATA, add(CFA_XSP16, literal(-15)))
        CFI (cfiCond30) V0 load(1, XDATA, add(CFA_XSP16, literal(-14)))
        CFI (cfiCond30) V1 load(1, XDATA, add(CFA_XSP16, literal(-13)))
        CFI (cfiCond30) V2 load(1, XDATA, add(CFA_XSP16, literal(-12)))
        CFI (cfiCond30) V3 load(1, XDATA, add(CFA_XSP16, literal(-11)))
        CFI (cfiCond30) V4 load(1, XDATA, add(CFA_XSP16, literal(-10)))
        CFI (cfiCond30) V5 load(1, XDATA, add(CFA_XSP16, literal(-9)))
        CFI (cfiCond30) V6 load(1, XDATA, add(CFA_XSP16, literal(-8)))
        CFI (cfiCond30) V7 load(1, XDATA, add(CFA_XSP16, literal(-7)))
        CFI (cfiCond30) R7 load(1, XDATA, add(CFA_XSP16, literal(-6)))
        CFI (cfiCond30) ?RET_LOW load(1, XDATA, add(CFA_XSP16, literal(-5)))
        CFI (cfiCond30) ?RET_HIGH load(1, XDATA, add(CFA_XSP16, literal(-4)))
        CFI (cfiCond30) ?BRET_EXT load(1, XDATA, add(CFA_XSP16, literal(-3)))
        CFI (cfiCond30) DPL0 load(1, XDATA, add(CFA_XSP16, literal(-2)))
        CFI (cfiCond30) DPH0 load(1, XDATA, add(CFA_XSP16, literal(-1)))
        CFI (cfiCond30) CFA_SP SP+0
        CFI (cfiCond30) CFA_XSP16 add(XSP16, 17)
        CFI Block cfiPicker31 Using cfiCommon1
        CFI (cfiPicker31) NoFunction
        CFI (cfiPicker31) Picker
        MOVX    @DPTR,A
        INC     DPTR
        CFI EndBlock cfiCond28
        CFI EndBlock cfiCond29
        CFI EndBlock cfiCond30
        CFI EndBlock cfiPicker31
        REQUIRE ?Subroutine49
        ; // Fall through to label ?Subroutine49

        RSEG BANKED_CODE:CODE:NOROOT(0)
?Subroutine49:
        CFI Block cfiCond32 Using cfiCommon0
        CFI NoFunction
        CFI Conditional ??CrossCallReturnLabel_132
        CFI R6 load(1, XDATA, add(CFA_XSP16, literal(-16)))
        CFI VB load(1, XDATA, add(CFA_XSP16, literal(-15)))
        CFI V0 load(1, XDATA, add(CFA_XSP16, literal(-14)))
        CFI V1 load(1, XDATA, add(CFA_XSP16, literal(-13)))
        CFI V2 load(1, XDATA, add(CFA_XSP16, literal(-12)))
        CFI V3 load(1, XDATA, add(CFA_XSP16, literal(-11)))
        CFI V4 load(1, XDATA, add(CFA_XSP16, literal(-10)))
        CFI V5 load(1, XDATA, add(CFA_XSP16, literal(-9)))
        CFI V6 load(1, XDATA, add(CFA_XSP16, literal(-8)))
        CFI V7 load(1, XDATA, add(CFA_XSP16, literal(-7)))
        CFI R7 load(1, XDATA, add(CFA_XSP16, literal(-6)))
        CFI ?RET_LOW load(1, XDATA, add(CFA_XSP16, literal(-5)))
        CFI ?RET_HIGH load(1, XDATA, add(CFA_XSP16, literal(-4)))
        CFI ?BRET_EXT load(1, XDATA, add(CFA_XSP16, literal(-3)))
        CFI DPL0 load(1, XDATA, add(CFA_XSP16, literal(-2)))
        CFI DPH0 load(1, XDATA, add(CFA_XSP16, literal(-1)))
        CFI CFA_SP SP+0
        CFI CFA_XSP16 add(XSP16, 17)
        CFI Block cfiCond33 Using cfiCommon0
        CFI (cfiCond33) NoFunction
        CFI (cfiCond33) Conditional ??CrossCallReturnLabel_133
        CFI (cfiCond33) R6 load(1, XDATA, add(CFA_XSP16, literal(-16)))
        CFI (cfiCond33) VB load(1, XDATA, add(CFA_XSP16, literal(-15)))
        CFI (cfiCond33) V0 load(1, XDATA, add(CFA_XSP16, literal(-14)))
        CFI (cfiCond33) V1 load(1, XDATA, add(CFA_XSP16, literal(-13)))
        CFI (cfiCond33) V2 load(1, XDATA, add(CFA_XSP16, literal(-12)))
        CFI (cfiCond33) V3 load(1, XDATA, add(CFA_XSP16, literal(-11)))
        CFI (cfiCond33) V4 load(1, XDATA, add(CFA_XSP16, literal(-10)))
        CFI (cfiCond33) V5 load(1, XDATA, add(CFA_XSP16, literal(-9)))
        CFI (cfiCond33) V6 load(1, XDATA, add(CFA_XSP16, literal(-8)))
        CFI (cfiCond33) V7 load(1, XDATA, add(CFA_XSP16, literal(-7)))
        CFI (cfiCond33) R7 load(1, XDATA, add(CFA_XSP16, literal(-6)))
        CFI (cfiCond33) ?RET_LOW load(1, XDATA, add(CFA_XSP16, literal(-5)))
        CFI (cfiCond33) ?RET_HIGH load(1, XDATA, add(CFA_XSP16, literal(-4)))
        CFI (cfiCond33) ?BRET_EXT load(1, XDATA, add(CFA_XSP16, literal(-3)))
        CFI (cfiCond33) DPL0 load(1, XDATA, add(CFA_XSP16, literal(-2)))
        CFI (cfiCond33) DPH0 load(1, XDATA, add(CFA_XSP16, literal(-1)))
        CFI (cfiCond33) CFA_SP SP+0
        CFI (cfiCond33) CFA_XSP16 add(XSP16, 17)
        CFI Block cfiCond34 Using cfiCommon0
        CFI (cfiCond34) NoFunction
        CFI (cfiCond34) Conditional ??CrossCallReturnLabel_134
        CFI (cfiCond34) R6 load(1, XDATA, add(CFA_XSP16, literal(-16)))
        CFI (cfiCond34) VB load(1, XDATA, add(CFA_XSP16, literal(-15)))
        CFI (cfiCond34) V0 load(1, XDATA, add(CFA_XSP16, literal(-14)))
        CFI (cfiCond34) V1 load(1, XDATA, add(CFA_XSP16, literal(-13)))
        CFI (cfiCond34) V2 load(1, XDATA, add(CFA_XSP16, literal(-12)))
        CFI (cfiCond34) V3 load(1, XDATA, add(CFA_XSP16, literal(-11)))
        CFI (cfiCond34) V4 load(1, XDATA, add(CFA_XSP16, literal(-10)))
        CFI (cfiCond34) V5 load(1, XDATA, add(CFA_XSP16, literal(-9)))
        CFI (cfiCond34) V6 load(1, XDATA, add(CFA_XSP16, literal(-8)))
        CFI (cfiCond34) V7 load(1, XDATA, add(CFA_XSP16, literal(-7)))
        CFI (cfiCond34) R7 load(1, XDATA, add(CFA_XSP16, literal(-6)))
        CFI (cfiCond34) ?RET_LOW load(1, XDATA, add(CFA_XSP16, literal(-5)))
        CFI (cfiCond34) ?RET_HIGH load(1, XDATA, add(CFA_XSP16, literal(-4)))
        CFI (cfiCond34) ?BRET_EXT load(1, XDATA, add(CFA_XSP16, literal(-3)))
        CFI (cfiCond34) DPL0 load(1, XDATA, add(CFA_XSP16, literal(-2)))
        CFI (cfiCond34) DPH0 load(1, XDATA, add(CFA_XSP16, literal(-1)))
        CFI (cfiCond34) CFA_SP SP+0
        CFI (cfiCond34) CFA_XSP16 add(XSP16, 17)
        CFI Block cfiCond35 Using cfiCommon0
        CFI (cfiCond35) NoFunction
        CFI (cfiCond35) Conditional ??CrossCallReturnLabel_130
        CFI (cfiCond35) R6 load(1, XDATA, add(CFA_XSP16, literal(-16)))
        CFI (cfiCond35) VB load(1, XDATA, add(CFA_XSP16, literal(-15)))
        CFI (cfiCond35) V0 load(1, XDATA, add(CFA_XSP16, literal(-14)))
        CFI (cfiCond35) V1 load(1, XDATA, add(CFA_XSP16, literal(-13)))
        CFI (cfiCond35) V2 load(1, XDATA, add(CFA_XSP16, literal(-12)))
        CFI (cfiCond35) V3 load(1, XDATA, add(CFA_XSP16, literal(-11)))
        CFI (cfiCond35) V4 load(1, XDATA, add(CFA_XSP16, literal(-10)))
        CFI (cfiCond35) V5 load(1, XDATA, add(CFA_XSP16, literal(-9)))
        CFI (cfiCond35) V6 load(1, XDATA, add(CFA_XSP16, literal(-8)))
        CFI (cfiCond35) V7 load(1, XDATA, add(CFA_XSP16, literal(-7)))
        CFI (cfiCond35) R7 load(1, XDATA, add(CFA_XSP16, literal(-6)))
        CFI (cfiCond35) ?RET_LOW load(1, XDATA, add(CFA_XSP16, literal(-5)))
        CFI (cfiCond35) ?RET_HIGH load(1, XDATA, add(CFA_XSP16, literal(-4)))
        CFI (cfiCond35) ?BRET_EXT load(1, XDATA, add(CFA_XSP16, literal(-3)))
        CFI (cfiCond35) DPL0 load(1, XDATA, add(CFA_XSP16, literal(-2)))
        CFI (cfiCond35) DPH0 load(1, XDATA, add(CFA_XSP16, literal(-1)))
        CFI (cfiCond35) CFA_SP SP+0
        CFI (cfiCond35) CFA_XSP16 add(XSP16, 17)
        CFI Block cfiCond36 Using cfiCommon0
        CFI (cfiCond36) NoFunction
        CFI (cfiCond36) Conditional ??CrossCallReturnLabel_131
        CFI (cfiCond36) R6 load(1, XDATA, add(CFA_XSP16, literal(-16)))
        CFI (cfiCond36) VB load(1, XDATA, add(CFA_XSP16, literal(-15)))
        CFI (cfiCond36) V0 load(1, XDATA, add(CFA_XSP16, literal(-14)))
        CFI (cfiCond36) V1 load(1, XDATA, add(CFA_XSP16, literal(-13)))
        CFI (cfiCond36) V2 load(1, XDATA, add(CFA_XSP16, literal(-12)))
        CFI (cfiCond36) V3 load(1, XDATA, add(CFA_XSP16, literal(-11)))
        CFI (cfiCond36) V4 load(1, XDATA, add(CFA_XSP16, literal(-10)))
        CFI (cfiCond36) V5 load(1, XDATA, add(CFA_XSP16, literal(-9)))
        CFI (cfiCond36) V6 load(1, XDATA, add(CFA_XSP16, literal(-8)))
        CFI (cfiCond36) V7 load(1, XDATA, add(CFA_XSP16, literal(-7)))
        CFI (cfiCond36) R7 load(1, XDATA, add(CFA_XSP16, literal(-6)))
        CFI (cfiCond36) ?RET_LOW load(1, XDATA, add(CFA_XSP16, literal(-5)))
        CFI (cfiCond36) ?RET_HIGH load(1, XDATA, add(CFA_XSP16, literal(-4)))
        CFI (cfiCond36) ?BRET_EXT load(1, XDATA, add(CFA_XSP16, literal(-3)))
        CFI (cfiCond36) DPL0 load(1, XDATA, add(CFA_XSP16, literal(-2)))
        CFI (cfiCond36) DPH0 load(1, XDATA, add(CFA_XSP16, literal(-1)))
        CFI (cfiCond36) CFA_SP SP+0
        CFI (cfiCond36) CFA_XSP16 add(XSP16, 17)
        CFI Block cfiPicker37 Using cfiCommon1
        CFI (cfiPicker37) NoFunction
        CFI (cfiPicker37) Picker
        MOV     ?V0 + 0,DPL
        MOV     ?V0 + 1,DPH
        RET
        CFI EndBlock cfiCond32
        CFI EndBlock cfiCond33
        CFI EndBlock cfiCond34
        CFI EndBlock cfiCond35
        CFI EndBlock cfiCond36
        CFI EndBlock cfiPicker37

        RSEG BANKED_CODE:CODE:NOROOT(0)
?Subroutine19:
        CFI Block cfiCond38 Using cfiCommon0
        CFI NoFunction
        CFI Conditional ??CrossCallReturnLabel_60
        CFI R6 load(1, XDATA, add(CFA_XSP16, literal(-14)))
        CFI VB load(1, XDATA, add(CFA_XSP16, literal(-13)))
        CFI V0 load(1, XDATA, add(CFA_XSP16, literal(-12)))
        CFI V1 load(1, XDATA, add(CFA_XSP16, literal(-11)))
        CFI V2 load(1, XDATA, add(CFA_XSP16, literal(-10)))
        CFI V3 load(1, XDATA, add(CFA_XSP16, literal(-9)))
        CFI V4 load(1, XDATA, add(CFA_XSP16, literal(-8)))
        CFI V5 load(1, XDATA, add(CFA_XSP16, literal(-7)))
        CFI R7 load(1, XDATA, add(CFA_XSP16, literal(-6)))
        CFI ?RET_LOW load(1, XDATA, add(CFA_XSP16, literal(-5)))
        CFI ?RET_HIGH load(1, XDATA, add(CFA_XSP16, literal(-4)))
        CFI ?BRET_EXT load(1, XDATA, add(CFA_XSP16, literal(-3)))
        CFI DPL0 load(1, XDATA, add(CFA_XSP16, literal(-2)))
        CFI DPH0 load(1, XDATA, add(CFA_XSP16, literal(-1)))
        CFI CFA_SP SP+0
        CFI CFA_XSP16 add(XSP16, 14)
        CFI Block cfiCond39 Using cfiCommon0
        CFI (cfiCond39) NoFunction
        CFI (cfiCond39) Conditional ??CrossCallReturnLabel_61
        CFI (cfiCond39) R6 load(1, XDATA, add(CFA_XSP16, literal(-12)))
        CFI (cfiCond39) VB load(1, XDATA, add(CFA_XSP16, literal(-11)))
        CFI (cfiCond39) V0 load(1, XDATA, add(CFA_XSP16, literal(-10)))
        CFI (cfiCond39) V1 load(1, XDATA, add(CFA_XSP16, literal(-9)))
        CFI (cfiCond39) V2 load(1, XDATA, add(CFA_XSP16, literal(-8)))
        CFI (cfiCond39) V3 load(1, XDATA, add(CFA_XSP16, literal(-7)))
        CFI (cfiCond39) R7 load(1, XDATA, add(CFA_XSP16, literal(-6)))
        CFI (cfiCond39) ?RET_LOW load(1, XDATA, add(CFA_XSP16, literal(-5)))
        CFI (cfiCond39) ?RET_HIGH load(1, XDATA, add(CFA_XSP16, literal(-4)))
        CFI (cfiCond39) ?BRET_EXT load(1, XDATA, add(CFA_XSP16, literal(-3)))
        CFI (cfiCond39) DPL0 load(1, XDATA, add(CFA_XSP16, literal(-2)))
        CFI (cfiCond39) DPH0 load(1, XDATA, add(CFA_XSP16, literal(-1)))
        CFI (cfiCond39) CFA_SP SP+0
        CFI (cfiCond39) CFA_XSP16 add(XSP16, 21)
        CFI Block cfiCond40 Using cfiCommon0
        CFI (cfiCond40) NoFunction
        CFI (cfiCond40) Conditional ??CrossCallReturnLabel_62
        CFI (cfiCond40) R6 load(1, XDATA, add(CFA_XSP16, literal(-16)))
        CFI (cfiCond40) VB load(1, XDATA, add(CFA_XSP16, literal(-15)))
        CFI (cfiCond40) V0 load(1, XDATA, add(CFA_XSP16, literal(-14)))
        CFI (cfiCond40) V1 load(1, XDATA, add(CFA_XSP16, literal(-13)))
        CFI (cfiCond40) V2 load(1, XDATA, add(CFA_XSP16, literal(-12)))
        CFI (cfiCond40) V3 load(1, XDATA, add(CFA_XSP16, literal(-11)))
        CFI (cfiCond40) V4 load(1, XDATA, add(CFA_XSP16, literal(-10)))
        CFI (cfiCond40) V5 load(1, XDATA, add(CFA_XSP16, literal(-9)))
        CFI (cfiCond40) V6 load(1, XDATA, add(CFA_XSP16, literal(-8)))
        CFI (cfiCond40) V7 load(1, XDATA, add(CFA_XSP16, literal(-7)))
        CFI (cfiCond40) R7 load(1, XDATA, add(CFA_XSP16, literal(-6)))
        CFI (cfiCond40) ?RET_LOW load(1, XDATA, add(CFA_XSP16, literal(-5)))
        CFI (cfiCond40) ?RET_HIGH load(1, XDATA, add(CFA_XSP16, literal(-4)))
        CFI (cfiCond40) ?BRET_EXT load(1, XDATA, add(CFA_XSP16, literal(-3)))
        CFI (cfiCond40) DPL0 load(1, XDATA, add(CFA_XSP16, literal(-2)))
        CFI (cfiCond40) DPH0 load(1, XDATA, add(CFA_XSP16, literal(-1)))
        CFI (cfiCond40) CFA_SP SP+0
        CFI (cfiCond40) CFA_XSP16 add(XSP16, 17)
        CFI Block cfiCond41 Using cfiCommon0
        CFI (cfiCond41) NoFunction
        CFI (cfiCond41) Conditional ??CrossCallReturnLabel_63
        CFI (cfiCond41) R6 load(1, XDATA, add(CFA_XSP16, literal(-16)))
        CFI (cfiCond41) VB load(1, XDATA, add(CFA_XSP16, literal(-15)))
        CFI (cfiCond41) V0 load(1, XDATA, add(CFA_XSP16, literal(-14)))
        CFI (cfiCond41) V1 load(1, XDATA, add(CFA_XSP16, literal(-13)))
        CFI (cfiCond41) V2 load(1, XDATA, add(CFA_XSP16, literal(-12)))
        CFI (cfiCond41) V3 load(1, XDATA, add(CFA_XSP16, literal(-11)))
        CFI (cfiCond41) V4 load(1, XDATA, add(CFA_XSP16, literal(-10)))
        CFI (cfiCond41) V5 load(1, XDATA, add(CFA_XSP16, literal(-9)))
        CFI (cfiCond41) V6 load(1, XDATA, add(CFA_XSP16, literal(-8)))
        CFI (cfiCond41) V7 load(1, XDATA, add(CFA_XSP16, literal(-7)))
        CFI (cfiCond41) R7 load(1, XDATA, add(CFA_XSP16, literal(-6)))
        CFI (cfiCond41) ?RET_LOW load(1, XDATA, add(CFA_XSP16, literal(-5)))
        CFI (cfiCond41) ?RET_HIGH load(1, XDATA, add(CFA_XSP16, literal(-4)))
        CFI (cfiCond41) ?BRET_EXT load(1, XDATA, add(CFA_XSP16, literal(-3)))
        CFI (cfiCond41) DPL0 load(1, XDATA, add(CFA_XSP16, literal(-2)))
        CFI (cfiCond41) DPH0 load(1, XDATA, add(CFA_XSP16, literal(-1)))
        CFI (cfiCond41) CFA_SP SP+0
        CFI (cfiCond41) CFA_XSP16 add(XSP16, 18)
        CFI Block cfiPicker42 Using cfiCommon1
        CFI (cfiPicker42) NoFunction
        CFI (cfiPicker42) Picker
        MOVX    A,@DPTR
        MOV     R6,A
        INC     DPTR
        MOVX    A,@DPTR
        MOV     R7,A
        RET
        CFI EndBlock cfiCond38
        CFI EndBlock cfiCond39
        CFI EndBlock cfiCond40
        CFI EndBlock cfiCond41
        CFI EndBlock cfiPicker42

        RSEG BANKED_CODE:CODE:NOROOT(0)
?Subroutine13:
        CFI Block cfiCond43 Using cfiCommon0
        CFI NoFunction
        CFI Conditional ??CrossCallReturnLabel_130
        CFI R6 load(1, XDATA, add(CFA_XSP16, literal(-16)))
        CFI VB load(1, XDATA, add(CFA_XSP16, literal(-15)))
        CFI V0 load(1, XDATA, add(CFA_XSP16, literal(-14)))
        CFI V1 load(1, XDATA, add(CFA_XSP16, literal(-13)))
        CFI V2 load(1, XDATA, add(CFA_XSP16, literal(-12)))
        CFI V3 load(1, XDATA, add(CFA_XSP16, literal(-11)))
        CFI V4 load(1, XDATA, add(CFA_XSP16, literal(-10)))
        CFI V5 load(1, XDATA, add(CFA_XSP16, literal(-9)))
        CFI V6 load(1, XDATA, add(CFA_XSP16, literal(-8)))
        CFI V7 load(1, XDATA, add(CFA_XSP16, literal(-7)))
        CFI R7 load(1, XDATA, add(CFA_XSP16, literal(-6)))
        CFI ?RET_LOW load(1, XDATA, add(CFA_XSP16, literal(-5)))
        CFI ?RET_HIGH load(1, XDATA, add(CFA_XSP16, literal(-4)))
        CFI ?BRET_EXT load(1, XDATA, add(CFA_XSP16, literal(-3)))
        CFI DPL0 load(1, XDATA, add(CFA_XSP16, literal(-2)))
        CFI DPH0 load(1, XDATA, add(CFA_XSP16, literal(-1)))
        CFI CFA_SP SP+0
        CFI CFA_XSP16 add(XSP16, 17)
        CFI Block cfiCond44 Using cfiCommon0
        CFI (cfiCond44) NoFunction
        CFI (cfiCond44) Conditional ??CrossCallReturnLabel_131
        CFI (cfiCond44) R6 load(1, XDATA, add(CFA_XSP16, literal(-16)))
        CFI (cfiCond44) VB load(1, XDATA, add(CFA_XSP16, literal(-15)))
        CFI (cfiCond44) V0 load(1, XDATA, add(CFA_XSP16, literal(-14)))
        CFI (cfiCond44) V1 load(1, XDATA, add(CFA_XSP16, literal(-13)))
        CFI (cfiCond44) V2 load(1, XDATA, add(CFA_XSP16, literal(-12)))
        CFI (cfiCond44) V3 load(1, XDATA, add(CFA_XSP16, literal(-11)))
        CFI (cfiCond44) V4 load(1, XDATA, add(CFA_XSP16, literal(-10)))
        CFI (cfiCond44) V5 load(1, XDATA, add(CFA_XSP16, literal(-9)))
        CFI (cfiCond44) V6 load(1, XDATA, add(CFA_XSP16, literal(-8)))
        CFI (cfiCond44) V7 load(1, XDATA, add(CFA_XSP16, literal(-7)))
        CFI (cfiCond44) R7 load(1, XDATA, add(CFA_XSP16, literal(-6)))
        CFI (cfiCond44) ?RET_LOW load(1, XDATA, add(CFA_XSP16, literal(-5)))
        CFI (cfiCond44) ?RET_HIGH load(1, XDATA, add(CFA_XSP16, literal(-4)))
        CFI (cfiCond44) ?BRET_EXT load(1, XDATA, add(CFA_XSP16, literal(-3)))
        CFI (cfiCond44) DPL0 load(1, XDATA, add(CFA_XSP16, literal(-2)))
        CFI (cfiCond44) DPH0 load(1, XDATA, add(CFA_XSP16, literal(-1)))
        CFI (cfiCond44) CFA_SP SP+0
        CFI (cfiCond44) CFA_XSP16 add(XSP16, 17)
        CFI Block cfiPicker45 Using cfiCommon1
        CFI (cfiPicker45) NoFunction
        CFI (cfiPicker45) Picker
        LCALL   ?Subroutine38 & 0xFFFF
??CrossCallReturnLabel_113:
        SJMP    ?Subroutine49
        CFI EndBlock cfiCond43
        CFI EndBlock cfiCond44
        CFI EndBlock cfiPicker45

        RSEG BANKED_CODE:CODE:NOROOT(0)
?Subroutine38:
        CFI Block cfiCond46 Using cfiCommon0
        CFI NoFunction
        CFI Conditional ??CrossCallReturnLabel_112
        CFI R6 load(1, XDATA, add(CFA_XSP16, literal(-16)))
        CFI VB load(1, XDATA, add(CFA_XSP16, literal(-15)))
        CFI V0 load(1, XDATA, add(CFA_XSP16, literal(-14)))
        CFI V1 load(1, XDATA, add(CFA_XSP16, literal(-13)))
        CFI V2 load(1, XDATA, add(CFA_XSP16, literal(-12)))
        CFI V3 load(1, XDATA, add(CFA_XSP16, literal(-11)))
        CFI V4 load(1, XDATA, add(CFA_XSP16, literal(-10)))
        CFI V5 load(1, XDATA, add(CFA_XSP16, literal(-9)))
        CFI V6 load(1, XDATA, add(CFA_XSP16, literal(-8)))
        CFI V7 load(1, XDATA, add(CFA_XSP16, literal(-7)))
        CFI R7 load(1, XDATA, add(CFA_XSP16, literal(-6)))
        CFI ?RET_LOW load(1, XDATA, add(CFA_XSP16, literal(-5)))
        CFI ?RET_HIGH load(1, XDATA, add(CFA_XSP16, literal(-4)))
        CFI ?BRET_EXT load(1, XDATA, add(CFA_XSP16, literal(-3)))
        CFI DPL0 load(1, XDATA, add(CFA_XSP16, literal(-2)))
        CFI DPH0 load(1, XDATA, add(CFA_XSP16, literal(-1)))
        CFI CFA_SP SP+0
        CFI CFA_XSP16 add(XSP16, 17)
        CFI Block cfiCond47 Using cfiCommon0
        CFI (cfiCond47) NoFunction
        CFI (cfiCond47) Conditional ??CrossCallReturnLabel_113, ??CrossCallReturnLabel_130
        CFI (cfiCond47) R6 load(1, XDATA, add(CFA_XSP16, literal(-16)))
        CFI (cfiCond47) VB load(1, XDATA, add(CFA_XSP16, literal(-15)))
        CFI (cfiCond47) V0 load(1, XDATA, add(CFA_XSP16, literal(-14)))
        CFI (cfiCond47) V1 load(1, XDATA, add(CFA_XSP16, literal(-13)))
        CFI (cfiCond47) V2 load(1, XDATA, add(CFA_XSP16, literal(-12)))
        CFI (cfiCond47) V3 load(1, XDATA, add(CFA_XSP16, literal(-11)))
        CFI (cfiCond47) V4 load(1, XDATA, add(CFA_XSP16, literal(-10)))
        CFI (cfiCond47) V5 load(1, XDATA, add(CFA_XSP16, literal(-9)))
        CFI (cfiCond47) V6 load(1, XDATA, add(CFA_XSP16, literal(-8)))
        CFI (cfiCond47) V7 load(1, XDATA, add(CFA_XSP16, literal(-7)))
        CFI (cfiCond47) R7 load(1, XDATA, add(CFA_XSP16, literal(-6)))
        CFI (cfiCond47) ?RET_LOW load(1, XDATA, add(CFA_XSP16, literal(-5)))
        CFI (cfiCond47) ?RET_HIGH load(1, XDATA, add(CFA_XSP16, literal(-4)))
        CFI (cfiCond47) ?BRET_EXT load(1, XDATA, add(CFA_XSP16, literal(-3)))
        CFI (cfiCond47) DPL0 load(1, XDATA, add(CFA_XSP16, literal(-2)))
        CFI (cfiCond47) DPH0 load(1, XDATA, add(CFA_XSP16, literal(-1)))
        CFI (cfiCond47) CFA_SP SP+0
        CFI (cfiCond47) CFA_XSP16 add(XSP16, 17)
        CFI Block cfiCond48 Using cfiCommon0
        CFI (cfiCond48) NoFunction
        CFI (cfiCond48) Conditional ??CrossCallReturnLabel_113, ??CrossCallReturnLabel_131
        CFI (cfiCond48) R6 load(1, XDATA, add(CFA_XSP16, literal(-16)))
        CFI (cfiCond48) VB load(1, XDATA, add(CFA_XSP16, literal(-15)))
        CFI (cfiCond48) V0 load(1, XDATA, add(CFA_XSP16, literal(-14)))
        CFI (cfiCond48) V1 load(1, XDATA, add(CFA_XSP16, literal(-13)))
        CFI (cfiCond48) V2 load(1, XDATA, add(CFA_XSP16, literal(-12)))
        CFI (cfiCond48) V3 load(1, XDATA, add(CFA_XSP16, literal(-11)))
        CFI (cfiCond48) V4 load(1, XDATA, add(CFA_XSP16, literal(-10)))
        CFI (cfiCond48) V5 load(1, XDATA, add(CFA_XSP16, literal(-9)))
        CFI (cfiCond48) V6 load(1, XDATA, add(CFA_XSP16, literal(-8)))
        CFI (cfiCond48) V7 load(1, XDATA, add(CFA_XSP16, literal(-7)))
        CFI (cfiCond48) R7 load(1, XDATA, add(CFA_XSP16, literal(-6)))
        CFI (cfiCond48) ?RET_LOW load(1, XDATA, add(CFA_XSP16, literal(-5)))
        CFI (cfiCond48) ?RET_HIGH load(1, XDATA, add(CFA_XSP16, literal(-4)))
        CFI (cfiCond48) ?BRET_EXT load(1, XDATA, add(CFA_XSP16, literal(-3)))
        CFI (cfiCond48) DPL0 load(1, XDATA, add(CFA_XSP16, literal(-2)))
        CFI (cfiCond48) DPH0 load(1, XDATA, add(CFA_XSP16, literal(-1)))
        CFI (cfiCond48) CFA_SP SP+0
        CFI (cfiCond48) CFA_XSP16 add(XSP16, 17)
        CFI Block cfiPicker49 Using cfiCommon1
        CFI (cfiPicker49) NoFunction
        CFI (cfiPicker49) Picker
        MOVX    A,@DPTR
        MOV     DPL,?V0 + 0
        MOV     DPH,?V0 + 1
        MOVX    @DPTR,A
        INC     DPTR
        RET
        CFI EndBlock cfiCond46
        CFI EndBlock cfiCond47
        CFI EndBlock cfiCond48
        CFI EndBlock cfiPicker49
//  669 
//  670 /*********************************************************************
//  671  * @fn          ZDP_NodeDescMsg
//  672  *
//  673  * @brief       Builds and sends a Node Descriptor message, unicast to the
//  674  *              specified device.
//  675  *
//  676  * @param       inMsg - incoming message
//  677  * @param       nwkAddr - 16 bit network address for device
//  678  * @param       pNodeDesc - pointer to the node descriptor
//  679  *
//  680  * @return      afStatus_t
//  681  */

        RSEG BANKED_CODE:CODE:NOROOT(0)
//  682 afStatus_t ZDP_NodeDescMsg( zdoIncomingMsg_t *inMsg, 
ZDP_NodeDescMsg:
        CFI Block cfiBlock50 Using cfiCommon0
        CFI Function ZDP_NodeDescMsg
//  683                            uint16 nwkAddr, NodeDescriptorFormat_t *pNodeDesc )
//  684 {
        FUNCALL ZDP_NodeDescMsg, fillAndSend
        LOCFRAME ISTACK, 0, STACK
        LOCFRAME PSTACK, 0, STACK
        LOCFRAME XSTACK, 12, STACK
        LOCFRAME IOVERLAY, 0, STATIC
        LOCFRAME DOVERLAY, 0, STATIC
        ARGFRAME ISTACK, 0, STACK
        ARGFRAME PSTACK, 0, STACK
        ARGFRAME XSTACK, 12, STACK
        ARGFRAME IOVERLAY, 0, STATIC
        ARGFRAME DOVERLAY, 0, STATIC
        MOV     A,#-0xa
        LCALL   ?BANKED_ENTER_XDATA
        CFI DPH0 load(1, XDATA, add(CFA_XSP16, literal(-1)))
        CFI DPL0 load(1, XDATA, add(CFA_XSP16, literal(-2)))
        CFI ?BRET_EXT load(1, XDATA, add(CFA_XSP16, literal(-3)))
        CFI ?RET_HIGH load(1, XDATA, add(CFA_XSP16, literal(-4)))
        CFI ?RET_LOW load(1, XDATA, add(CFA_XSP16, literal(-5)))
        CFI R7 load(1, XDATA, add(CFA_XSP16, literal(-6)))
        CFI V1 load(1, XDATA, add(CFA_XSP16, literal(-7)))
        CFI V0 load(1, XDATA, add(CFA_XSP16, literal(-8)))
        CFI VB load(1, XDATA, add(CFA_XSP16, literal(-9)))
        CFI R6 load(1, XDATA, add(CFA_XSP16, literal(-10)))
        CFI CFA_SP SP+0
        CFI CFA_XSP16 add(XSP16, 10)
        ; Saved register size: 10
        ; Auto size: 0
        MOV     A,#0xa
        LCALL   ?XSTACK_DISP0_8
        LCALL   ?Subroutine2 & 0xFFFF
//  685   byte *pBuf = ZDP_TmpBuf;
//  686   byte len;
//  687 
//  688   len = 1 + 2 + 10;  // Status + nwkAddr + Node descriptor
//  689 
//  690   *pBuf++ = ZDP_SUCCESS;
//  691 
//  692   *pBuf++ = LO_UINT16( nwkAddr );
//  693   *pBuf++ = HI_UINT16( nwkAddr );
//  694 
//  695   *pBuf++ = (byte)((pNodeDesc->ComplexDescAvail << 3) |
//  696                      (pNodeDesc->UserDescAvail << 4) |
//  697                      (pNodeDesc->LogicalType & 0x07));
??CrossCallReturnLabel_4:
        ANL     A,#0x1f
        LCALL   ?Subroutine23 & 0xFFFF
//  698 
//  699   *pBuf++ = (byte)((pNodeDesc->FrequencyBand << 3) | (pNodeDesc->APSFlags & 0x07));
??CrossCallReturnLabel_69:
        LCALL   ?Subroutine9 & 0xFFFF
//  700   *pBuf++ = pNodeDesc->CapabilityFlags;
??CrossCallReturnLabel_36:
        LCALL   ?Subroutine9 & 0xFFFF
//  701   *pBuf++ = pNodeDesc->ManufacturerCode[0];
??CrossCallReturnLabel_37:
        INC     DPTR
        LCALL   ?Subroutine8 & 0xFFFF
//  702   *pBuf++ = pNodeDesc->ManufacturerCode[1];
??CrossCallReturnLabel_34:
        LCALL   ?Subroutine8 & 0xFFFF
//  703   *pBuf++ = pNodeDesc->MaxBufferSize;
??CrossCallReturnLabel_35:
        INC     DPTR
        LCALL   ?Subroutine6 & 0xFFFF
//  704   *pBuf++ = pNodeDesc->MaxTransferSize[0];
??CrossCallReturnLabel_29:
        LCALL   ?Subroutine6 & 0xFFFF
//  705   *pBuf++ = pNodeDesc->MaxTransferSize[1];
??CrossCallReturnLabel_30:
        INC     DPTR
        LCALL   ?Subroutine12 & 0xFFFF
//  706 
//  707   *pBuf++ = LO_UINT16( pNodeDesc->ServerMask );
??CrossCallReturnLabel_42:
        MOV     A,R6
        ADD     A,#0x8
        MOV     R4,A
        MOV     A,R7
        ADDC    A,#0x0
        MOV     R5,A
        LCALL   ?Subroutine5 & 0xFFFF
//  708   *pBuf++ = HI_UINT16( pNodeDesc->ServerMask );
??CrossCallReturnLabel_26:
        LCALL   ?Subroutine16 & 0xFFFF
//  709 
//  710   return fillAndSend( &(inMsg->TransSeq), &(inMsg->srcAddr), Node_Desc_rsp, len );
??CrossCallReturnLabel_53:
        ; Setup parameters for call to function fillAndSend
        MOV     ?V0 + 0,#0x2
        MOV     ?V0 + 1,#-0x80
        MOV     R0,#?V0 + 0
        LCALL   ?PUSH_XSTACK_I_TWO
        CFI CFA_XSP16 add(XSP16, 12)
        MOV     R1,#0xd
        LJMP    ?Subroutine48 & 0xFFFF
        CFI EndBlock cfiBlock50
//  711 }

        RSEG BANKED_CODE:CODE:NOROOT(0)
?Subroutine9:
        CFI Block cfiCond51 Using cfiCommon0
        CFI NoFunction
        CFI Conditional ??CrossCallReturnLabel_36
        CFI R6 load(1, XDATA, add(CFA_XSP16, literal(-10)))
        CFI VB load(1, XDATA, add(CFA_XSP16, literal(-9)))
        CFI V0 load(1, XDATA, add(CFA_XSP16, literal(-8)))
        CFI V1 load(1, XDATA, add(CFA_XSP16, literal(-7)))
        CFI R7 load(1, XDATA, add(CFA_XSP16, literal(-6)))
        CFI ?RET_LOW load(1, XDATA, add(CFA_XSP16, literal(-5)))
        CFI ?RET_HIGH load(1, XDATA, add(CFA_XSP16, literal(-4)))
        CFI ?BRET_EXT load(1, XDATA, add(CFA_XSP16, literal(-3)))
        CFI DPL0 load(1, XDATA, add(CFA_XSP16, literal(-2)))
        CFI DPH0 load(1, XDATA, add(CFA_XSP16, literal(-1)))
        CFI CFA_SP SP+0
        CFI CFA_XSP16 add(XSP16, 10)
        CFI Block cfiCond52 Using cfiCommon0
        CFI (cfiCond52) NoFunction
        CFI (cfiCond52) Conditional ??CrossCallReturnLabel_37
        CFI (cfiCond52) R6 load(1, XDATA, add(CFA_XSP16, literal(-10)))
        CFI (cfiCond52) VB load(1, XDATA, add(CFA_XSP16, literal(-9)))
        CFI (cfiCond52) V0 load(1, XDATA, add(CFA_XSP16, literal(-8)))
        CFI (cfiCond52) V1 load(1, XDATA, add(CFA_XSP16, literal(-7)))
        CFI (cfiCond52) R7 load(1, XDATA, add(CFA_XSP16, literal(-6)))
        CFI (cfiCond52) ?RET_LOW load(1, XDATA, add(CFA_XSP16, literal(-5)))
        CFI (cfiCond52) ?RET_HIGH load(1, XDATA, add(CFA_XSP16, literal(-4)))
        CFI (cfiCond52) ?BRET_EXT load(1, XDATA, add(CFA_XSP16, literal(-3)))
        CFI (cfiCond52) DPL0 load(1, XDATA, add(CFA_XSP16, literal(-2)))
        CFI (cfiCond52) DPH0 load(1, XDATA, add(CFA_XSP16, literal(-1)))
        CFI (cfiCond52) CFA_SP SP+0
        CFI (cfiCond52) CFA_XSP16 add(XSP16, 10)
        CFI Block cfiPicker53 Using cfiCommon1
        CFI (cfiPicker53) NoFunction
        CFI (cfiPicker53) Picker
        LCALL   ?Subroutine34 & 0xFFFF
??CrossCallReturnLabel_104:
        INC     DPTR
        RET
        CFI EndBlock cfiCond51
        CFI EndBlock cfiCond52
        CFI EndBlock cfiPicker53

        RSEG BANKED_CODE:CODE:NOROOT(0)
?Subroutine8:
        CFI Block cfiCond54 Using cfiCommon0
        CFI NoFunction
        CFI Conditional ??CrossCallReturnLabel_34
        CFI R6 load(1, XDATA, add(CFA_XSP16, literal(-10)))
        CFI VB load(1, XDATA, add(CFA_XSP16, literal(-9)))
        CFI V0 load(1, XDATA, add(CFA_XSP16, literal(-8)))
        CFI V1 load(1, XDATA, add(CFA_XSP16, literal(-7)))
        CFI R7 load(1, XDATA, add(CFA_XSP16, literal(-6)))
        CFI ?RET_LOW load(1, XDATA, add(CFA_XSP16, literal(-5)))
        CFI ?RET_HIGH load(1, XDATA, add(CFA_XSP16, literal(-4)))
        CFI ?BRET_EXT load(1, XDATA, add(CFA_XSP16, literal(-3)))
        CFI DPL0 load(1, XDATA, add(CFA_XSP16, literal(-2)))
        CFI DPH0 load(1, XDATA, add(CFA_XSP16, literal(-1)))
        CFI CFA_SP SP+0
        CFI CFA_XSP16 add(XSP16, 10)
        CFI Block cfiCond55 Using cfiCommon0
        CFI (cfiCond55) NoFunction
        CFI (cfiCond55) Conditional ??CrossCallReturnLabel_35
        CFI (cfiCond55) R6 load(1, XDATA, add(CFA_XSP16, literal(-10)))
        CFI (cfiCond55) VB load(1, XDATA, add(CFA_XSP16, literal(-9)))
        CFI (cfiCond55) V0 load(1, XDATA, add(CFA_XSP16, literal(-8)))
        CFI (cfiCond55) V1 load(1, XDATA, add(CFA_XSP16, literal(-7)))
        CFI (cfiCond55) R7 load(1, XDATA, add(CFA_XSP16, literal(-6)))
        CFI (cfiCond55) ?RET_LOW load(1, XDATA, add(CFA_XSP16, literal(-5)))
        CFI (cfiCond55) ?RET_HIGH load(1, XDATA, add(CFA_XSP16, literal(-4)))
        CFI (cfiCond55) ?BRET_EXT load(1, XDATA, add(CFA_XSP16, literal(-3)))
        CFI (cfiCond55) DPL0 load(1, XDATA, add(CFA_XSP16, literal(-2)))
        CFI (cfiCond55) DPH0 load(1, XDATA, add(CFA_XSP16, literal(-1)))
        CFI (cfiCond55) CFA_SP SP+0
        CFI (cfiCond55) CFA_XSP16 add(XSP16, 10)
        CFI Block cfiPicker56 Using cfiCommon1
        CFI (cfiPicker56) NoFunction
        CFI (cfiPicker56) Picker
        LCALL   ?Subroutine33 & 0xFFFF
??CrossCallReturnLabel_102:
        RET
        CFI EndBlock cfiCond54
        CFI EndBlock cfiCond55
        CFI EndBlock cfiPicker56

        RSEG BANKED_CODE:CODE:NOROOT(0)
?Subroutine33:
        CFI Block cfiCond57 Using cfiCommon0
        CFI NoFunction
        CFI Conditional ??CrossCallReturnLabel_102, ??CrossCallReturnLabel_34
        CFI R6 load(1, XDATA, add(CFA_XSP16, literal(-10)))
        CFI VB load(1, XDATA, add(CFA_XSP16, literal(-9)))
        CFI V0 load(1, XDATA, add(CFA_XSP16, literal(-8)))
        CFI V1 load(1, XDATA, add(CFA_XSP16, literal(-7)))
        CFI R7 load(1, XDATA, add(CFA_XSP16, literal(-6)))
        CFI ?RET_LOW load(1, XDATA, add(CFA_XSP16, literal(-5)))
        CFI ?RET_HIGH load(1, XDATA, add(CFA_XSP16, literal(-4)))
        CFI ?BRET_EXT load(1, XDATA, add(CFA_XSP16, literal(-3)))
        CFI DPL0 load(1, XDATA, add(CFA_XSP16, literal(-2)))
        CFI DPH0 load(1, XDATA, add(CFA_XSP16, literal(-1)))
        CFI CFA_SP SP+0
        CFI CFA_XSP16 add(XSP16, 10)
        CFI Block cfiCond58 Using cfiCommon0
        CFI (cfiCond58) NoFunction
        CFI (cfiCond58) Conditional ??CrossCallReturnLabel_102, ??CrossCallReturnLabel_35
        CFI (cfiCond58) R6 load(1, XDATA, add(CFA_XSP16, literal(-10)))
        CFI (cfiCond58) VB load(1, XDATA, add(CFA_XSP16, literal(-9)))
        CFI (cfiCond58) V0 load(1, XDATA, add(CFA_XSP16, literal(-8)))
        CFI (cfiCond58) V1 load(1, XDATA, add(CFA_XSP16, literal(-7)))
        CFI (cfiCond58) R7 load(1, XDATA, add(CFA_XSP16, literal(-6)))
        CFI (cfiCond58) ?RET_LOW load(1, XDATA, add(CFA_XSP16, literal(-5)))
        CFI (cfiCond58) ?RET_HIGH load(1, XDATA, add(CFA_XSP16, literal(-4)))
        CFI (cfiCond58) ?BRET_EXT load(1, XDATA, add(CFA_XSP16, literal(-3)))
        CFI (cfiCond58) DPL0 load(1, XDATA, add(CFA_XSP16, literal(-2)))
        CFI (cfiCond58) DPH0 load(1, XDATA, add(CFA_XSP16, literal(-1)))
        CFI (cfiCond58) CFA_SP SP+0
        CFI (cfiCond58) CFA_XSP16 add(XSP16, 10)
        CFI Block cfiCond59 Using cfiCommon0
        CFI (cfiCond59) NoFunction
        CFI (cfiCond59) Conditional ??CrossCallReturnLabel_103, ??CrossCallReturnLabel_29
        CFI (cfiCond59) R6 load(1, XDATA, add(CFA_XSP16, literal(-10)))
        CFI (cfiCond59) VB load(1, XDATA, add(CFA_XSP16, literal(-9)))
        CFI (cfiCond59) V0 load(1, XDATA, add(CFA_XSP16, literal(-8)))
        CFI (cfiCond59) V1 load(1, XDATA, add(CFA_XSP16, literal(-7)))
        CFI (cfiCond59) R7 load(1, XDATA, add(CFA_XSP16, literal(-6)))
        CFI (cfiCond59) ?RET_LOW load(1, XDATA, add(CFA_XSP16, literal(-5)))
        CFI (cfiCond59) ?RET_HIGH load(1, XDATA, add(CFA_XSP16, literal(-4)))
        CFI (cfiCond59) ?BRET_EXT load(1, XDATA, add(CFA_XSP16, literal(-3)))
        CFI (cfiCond59) DPL0 load(1, XDATA, add(CFA_XSP16, literal(-2)))
        CFI (cfiCond59) DPH0 load(1, XDATA, add(CFA_XSP16, literal(-1)))
        CFI (cfiCond59) CFA_SP SP+0
        CFI (cfiCond59) CFA_XSP16 add(XSP16, 10)
        CFI Block cfiCond60 Using cfiCommon0
        CFI (cfiCond60) NoFunction
        CFI (cfiCond60) Conditional ??CrossCallReturnLabel_103, ??CrossCallReturnLabel_30
        CFI (cfiCond60) R6 load(1, XDATA, add(CFA_XSP16, literal(-10)))
        CFI (cfiCond60) VB load(1, XDATA, add(CFA_XSP16, literal(-9)))
        CFI (cfiCond60) V0 load(1, XDATA, add(CFA_XSP16, literal(-8)))
        CFI (cfiCond60) V1 load(1, XDATA, add(CFA_XSP16, literal(-7)))
        CFI (cfiCond60) R7 load(1, XDATA, add(CFA_XSP16, literal(-6)))
        CFI (cfiCond60) ?RET_LOW load(1, XDATA, add(CFA_XSP16, literal(-5)))
        CFI (cfiCond60) ?RET_HIGH load(1, XDATA, add(CFA_XSP16, literal(-4)))
        CFI (cfiCond60) ?BRET_EXT load(1, XDATA, add(CFA_XSP16, literal(-3)))
        CFI (cfiCond60) DPL0 load(1, XDATA, add(CFA_XSP16, literal(-2)))
        CFI (cfiCond60) DPH0 load(1, XDATA, add(CFA_XSP16, literal(-1)))
        CFI (cfiCond60) CFA_SP SP+0
        CFI (cfiCond60) CFA_XSP16 add(XSP16, 10)
        CFI Block cfiPicker61 Using cfiCommon1
        CFI (cfiPicker61) NoFunction
        CFI (cfiPicker61) Picker
        LCALL   ?Subroutine42 & 0xFFFF
??CrossCallReturnLabel_121:
        INC     DPTR
        INC     DPTR
        INC     DPTR
        RET
        CFI EndBlock cfiCond57
        CFI EndBlock cfiCond58
        CFI EndBlock cfiCond59
        CFI EndBlock cfiCond60
        CFI EndBlock cfiPicker61

        RSEG BANKED_CODE:CODE:NOROOT(0)
?Subroutine6:
        CFI Block cfiCond62 Using cfiCommon0
        CFI NoFunction
        CFI Conditional ??CrossCallReturnLabel_29
        CFI R6 load(1, XDATA, add(CFA_XSP16, literal(-10)))
        CFI VB load(1, XDATA, add(CFA_XSP16, literal(-9)))
        CFI V0 load(1, XDATA, add(CFA_XSP16, literal(-8)))
        CFI V1 load(1, XDATA, add(CFA_XSP16, literal(-7)))
        CFI R7 load(1, XDATA, add(CFA_XSP16, literal(-6)))
        CFI ?RET_LOW load(1, XDATA, add(CFA_XSP16, literal(-5)))
        CFI ?RET_HIGH load(1, XDATA, add(CFA_XSP16, literal(-4)))
        CFI ?BRET_EXT load(1, XDATA, add(CFA_XSP16, literal(-3)))
        CFI DPL0 load(1, XDATA, add(CFA_XSP16, literal(-2)))
        CFI DPH0 load(1, XDATA, add(CFA_XSP16, literal(-1)))
        CFI CFA_SP SP+0
        CFI CFA_XSP16 add(XSP16, 10)
        CFI Block cfiCond63 Using cfiCommon0
        CFI (cfiCond63) NoFunction
        CFI (cfiCond63) Conditional ??CrossCallReturnLabel_30
        CFI (cfiCond63) R6 load(1, XDATA, add(CFA_XSP16, literal(-10)))
        CFI (cfiCond63) VB load(1, XDATA, add(CFA_XSP16, literal(-9)))
        CFI (cfiCond63) V0 load(1, XDATA, add(CFA_XSP16, literal(-8)))
        CFI (cfiCond63) V1 load(1, XDATA, add(CFA_XSP16, literal(-7)))
        CFI (cfiCond63) R7 load(1, XDATA, add(CFA_XSP16, literal(-6)))
        CFI (cfiCond63) ?RET_LOW load(1, XDATA, add(CFA_XSP16, literal(-5)))
        CFI (cfiCond63) ?RET_HIGH load(1, XDATA, add(CFA_XSP16, literal(-4)))
        CFI (cfiCond63) ?BRET_EXT load(1, XDATA, add(CFA_XSP16, literal(-3)))
        CFI (cfiCond63) DPL0 load(1, XDATA, add(CFA_XSP16, literal(-2)))
        CFI (cfiCond63) DPH0 load(1, XDATA, add(CFA_XSP16, literal(-1)))
        CFI (cfiCond63) CFA_SP SP+0
        CFI (cfiCond63) CFA_XSP16 add(XSP16, 10)
        CFI Block cfiPicker64 Using cfiCommon1
        CFI (cfiPicker64) NoFunction
        CFI (cfiPicker64) Picker
        LCALL   ?Subroutine33 & 0xFFFF
??CrossCallReturnLabel_103:
        INC     DPTR
        INC     DPTR
        RET
        CFI EndBlock cfiCond62
        CFI EndBlock cfiCond63
        CFI EndBlock cfiPicker64

        RSEG BANKED_CODE:CODE:NOROOT(0)
?Subroutine5:
        CFI Block cfiCond65 Using cfiCommon0
        CFI NoFunction
        CFI Conditional ??CrossCallReturnLabel_26
        CFI R6 load(1, XDATA, add(CFA_XSP16, literal(-10)))
        CFI VB load(1, XDATA, add(CFA_XSP16, literal(-9)))
        CFI V0 load(1, XDATA, add(CFA_XSP16, literal(-8)))
        CFI V1 load(1, XDATA, add(CFA_XSP16, literal(-7)))
        CFI R7 load(1, XDATA, add(CFA_XSP16, literal(-6)))
        CFI ?RET_LOW load(1, XDATA, add(CFA_XSP16, literal(-5)))
        CFI ?RET_HIGH load(1, XDATA, add(CFA_XSP16, literal(-4)))
        CFI ?BRET_EXT load(1, XDATA, add(CFA_XSP16, literal(-3)))
        CFI DPL0 load(1, XDATA, add(CFA_XSP16, literal(-2)))
        CFI DPH0 load(1, XDATA, add(CFA_XSP16, literal(-1)))
        CFI CFA_SP SP+0
        CFI CFA_XSP16 add(XSP16, 10)
        CFI Block cfiCond66 Using cfiCommon0
        CFI (cfiCond66) NoFunction
        CFI (cfiCond66) Conditional ??CrossCallReturnLabel_27
        CFI (cfiCond66) R6 load(1, XDATA, add(CFA_XSP16, literal(-14)))
        CFI (cfiCond66) VB load(1, XDATA, add(CFA_XSP16, literal(-13)))
        CFI (cfiCond66) V0 load(1, XDATA, add(CFA_XSP16, literal(-12)))
        CFI (cfiCond66) V1 load(1, XDATA, add(CFA_XSP16, literal(-11)))
        CFI (cfiCond66) V2 load(1, XDATA, add(CFA_XSP16, literal(-10)))
        CFI (cfiCond66) V3 load(1, XDATA, add(CFA_XSP16, literal(-9)))
        CFI (cfiCond66) V4 load(1, XDATA, add(CFA_XSP16, literal(-8)))
        CFI (cfiCond66) V5 load(1, XDATA, add(CFA_XSP16, literal(-7)))
        CFI (cfiCond66) R7 load(1, XDATA, add(CFA_XSP16, literal(-6)))
        CFI (cfiCond66) ?RET_LOW load(1, XDATA, add(CFA_XSP16, literal(-5)))
        CFI (cfiCond66) ?RET_HIGH load(1, XDATA, add(CFA_XSP16, literal(-4)))
        CFI (cfiCond66) ?BRET_EXT load(1, XDATA, add(CFA_XSP16, literal(-3)))
        CFI (cfiCond66) DPL0 load(1, XDATA, add(CFA_XSP16, literal(-2)))
        CFI (cfiCond66) DPH0 load(1, XDATA, add(CFA_XSP16, literal(-1)))
        CFI (cfiCond66) CFA_SP SP+0
        CFI (cfiCond66) CFA_XSP16 add(XSP16, 14)
        CFI Block cfiPicker67 Using cfiCommon1
        CFI (cfiPicker67) NoFunction
        CFI (cfiPicker67) Picker
        MOV     DPL,R4
        MOV     DPH,R5
        CFI Block cfiCond68 Using cfiCommon0
        CFI (cfiCond68) NoFunction
        CFI (cfiCond68) Conditional ??CrossCallReturnLabel_28
        CFI (cfiCond68) R6 load(1, XDATA, add(CFA_XSP16, literal(-14)))
        CFI (cfiCond68) VB load(1, XDATA, add(CFA_XSP16, literal(-13)))
        CFI (cfiCond68) V0 load(1, XDATA, add(CFA_XSP16, literal(-12)))
        CFI (cfiCond68) V1 load(1, XDATA, add(CFA_XSP16, literal(-11)))
        CFI (cfiCond68) V2 load(1, XDATA, add(CFA_XSP16, literal(-10)))
        CFI (cfiCond68) V3 load(1, XDATA, add(CFA_XSP16, literal(-9)))
        CFI (cfiCond68) V4 load(1, XDATA, add(CFA_XSP16, literal(-8)))
        CFI (cfiCond68) V5 load(1, XDATA, add(CFA_XSP16, literal(-7)))
        CFI (cfiCond68) R7 load(1, XDATA, add(CFA_XSP16, literal(-6)))
        CFI (cfiCond68) ?RET_LOW load(1, XDATA, add(CFA_XSP16, literal(-5)))
        CFI (cfiCond68) ?RET_HIGH load(1, XDATA, add(CFA_XSP16, literal(-4)))
        CFI (cfiCond68) ?BRET_EXT load(1, XDATA, add(CFA_XSP16, literal(-3)))
        CFI (cfiCond68) DPL0 load(1, XDATA, add(CFA_XSP16, literal(-2)))
        CFI (cfiCond68) DPH0 load(1, XDATA, add(CFA_XSP16, literal(-1)))
        CFI (cfiCond68) CFA_SP SP+0
        CFI (cfiCond68) CFA_XSP16 add(XSP16, 14)
??Subroutine5_0:
        LCALL   ??Subroutine35_0 & 0xFFFF
??CrossCallReturnLabel_107:
        MOV     DPL,R4
        MOV     DPH,R5
        INC     DPTR
        RET
        CFI EndBlock cfiCond65
        CFI EndBlock cfiCond66
        CFI EndBlock cfiPicker67
        CFI EndBlock cfiCond68
//  712 
//  713 /*********************************************************************
//  714  * @fn          ZDP_PowerDescMsg
//  715  *
//  716  * @brief       Builds and sends a Power Descriptor message, unicast to the
//  717  *              specified device.
//  718  *
//  719  * @param       inMsg - incoming message (request)
//  720  * @param       nwkAddr - 16 bit network address for device
//  721  * @param       pPowerDesc - pointer to the node descriptor
//  722  *
//  723  * @return      afStatus_t
//  724  */

        RSEG BANKED_CODE:CODE:NOROOT(0)
//  725 afStatus_t ZDP_PowerDescMsg( zdoIncomingMsg_t *inMsg,
ZDP_PowerDescMsg:
        CFI Block cfiBlock69 Using cfiCommon0
        CFI Function ZDP_PowerDescMsg
//  726                      uint16 nwkAddr, NodePowerDescriptorFormat_t *pPowerDesc )
//  727 {
        FUNCALL ZDP_PowerDescMsg, fillAndSend
        LOCFRAME ISTACK, 0, STACK
        LOCFRAME PSTACK, 0, STACK
        LOCFRAME XSTACK, 12, STACK
        LOCFRAME IOVERLAY, 0, STATIC
        LOCFRAME DOVERLAY, 0, STATIC
        ARGFRAME ISTACK, 0, STACK
        ARGFRAME PSTACK, 0, STACK
        ARGFRAME XSTACK, 12, STACK
        ARGFRAME IOVERLAY, 0, STATIC
        ARGFRAME DOVERLAY, 0, STATIC
        MOV     A,#-0xa
        LCALL   ?BANKED_ENTER_XDATA
        CFI DPH0 load(1, XDATA, add(CFA_XSP16, literal(-1)))
        CFI DPL0 load(1, XDATA, add(CFA_XSP16, literal(-2)))
        CFI ?BRET_EXT load(1, XDATA, add(CFA_XSP16, literal(-3)))
        CFI ?RET_HIGH load(1, XDATA, add(CFA_XSP16, literal(-4)))
        CFI ?RET_LOW load(1, XDATA, add(CFA_XSP16, literal(-5)))
        CFI R7 load(1, XDATA, add(CFA_XSP16, literal(-6)))
        CFI V1 load(1, XDATA, add(CFA_XSP16, literal(-7)))
        CFI V0 load(1, XDATA, add(CFA_XSP16, literal(-8)))
        CFI VB load(1, XDATA, add(CFA_XSP16, literal(-9)))
        CFI R6 load(1, XDATA, add(CFA_XSP16, literal(-10)))
        CFI CFA_SP SP+0
        CFI CFA_XSP16 add(XSP16, 10)
        ; Saved register size: 10
        ; Auto size: 0
        MOV     A,#0xa
        LCALL   ?XSTACK_DISP0_8
        LCALL   ?Subroutine2 & 0xFFFF
//  728   byte *pBuf = ZDP_TmpBuf;
//  729   byte len = 1 + 2 + 2;  // Status + nwkAddr + Node Power descriptor.
//  730 
//  731   *pBuf++ = ZDP_SUCCESS;
//  732 
//  733   *pBuf++ = LO_UINT16( nwkAddr );
//  734   *pBuf++ = HI_UINT16( nwkAddr );
//  735 
//  736   *pBuf++ = (byte)((pPowerDesc->AvailablePowerSources << 4)
//  737                     | (pPowerDesc->PowerMode & 0x0F));
??CrossCallReturnLabel_5:
        LCALL   ?Subroutine23 & 0xFFFF
//  738   *pBuf++ = (byte)((pPowerDesc->CurrentPowerSourceLevel << 4)
//  739                     | (pPowerDesc->CurrentPowerSource & 0x0F));
??CrossCallReturnLabel_70:
        LCALL   ?Subroutine16 & 0xFFFF
//  740 
//  741   return fillAndSend( &(inMsg->TransSeq), &(inMsg->srcAddr), Power_Desc_rsp, len );
??CrossCallReturnLabel_54:
        ; Setup parameters for call to function fillAndSend
        MOV     ?V0 + 0,#0x3
        MOV     ?V0 + 1,#-0x80
        MOV     R0,#?V0 + 0
        LCALL   ?PUSH_XSTACK_I_TWO
        CFI CFA_XSP16 add(XSP16, 12)
        MOV     R1,#0x5
        LJMP    ?Subroutine48 & 0xFFFF
        CFI EndBlock cfiBlock69
//  742 }

        RSEG BANKED_CODE:CODE:NOROOT(0)
?Subroutine30:
        CFI Block cfiCond70 Using cfiCommon0
        CFI NoFunction
        CFI Conditional ??Subroutine48_0
        CFI R6 load(1, XDATA, add(CFA_XSP16, literal(-10)))
        CFI VB load(1, XDATA, add(CFA_XSP16, literal(-9)))
        CFI V0 load(1, XDATA, add(CFA_XSP16, literal(-8)))
        CFI V1 load(1, XDATA, add(CFA_XSP16, literal(-7)))
        CFI R7 load(1, XDATA, add(CFA_XSP16, literal(-6)))
        CFI ?RET_LOW load(1, XDATA, add(CFA_XSP16, literal(-5)))
        CFI ?RET_HIGH load(1, XDATA, add(CFA_XSP16, literal(-4)))
        CFI ?BRET_EXT load(1, XDATA, add(CFA_XSP16, literal(-3)))
        CFI DPL0 load(1, XDATA, add(CFA_XSP16, literal(-2)))
        CFI DPH0 load(1, XDATA, add(CFA_XSP16, literal(-1)))
        CFI CFA_SP SP+0
        CFI CFA_XSP16 add(XSP16, 12)
        CFI Block cfiCond71 Using cfiCommon0
        CFI (cfiCond71) NoFunction
        CFI (cfiCond71) Conditional ??Subroutine48_0
        CFI (cfiCond71) R6 load(1, XDATA, add(CFA_XSP16, literal(-10)))
        CFI (cfiCond71) VB load(1, XDATA, add(CFA_XSP16, literal(-9)))
        CFI (cfiCond71) V0 load(1, XDATA, add(CFA_XSP16, literal(-8)))
        CFI (cfiCond71) V1 load(1, XDATA, add(CFA_XSP16, literal(-7)))
        CFI (cfiCond71) R7 load(1, XDATA, add(CFA_XSP16, literal(-6)))
        CFI (cfiCond71) ?RET_LOW load(1, XDATA, add(CFA_XSP16, literal(-5)))
        CFI (cfiCond71) ?RET_HIGH load(1, XDATA, add(CFA_XSP16, literal(-4)))
        CFI (cfiCond71) ?BRET_EXT load(1, XDATA, add(CFA_XSP16, literal(-3)))
        CFI (cfiCond71) DPL0 load(1, XDATA, add(CFA_XSP16, literal(-2)))
        CFI (cfiCond71) DPH0 load(1, XDATA, add(CFA_XSP16, literal(-1)))
        CFI (cfiCond71) CFA_SP SP+0
        CFI (cfiCond71) CFA_XSP16 add(XSP16, 12)
        CFI Block cfiCond72 Using cfiCommon0
        CFI (cfiCond72) NoFunction
        CFI (cfiCond72) Conditional ??CrossCallReturnLabel_149
        CFI (cfiCond72) R6 load(1, XDATA, add(CFA_XSP16, literal(-14)))
        CFI (cfiCond72) VB load(1, XDATA, add(CFA_XSP16, literal(-13)))
        CFI (cfiCond72) V0 load(1, XDATA, add(CFA_XSP16, literal(-12)))
        CFI (cfiCond72) V1 load(1, XDATA, add(CFA_XSP16, literal(-11)))
        CFI (cfiCond72) V2 load(1, XDATA, add(CFA_XSP16, literal(-10)))
        CFI (cfiCond72) V3 load(1, XDATA, add(CFA_XSP16, literal(-9)))
        CFI (cfiCond72) V4 load(1, XDATA, add(CFA_XSP16, literal(-8)))
        CFI (cfiCond72) V5 load(1, XDATA, add(CFA_XSP16, literal(-7)))
        CFI (cfiCond72) R7 load(1, XDATA, add(CFA_XSP16, literal(-6)))
        CFI (cfiCond72) ?RET_LOW load(1, XDATA, add(CFA_XSP16, literal(-5)))
        CFI (cfiCond72) ?RET_HIGH load(1, XDATA, add(CFA_XSP16, literal(-4)))
        CFI (cfiCond72) ?BRET_EXT load(1, XDATA, add(CFA_XSP16, literal(-3)))
        CFI (cfiCond72) DPL0 load(1, XDATA, add(CFA_XSP16, literal(-2)))
        CFI (cfiCond72) DPH0 load(1, XDATA, add(CFA_XSP16, literal(-1)))
        CFI (cfiCond72) CFA_SP SP+0
        CFI (cfiCond72) CFA_XSP16 add(XSP16, 16)
        CFI Block cfiPicker73 Using cfiCommon1
        CFI (cfiPicker73) NoFunction
        CFI (cfiPicker73) Picker
        MOV     A,R2
        ADD     A,#0x2
        MOV     R4,A
        MOV     A,R3
        ADDC    A,#0x0
        MOV     R5,A
        MOV     A,R2
        ADD     A,#0xf
        MOV     R2,A
        MOV     A,R3
        ADDC    A,#0x0
        MOV     R3,A
        CFI EndBlock cfiCond70
        CFI EndBlock cfiCond71
        CFI EndBlock cfiCond72
        CFI EndBlock cfiPicker73
        REQUIRE ?Subroutine51
        ; // Fall through to label ?Subroutine51

        RSEG BANKED_CODE:CODE:NOROOT(0)
?Subroutine51:
        CFI Block cfiCond74 Using cfiCommon0
        CFI NoFunction
        CFI Conditional ??Subroutine48_0
        CFI R6 load(1, XDATA, add(CFA_XSP16, literal(-10)))
        CFI VB load(1, XDATA, add(CFA_XSP16, literal(-9)))
        CFI V0 load(1, XDATA, add(CFA_XSP16, literal(-8)))
        CFI V1 load(1, XDATA, add(CFA_XSP16, literal(-7)))
        CFI R7 load(1, XDATA, add(CFA_XSP16, literal(-6)))
        CFI ?RET_LOW load(1, XDATA, add(CFA_XSP16, literal(-5)))
        CFI ?RET_HIGH load(1, XDATA, add(CFA_XSP16, literal(-4)))
        CFI ?BRET_EXT load(1, XDATA, add(CFA_XSP16, literal(-3)))
        CFI DPL0 load(1, XDATA, add(CFA_XSP16, literal(-2)))
        CFI DPH0 load(1, XDATA, add(CFA_XSP16, literal(-1)))
        CFI CFA_SP SP+0
        CFI CFA_XSP16 add(XSP16, 12)
        CFI Block cfiCond75 Using cfiCommon0
        CFI (cfiCond75) NoFunction
        CFI (cfiCond75) Conditional ??Subroutine48_0
        CFI (cfiCond75) R6 load(1, XDATA, add(CFA_XSP16, literal(-10)))
        CFI (cfiCond75) VB load(1, XDATA, add(CFA_XSP16, literal(-9)))
        CFI (cfiCond75) V0 load(1, XDATA, add(CFA_XSP16, literal(-8)))
        CFI (cfiCond75) V1 load(1, XDATA, add(CFA_XSP16, literal(-7)))
        CFI (cfiCond75) R7 load(1, XDATA, add(CFA_XSP16, literal(-6)))
        CFI (cfiCond75) ?RET_LOW load(1, XDATA, add(CFA_XSP16, literal(-5)))
        CFI (cfiCond75) ?RET_HIGH load(1, XDATA, add(CFA_XSP16, literal(-4)))
        CFI (cfiCond75) ?BRET_EXT load(1, XDATA, add(CFA_XSP16, literal(-3)))
        CFI (cfiCond75) DPL0 load(1, XDATA, add(CFA_XSP16, literal(-2)))
        CFI (cfiCond75) DPH0 load(1, XDATA, add(CFA_XSP16, literal(-1)))
        CFI (cfiCond75) CFA_SP SP+0
        CFI (cfiCond75) CFA_XSP16 add(XSP16, 12)
        CFI Block cfiCond76 Using cfiCommon0
        CFI (cfiCond76) NoFunction
        CFI (cfiCond76) Conditional ??CrossCallReturnLabel_149
        CFI (cfiCond76) R6 load(1, XDATA, add(CFA_XSP16, literal(-14)))
        CFI (cfiCond76) VB load(1, XDATA, add(CFA_XSP16, literal(-13)))
        CFI (cfiCond76) V0 load(1, XDATA, add(CFA_XSP16, literal(-12)))
        CFI (cfiCond76) V1 load(1, XDATA, add(CFA_XSP16, literal(-11)))
        CFI (cfiCond76) V2 load(1, XDATA, add(CFA_XSP16, literal(-10)))
        CFI (cfiCond76) V3 load(1, XDATA, add(CFA_XSP16, literal(-9)))
        CFI (cfiCond76) V4 load(1, XDATA, add(CFA_XSP16, literal(-8)))
        CFI (cfiCond76) V5 load(1, XDATA, add(CFA_XSP16, literal(-7)))
        CFI (cfiCond76) R7 load(1, XDATA, add(CFA_XSP16, literal(-6)))
        CFI (cfiCond76) ?RET_LOW load(1, XDATA, add(CFA_XSP16, literal(-5)))
        CFI (cfiCond76) ?RET_HIGH load(1, XDATA, add(CFA_XSP16, literal(-4)))
        CFI (cfiCond76) ?BRET_EXT load(1, XDATA, add(CFA_XSP16, literal(-3)))
        CFI (cfiCond76) DPL0 load(1, XDATA, add(CFA_XSP16, literal(-2)))
        CFI (cfiCond76) DPH0 load(1, XDATA, add(CFA_XSP16, literal(-1)))
        CFI (cfiCond76) CFA_SP SP+0
        CFI (cfiCond76) CFA_XSP16 add(XSP16, 16)
        CFI Block cfiCond77 Using cfiCommon0
        CFI (cfiCond77) NoFunction
        CFI (cfiCond77) Conditional ??CrossCallReturnLabel_142
        CFI (cfiCond77) R6 load(1, XDATA, add(CFA_XSP16, literal(-12)))
        CFI (cfiCond77) VB load(1, XDATA, add(CFA_XSP16, literal(-11)))
        CFI (cfiCond77) V0 load(1, XDATA, add(CFA_XSP16, literal(-10)))
        CFI (cfiCond77) V1 load(1, XDATA, add(CFA_XSP16, literal(-9)))
        CFI (cfiCond77) V2 load(1, XDATA, add(CFA_XSP16, literal(-8)))
        CFI (cfiCond77) V3 load(1, XDATA, add(CFA_XSP16, literal(-7)))
        CFI (cfiCond77) R7 load(1, XDATA, add(CFA_XSP16, literal(-6)))
        CFI (cfiCond77) ?RET_LOW load(1, XDATA, add(CFA_XSP16, literal(-5)))
        CFI (cfiCond77) ?RET_HIGH load(1, XDATA, add(CFA_XSP16, literal(-4)))
        CFI (cfiCond77) ?BRET_EXT load(1, XDATA, add(CFA_XSP16, literal(-3)))
        CFI (cfiCond77) DPL0 load(1, XDATA, add(CFA_XSP16, literal(-2)))
        CFI (cfiCond77) DPH0 load(1, XDATA, add(CFA_XSP16, literal(-1)))
        CFI (cfiCond77) CFA_SP SP+0
        CFI (cfiCond77) CFA_XSP16 add(XSP16, 23)
        CFI Block cfiCond78 Using cfiCommon0
        CFI (cfiCond78) NoFunction
        CFI (cfiCond78) Conditional ??CrossCallReturnLabel_143
        CFI (cfiCond78) R6 load(1, XDATA, add(CFA_XSP16, literal(-10)))
        CFI (cfiCond78) VB load(1, XDATA, add(CFA_XSP16, literal(-9)))
        CFI (cfiCond78) V0 load(1, XDATA, add(CFA_XSP16, literal(-8)))
        CFI (cfiCond78) V1 load(1, XDATA, add(CFA_XSP16, literal(-7)))
        CFI (cfiCond78) R7 load(1, XDATA, add(CFA_XSP16, literal(-6)))
        CFI (cfiCond78) ?RET_LOW load(1, XDATA, add(CFA_XSP16, literal(-5)))
        CFI (cfiCond78) ?RET_HIGH load(1, XDATA, add(CFA_XSP16, literal(-4)))
        CFI (cfiCond78) ?BRET_EXT load(1, XDATA, add(CFA_XSP16, literal(-3)))
        CFI (cfiCond78) DPL0 load(1, XDATA, add(CFA_XSP16, literal(-2)))
        CFI (cfiCond78) DPH0 load(1, XDATA, add(CFA_XSP16, literal(-1)))
        CFI (cfiCond78) CFA_SP SP+0
        CFI (cfiCond78) CFA_XSP16 add(XSP16, 21)
        CFI Block cfiCond79 Using cfiCommon0
        CFI (cfiCond79) NoFunction
        CFI (cfiCond79) Conditional ??CrossCallReturnLabel_144
        CFI (cfiCond79) R6 load(1, XDATA, add(CFA_XSP16, literal(-16)))
        CFI (cfiCond79) VB load(1, XDATA, add(CFA_XSP16, literal(-15)))
        CFI (cfiCond79) V0 load(1, XDATA, add(CFA_XSP16, literal(-14)))
        CFI (cfiCond79) V1 load(1, XDATA, add(CFA_XSP16, literal(-13)))
        CFI (cfiCond79) V2 load(1, XDATA, add(CFA_XSP16, literal(-12)))
        CFI (cfiCond79) V3 load(1, XDATA, add(CFA_XSP16, literal(-11)))
        CFI (cfiCond79) V4 load(1, XDATA, add(CFA_XSP16, literal(-10)))
        CFI (cfiCond79) V5 load(1, XDATA, add(CFA_XSP16, literal(-9)))
        CFI (cfiCond79) V6 load(1, XDATA, add(CFA_XSP16, literal(-8)))
        CFI (cfiCond79) V7 load(1, XDATA, add(CFA_XSP16, literal(-7)))
        CFI (cfiCond79) R7 load(1, XDATA, add(CFA_XSP16, literal(-6)))
        CFI (cfiCond79) ?RET_LOW load(1, XDATA, add(CFA_XSP16, literal(-5)))
        CFI (cfiCond79) ?RET_HIGH load(1, XDATA, add(CFA_XSP16, literal(-4)))
        CFI (cfiCond79) ?BRET_EXT load(1, XDATA, add(CFA_XSP16, literal(-3)))
        CFI (cfiCond79) DPL0 load(1, XDATA, add(CFA_XSP16, literal(-2)))
        CFI (cfiCond79) DPH0 load(1, XDATA, add(CFA_XSP16, literal(-1)))
        CFI (cfiCond79) CFA_SP SP+0
        CFI (cfiCond79) CFA_XSP16 add(XSP16, 18)
        CFI Block cfiCond80 Using cfiCommon0
        CFI (cfiCond80) NoFunction
        CFI (cfiCond80) Conditional ??CrossCallReturnLabel_145
        CFI (cfiCond80) R6 load(1, XDATA, add(CFA_XSP16, literal(-14)))
        CFI (cfiCond80) VB load(1, XDATA, add(CFA_XSP16, literal(-13)))
        CFI (cfiCond80) V0 load(1, XDATA, add(CFA_XSP16, literal(-12)))
        CFI (cfiCond80) V1 load(1, XDATA, add(CFA_XSP16, literal(-11)))
        CFI (cfiCond80) V2 load(1, XDATA, add(CFA_XSP16, literal(-10)))
        CFI (cfiCond80) V3 load(1, XDATA, add(CFA_XSP16, literal(-9)))
        CFI (cfiCond80) V4 load(1, XDATA, add(CFA_XSP16, literal(-8)))
        CFI (cfiCond80) V5 load(1, XDATA, add(CFA_XSP16, literal(-7)))
        CFI (cfiCond80) R7 load(1, XDATA, add(CFA_XSP16, literal(-6)))
        CFI (cfiCond80) ?RET_LOW load(1, XDATA, add(CFA_XSP16, literal(-5)))
        CFI (cfiCond80) ?RET_HIGH load(1, XDATA, add(CFA_XSP16, literal(-4)))
        CFI (cfiCond80) ?BRET_EXT load(1, XDATA, add(CFA_XSP16, literal(-3)))
        CFI (cfiCond80) DPL0 load(1, XDATA, add(CFA_XSP16, literal(-2)))
        CFI (cfiCond80) DPH0 load(1, XDATA, add(CFA_XSP16, literal(-1)))
        CFI (cfiCond80) CFA_SP SP+0
        CFI (cfiCond80) CFA_XSP16 add(XSP16, 16)
        CFI Block cfiCond81 Using cfiCommon0
        CFI (cfiCond81) NoFunction
        CFI (cfiCond81) Conditional ??CrossCallReturnLabel_146
        CFI (cfiCond81) R6 load(1, XDATA, add(CFA_XSP16, literal(-16)))
        CFI (cfiCond81) VB load(1, XDATA, add(CFA_XSP16, literal(-15)))
        CFI (cfiCond81) V0 load(1, XDATA, add(CFA_XSP16, literal(-14)))
        CFI (cfiCond81) V1 load(1, XDATA, add(CFA_XSP16, literal(-13)))
        CFI (cfiCond81) V2 load(1, XDATA, add(CFA_XSP16, literal(-12)))
        CFI (cfiCond81) V3 load(1, XDATA, add(CFA_XSP16, literal(-11)))
        CFI (cfiCond81) V4 load(1, XDATA, add(CFA_XSP16, literal(-10)))
        CFI (cfiCond81) V5 load(1, XDATA, add(CFA_XSP16, literal(-9)))
        CFI (cfiCond81) V6 load(1, XDATA, add(CFA_XSP16, literal(-8)))
        CFI (cfiCond81) V7 load(1, XDATA, add(CFA_XSP16, literal(-7)))
        CFI (cfiCond81) R7 load(1, XDATA, add(CFA_XSP16, literal(-6)))
        CFI (cfiCond81) ?RET_LOW load(1, XDATA, add(CFA_XSP16, literal(-5)))
        CFI (cfiCond81) ?RET_HIGH load(1, XDATA, add(CFA_XSP16, literal(-4)))
        CFI (cfiCond81) ?BRET_EXT load(1, XDATA, add(CFA_XSP16, literal(-3)))
        CFI (cfiCond81) DPL0 load(1, XDATA, add(CFA_XSP16, literal(-2)))
        CFI (cfiCond81) DPH0 load(1, XDATA, add(CFA_XSP16, literal(-1)))
        CFI (cfiCond81) CFA_SP SP+0
        CFI (cfiCond81) CFA_XSP16 add(XSP16, 19)
        CFI Block cfiCond82 Using cfiCommon0
        CFI (cfiCond82) NoFunction
        CFI (cfiCond82) Conditional ??CrossCallReturnLabel_147
        CFI (cfiCond82) R6 load(1, XDATA, add(CFA_XSP16, literal(-16)))
        CFI (cfiCond82) VB load(1, XDATA, add(CFA_XSP16, literal(-15)))
        CFI (cfiCond82) V0 load(1, XDATA, add(CFA_XSP16, literal(-14)))
        CFI (cfiCond82) V1 load(1, XDATA, add(CFA_XSP16, literal(-13)))
        CFI (cfiCond82) V2 load(1, XDATA, add(CFA_XSP16, literal(-12)))
        CFI (cfiCond82) V3 load(1, XDATA, add(CFA_XSP16, literal(-11)))
        CFI (cfiCond82) V4 load(1, XDATA, add(CFA_XSP16, literal(-10)))
        CFI (cfiCond82) V5 load(1, XDATA, add(CFA_XSP16, literal(-9)))
        CFI (cfiCond82) V6 load(1, XDATA, add(CFA_XSP16, literal(-8)))
        CFI (cfiCond82) V7 load(1, XDATA, add(CFA_XSP16, literal(-7)))
        CFI (cfiCond82) R7 load(1, XDATA, add(CFA_XSP16, literal(-6)))
        CFI (cfiCond82) ?RET_LOW load(1, XDATA, add(CFA_XSP16, literal(-5)))
        CFI (cfiCond82) ?RET_HIGH load(1, XDATA, add(CFA_XSP16, literal(-4)))
        CFI (cfiCond82) ?BRET_EXT load(1, XDATA, add(CFA_XSP16, literal(-3)))
        CFI (cfiCond82) DPL0 load(1, XDATA, add(CFA_XSP16, literal(-2)))
        CFI (cfiCond82) DPH0 load(1, XDATA, add(CFA_XSP16, literal(-1)))
        CFI (cfiCond82) CFA_SP SP+0
        CFI (cfiCond82) CFA_XSP16 add(XSP16, 19)
        CFI Block cfiCond83 Using cfiCommon0
        CFI (cfiCond83) NoFunction
        CFI (cfiCond83) Conditional ??CrossCallReturnLabel_148
        CFI (cfiCond83) R6 load(1, XDATA, add(CFA_XSP16, literal(-10)))
        CFI (cfiCond83) VB load(1, XDATA, add(CFA_XSP16, literal(-9)))
        CFI (cfiCond83) V0 load(1, XDATA, add(CFA_XSP16, literal(-8)))
        CFI (cfiCond83) V1 load(1, XDATA, add(CFA_XSP16, literal(-7)))
        CFI (cfiCond83) R7 load(1, XDATA, add(CFA_XSP16, literal(-6)))
        CFI (cfiCond83) ?RET_LOW load(1, XDATA, add(CFA_XSP16, literal(-5)))
        CFI (cfiCond83) ?RET_HIGH load(1, XDATA, add(CFA_XSP16, literal(-4)))
        CFI (cfiCond83) ?BRET_EXT load(1, XDATA, add(CFA_XSP16, literal(-3)))
        CFI (cfiCond83) DPL0 load(1, XDATA, add(CFA_XSP16, literal(-2)))
        CFI (cfiCond83) DPH0 load(1, XDATA, add(CFA_XSP16, literal(-1)))
        CFI (cfiCond83) CFA_SP SP+0
        CFI (cfiCond83) CFA_XSP16 add(XSP16, 13)
        CFI Block cfiCond84 Using cfiCommon0
        CFI (cfiCond84) NoFunction
        CFI (cfiCond84) Conditional ??CrossCallReturnLabel_140
        CFI (cfiCond84) R6 load(1, XDATA, add(CFA_XSP16, literal(-16)))
        CFI (cfiCond84) VB load(1, XDATA, add(CFA_XSP16, literal(-15)))
        CFI (cfiCond84) V0 load(1, XDATA, add(CFA_XSP16, literal(-14)))
        CFI (cfiCond84) V1 load(1, XDATA, add(CFA_XSP16, literal(-13)))
        CFI (cfiCond84) V2 load(1, XDATA, add(CFA_XSP16, literal(-12)))
        CFI (cfiCond84) V3 load(1, XDATA, add(CFA_XSP16, literal(-11)))
        CFI (cfiCond84) V4 load(1, XDATA, add(CFA_XSP16, literal(-10)))
        CFI (cfiCond84) V5 load(1, XDATA, add(CFA_XSP16, literal(-9)))
        CFI (cfiCond84) V6 load(1, XDATA, add(CFA_XSP16, literal(-8)))
        CFI (cfiCond84) V7 load(1, XDATA, add(CFA_XSP16, literal(-7)))
        CFI (cfiCond84) R7 load(1, XDATA, add(CFA_XSP16, literal(-6)))
        CFI (cfiCond84) ?RET_LOW load(1, XDATA, add(CFA_XSP16, literal(-5)))
        CFI (cfiCond84) ?RET_HIGH load(1, XDATA, add(CFA_XSP16, literal(-4)))
        CFI (cfiCond84) ?BRET_EXT load(1, XDATA, add(CFA_XSP16, literal(-3)))
        CFI (cfiCond84) DPL0 load(1, XDATA, add(CFA_XSP16, literal(-2)))
        CFI (cfiCond84) DPH0 load(1, XDATA, add(CFA_XSP16, literal(-1)))
        CFI (cfiCond84) CFA_SP SP+0
        CFI (cfiCond84) CFA_XSP16 add(XSP16, 21)
        CFI Block cfiCond85 Using cfiCommon0
        CFI (cfiCond85) NoFunction
        CFI (cfiCond85) Conditional ??CrossCallReturnLabel_141
        CFI (cfiCond85) R6 load(1, XDATA, add(CFA_XSP16, literal(-16)))
        CFI (cfiCond85) VB load(1, XDATA, add(CFA_XSP16, literal(-15)))
        CFI (cfiCond85) V0 load(1, XDATA, add(CFA_XSP16, literal(-14)))
        CFI (cfiCond85) V1 load(1, XDATA, add(CFA_XSP16, literal(-13)))
        CFI (cfiCond85) V2 load(1, XDATA, add(CFA_XSP16, literal(-12)))
        CFI (cfiCond85) V3 load(1, XDATA, add(CFA_XSP16, literal(-11)))
        CFI (cfiCond85) V4 load(1, XDATA, add(CFA_XSP16, literal(-10)))
        CFI (cfiCond85) V5 load(1, XDATA, add(CFA_XSP16, literal(-9)))
        CFI (cfiCond85) V6 load(1, XDATA, add(CFA_XSP16, literal(-8)))
        CFI (cfiCond85) V7 load(1, XDATA, add(CFA_XSP16, literal(-7)))
        CFI (cfiCond85) R7 load(1, XDATA, add(CFA_XSP16, literal(-6)))
        CFI (cfiCond85) ?RET_LOW load(1, XDATA, add(CFA_XSP16, literal(-5)))
        CFI (cfiCond85) ?RET_HIGH load(1, XDATA, add(CFA_XSP16, literal(-4)))
        CFI (cfiCond85) ?BRET_EXT load(1, XDATA, add(CFA_XSP16, literal(-3)))
        CFI (cfiCond85) DPL0 load(1, XDATA, add(CFA_XSP16, literal(-2)))
        CFI (cfiCond85) DPH0 load(1, XDATA, add(CFA_XSP16, literal(-1)))
        CFI (cfiCond85) CFA_SP SP+0
        CFI (cfiCond85) CFA_XSP16 add(XSP16, 20)
        CFI Block cfiPicker86 Using cfiCommon1
        CFI (cfiPicker86) NoFunction
        CFI (cfiPicker86) Picker
        LCALL   ??fillAndSend?relay
        MOV     A,#0x2
        RET
        CFI EndBlock cfiCond74
        CFI EndBlock cfiCond75
        CFI EndBlock cfiCond76
        CFI EndBlock cfiCond77
        CFI EndBlock cfiCond78
        CFI EndBlock cfiCond79
        CFI EndBlock cfiCond80
        CFI EndBlock cfiCond81
        CFI EndBlock cfiCond82
        CFI EndBlock cfiCond83
        CFI EndBlock cfiCond84
        CFI EndBlock cfiCond85
        CFI EndBlock cfiPicker86

        RSEG BANKED_CODE:CODE:NOROOT(0)
?Subroutine23:
        CFI Block cfiCond87 Using cfiCommon0
        CFI NoFunction
        CFI Conditional ??CrossCallReturnLabel_69
        CFI R6 load(1, XDATA, add(CFA_XSP16, literal(-10)))
        CFI VB load(1, XDATA, add(CFA_XSP16, literal(-9)))
        CFI V0 load(1, XDATA, add(CFA_XSP16, literal(-8)))
        CFI V1 load(1, XDATA, add(CFA_XSP16, literal(-7)))
        CFI R7 load(1, XDATA, add(CFA_XSP16, literal(-6)))
        CFI ?RET_LOW load(1, XDATA, add(CFA_XSP16, literal(-5)))
        CFI ?RET_HIGH load(1, XDATA, add(CFA_XSP16, literal(-4)))
        CFI ?BRET_EXT load(1, XDATA, add(CFA_XSP16, literal(-3)))
        CFI DPL0 load(1, XDATA, add(CFA_XSP16, literal(-2)))
        CFI DPH0 load(1, XDATA, add(CFA_XSP16, literal(-1)))
        CFI CFA_SP SP+0
        CFI CFA_XSP16 add(XSP16, 10)
        CFI Block cfiCond88 Using cfiCommon0
        CFI (cfiCond88) NoFunction
        CFI (cfiCond88) Conditional ??CrossCallReturnLabel_70
        CFI (cfiCond88) R6 load(1, XDATA, add(CFA_XSP16, literal(-10)))
        CFI (cfiCond88) VB load(1, XDATA, add(CFA_XSP16, literal(-9)))
        CFI (cfiCond88) V0 load(1, XDATA, add(CFA_XSP16, literal(-8)))
        CFI (cfiCond88) V1 load(1, XDATA, add(CFA_XSP16, literal(-7)))
        CFI (cfiCond88) R7 load(1, XDATA, add(CFA_XSP16, literal(-6)))
        CFI (cfiCond88) ?RET_LOW load(1, XDATA, add(CFA_XSP16, literal(-5)))
        CFI (cfiCond88) ?RET_HIGH load(1, XDATA, add(CFA_XSP16, literal(-4)))
        CFI (cfiCond88) ?BRET_EXT load(1, XDATA, add(CFA_XSP16, literal(-3)))
        CFI (cfiCond88) DPL0 load(1, XDATA, add(CFA_XSP16, literal(-2)))
        CFI (cfiCond88) DPH0 load(1, XDATA, add(CFA_XSP16, literal(-1)))
        CFI (cfiCond88) CFA_SP SP+0
        CFI (cfiCond88) CFA_XSP16 add(XSP16, 10)
        CFI Block cfiPicker89 Using cfiCommon1
        CFI (cfiPicker89) NoFunction
        CFI (cfiPicker89) Picker
        LCALL   ?Subroutine45 & 0xFFFF
??CrossCallReturnLabel_128:
        RET
        CFI EndBlock cfiCond87
        CFI EndBlock cfiCond88
        CFI EndBlock cfiPicker89

        RSEG BANKED_CODE:CODE:NOROOT(0)
?Subroutine16:
        CFI Block cfiCond90 Using cfiCommon0
        CFI NoFunction
        CFI Conditional ??CrossCallReturnLabel_52
        CFI R6 load(1, XDATA, add(CFA_XSP16, literal(-14)))
        CFI VB load(1, XDATA, add(CFA_XSP16, literal(-13)))
        CFI V0 load(1, XDATA, add(CFA_XSP16, literal(-12)))
        CFI V1 load(1, XDATA, add(CFA_XSP16, literal(-11)))
        CFI V2 load(1, XDATA, add(CFA_XSP16, literal(-10)))
        CFI V3 load(1, XDATA, add(CFA_XSP16, literal(-9)))
        CFI V4 load(1, XDATA, add(CFA_XSP16, literal(-8)))
        CFI V5 load(1, XDATA, add(CFA_XSP16, literal(-7)))
        CFI R7 load(1, XDATA, add(CFA_XSP16, literal(-6)))
        CFI ?RET_LOW load(1, XDATA, add(CFA_XSP16, literal(-5)))
        CFI ?RET_HIGH load(1, XDATA, add(CFA_XSP16, literal(-4)))
        CFI ?BRET_EXT load(1, XDATA, add(CFA_XSP16, literal(-3)))
        CFI DPL0 load(1, XDATA, add(CFA_XSP16, literal(-2)))
        CFI DPH0 load(1, XDATA, add(CFA_XSP16, literal(-1)))
        CFI CFA_SP SP+0
        CFI CFA_XSP16 add(XSP16, 14)
        CFI Block cfiCond91 Using cfiCommon0
        CFI (cfiCond91) NoFunction
        CFI (cfiCond91) Conditional ??CrossCallReturnLabel_53
        CFI (cfiCond91) R6 load(1, XDATA, add(CFA_XSP16, literal(-10)))
        CFI (cfiCond91) VB load(1, XDATA, add(CFA_XSP16, literal(-9)))
        CFI (cfiCond91) V0 load(1, XDATA, add(CFA_XSP16, literal(-8)))
        CFI (cfiCond91) V1 load(1, XDATA, add(CFA_XSP16, literal(-7)))
        CFI (cfiCond91) R7 load(1, XDATA, add(CFA_XSP16, literal(-6)))
        CFI (cfiCond91) ?RET_LOW load(1, XDATA, add(CFA_XSP16, literal(-5)))
        CFI (cfiCond91) ?RET_HIGH load(1, XDATA, add(CFA_XSP16, literal(-4)))
        CFI (cfiCond91) ?BRET_EXT load(1, XDATA, add(CFA_XSP16, literal(-3)))
        CFI (cfiCond91) DPL0 load(1, XDATA, add(CFA_XSP16, literal(-2)))
        CFI (cfiCond91) DPH0 load(1, XDATA, add(CFA_XSP16, literal(-1)))
        CFI (cfiCond91) CFA_SP SP+0
        CFI (cfiCond91) CFA_XSP16 add(XSP16, 10)
        CFI Block cfiCond92 Using cfiCommon0
        CFI (cfiCond92) NoFunction
        CFI (cfiCond92) Conditional ??CrossCallReturnLabel_54
        CFI (cfiCond92) R6 load(1, XDATA, add(CFA_XSP16, literal(-10)))
        CFI (cfiCond92) VB load(1, XDATA, add(CFA_XSP16, literal(-9)))
        CFI (cfiCond92) V0 load(1, XDATA, add(CFA_XSP16, literal(-8)))
        CFI (cfiCond92) V1 load(1, XDATA, add(CFA_XSP16, literal(-7)))
        CFI (cfiCond92) R7 load(1, XDATA, add(CFA_XSP16, literal(-6)))
        CFI (cfiCond92) ?RET_LOW load(1, XDATA, add(CFA_XSP16, literal(-5)))
        CFI (cfiCond92) ?RET_HIGH load(1, XDATA, add(CFA_XSP16, literal(-4)))
        CFI (cfiCond92) ?BRET_EXT load(1, XDATA, add(CFA_XSP16, literal(-3)))
        CFI (cfiCond92) DPL0 load(1, XDATA, add(CFA_XSP16, literal(-2)))
        CFI (cfiCond92) DPH0 load(1, XDATA, add(CFA_XSP16, literal(-1)))
        CFI (cfiCond92) CFA_SP SP+0
        CFI (cfiCond92) CFA_XSP16 add(XSP16, 10)
        CFI Block cfiCond93 Using cfiCommon0
        CFI (cfiCond93) NoFunction
        CFI (cfiCond93) Conditional ??CrossCallReturnLabel_55
        CFI (cfiCond93) R6 load(1, XDATA, add(CFA_XSP16, literal(-14)))
        CFI (cfiCond93) VB load(1, XDATA, add(CFA_XSP16, literal(-13)))
        CFI (cfiCond93) V0 load(1, XDATA, add(CFA_XSP16, literal(-12)))
        CFI (cfiCond93) V1 load(1, XDATA, add(CFA_XSP16, literal(-11)))
        CFI (cfiCond93) V2 load(1, XDATA, add(CFA_XSP16, literal(-10)))
        CFI (cfiCond93) V3 load(1, XDATA, add(CFA_XSP16, literal(-9)))
        CFI (cfiCond93) V4 load(1, XDATA, add(CFA_XSP16, literal(-8)))
        CFI (cfiCond93) V5 load(1, XDATA, add(CFA_XSP16, literal(-7)))
        CFI (cfiCond93) R7 load(1, XDATA, add(CFA_XSP16, literal(-6)))
        CFI (cfiCond93) ?RET_LOW load(1, XDATA, add(CFA_XSP16, literal(-5)))
        CFI (cfiCond93) ?RET_HIGH load(1, XDATA, add(CFA_XSP16, literal(-4)))
        CFI (cfiCond93) ?BRET_EXT load(1, XDATA, add(CFA_XSP16, literal(-3)))
        CFI (cfiCond93) DPL0 load(1, XDATA, add(CFA_XSP16, literal(-2)))
        CFI (cfiCond93) DPH0 load(1, XDATA, add(CFA_XSP16, literal(-1)))
        CFI (cfiCond93) CFA_SP SP+0
        CFI (cfiCond93) CFA_XSP16 add(XSP16, 14)
        CFI Block cfiPicker94 Using cfiCommon1
        CFI (cfiPicker94) NoFunction
        CFI (cfiPicker94) Picker
        LCALL   ?Subroutine43 & 0xFFFF
??CrossCallReturnLabel_123:
        RET
        CFI EndBlock cfiCond90
        CFI EndBlock cfiCond91
        CFI EndBlock cfiCond92
        CFI EndBlock cfiCond93
        CFI EndBlock cfiPicker94

        RSEG BANKED_CODE:CODE:NOROOT(0)
?Subroutine43:
        CFI Block cfiCond95 Using cfiCommon0
        CFI NoFunction
        CFI Conditional ??CrossCallReturnLabel_124, ??CrossCallReturnLabel_108, ??CrossCallReturnLabel_38
        CFI R6 load(1, XDATA, add(CFA_XSP16, literal(-16)))
        CFI VB load(1, XDATA, add(CFA_XSP16, literal(-15)))
        CFI V0 load(1, XDATA, add(CFA_XSP16, literal(-14)))
        CFI V1 load(1, XDATA, add(CFA_XSP16, literal(-13)))
        CFI V2 load(1, XDATA, add(CFA_XSP16, literal(-12)))
        CFI V3 load(1, XDATA, add(CFA_XSP16, literal(-11)))
        CFI V4 load(1, XDATA, add(CFA_XSP16, literal(-10)))
        CFI V5 load(1, XDATA, add(CFA_XSP16, literal(-9)))
        CFI V6 load(1, XDATA, add(CFA_XSP16, literal(-8)))
        CFI V7 load(1, XDATA, add(CFA_XSP16, literal(-7)))
        CFI R7 load(1, XDATA, add(CFA_XSP16, literal(-6)))
        CFI ?RET_LOW load(1, XDATA, add(CFA_XSP16, literal(-5)))
        CFI ?RET_HIGH load(1, XDATA, add(CFA_XSP16, literal(-4)))
        CFI ?BRET_EXT load(1, XDATA, add(CFA_XSP16, literal(-3)))
        CFI DPL0 load(1, XDATA, add(CFA_XSP16, literal(-2)))
        CFI DPH0 load(1, XDATA, add(CFA_XSP16, literal(-1)))
        CFI CFA_SP SP+0
        CFI CFA_XSP16 add(XSP16, 16)
        CFI Block cfiCond96 Using cfiCommon0
        CFI (cfiCond96) NoFunction
        CFI (cfiCond96) Conditional ??CrossCallReturnLabel_124, ??CrossCallReturnLabel_108, ??CrossCallReturnLabel_39
        CFI (cfiCond96) R6 load(1, XDATA, add(CFA_XSP16, literal(-16)))
        CFI (cfiCond96) VB load(1, XDATA, add(CFA_XSP16, literal(-15)))
        CFI (cfiCond96) V0 load(1, XDATA, add(CFA_XSP16, literal(-14)))
        CFI (cfiCond96) V1 load(1, XDATA, add(CFA_XSP16, literal(-13)))
        CFI (cfiCond96) V2 load(1, XDATA, add(CFA_XSP16, literal(-12)))
        CFI (cfiCond96) V3 load(1, XDATA, add(CFA_XSP16, literal(-11)))
        CFI (cfiCond96) V4 load(1, XDATA, add(CFA_XSP16, literal(-10)))
        CFI (cfiCond96) V5 load(1, XDATA, add(CFA_XSP16, literal(-9)))
        CFI (cfiCond96) V6 load(1, XDATA, add(CFA_XSP16, literal(-8)))
        CFI (cfiCond96) V7 load(1, XDATA, add(CFA_XSP16, literal(-7)))
        CFI (cfiCond96) R7 load(1, XDATA, add(CFA_XSP16, literal(-6)))
        CFI (cfiCond96) ?RET_LOW load(1, XDATA, add(CFA_XSP16, literal(-5)))
        CFI (cfiCond96) ?RET_HIGH load(1, XDATA, add(CFA_XSP16, literal(-4)))
        CFI (cfiCond96) ?BRET_EXT load(1, XDATA, add(CFA_XSP16, literal(-3)))
        CFI (cfiCond96) DPL0 load(1, XDATA, add(CFA_XSP16, literal(-2)))
        CFI (cfiCond96) DPH0 load(1, XDATA, add(CFA_XSP16, literal(-1)))
        CFI (cfiCond96) CFA_SP SP+0
        CFI (cfiCond96) CFA_XSP16 add(XSP16, 16)
        CFI Block cfiCond97 Using cfiCommon0
        CFI (cfiCond97) NoFunction
        CFI (cfiCond97) Conditional ??CrossCallReturnLabel_124, ??CrossCallReturnLabel_106, ??CrossCallReturnLabel_0
        CFI (cfiCond97) R6 load(1, XDATA, add(CFA_XSP16, literal(-14)))
        CFI (cfiCond97) VB load(1, XDATA, add(CFA_XSP16, literal(-13)))
        CFI (cfiCond97) V0 load(1, XDATA, add(CFA_XSP16, literal(-12)))
        CFI (cfiCond97) V1 load(1, XDATA, add(CFA_XSP16, literal(-11)))
        CFI (cfiCond97) V2 load(1, XDATA, add(CFA_XSP16, literal(-10)))
        CFI (cfiCond97) V3 load(1, XDATA, add(CFA_XSP16, literal(-9)))
        CFI (cfiCond97) V4 load(1, XDATA, add(CFA_XSP16, literal(-8)))
        CFI (cfiCond97) V5 load(1, XDATA, add(CFA_XSP16, literal(-7)))
        CFI (cfiCond97) R7 load(1, XDATA, add(CFA_XSP16, literal(-6)))
        CFI (cfiCond97) ?RET_LOW load(1, XDATA, add(CFA_XSP16, literal(-5)))
        CFI (cfiCond97) ?RET_HIGH load(1, XDATA, add(CFA_XSP16, literal(-4)))
        CFI (cfiCond97) ?BRET_EXT load(1, XDATA, add(CFA_XSP16, literal(-3)))
        CFI (cfiCond97) DPL0 load(1, XDATA, add(CFA_XSP16, literal(-2)))
        CFI (cfiCond97) DPH0 load(1, XDATA, add(CFA_XSP16, literal(-1)))
        CFI (cfiCond97) CFA_SP SP+0
        CFI (cfiCond97) CFA_XSP16 add(XSP16, 14)
        CFI Block cfiCond98 Using cfiCommon0
        CFI (cfiCond98) NoFunction
        CFI (cfiCond98) Conditional ??CrossCallReturnLabel_124, ??CrossCallReturnLabel_106, ??CrossCallReturnLabel_1
        CFI (cfiCond98) R6 load(1, XDATA, add(CFA_XSP16, literal(-14)))
        CFI (cfiCond98) VB load(1, XDATA, add(CFA_XSP16, literal(-13)))
        CFI (cfiCond98) V0 load(1, XDATA, add(CFA_XSP16, literal(-12)))
        CFI (cfiCond98) V1 load(1, XDATA, add(CFA_XSP16, literal(-11)))
        CFI (cfiCond98) V2 load(1, XDATA, add(CFA_XSP16, literal(-10)))
        CFI (cfiCond98) V3 load(1, XDATA, add(CFA_XSP16, literal(-9)))
        CFI (cfiCond98) V4 load(1, XDATA, add(CFA_XSP16, literal(-8)))
        CFI (cfiCond98) V5 load(1, XDATA, add(CFA_XSP16, literal(-7)))
        CFI (cfiCond98) R7 load(1, XDATA, add(CFA_XSP16, literal(-6)))
        CFI (cfiCond98) ?RET_LOW load(1, XDATA, add(CFA_XSP16, literal(-5)))
        CFI (cfiCond98) ?RET_HIGH load(1, XDATA, add(CFA_XSP16, literal(-4)))
        CFI (cfiCond98) ?BRET_EXT load(1, XDATA, add(CFA_XSP16, literal(-3)))
        CFI (cfiCond98) DPL0 load(1, XDATA, add(CFA_XSP16, literal(-2)))
        CFI (cfiCond98) DPH0 load(1, XDATA, add(CFA_XSP16, literal(-1)))
        CFI (cfiCond98) CFA_SP SP+0
        CFI (cfiCond98) CFA_XSP16 add(XSP16, 14)
        CFI Block cfiCond99 Using cfiCommon0
        CFI (cfiCond99) NoFunction
        CFI (cfiCond99) Conditional ??CrossCallReturnLabel_124, ??CrossCallReturnLabel_107, ??CrossCallReturnLabel_26
        CFI (cfiCond99) R6 load(1, XDATA, add(CFA_XSP16, literal(-10)))
        CFI (cfiCond99) VB load(1, XDATA, add(CFA_XSP16, literal(-9)))
        CFI (cfiCond99) V0 load(1, XDATA, add(CFA_XSP16, literal(-8)))
        CFI (cfiCond99) V1 load(1, XDATA, add(CFA_XSP16, literal(-7)))
        CFI (cfiCond99) R7 load(1, XDATA, add(CFA_XSP16, literal(-6)))
        CFI (cfiCond99) ?RET_LOW load(1, XDATA, add(CFA_XSP16, literal(-5)))
        CFI (cfiCond99) ?RET_HIGH load(1, XDATA, add(CFA_XSP16, literal(-4)))
        CFI (cfiCond99) ?BRET_EXT load(1, XDATA, add(CFA_XSP16, literal(-3)))
        CFI (cfiCond99) DPL0 load(1, XDATA, add(CFA_XSP16, literal(-2)))
        CFI (cfiCond99) DPH0 load(1, XDATA, add(CFA_XSP16, literal(-1)))
        CFI (cfiCond99) CFA_SP SP+0
        CFI (cfiCond99) CFA_XSP16 add(XSP16, 10)
        CFI Block cfiCond100 Using cfiCommon0
        CFI (cfiCond100) NoFunction
        CFI (cfiCond100) Conditional ??CrossCallReturnLabel_124, ??CrossCallReturnLabel_107, ??CrossCallReturnLabel_27
        CFI (cfiCond100) R6 load(1, XDATA, add(CFA_XSP16, literal(-14)))
        CFI (cfiCond100) VB load(1, XDATA, add(CFA_XSP16, literal(-13)))
        CFI (cfiCond100) V0 load(1, XDATA, add(CFA_XSP16, literal(-12)))
        CFI (cfiCond100) V1 load(1, XDATA, add(CFA_XSP16, literal(-11)))
        CFI (cfiCond100) V2 load(1, XDATA, add(CFA_XSP16, literal(-10)))
        CFI (cfiCond100) V3 load(1, XDATA, add(CFA_XSP16, literal(-9)))
        CFI (cfiCond100) V4 load(1, XDATA, add(CFA_XSP16, literal(-8)))
        CFI (cfiCond100) V5 load(1, XDATA, add(CFA_XSP16, literal(-7)))
        CFI (cfiCond100) R7 load(1, XDATA, add(CFA_XSP16, literal(-6)))
        CFI (cfiCond100) ?RET_LOW load(1, XDATA, add(CFA_XSP16, literal(-5)))
        CFI (cfiCond100) ?RET_HIGH load(1, XDATA, add(CFA_XSP16, literal(-4)))
        CFI (cfiCond100) ?BRET_EXT load(1, XDATA, add(CFA_XSP16, literal(-3)))
        CFI (cfiCond100) DPL0 load(1, XDATA, add(CFA_XSP16, literal(-2)))
        CFI (cfiCond100) DPH0 load(1, XDATA, add(CFA_XSP16, literal(-1)))
        CFI (cfiCond100) CFA_SP SP+0
        CFI (cfiCond100) CFA_XSP16 add(XSP16, 14)
        CFI Block cfiCond101 Using cfiCommon0
        CFI (cfiCond101) NoFunction
        CFI (cfiCond101) Conditional ??CrossCallReturnLabel_124, ??CrossCallReturnLabel_107, ??CrossCallReturnLabel_28
        CFI (cfiCond101) R6 load(1, XDATA, add(CFA_XSP16, literal(-14)))
        CFI (cfiCond101) VB load(1, XDATA, add(CFA_XSP16, literal(-13)))
        CFI (cfiCond101) V0 load(1, XDATA, add(CFA_XSP16, literal(-12)))
        CFI (cfiCond101) V1 load(1, XDATA, add(CFA_XSP16, literal(-11)))
        CFI (cfiCond101) V2 load(1, XDATA, add(CFA_XSP16, literal(-10)))
        CFI (cfiCond101) V3 load(1, XDATA, add(CFA_XSP16, literal(-9)))
        CFI (cfiCond101) V4 load(1, XDATA, add(CFA_XSP16, literal(-8)))
        CFI (cfiCond101) V5 load(1, XDATA, add(CFA_XSP16, literal(-7)))
        CFI (cfiCond101) R7 load(1, XDATA, add(CFA_XSP16, literal(-6)))
        CFI (cfiCond101) ?RET_LOW load(1, XDATA, add(CFA_XSP16, literal(-5)))
        CFI (cfiCond101) ?RET_HIGH load(1, XDATA, add(CFA_XSP16, literal(-4)))
        CFI (cfiCond101) ?BRET_EXT load(1, XDATA, add(CFA_XSP16, literal(-3)))
        CFI (cfiCond101) DPL0 load(1, XDATA, add(CFA_XSP16, literal(-2)))
        CFI (cfiCond101) DPH0 load(1, XDATA, add(CFA_XSP16, literal(-1)))
        CFI (cfiCond101) CFA_SP SP+0
        CFI (cfiCond101) CFA_XSP16 add(XSP16, 14)
        CFI Block cfiCond102 Using cfiCommon0
        CFI (cfiCond102) NoFunction
        CFI (cfiCond102) Conditional ??CrossCallReturnLabel_124, ??CrossCallReturnLabel_109, ??CrossCallReturnLabel_42
        CFI (cfiCond102) R6 load(1, XDATA, add(CFA_XSP16, literal(-10)))
        CFI (cfiCond102) VB load(1, XDATA, add(CFA_XSP16, literal(-9)))
        CFI (cfiCond102) V0 load(1, XDATA, add(CFA_XSP16, literal(-8)))
        CFI (cfiCond102) V1 load(1, XDATA, add(CFA_XSP16, literal(-7)))
        CFI (cfiCond102) R7 load(1, XDATA, add(CFA_XSP16, literal(-6)))
        CFI (cfiCond102) ?RET_LOW load(1, XDATA, add(CFA_XSP16, literal(-5)))
        CFI (cfiCond102) ?RET_HIGH load(1, XDATA, add(CFA_XSP16, literal(-4)))
        CFI (cfiCond102) ?BRET_EXT load(1, XDATA, add(CFA_XSP16, literal(-3)))
        CFI (cfiCond102) DPL0 load(1, XDATA, add(CFA_XSP16, literal(-2)))
        CFI (cfiCond102) DPH0 load(1, XDATA, add(CFA_XSP16, literal(-1)))
        CFI (cfiCond102) CFA_SP SP+0
        CFI (cfiCond102) CFA_XSP16 add(XSP16, 10)
        CFI Block cfiCond103 Using cfiCommon0
        CFI (cfiCond103) NoFunction
        CFI (cfiCond103) Conditional ??CrossCallReturnLabel_124, ??CrossCallReturnLabel_109, ??CrossCallReturnLabel_43
        CFI (cfiCond103) R6 load(1, XDATA, add(CFA_XSP16, literal(-14)))
        CFI (cfiCond103) VB load(1, XDATA, add(CFA_XSP16, literal(-13)))
        CFI (cfiCond103) V0 load(1, XDATA, add(CFA_XSP16, literal(-12)))
        CFI (cfiCond103) V1 load(1, XDATA, add(CFA_XSP16, literal(-11)))
        CFI (cfiCond103) V2 load(1, XDATA, add(CFA_XSP16, literal(-10)))
        CFI (cfiCond103) V3 load(1, XDATA, add(CFA_XSP16, literal(-9)))
        CFI (cfiCond103) V4 load(1, XDATA, add(CFA_XSP16, literal(-8)))
        CFI (cfiCond103) V5 load(1, XDATA, add(CFA_XSP16, literal(-7)))
        CFI (cfiCond103) R7 load(1, XDATA, add(CFA_XSP16, literal(-6)))
        CFI (cfiCond103) ?RET_LOW load(1, XDATA, add(CFA_XSP16, literal(-5)))
        CFI (cfiCond103) ?RET_HIGH load(1, XDATA, add(CFA_XSP16, literal(-4)))
        CFI (cfiCond103) ?BRET_EXT load(1, XDATA, add(CFA_XSP16, literal(-3)))
        CFI (cfiCond103) DPL0 load(1, XDATA, add(CFA_XSP16, literal(-2)))
        CFI (cfiCond103) DPH0 load(1, XDATA, add(CFA_XSP16, literal(-1)))
        CFI (cfiCond103) CFA_SP SP+0
        CFI (cfiCond103) CFA_XSP16 add(XSP16, 14)
        CFI Block cfiCond104 Using cfiCommon0
        CFI (cfiCond104) NoFunction
        CFI (cfiCond104) Conditional ??CrossCallReturnLabel_124, ??CrossCallReturnLabel_109, ??CrossCallReturnLabel_44
        CFI (cfiCond104) R6 load(1, XDATA, add(CFA_XSP16, literal(-14)))
        CFI (cfiCond104) VB load(1, XDATA, add(CFA_XSP16, literal(-13)))
        CFI (cfiCond104) V0 load(1, XDATA, add(CFA_XSP16, literal(-12)))
        CFI (cfiCond104) V1 load(1, XDATA, add(CFA_XSP16, literal(-11)))
        CFI (cfiCond104) V2 load(1, XDATA, add(CFA_XSP16, literal(-10)))
        CFI (cfiCond104) V3 load(1, XDATA, add(CFA_XSP16, literal(-9)))
        CFI (cfiCond104) V4 load(1, XDATA, add(CFA_XSP16, literal(-8)))
        CFI (cfiCond104) V5 load(1, XDATA, add(CFA_XSP16, literal(-7)))
        CFI (cfiCond104) R7 load(1, XDATA, add(CFA_XSP16, literal(-6)))
        CFI (cfiCond104) ?RET_LOW load(1, XDATA, add(CFA_XSP16, literal(-5)))
        CFI (cfiCond104) ?RET_HIGH load(1, XDATA, add(CFA_XSP16, literal(-4)))
        CFI (cfiCond104) ?BRET_EXT load(1, XDATA, add(CFA_XSP16, literal(-3)))
        CFI (cfiCond104) DPL0 load(1, XDATA, add(CFA_XSP16, literal(-2)))
        CFI (cfiCond104) DPH0 load(1, XDATA, add(CFA_XSP16, literal(-1)))
        CFI (cfiCond104) CFA_SP SP+0
        CFI (cfiCond104) CFA_XSP16 add(XSP16, 14)
        CFI Block cfiCond105 Using cfiCommon0
        CFI (cfiCond105) NoFunction
        CFI (cfiCond105) Conditional ??CrossCallReturnLabel_124, ??CrossCallReturnLabel_109, ??CrossCallReturnLabel_45
        CFI (cfiCond105) R6 load(1, XDATA, add(CFA_XSP16, literal(-14)))
        CFI (cfiCond105) VB load(1, XDATA, add(CFA_XSP16, literal(-13)))
        CFI (cfiCond105) V0 load(1, XDATA, add(CFA_XSP16, literal(-12)))
        CFI (cfiCond105) V1 load(1, XDATA, add(CFA_XSP16, literal(-11)))
        CFI (cfiCond105) V2 load(1, XDATA, add(CFA_XSP16, literal(-10)))
        CFI (cfiCond105) V3 load(1, XDATA, add(CFA_XSP16, literal(-9)))
        CFI (cfiCond105) V4 load(1, XDATA, add(CFA_XSP16, literal(-8)))
        CFI (cfiCond105) V5 load(1, XDATA, add(CFA_XSP16, literal(-7)))
        CFI (cfiCond105) R7 load(1, XDATA, add(CFA_XSP16, literal(-6)))
        CFI (cfiCond105) ?RET_LOW load(1, XDATA, add(CFA_XSP16, literal(-5)))
        CFI (cfiCond105) ?RET_HIGH load(1, XDATA, add(CFA_XSP16, literal(-4)))
        CFI (cfiCond105) ?BRET_EXT load(1, XDATA, add(CFA_XSP16, literal(-3)))
        CFI (cfiCond105) DPL0 load(1, XDATA, add(CFA_XSP16, literal(-2)))
        CFI (cfiCond105) DPH0 load(1, XDATA, add(CFA_XSP16, literal(-1)))
        CFI (cfiCond105) CFA_SP SP+0
        CFI (cfiCond105) CFA_XSP16 add(XSP16, 14)
        CFI Block cfiCond106 Using cfiCommon0
        CFI (cfiCond106) NoFunction
        CFI (cfiCond106) Conditional ??CrossCallReturnLabel_123, ??CrossCallReturnLabel_52
        CFI (cfiCond106) R6 load(1, XDATA, add(CFA_XSP16, literal(-14)))
        CFI (cfiCond106) VB load(1, XDATA, add(CFA_XSP16, literal(-13)))
        CFI (cfiCond106) V0 load(1, XDATA, add(CFA_XSP16, literal(-12)))
        CFI (cfiCond106) V1 load(1, XDATA, add(CFA_XSP16, literal(-11)))
        CFI (cfiCond106) V2 load(1, XDATA, add(CFA_XSP16, literal(-10)))
        CFI (cfiCond106) V3 load(1, XDATA, add(CFA_XSP16, literal(-9)))
        CFI (cfiCond106) V4 load(1, XDATA, add(CFA_XSP16, literal(-8)))
        CFI (cfiCond106) V5 load(1, XDATA, add(CFA_XSP16, literal(-7)))
        CFI (cfiCond106) R7 load(1, XDATA, add(CFA_XSP16, literal(-6)))
        CFI (cfiCond106) ?RET_LOW load(1, XDATA, add(CFA_XSP16, literal(-5)))
        CFI (cfiCond106) ?RET_HIGH load(1, XDATA, add(CFA_XSP16, literal(-4)))
        CFI (cfiCond106) ?BRET_EXT load(1, XDATA, add(CFA_XSP16, literal(-3)))
        CFI (cfiCond106) DPL0 load(1, XDATA, add(CFA_XSP16, literal(-2)))
        CFI (cfiCond106) DPH0 load(1, XDATA, add(CFA_XSP16, literal(-1)))
        CFI (cfiCond106) CFA_SP SP+0
        CFI (cfiCond106) CFA_XSP16 add(XSP16, 14)
        CFI Block cfiCond107 Using cfiCommon0
        CFI (cfiCond107) NoFunction
        CFI (cfiCond107) Conditional ??CrossCallReturnLabel_123, ??CrossCallReturnLabel_53
        CFI (cfiCond107) R6 load(1, XDATA, add(CFA_XSP16, literal(-10)))
        CFI (cfiCond107) VB load(1, XDATA, add(CFA_XSP16, literal(-9)))
        CFI (cfiCond107) V0 load(1, XDATA, add(CFA_XSP16, literal(-8)))
        CFI (cfiCond107) V1 load(1, XDATA, add(CFA_XSP16, literal(-7)))
        CFI (cfiCond107) R7 load(1, XDATA, add(CFA_XSP16, literal(-6)))
        CFI (cfiCond107) ?RET_LOW load(1, XDATA, add(CFA_XSP16, literal(-5)))
        CFI (cfiCond107) ?RET_HIGH load(1, XDATA, add(CFA_XSP16, literal(-4)))
        CFI (cfiCond107) ?BRET_EXT load(1, XDATA, add(CFA_XSP16, literal(-3)))
        CFI (cfiCond107) DPL0 load(1, XDATA, add(CFA_XSP16, literal(-2)))
        CFI (cfiCond107) DPH0 load(1, XDATA, add(CFA_XSP16, literal(-1)))
        CFI (cfiCond107) CFA_SP SP+0
        CFI (cfiCond107) CFA_XSP16 add(XSP16, 10)
        CFI Block cfiCond108 Using cfiCommon0
        CFI (cfiCond108) NoFunction
        CFI (cfiCond108) Conditional ??CrossCallReturnLabel_123, ??CrossCallReturnLabel_54
        CFI (cfiCond108) R6 load(1, XDATA, add(CFA_XSP16, literal(-10)))
        CFI (cfiCond108) VB load(1, XDATA, add(CFA_XSP16, literal(-9)))
        CFI (cfiCond108) V0 load(1, XDATA, add(CFA_XSP16, literal(-8)))
        CFI (cfiCond108) V1 load(1, XDATA, add(CFA_XSP16, literal(-7)))
        CFI (cfiCond108) R7 load(1, XDATA, add(CFA_XSP16, literal(-6)))
        CFI (cfiCond108) ?RET_LOW load(1, XDATA, add(CFA_XSP16, literal(-5)))
        CFI (cfiCond108) ?RET_HIGH load(1, XDATA, add(CFA_XSP16, literal(-4)))
        CFI (cfiCond108) ?BRET_EXT load(1, XDATA, add(CFA_XSP16, literal(-3)))
        CFI (cfiCond108) DPL0 load(1, XDATA, add(CFA_XSP16, literal(-2)))
        CFI (cfiCond108) DPH0 load(1, XDATA, add(CFA_XSP16, literal(-1)))
        CFI (cfiCond108) CFA_SP SP+0
        CFI (cfiCond108) CFA_XSP16 add(XSP16, 10)
        CFI Block cfiCond109 Using cfiCommon0
        CFI (cfiCond109) NoFunction
        CFI (cfiCond109) Conditional ??CrossCallReturnLabel_123, ??CrossCallReturnLabel_55
        CFI (cfiCond109) R6 load(1, XDATA, add(CFA_XSP16, literal(-14)))
        CFI (cfiCond109) VB load(1, XDATA, add(CFA_XSP16, literal(-13)))
        CFI (cfiCond109) V0 load(1, XDATA, add(CFA_XSP16, literal(-12)))
        CFI (cfiCond109) V1 load(1, XDATA, add(CFA_XSP16, literal(-11)))
        CFI (cfiCond109) V2 load(1, XDATA, add(CFA_XSP16, literal(-10)))
        CFI (cfiCond109) V3 load(1, XDATA, add(CFA_XSP16, literal(-9)))
        CFI (cfiCond109) V4 load(1, XDATA, add(CFA_XSP16, literal(-8)))
        CFI (cfiCond109) V5 load(1, XDATA, add(CFA_XSP16, literal(-7)))
        CFI (cfiCond109) R7 load(1, XDATA, add(CFA_XSP16, literal(-6)))
        CFI (cfiCond109) ?RET_LOW load(1, XDATA, add(CFA_XSP16, literal(-5)))
        CFI (cfiCond109) ?RET_HIGH load(1, XDATA, add(CFA_XSP16, literal(-4)))
        CFI (cfiCond109) ?BRET_EXT load(1, XDATA, add(CFA_XSP16, literal(-3)))
        CFI (cfiCond109) DPL0 load(1, XDATA, add(CFA_XSP16, literal(-2)))
        CFI (cfiCond109) DPH0 load(1, XDATA, add(CFA_XSP16, literal(-1)))
        CFI (cfiCond109) CFA_SP SP+0
        CFI (cfiCond109) CFA_XSP16 add(XSP16, 14)
        CFI Block cfiCond110 Using cfiCommon0
        CFI (cfiCond110) NoFunction
        CFI (cfiCond110) Conditional ??CrossCallReturnLabel_125, ??CrossCallReturnLabel_139, ??CrossCallReturnLabel_31
        CFI (cfiCond110) R6 load(1, XDATA, add(CFA_XSP16, literal(-16)))
        CFI (cfiCond110) VB load(1, XDATA, add(CFA_XSP16, literal(-15)))
        CFI (cfiCond110) V0 load(1, XDATA, add(CFA_XSP16, literal(-14)))
        CFI (cfiCond110) V1 load(1, XDATA, add(CFA_XSP16, literal(-13)))
        CFI (cfiCond110) V2 load(1, XDATA, add(CFA_XSP16, literal(-12)))
        CFI (cfiCond110) V3 load(1, XDATA, add(CFA_XSP16, literal(-11)))
        CFI (cfiCond110) V4 load(1, XDATA, add(CFA_XSP16, literal(-10)))
        CFI (cfiCond110) V5 load(1, XDATA, add(CFA_XSP16, literal(-9)))
        CFI (cfiCond110) V6 load(1, XDATA, add(CFA_XSP16, literal(-8)))
        CFI (cfiCond110) V7 load(1, XDATA, add(CFA_XSP16, literal(-7)))
        CFI (cfiCond110) R7 load(1, XDATA, add(CFA_XSP16, literal(-6)))
        CFI (cfiCond110) ?RET_LOW load(1, XDATA, add(CFA_XSP16, literal(-5)))
        CFI (cfiCond110) ?RET_HIGH load(1, XDATA, add(CFA_XSP16, literal(-4)))
        CFI (cfiCond110) ?BRET_EXT load(1, XDATA, add(CFA_XSP16, literal(-3)))
        CFI (cfiCond110) DPL0 load(1, XDATA, add(CFA_XSP16, literal(-2)))
        CFI (cfiCond110) DPH0 load(1, XDATA, add(CFA_XSP16, literal(-1)))
        CFI (cfiCond110) CFA_SP SP+0
        CFI (cfiCond110) CFA_XSP16 add(XSP16, 16)
        CFI Block cfiCond111 Using cfiCommon0
        CFI (cfiCond111) NoFunction
        CFI (cfiCond111) Conditional ??CrossCallReturnLabel_125, ??CrossCallReturnLabel_139, ??CrossCallReturnLabel_32
        CFI (cfiCond111) R6 load(1, XDATA, add(CFA_XSP16, literal(-16)))
        CFI (cfiCond111) VB load(1, XDATA, add(CFA_XSP16, literal(-15)))
        CFI (cfiCond111) V0 load(1, XDATA, add(CFA_XSP16, literal(-14)))
        CFI (cfiCond111) V1 load(1, XDATA, add(CFA_XSP16, literal(-13)))
        CFI (cfiCond111) V2 load(1, XDATA, add(CFA_XSP16, literal(-12)))
        CFI (cfiCond111) V3 load(1, XDATA, add(CFA_XSP16, literal(-11)))
        CFI (cfiCond111) V4 load(1, XDATA, add(CFA_XSP16, literal(-10)))
        CFI (cfiCond111) V5 load(1, XDATA, add(CFA_XSP16, literal(-9)))
        CFI (cfiCond111) V6 load(1, XDATA, add(CFA_XSP16, literal(-8)))
        CFI (cfiCond111) V7 load(1, XDATA, add(CFA_XSP16, literal(-7)))
        CFI (cfiCond111) R7 load(1, XDATA, add(CFA_XSP16, literal(-6)))
        CFI (cfiCond111) ?RET_LOW load(1, XDATA, add(CFA_XSP16, literal(-5)))
        CFI (cfiCond111) ?RET_HIGH load(1, XDATA, add(CFA_XSP16, literal(-4)))
        CFI (cfiCond111) ?BRET_EXT load(1, XDATA, add(CFA_XSP16, literal(-3)))
        CFI (cfiCond111) DPL0 load(1, XDATA, add(CFA_XSP16, literal(-2)))
        CFI (cfiCond111) DPH0 load(1, XDATA, add(CFA_XSP16, literal(-1)))
        CFI (cfiCond111) CFA_SP SP+0
        CFI (cfiCond111) CFA_XSP16 add(XSP16, 16)
        CFI Block cfiCond112 Using cfiCommon0
        CFI (cfiCond112) NoFunction
        CFI (cfiCond112) Conditional ??CrossCallReturnLabel_125, ??CrossCallReturnLabel_139, ??CrossCallReturnLabel_33
        CFI (cfiCond112) R6 load(1, XDATA, add(CFA_XSP16, literal(-14)))
        CFI (cfiCond112) VB load(1, XDATA, add(CFA_XSP16, literal(-13)))
        CFI (cfiCond112) V0 load(1, XDATA, add(CFA_XSP16, literal(-12)))
        CFI (cfiCond112) V1 load(1, XDATA, add(CFA_XSP16, literal(-11)))
        CFI (cfiCond112) V2 load(1, XDATA, add(CFA_XSP16, literal(-10)))
        CFI (cfiCond112) V3 load(1, XDATA, add(CFA_XSP16, literal(-9)))
        CFI (cfiCond112) V4 load(1, XDATA, add(CFA_XSP16, literal(-8)))
        CFI (cfiCond112) V5 load(1, XDATA, add(CFA_XSP16, literal(-7)))
        CFI (cfiCond112) R7 load(1, XDATA, add(CFA_XSP16, literal(-6)))
        CFI (cfiCond112) ?RET_LOW load(1, XDATA, add(CFA_XSP16, literal(-5)))
        CFI (cfiCond112) ?RET_HIGH load(1, XDATA, add(CFA_XSP16, literal(-4)))
        CFI (cfiCond112) ?BRET_EXT load(1, XDATA, add(CFA_XSP16, literal(-3)))
        CFI (cfiCond112) DPL0 load(1, XDATA, add(CFA_XSP16, literal(-2)))
        CFI (cfiCond112) DPH0 load(1, XDATA, add(CFA_XSP16, literal(-1)))
        CFI (cfiCond112) CFA_SP SP+0
        CFI (cfiCond112) CFA_XSP16 add(XSP16, 14)
        CFI Block cfiCond113 Using cfiCommon0
        CFI (cfiCond113) NoFunction
        CFI (cfiCond113) Conditional ??CrossCallReturnLabel_125, ??CrossCallReturnLabel_138, ??CrossCallReturnLabel_0
        CFI (cfiCond113) R6 load(1, XDATA, add(CFA_XSP16, literal(-14)))
        CFI (cfiCond113) VB load(1, XDATA, add(CFA_XSP16, literal(-13)))
        CFI (cfiCond113) V0 load(1, XDATA, add(CFA_XSP16, literal(-12)))
        CFI (cfiCond113) V1 load(1, XDATA, add(CFA_XSP16, literal(-11)))
        CFI (cfiCond113) V2 load(1, XDATA, add(CFA_XSP16, literal(-10)))
        CFI (cfiCond113) V3 load(1, XDATA, add(CFA_XSP16, literal(-9)))
        CFI (cfiCond113) V4 load(1, XDATA, add(CFA_XSP16, literal(-8)))
        CFI (cfiCond113) V5 load(1, XDATA, add(CFA_XSP16, literal(-7)))
        CFI (cfiCond113) R7 load(1, XDATA, add(CFA_XSP16, literal(-6)))
        CFI (cfiCond113) ?RET_LOW load(1, XDATA, add(CFA_XSP16, literal(-5)))
        CFI (cfiCond113) ?RET_HIGH load(1, XDATA, add(CFA_XSP16, literal(-4)))
        CFI (cfiCond113) ?BRET_EXT load(1, XDATA, add(CFA_XSP16, literal(-3)))
        CFI (cfiCond113) DPL0 load(1, XDATA, add(CFA_XSP16, literal(-2)))
        CFI (cfiCond113) DPH0 load(1, XDATA, add(CFA_XSP16, literal(-1)))
        CFI (cfiCond113) CFA_SP SP+0
        CFI (cfiCond113) CFA_XSP16 add(XSP16, 14)
        CFI Block cfiCond114 Using cfiCommon0
        CFI (cfiCond114) NoFunction
        CFI (cfiCond114) Conditional ??CrossCallReturnLabel_125, ??CrossCallReturnLabel_138, ??CrossCallReturnLabel_1
        CFI (cfiCond114) R6 load(1, XDATA, add(CFA_XSP16, literal(-14)))
        CFI (cfiCond114) VB load(1, XDATA, add(CFA_XSP16, literal(-13)))
        CFI (cfiCond114) V0 load(1, XDATA, add(CFA_XSP16, literal(-12)))
        CFI (cfiCond114) V1 load(1, XDATA, add(CFA_XSP16, literal(-11)))
        CFI (cfiCond114) V2 load(1, XDATA, add(CFA_XSP16, literal(-10)))
        CFI (cfiCond114) V3 load(1, XDATA, add(CFA_XSP16, literal(-9)))
        CFI (cfiCond114) V4 load(1, XDATA, add(CFA_XSP16, literal(-8)))
        CFI (cfiCond114) V5 load(1, XDATA, add(CFA_XSP16, literal(-7)))
        CFI (cfiCond114) R7 load(1, XDATA, add(CFA_XSP16, literal(-6)))
        CFI (cfiCond114) ?RET_LOW load(1, XDATA, add(CFA_XSP16, literal(-5)))
        CFI (cfiCond114) ?RET_HIGH load(1, XDATA, add(CFA_XSP16, literal(-4)))
        CFI (cfiCond114) ?BRET_EXT load(1, XDATA, add(CFA_XSP16, literal(-3)))
        CFI (cfiCond114) DPL0 load(1, XDATA, add(CFA_XSP16, literal(-2)))
        CFI (cfiCond114) DPH0 load(1, XDATA, add(CFA_XSP16, literal(-1)))
        CFI (cfiCond114) CFA_SP SP+0
        CFI (cfiCond114) CFA_XSP16 add(XSP16, 14)
        CFI Block cfiPicker115 Using cfiCommon1
        CFI (cfiPicker115) NoFunction
        CFI (cfiPicker115) Picker
        MOVX    A,@DPTR
        MOV     DPL,R0
        MOV     DPH,R1
        MOVX    @DPTR,A
        RET
        CFI EndBlock cfiCond95
        CFI EndBlock cfiCond96
        CFI EndBlock cfiCond97
        CFI EndBlock cfiCond98
        CFI EndBlock cfiCond99
        CFI EndBlock cfiCond100
        CFI EndBlock cfiCond101
        CFI EndBlock cfiCond102
        CFI EndBlock cfiCond103
        CFI EndBlock cfiCond104
        CFI EndBlock cfiCond105
        CFI EndBlock cfiCond106
        CFI EndBlock cfiCond107
        CFI EndBlock cfiCond108
        CFI EndBlock cfiCond109
        CFI EndBlock cfiCond110
        CFI EndBlock cfiCond111
        CFI EndBlock cfiCond112
        CFI EndBlock cfiCond113
        CFI EndBlock cfiCond114
        CFI EndBlock cfiPicker115

        RSEG BANKED_CODE:CODE:NOROOT(0)
?Subroutine2:
        CFI Block cfiCond116 Using cfiCommon0
        CFI NoFunction
        CFI Conditional ??CrossCallReturnLabel_4
        CFI R6 load(1, XDATA, add(CFA_XSP16, literal(-10)))
        CFI VB load(1, XDATA, add(CFA_XSP16, literal(-9)))
        CFI V0 load(1, XDATA, add(CFA_XSP16, literal(-8)))
        CFI V1 load(1, XDATA, add(CFA_XSP16, literal(-7)))
        CFI R7 load(1, XDATA, add(CFA_XSP16, literal(-6)))
        CFI ?RET_LOW load(1, XDATA, add(CFA_XSP16, literal(-5)))
        CFI ?RET_HIGH load(1, XDATA, add(CFA_XSP16, literal(-4)))
        CFI ?BRET_EXT load(1, XDATA, add(CFA_XSP16, literal(-3)))
        CFI DPL0 load(1, XDATA, add(CFA_XSP16, literal(-2)))
        CFI DPH0 load(1, XDATA, add(CFA_XSP16, literal(-1)))
        CFI CFA_SP SP+0
        CFI CFA_XSP16 add(XSP16, 10)
        CFI Block cfiCond117 Using cfiCommon0
        CFI (cfiCond117) NoFunction
        CFI (cfiCond117) Conditional ??CrossCallReturnLabel_5
        CFI (cfiCond117) R6 load(1, XDATA, add(CFA_XSP16, literal(-10)))
        CFI (cfiCond117) VB load(1, XDATA, add(CFA_XSP16, literal(-9)))
        CFI (cfiCond117) V0 load(1, XDATA, add(CFA_XSP16, literal(-8)))
        CFI (cfiCond117) V1 load(1, XDATA, add(CFA_XSP16, literal(-7)))
        CFI (cfiCond117) R7 load(1, XDATA, add(CFA_XSP16, literal(-6)))
        CFI (cfiCond117) ?RET_LOW load(1, XDATA, add(CFA_XSP16, literal(-5)))
        CFI (cfiCond117) ?RET_HIGH load(1, XDATA, add(CFA_XSP16, literal(-4)))
        CFI (cfiCond117) ?BRET_EXT load(1, XDATA, add(CFA_XSP16, literal(-3)))
        CFI (cfiCond117) DPL0 load(1, XDATA, add(CFA_XSP16, literal(-2)))
        CFI (cfiCond117) DPH0 load(1, XDATA, add(CFA_XSP16, literal(-1)))
        CFI (cfiCond117) CFA_SP SP+0
        CFI (cfiCond117) CFA_XSP16 add(XSP16, 10)
        CFI Block cfiPicker118 Using cfiCommon1
        CFI (cfiPicker118) NoFunction
        CFI (cfiPicker118) Picker
        MOVX    A,@DPTR
        MOV     R0,A
        INC     DPTR
        MOVX    A,@DPTR
        MOV     R1,A
        MOV     A,R0
        MOV     R6,A
        MOV     A,R1
        MOV     R7,A
        MOV     DPTR,#ZDP_TmpBuf
        MOVX    A,@DPTR
        MOV     R0,A
        INC     DPTR
        MOVX    A,@DPTR
        MOV     R1,A
        CLR     A
        MOV     DPL,R0
        MOV     DPH,R1
        MOVX    @DPTR,A
        INC     DPTR
        MOV     A,R4
        MOVX    @DPTR,A
        INC     DPTR
        MOV     A,R5
        MOVX    @DPTR,A
        INC     DPTR
        MOV     R0,DPL
        MOV     R1,DPH
        MOV     DPL,R6
        MOV     DPH,R7
        MOVX    A,@DPTR
        RET
        CFI EndBlock cfiCond116
        CFI EndBlock cfiCond117
        CFI EndBlock cfiPicker118
//  743 
//  744 /*********************************************************************
//  745  * @fn          ZDP_SimpleDescMsg
//  746  *
//  747  * @brief       Builds and sends a Simple Descriptor message, unicast to the
//  748  *              specified device.
//  749  *
//  750  * @param       inMsg - incoming message (request)
//  751  * @param       Status - message status (ZDP_SUCCESS or other)
//  752  * @param       pSimpleDesc - pointer to the node descriptor
//  753  *
//  754  * @return      afStatus_t
//  755  */

        RSEG BANKED_CODE:CODE:NOROOT(0)
//  756 afStatus_t ZDP_SimpleDescMsg( zdoIncomingMsg_t *inMsg, byte Status,
ZDP_SimpleDescMsg:
        CFI Block cfiBlock119 Using cfiCommon0
        CFI Function ZDP_SimpleDescMsg
//  757                               SimpleDescriptionFormat_t *pSimpleDesc )
//  758 {
        FUNCALL ZDP_SimpleDescMsg, fillAndSend
        LOCFRAME ISTACK, 0, STACK
        LOCFRAME PSTACK, 0, STACK
        LOCFRAME XSTACK, 16, STACK
        LOCFRAME IOVERLAY, 0, STATIC
        LOCFRAME DOVERLAY, 0, STATIC
        ARGFRAME ISTACK, 0, STACK
        ARGFRAME PSTACK, 0, STACK
        ARGFRAME XSTACK, 16, STACK
        ARGFRAME IOVERLAY, 0, STATIC
        ARGFRAME DOVERLAY, 0, STATIC
        MOV     A,#-0xe
        LCALL   ?BANKED_ENTER_XDATA
        CFI DPH0 load(1, XDATA, add(CFA_XSP16, literal(-1)))
        CFI DPL0 load(1, XDATA, add(CFA_XSP16, literal(-2)))
        CFI ?BRET_EXT load(1, XDATA, add(CFA_XSP16, literal(-3)))
        CFI ?RET_HIGH load(1, XDATA, add(CFA_XSP16, literal(-4)))
        CFI ?RET_LOW load(1, XDATA, add(CFA_XSP16, literal(-5)))
        CFI R7 load(1, XDATA, add(CFA_XSP16, literal(-6)))
        CFI V5 load(1, XDATA, add(CFA_XSP16, literal(-7)))
        CFI V4 load(1, XDATA, add(CFA_XSP16, literal(-8)))
        CFI V3 load(1, XDATA, add(CFA_XSP16, literal(-9)))
        CFI V2 load(1, XDATA, add(CFA_XSP16, literal(-10)))
        CFI V1 load(1, XDATA, add(CFA_XSP16, literal(-11)))
        CFI V0 load(1, XDATA, add(CFA_XSP16, literal(-12)))
        CFI VB load(1, XDATA, add(CFA_XSP16, literal(-13)))
        CFI R6 load(1, XDATA, add(CFA_XSP16, literal(-14)))
        CFI CFA_SP SP+0
        CFI CFA_XSP16 add(XSP16, 14)
        ; Saved register size: 14
        ; Auto size: 0
        MOV     A,R1
        MOV     R6,A
//  759   uint8 *pBuf = ZDP_TmpBuf;
        LCALL   ??Subroutine4_0 & 0xFFFF
//  760   uint8 i, len;
//  761 
//  762   if ( Status == ZDP_SUCCESS && pSimpleDesc )
??CrossCallReturnLabel_18:
        MOV     A,R6
        JNZ     ??ZDP_SimpleDescMsg_0
        MOV     A,R4
        JNZ     ??ZDP_SimpleDescMsg_1
        MOV     A,R5
??ZDP_SimpleDescMsg_1:
        JZ      ??ZDP_SimpleDescMsg_0
//  763   {
//  764     // Status + NWKAddrOfInterest + desc length + empty simple descriptor.
//  765     len = 1 + 2 + 1 + 8;
//  766     len += (pSimpleDesc->AppNumInClusters + pSimpleDesc->AppNumOutClusters) * sizeof ( uint16 );
        MOV     DPL,R4
        MOV     DPH,R5
        INC     DPTR
        INC     DPTR
        INC     DPTR
        INC     DPTR
        INC     DPTR
        INC     DPTR
        INC     DPTR
        INC     DPTR
        INC     DPTR
        MOVX    A,@DPTR
        MOV     DPL,R4
        MOV     DPH,R5
        INC     DPTR
        INC     DPTR
        INC     DPTR
        INC     DPTR
        INC     DPTR
        INC     DPTR
        MOV     R7,A
        MOVX    A,@DPTR
        ADD     A,R7
        CLR     C
        RLC     A
        ADD     A,#0xc
        MOV     ?V0 + 2,A
//  767   }
//  768   else
//  769   {
//  770     len = 2; // Status + desc length
//  771   }
//  772   if ( len >= ZDP_BUF_SZ-1 )
        CLR     C
        SUBB    A,#0x4f
        JC      ??ZDP_SimpleDescMsg_2
//  773   {
//  774     return afStatus_MEM_FAIL;
        MOV     R1,#-0x7f
        LJMP    ??ZDP_SimpleDescMsg_3 & 0xFFFF
//  775   }
??ZDP_SimpleDescMsg_0:
        MOV     ?V0 + 2,#0x2
//  776 
//  777   *pBuf++ = Status;
??ZDP_SimpleDescMsg_2:
        MOV     A,R6
        MOV     DPL,R0
        MOV     DPH,R1
        LCALL   ?Subroutine26 & 0xFFFF
//  778 
//  779   *pBuf++ = LO_UINT16( ZDAppNwkAddr.addr.shortAddr );
??CrossCallReturnLabel_137:
        MOV     DPTR,#ZDAppNwkAddr
        LCALL   ?Subroutine12 & 0xFFFF
//  780   *pBuf++ = HI_UINT16( ZDAppNwkAddr.addr.shortAddr );
??CrossCallReturnLabel_43:
        MOV     DPTR,#(ZDAppNwkAddr + 1)
        LCALL   ?Subroutine16 & 0xFFFF
??CrossCallReturnLabel_55:
        INC     DPTR
//  781 
//  782   if ( len > 2 )
        MOV     A,?V0 + 2
        CLR     C
        SUBB    A,#0x3
        JNC     $+5
        LJMP    ??ZDP_SimpleDescMsg_4 & 0xFFFF
//  783   {
//  784     *pBuf++ = len - 4;   // Simple descriptor length
        MOV     A,#-0x4
        ADD     A,?V0 + 2
        MOVX    @DPTR,A
        INC     DPTR
        INC     R0
        INC     R0
        MOV     R1,DPH
//  785 
//  786     *pBuf++ = pSimpleDesc->EndPoint;
        LCALL   ?Subroutine5 & 0xFFFF
//  787     *pBuf++ = LO_UINT16( pSimpleDesc->AppProfId );
??CrossCallReturnLabel_27:
        MOV     R6,DPL
        MOV     R7,DPH
        LCALL   ?Subroutine11 & 0xFFFF
//  788     *pBuf++ = HI_UINT16( pSimpleDesc->AppProfId );
??CrossCallReturnLabel_40:
        LCALL   ?Subroutine12 & 0xFFFF
//  789     *pBuf++ = LO_UINT16( pSimpleDesc->AppDeviceId );
??CrossCallReturnLabel_44:
        MOV     A,R4
        ADD     A,#0x3
        LCALL   ?Subroutine32 & 0xFFFF
??CrossCallReturnLabel_99:
        LCALL   ?Subroutine11 & 0xFFFF
//  790     *pBuf++ = HI_UINT16( pSimpleDesc->AppDeviceId );
??CrossCallReturnLabel_41:
        LCALL   ??Subroutine5_0 & 0xFFFF
//  791 
//  792     *pBuf++ = (byte)(pSimpleDesc->AppDevVer << 4);
??CrossCallReturnLabel_28:
        INC     DPTR
        INC     DPTR
        INC     DPTR
        INC     DPTR
        MOVX    A,@DPTR
        SWAP    A
        ANL     A,#0xf0
        MOV     DPL,R0
        MOV     DPH,R1
        MOVX    @DPTR,A
        INC     DPTR
        INC     R0
        MOV     R1,DPH
//  793 
//  794     *pBuf++ = pSimpleDesc->AppNumInClusters;
        MOV     A,R4
        ADD     A,#0x6
        INC     R6
        INC     R6
        INC     R6
        LCALL   ??Subroutine32_0 & 0xFFFF
??CrossCallReturnLabel_100:
        LCALL   ?Subroutine12 & 0xFFFF
//  795     if ( pSimpleDesc->AppNumInClusters )
??CrossCallReturnLabel_45:
        MOV     DPL,R6
        MOV     DPH,R7
        MOVX    A,@DPTR
        JZ      ??ZDP_SimpleDescMsg_5
//  796     {
//  797       for (i=0; i<pSimpleDesc->AppNumInClusters; ++i)
        MOV     ?V0 + 3,#0x0
        SJMP    ??CrossCallReturnLabel_0
//  798       {
//  799         *pBuf++ = LO_UINT16( pSimpleDesc->pAppInClusterList[i] );
??ZDP_SimpleDescMsg_6:
        MOV     A,?V0 + 3
        CLR     C
        RLC     A
        MOV     R6,A
        CLR     A
        RLC     A
        MOV     R7,A
        MOV     A,R4
        ADD     A,#0x7
        LCALL   ?Subroutine0 & 0xFFFF
//  800         *pBuf++ = HI_UINT16( pSimpleDesc->pAppInClusterList[i] );
//  801       }
??CrossCallReturnLabel_0:
        MOV     DPL,R4
        MOV     DPH,R5
        INC     DPTR
        INC     DPTR
        INC     DPTR
        INC     DPTR
        INC     DPTR
        INC     DPTR
        MOVX    A,@DPTR
        MOV     R6,A
        MOV     A,?V0 + 3
        CLR     C
        SUBB    A,R6
        JC      ??ZDP_SimpleDescMsg_6
//  802     }
//  803     
//  804     *pBuf++ = pSimpleDesc->AppNumOutClusters;
??ZDP_SimpleDescMsg_5:
        MOV     A,R4
        ADD     A,#0x9
        LCALL   ?Subroutine32 & 0xFFFF
??CrossCallReturnLabel_101:
        LCALL   ?Subroutine7 & 0xFFFF
//  805     if ( pSimpleDesc->AppNumOutClusters )
??CrossCallReturnLabel_33:
        MOV     DPL,R6
        MOV     DPH,R7
        MOVX    A,@DPTR
        JZ      ??ZDP_SimpleDescMsg_7
//  806     {
//  807       for (i=0; i<pSimpleDesc->AppNumOutClusters; ++i)
        MOV     ?V0 + 3,#0x0
??ZDP_SimpleDescMsg_8:
        MOV     DPL,R4
        MOV     DPH,R5
        INC     DPTR
        INC     DPTR
        INC     DPTR
        INC     DPTR
        INC     DPTR
        INC     DPTR
        INC     DPTR
        INC     DPTR
        INC     DPTR
        MOVX    A,@DPTR
        MOV     R6,A
        MOV     A,?V0 + 3
        CLR     C
        SUBB    A,R6
        JNC     ??ZDP_SimpleDescMsg_7
//  808       {
//  809         *pBuf++ = LO_UINT16( pSimpleDesc->pAppOutClusterList[i] );
        MOV     A,?V0 + 3
        CLR     C
        RLC     A
        MOV     R6,A
        CLR     A
        RLC     A
        MOV     R7,A
        MOV     A,R4
        ADD     A,#0xa
        LCALL   ?Subroutine0 & 0xFFFF
//  810         *pBuf++ = HI_UINT16( pSimpleDesc->pAppOutClusterList[i] );
//  811       }
??CrossCallReturnLabel_1:
        SJMP    ??ZDP_SimpleDescMsg_8
//  812     }
//  813   }
//  814   
//  815   else
//  816   {
//  817     *pBuf = 0; // Description Length = 0;
??ZDP_SimpleDescMsg_4:
        CLR     A
        MOVX    @DPTR,A
//  818   }
//  819 
//  820   return fillAndSend( &(inMsg->TransSeq), &(inMsg->srcAddr), Simple_Desc_rsp, len );
??ZDP_SimpleDescMsg_7:
        ; Setup parameters for call to function fillAndSend
        MOV     ?V0 + 0,#0x4
        MOV     ?V0 + 1,#-0x80
        MOV     R0,#?V0 + 0
        LCALL   ?PUSH_XSTACK_I_TWO
        CFI CFA_XSP16 add(XSP16, 16)
        MOV     R1,?V0 + 2
        LCALL   ?Subroutine30 & 0xFFFF
??CrossCallReturnLabel_149:
        LCALL   ?DEALLOC_XSTACK8
        CFI CFA_XSP16 add(XSP16, 14)
??ZDP_SimpleDescMsg_3:
        LJMP    ?Subroutine46 & 0xFFFF
        CFI EndBlock cfiBlock119
//  821 }

        RSEG BANKED_CODE:CODE:NOROOT(0)
?Subroutine32:
        CFI Block cfiCond120 Using cfiCommon0
        CFI NoFunction
        CFI Conditional ??CrossCallReturnLabel_99
        CFI R6 load(1, XDATA, add(CFA_XSP16, literal(-14)))
        CFI VB load(1, XDATA, add(CFA_XSP16, literal(-13)))
        CFI V0 load(1, XDATA, add(CFA_XSP16, literal(-12)))
        CFI V1 load(1, XDATA, add(CFA_XSP16, literal(-11)))
        CFI V2 load(1, XDATA, add(CFA_XSP16, literal(-10)))
        CFI V3 load(1, XDATA, add(CFA_XSP16, literal(-9)))
        CFI V4 load(1, XDATA, add(CFA_XSP16, literal(-8)))
        CFI V5 load(1, XDATA, add(CFA_XSP16, literal(-7)))
        CFI R7 load(1, XDATA, add(CFA_XSP16, literal(-6)))
        CFI ?RET_LOW load(1, XDATA, add(CFA_XSP16, literal(-5)))
        CFI ?RET_HIGH load(1, XDATA, add(CFA_XSP16, literal(-4)))
        CFI ?BRET_EXT load(1, XDATA, add(CFA_XSP16, literal(-3)))
        CFI DPL0 load(1, XDATA, add(CFA_XSP16, literal(-2)))
        CFI DPH0 load(1, XDATA, add(CFA_XSP16, literal(-1)))
        CFI CFA_SP SP+0
        CFI CFA_XSP16 add(XSP16, 14)
        CFI Block cfiCond121 Using cfiCommon0
        CFI (cfiCond121) NoFunction
        CFI (cfiCond121) Conditional ??CrossCallReturnLabel_101
        CFI (cfiCond121) R6 load(1, XDATA, add(CFA_XSP16, literal(-14)))
        CFI (cfiCond121) VB load(1, XDATA, add(CFA_XSP16, literal(-13)))
        CFI (cfiCond121) V0 load(1, XDATA, add(CFA_XSP16, literal(-12)))
        CFI (cfiCond121) V1 load(1, XDATA, add(CFA_XSP16, literal(-11)))
        CFI (cfiCond121) V2 load(1, XDATA, add(CFA_XSP16, literal(-10)))
        CFI (cfiCond121) V3 load(1, XDATA, add(CFA_XSP16, literal(-9)))
        CFI (cfiCond121) V4 load(1, XDATA, add(CFA_XSP16, literal(-8)))
        CFI (cfiCond121) V5 load(1, XDATA, add(CFA_XSP16, literal(-7)))
        CFI (cfiCond121) R7 load(1, XDATA, add(CFA_XSP16, literal(-6)))
        CFI (cfiCond121) ?RET_LOW load(1, XDATA, add(CFA_XSP16, literal(-5)))
        CFI (cfiCond121) ?RET_HIGH load(1, XDATA, add(CFA_XSP16, literal(-4)))
        CFI (cfiCond121) ?BRET_EXT load(1, XDATA, add(CFA_XSP16, literal(-3)))
        CFI (cfiCond121) DPL0 load(1, XDATA, add(CFA_XSP16, literal(-2)))
        CFI (cfiCond121) DPH0 load(1, XDATA, add(CFA_XSP16, literal(-1)))
        CFI (cfiCond121) CFA_SP SP+0
        CFI (cfiCond121) CFA_XSP16 add(XSP16, 14)
        CFI Block cfiPicker122 Using cfiCommon1
        CFI (cfiPicker122) NoFunction
        CFI (cfiPicker122) Picker
        MOV     R6,A
        CFI Block cfiCond123 Using cfiCommon0
        CFI (cfiCond123) NoFunction
        CFI (cfiCond123) Conditional ??CrossCallReturnLabel_100
        CFI (cfiCond123) R6 load(1, XDATA, add(CFA_XSP16, literal(-14)))
        CFI (cfiCond123) VB load(1, XDATA, add(CFA_XSP16, literal(-13)))
        CFI (cfiCond123) V0 load(1, XDATA, add(CFA_XSP16, literal(-12)))
        CFI (cfiCond123) V1 load(1, XDATA, add(CFA_XSP16, literal(-11)))
        CFI (cfiCond123) V2 load(1, XDATA, add(CFA_XSP16, literal(-10)))
        CFI (cfiCond123) V3 load(1, XDATA, add(CFA_XSP16, literal(-9)))
        CFI (cfiCond123) V4 load(1, XDATA, add(CFA_XSP16, literal(-8)))
        CFI (cfiCond123) V5 load(1, XDATA, add(CFA_XSP16, literal(-7)))
        CFI (cfiCond123) R7 load(1, XDATA, add(CFA_XSP16, literal(-6)))
        CFI (cfiCond123) ?RET_LOW load(1, XDATA, add(CFA_XSP16, literal(-5)))
        CFI (cfiCond123) ?RET_HIGH load(1, XDATA, add(CFA_XSP16, literal(-4)))
        CFI (cfiCond123) ?BRET_EXT load(1, XDATA, add(CFA_XSP16, literal(-3)))
        CFI (cfiCond123) DPL0 load(1, XDATA, add(CFA_XSP16, literal(-2)))
        CFI (cfiCond123) DPH0 load(1, XDATA, add(CFA_XSP16, literal(-1)))
        CFI (cfiCond123) CFA_SP SP+0
        CFI (cfiCond123) CFA_XSP16 add(XSP16, 14)
??Subroutine32_0:
        MOV     A,R5
        ADDC    A,#0x0
        MOV     R7,A
        MOV     DPL,R6
        MOV     DPH,R7
        RET
        CFI EndBlock cfiCond120
        CFI EndBlock cfiCond121
        CFI EndBlock cfiPicker122
        CFI EndBlock cfiCond123

        RSEG BANKED_CODE:CODE:NOROOT(0)
?Subroutine26:
        CFI Block cfiCond124 Using cfiCommon0
        CFI NoFunction
        CFI Conditional ??CrossCallReturnLabel_135
        CFI R6 load(1, XDATA, add(CFA_XSP16, literal(-16)))
        CFI VB load(1, XDATA, add(CFA_XSP16, literal(-15)))
        CFI V0 load(1, XDATA, add(CFA_XSP16, literal(-14)))
        CFI V1 load(1, XDATA, add(CFA_XSP16, literal(-13)))
        CFI V2 load(1, XDATA, add(CFA_XSP16, literal(-12)))
        CFI V3 load(1, XDATA, add(CFA_XSP16, literal(-11)))
        CFI V4 load(1, XDATA, add(CFA_XSP16, literal(-10)))
        CFI V5 load(1, XDATA, add(CFA_XSP16, literal(-9)))
        CFI V6 load(1, XDATA, add(CFA_XSP16, literal(-8)))
        CFI V7 load(1, XDATA, add(CFA_XSP16, literal(-7)))
        CFI R7 load(1, XDATA, add(CFA_XSP16, literal(-6)))
        CFI ?RET_LOW load(1, XDATA, add(CFA_XSP16, literal(-5)))
        CFI ?RET_HIGH load(1, XDATA, add(CFA_XSP16, literal(-4)))
        CFI ?BRET_EXT load(1, XDATA, add(CFA_XSP16, literal(-3)))
        CFI DPL0 load(1, XDATA, add(CFA_XSP16, literal(-2)))
        CFI DPH0 load(1, XDATA, add(CFA_XSP16, literal(-1)))
        CFI CFA_SP SP+0
        CFI CFA_XSP16 add(XSP16, 16)
        CFI Block cfiCond125 Using cfiCommon0
        CFI (cfiCond125) NoFunction
        CFI (cfiCond125) Conditional ??CrossCallReturnLabel_136
        CFI (cfiCond125) R6 load(1, XDATA, add(CFA_XSP16, literal(-16)))
        CFI (cfiCond125) VB load(1, XDATA, add(CFA_XSP16, literal(-15)))
        CFI (cfiCond125) V0 load(1, XDATA, add(CFA_XSP16, literal(-14)))
        CFI (cfiCond125) V1 load(1, XDATA, add(CFA_XSP16, literal(-13)))
        CFI (cfiCond125) V2 load(1, XDATA, add(CFA_XSP16, literal(-12)))
        CFI (cfiCond125) V3 load(1, XDATA, add(CFA_XSP16, literal(-11)))
        CFI (cfiCond125) V4 load(1, XDATA, add(CFA_XSP16, literal(-10)))
        CFI (cfiCond125) V5 load(1, XDATA, add(CFA_XSP16, literal(-9)))
        CFI (cfiCond125) V6 load(1, XDATA, add(CFA_XSP16, literal(-8)))
        CFI (cfiCond125) V7 load(1, XDATA, add(CFA_XSP16, literal(-7)))
        CFI (cfiCond125) R7 load(1, XDATA, add(CFA_XSP16, literal(-6)))
        CFI (cfiCond125) ?RET_LOW load(1, XDATA, add(CFA_XSP16, literal(-5)))
        CFI (cfiCond125) ?RET_HIGH load(1, XDATA, add(CFA_XSP16, literal(-4)))
        CFI (cfiCond125) ?BRET_EXT load(1, XDATA, add(CFA_XSP16, literal(-3)))
        CFI (cfiCond125) DPL0 load(1, XDATA, add(CFA_XSP16, literal(-2)))
        CFI (cfiCond125) DPH0 load(1, XDATA, add(CFA_XSP16, literal(-1)))
        CFI (cfiCond125) CFA_SP SP+0
        CFI (cfiCond125) CFA_XSP16 add(XSP16, 16)
        CFI Block cfiCond126 Using cfiCommon0
        CFI (cfiCond126) NoFunction
        CFI (cfiCond126) Conditional ??CrossCallReturnLabel_137
        CFI (cfiCond126) R6 load(1, XDATA, add(CFA_XSP16, literal(-14)))
        CFI (cfiCond126) VB load(1, XDATA, add(CFA_XSP16, literal(-13)))
        CFI (cfiCond126) V0 load(1, XDATA, add(CFA_XSP16, literal(-12)))
        CFI (cfiCond126) V1 load(1, XDATA, add(CFA_XSP16, literal(-11)))
        CFI (cfiCond126) V2 load(1, XDATA, add(CFA_XSP16, literal(-10)))
        CFI (cfiCond126) V3 load(1, XDATA, add(CFA_XSP16, literal(-9)))
        CFI (cfiCond126) V4 load(1, XDATA, add(CFA_XSP16, literal(-8)))
        CFI (cfiCond126) V5 load(1, XDATA, add(CFA_XSP16, literal(-7)))
        CFI (cfiCond126) R7 load(1, XDATA, add(CFA_XSP16, literal(-6)))
        CFI (cfiCond126) ?RET_LOW load(1, XDATA, add(CFA_XSP16, literal(-5)))
        CFI (cfiCond126) ?RET_HIGH load(1, XDATA, add(CFA_XSP16, literal(-4)))
        CFI (cfiCond126) ?BRET_EXT load(1, XDATA, add(CFA_XSP16, literal(-3)))
        CFI (cfiCond126) DPL0 load(1, XDATA, add(CFA_XSP16, literal(-2)))
        CFI (cfiCond126) DPH0 load(1, XDATA, add(CFA_XSP16, literal(-1)))
        CFI (cfiCond126) CFA_SP SP+0
        CFI (cfiCond126) CFA_XSP16 add(XSP16, 14)
        CFI Block cfiPicker127 Using cfiCommon1
        CFI (cfiPicker127) NoFunction
        CFI (cfiPicker127) Picker
        MOVX    @DPTR,A
        CFI EndBlock cfiCond124
        CFI EndBlock cfiCond125
        CFI EndBlock cfiCond126
        CFI EndBlock cfiPicker127
        REQUIRE ?Subroutine50
        ; // Fall through to label ?Subroutine50

        RSEG BANKED_CODE:CODE:NOROOT(0)
?Subroutine50:
        CFI Block cfiCond128 Using cfiCommon0
        CFI NoFunction
        CFI Conditional ??CrossCallReturnLabel_135
        CFI R6 load(1, XDATA, add(CFA_XSP16, literal(-16)))
        CFI VB load(1, XDATA, add(CFA_XSP16, literal(-15)))
        CFI V0 load(1, XDATA, add(CFA_XSP16, literal(-14)))
        CFI V1 load(1, XDATA, add(CFA_XSP16, literal(-13)))
        CFI V2 load(1, XDATA, add(CFA_XSP16, literal(-12)))
        CFI V3 load(1, XDATA, add(CFA_XSP16, literal(-11)))
        CFI V4 load(1, XDATA, add(CFA_XSP16, literal(-10)))
        CFI V5 load(1, XDATA, add(CFA_XSP16, literal(-9)))
        CFI V6 load(1, XDATA, add(CFA_XSP16, literal(-8)))
        CFI V7 load(1, XDATA, add(CFA_XSP16, literal(-7)))
        CFI R7 load(1, XDATA, add(CFA_XSP16, literal(-6)))
        CFI ?RET_LOW load(1, XDATA, add(CFA_XSP16, literal(-5)))
        CFI ?RET_HIGH load(1, XDATA, add(CFA_XSP16, literal(-4)))
        CFI ?BRET_EXT load(1, XDATA, add(CFA_XSP16, literal(-3)))
        CFI DPL0 load(1, XDATA, add(CFA_XSP16, literal(-2)))
        CFI DPH0 load(1, XDATA, add(CFA_XSP16, literal(-1)))
        CFI CFA_SP SP+0
        CFI CFA_XSP16 add(XSP16, 16)
        CFI Block cfiCond129 Using cfiCommon0
        CFI (cfiCond129) NoFunction
        CFI (cfiCond129) Conditional ??CrossCallReturnLabel_136
        CFI (cfiCond129) R6 load(1, XDATA, add(CFA_XSP16, literal(-16)))
        CFI (cfiCond129) VB load(1, XDATA, add(CFA_XSP16, literal(-15)))
        CFI (cfiCond129) V0 load(1, XDATA, add(CFA_XSP16, literal(-14)))
        CFI (cfiCond129) V1 load(1, XDATA, add(CFA_XSP16, literal(-13)))
        CFI (cfiCond129) V2 load(1, XDATA, add(CFA_XSP16, literal(-12)))
        CFI (cfiCond129) V3 load(1, XDATA, add(CFA_XSP16, literal(-11)))
        CFI (cfiCond129) V4 load(1, XDATA, add(CFA_XSP16, literal(-10)))
        CFI (cfiCond129) V5 load(1, XDATA, add(CFA_XSP16, literal(-9)))
        CFI (cfiCond129) V6 load(1, XDATA, add(CFA_XSP16, literal(-8)))
        CFI (cfiCond129) V7 load(1, XDATA, add(CFA_XSP16, literal(-7)))
        CFI (cfiCond129) R7 load(1, XDATA, add(CFA_XSP16, literal(-6)))
        CFI (cfiCond129) ?RET_LOW load(1, XDATA, add(CFA_XSP16, literal(-5)))
        CFI (cfiCond129) ?RET_HIGH load(1, XDATA, add(CFA_XSP16, literal(-4)))
        CFI (cfiCond129) ?BRET_EXT load(1, XDATA, add(CFA_XSP16, literal(-3)))
        CFI (cfiCond129) DPL0 load(1, XDATA, add(CFA_XSP16, literal(-2)))
        CFI (cfiCond129) DPH0 load(1, XDATA, add(CFA_XSP16, literal(-1)))
        CFI (cfiCond129) CFA_SP SP+0
        CFI (cfiCond129) CFA_XSP16 add(XSP16, 16)
        CFI Block cfiCond130 Using cfiCommon0
        CFI (cfiCond130) NoFunction
        CFI (cfiCond130) Conditional ??CrossCallReturnLabel_137
        CFI (cfiCond130) R6 load(1, XDATA, add(CFA_XSP16, literal(-14)))
        CFI (cfiCond130) VB load(1, XDATA, add(CFA_XSP16, literal(-13)))
        CFI (cfiCond130) V0 load(1, XDATA, add(CFA_XSP16, literal(-12)))
        CFI (cfiCond130) V1 load(1, XDATA, add(CFA_XSP16, literal(-11)))
        CFI (cfiCond130) V2 load(1, XDATA, add(CFA_XSP16, literal(-10)))
        CFI (cfiCond130) V3 load(1, XDATA, add(CFA_XSP16, literal(-9)))
        CFI (cfiCond130) V4 load(1, XDATA, add(CFA_XSP16, literal(-8)))
        CFI (cfiCond130) V5 load(1, XDATA, add(CFA_XSP16, literal(-7)))
        CFI (cfiCond130) R7 load(1, XDATA, add(CFA_XSP16, literal(-6)))
        CFI (cfiCond130) ?RET_LOW load(1, XDATA, add(CFA_XSP16, literal(-5)))
        CFI (cfiCond130) ?RET_HIGH load(1, XDATA, add(CFA_XSP16, literal(-4)))
        CFI (cfiCond130) ?BRET_EXT load(1, XDATA, add(CFA_XSP16, literal(-3)))
        CFI (cfiCond130) DPL0 load(1, XDATA, add(CFA_XSP16, literal(-2)))
        CFI (cfiCond130) DPH0 load(1, XDATA, add(CFA_XSP16, literal(-1)))
        CFI (cfiCond130) CFA_SP SP+0
        CFI (cfiCond130) CFA_XSP16 add(XSP16, 14)
        CFI Block cfiCond131 Using cfiCommon0
        CFI (cfiCond131) NoFunction
        CFI (cfiCond131) Conditional ??CrossCallReturnLabel_139, ??CrossCallReturnLabel_31
        CFI (cfiCond131) R6 load(1, XDATA, add(CFA_XSP16, literal(-16)))
        CFI (cfiCond131) VB load(1, XDATA, add(CFA_XSP16, literal(-15)))
        CFI (cfiCond131) V0 load(1, XDATA, add(CFA_XSP16, literal(-14)))
        CFI (cfiCond131) V1 load(1, XDATA, add(CFA_XSP16, literal(-13)))
        CFI (cfiCond131) V2 load(1, XDATA, add(CFA_XSP16, literal(-12)))
        CFI (cfiCond131) V3 load(1, XDATA, add(CFA_XSP16, literal(-11)))
        CFI (cfiCond131) V4 load(1, XDATA, add(CFA_XSP16, literal(-10)))
        CFI (cfiCond131) V5 load(1, XDATA, add(CFA_XSP16, literal(-9)))
        CFI (cfiCond131) V6 load(1, XDATA, add(CFA_XSP16, literal(-8)))
        CFI (cfiCond131) V7 load(1, XDATA, add(CFA_XSP16, literal(-7)))
        CFI (cfiCond131) R7 load(1, XDATA, add(CFA_XSP16, literal(-6)))
        CFI (cfiCond131) ?RET_LOW load(1, XDATA, add(CFA_XSP16, literal(-5)))
        CFI (cfiCond131) ?RET_HIGH load(1, XDATA, add(CFA_XSP16, literal(-4)))
        CFI (cfiCond131) ?BRET_EXT load(1, XDATA, add(CFA_XSP16, literal(-3)))
        CFI (cfiCond131) DPL0 load(1, XDATA, add(CFA_XSP16, literal(-2)))
        CFI (cfiCond131) DPH0 load(1, XDATA, add(CFA_XSP16, literal(-1)))
        CFI (cfiCond131) CFA_SP SP+0
        CFI (cfiCond131) CFA_XSP16 add(XSP16, 16)
        CFI Block cfiCond132 Using cfiCommon0
        CFI (cfiCond132) NoFunction
        CFI (cfiCond132) Conditional ??CrossCallReturnLabel_139, ??CrossCallReturnLabel_32
        CFI (cfiCond132) R6 load(1, XDATA, add(CFA_XSP16, literal(-16)))
        CFI (cfiCond132) VB load(1, XDATA, add(CFA_XSP16, literal(-15)))
        CFI (cfiCond132) V0 load(1, XDATA, add(CFA_XSP16, literal(-14)))
        CFI (cfiCond132) V1 load(1, XDATA, add(CFA_XSP16, literal(-13)))
        CFI (cfiCond132) V2 load(1, XDATA, add(CFA_XSP16, literal(-12)))
        CFI (cfiCond132) V3 load(1, XDATA, add(CFA_XSP16, literal(-11)))
        CFI (cfiCond132) V4 load(1, XDATA, add(CFA_XSP16, literal(-10)))
        CFI (cfiCond132) V5 load(1, XDATA, add(CFA_XSP16, literal(-9)))
        CFI (cfiCond132) V6 load(1, XDATA, add(CFA_XSP16, literal(-8)))
        CFI (cfiCond132) V7 load(1, XDATA, add(CFA_XSP16, literal(-7)))
        CFI (cfiCond132) R7 load(1, XDATA, add(CFA_XSP16, literal(-6)))
        CFI (cfiCond132) ?RET_LOW load(1, XDATA, add(CFA_XSP16, literal(-5)))
        CFI (cfiCond132) ?RET_HIGH load(1, XDATA, add(CFA_XSP16, literal(-4)))
        CFI (cfiCond132) ?BRET_EXT load(1, XDATA, add(CFA_XSP16, literal(-3)))
        CFI (cfiCond132) DPL0 load(1, XDATA, add(CFA_XSP16, literal(-2)))
        CFI (cfiCond132) DPH0 load(1, XDATA, add(CFA_XSP16, literal(-1)))
        CFI (cfiCond132) CFA_SP SP+0
        CFI (cfiCond132) CFA_XSP16 add(XSP16, 16)
        CFI Block cfiCond133 Using cfiCommon0
        CFI (cfiCond133) NoFunction
        CFI (cfiCond133) Conditional ??CrossCallReturnLabel_139, ??CrossCallReturnLabel_33
        CFI (cfiCond133) R6 load(1, XDATA, add(CFA_XSP16, literal(-14)))
        CFI (cfiCond133) VB load(1, XDATA, add(CFA_XSP16, literal(-13)))
        CFI (cfiCond133) V0 load(1, XDATA, add(CFA_XSP16, literal(-12)))
        CFI (cfiCond133) V1 load(1, XDATA, add(CFA_XSP16, literal(-11)))
        CFI (cfiCond133) V2 load(1, XDATA, add(CFA_XSP16, literal(-10)))
        CFI (cfiCond133) V3 load(1, XDATA, add(CFA_XSP16, literal(-9)))
        CFI (cfiCond133) V4 load(1, XDATA, add(CFA_XSP16, literal(-8)))
        CFI (cfiCond133) V5 load(1, XDATA, add(CFA_XSP16, literal(-7)))
        CFI (cfiCond133) R7 load(1, XDATA, add(CFA_XSP16, literal(-6)))
        CFI (cfiCond133) ?RET_LOW load(1, XDATA, add(CFA_XSP16, literal(-5)))
        CFI (cfiCond133) ?RET_HIGH load(1, XDATA, add(CFA_XSP16, literal(-4)))
        CFI (cfiCond133) ?BRET_EXT load(1, XDATA, add(CFA_XSP16, literal(-3)))
        CFI (cfiCond133) DPL0 load(1, XDATA, add(CFA_XSP16, literal(-2)))
        CFI (cfiCond133) DPH0 load(1, XDATA, add(CFA_XSP16, literal(-1)))
        CFI (cfiCond133) CFA_SP SP+0
        CFI (cfiCond133) CFA_XSP16 add(XSP16, 14)
        CFI Block cfiCond134 Using cfiCommon0
        CFI (cfiCond134) NoFunction
        CFI (cfiCond134) Conditional ??CrossCallReturnLabel_138, ??CrossCallReturnLabel_0
        CFI (cfiCond134) R6 load(1, XDATA, add(CFA_XSP16, literal(-14)))
        CFI (cfiCond134) VB load(1, XDATA, add(CFA_XSP16, literal(-13)))
        CFI (cfiCond134) V0 load(1, XDATA, add(CFA_XSP16, literal(-12)))
        CFI (cfiCond134) V1 load(1, XDATA, add(CFA_XSP16, literal(-11)))
        CFI (cfiCond134) V2 load(1, XDATA, add(CFA_XSP16, literal(-10)))
        CFI (cfiCond134) V3 load(1, XDATA, add(CFA_XSP16, literal(-9)))
        CFI (cfiCond134) V4 load(1, XDATA, add(CFA_XSP16, literal(-8)))
        CFI (cfiCond134) V5 load(1, XDATA, add(CFA_XSP16, literal(-7)))
        CFI (cfiCond134) R7 load(1, XDATA, add(CFA_XSP16, literal(-6)))
        CFI (cfiCond134) ?RET_LOW load(1, XDATA, add(CFA_XSP16, literal(-5)))
        CFI (cfiCond134) ?RET_HIGH load(1, XDATA, add(CFA_XSP16, literal(-4)))
        CFI (cfiCond134) ?BRET_EXT load(1, XDATA, add(CFA_XSP16, literal(-3)))
        CFI (cfiCond134) DPL0 load(1, XDATA, add(CFA_XSP16, literal(-2)))
        CFI (cfiCond134) DPH0 load(1, XDATA, add(CFA_XSP16, literal(-1)))
        CFI (cfiCond134) CFA_SP SP+0
        CFI (cfiCond134) CFA_XSP16 add(XSP16, 14)
        CFI Block cfiCond135 Using cfiCommon0
        CFI (cfiCond135) NoFunction
        CFI (cfiCond135) Conditional ??CrossCallReturnLabel_138, ??CrossCallReturnLabel_1
        CFI (cfiCond135) R6 load(1, XDATA, add(CFA_XSP16, literal(-14)))
        CFI (cfiCond135) VB load(1, XDATA, add(CFA_XSP16, literal(-13)))
        CFI (cfiCond135) V0 load(1, XDATA, add(CFA_XSP16, literal(-12)))
        CFI (cfiCond135) V1 load(1, XDATA, add(CFA_XSP16, literal(-11)))
        CFI (cfiCond135) V2 load(1, XDATA, add(CFA_XSP16, literal(-10)))
        CFI (cfiCond135) V3 load(1, XDATA, add(CFA_XSP16, literal(-9)))
        CFI (cfiCond135) V4 load(1, XDATA, add(CFA_XSP16, literal(-8)))
        CFI (cfiCond135) V5 load(1, XDATA, add(CFA_XSP16, literal(-7)))
        CFI (cfiCond135) R7 load(1, XDATA, add(CFA_XSP16, literal(-6)))
        CFI (cfiCond135) ?RET_LOW load(1, XDATA, add(CFA_XSP16, literal(-5)))
        CFI (cfiCond135) ?RET_HIGH load(1, XDATA, add(CFA_XSP16, literal(-4)))
        CFI (cfiCond135) ?BRET_EXT load(1, XDATA, add(CFA_XSP16, literal(-3)))
        CFI (cfiCond135) DPL0 load(1, XDATA, add(CFA_XSP16, literal(-2)))
        CFI (cfiCond135) DPH0 load(1, XDATA, add(CFA_XSP16, literal(-1)))
        CFI (cfiCond135) CFA_SP SP+0
        CFI (cfiCond135) CFA_XSP16 add(XSP16, 14)
        CFI Block cfiPicker136 Using cfiCommon1
        CFI (cfiPicker136) NoFunction
        CFI (cfiPicker136) Picker
        INC     DPTR
        MOV     R0,DPL
        MOV     R1,DPH
        RET
        CFI EndBlock cfiCond128
        CFI EndBlock cfiCond129
        CFI EndBlock cfiCond130
        CFI EndBlock cfiCond131
        CFI EndBlock cfiCond132
        CFI EndBlock cfiCond133
        CFI EndBlock cfiCond134
        CFI EndBlock cfiCond135
        CFI EndBlock cfiPicker136

        RSEG BANKED_CODE:CODE:NOROOT(0)
?Subroutine12:
        CFI Block cfiCond137 Using cfiCommon0
        CFI NoFunction
        CFI Conditional ??CrossCallReturnLabel_42
        CFI R6 load(1, XDATA, add(CFA_XSP16, literal(-10)))
        CFI VB load(1, XDATA, add(CFA_XSP16, literal(-9)))
        CFI V0 load(1, XDATA, add(CFA_XSP16, literal(-8)))
        CFI V1 load(1, XDATA, add(CFA_XSP16, literal(-7)))
        CFI R7 load(1, XDATA, add(CFA_XSP16, literal(-6)))
        CFI ?RET_LOW load(1, XDATA, add(CFA_XSP16, literal(-5)))
        CFI ?RET_HIGH load(1, XDATA, add(CFA_XSP16, literal(-4)))
        CFI ?BRET_EXT load(1, XDATA, add(CFA_XSP16, literal(-3)))
        CFI DPL0 load(1, XDATA, add(CFA_XSP16, literal(-2)))
        CFI DPH0 load(1, XDATA, add(CFA_XSP16, literal(-1)))
        CFI CFA_SP SP+0
        CFI CFA_XSP16 add(XSP16, 10)
        CFI Block cfiCond138 Using cfiCommon0
        CFI (cfiCond138) NoFunction
        CFI (cfiCond138) Conditional ??CrossCallReturnLabel_43
        CFI (cfiCond138) R6 load(1, XDATA, add(CFA_XSP16, literal(-14)))
        CFI (cfiCond138) VB load(1, XDATA, add(CFA_XSP16, literal(-13)))
        CFI (cfiCond138) V0 load(1, XDATA, add(CFA_XSP16, literal(-12)))
        CFI (cfiCond138) V1 load(1, XDATA, add(CFA_XSP16, literal(-11)))
        CFI (cfiCond138) V2 load(1, XDATA, add(CFA_XSP16, literal(-10)))
        CFI (cfiCond138) V3 load(1, XDATA, add(CFA_XSP16, literal(-9)))
        CFI (cfiCond138) V4 load(1, XDATA, add(CFA_XSP16, literal(-8)))
        CFI (cfiCond138) V5 load(1, XDATA, add(CFA_XSP16, literal(-7)))
        CFI (cfiCond138) R7 load(1, XDATA, add(CFA_XSP16, literal(-6)))
        CFI (cfiCond138) ?RET_LOW load(1, XDATA, add(CFA_XSP16, literal(-5)))
        CFI (cfiCond138) ?RET_HIGH load(1, XDATA, add(CFA_XSP16, literal(-4)))
        CFI (cfiCond138) ?BRET_EXT load(1, XDATA, add(CFA_XSP16, literal(-3)))
        CFI (cfiCond138) DPL0 load(1, XDATA, add(CFA_XSP16, literal(-2)))
        CFI (cfiCond138) DPH0 load(1, XDATA, add(CFA_XSP16, literal(-1)))
        CFI (cfiCond138) CFA_SP SP+0
        CFI (cfiCond138) CFA_XSP16 add(XSP16, 14)
        CFI Block cfiCond139 Using cfiCommon0
        CFI (cfiCond139) NoFunction
        CFI (cfiCond139) Conditional ??CrossCallReturnLabel_44
        CFI (cfiCond139) R6 load(1, XDATA, add(CFA_XSP16, literal(-14)))
        CFI (cfiCond139) VB load(1, XDATA, add(CFA_XSP16, literal(-13)))
        CFI (cfiCond139) V0 load(1, XDATA, add(CFA_XSP16, literal(-12)))
        CFI (cfiCond139) V1 load(1, XDATA, add(CFA_XSP16, literal(-11)))
        CFI (cfiCond139) V2 load(1, XDATA, add(CFA_XSP16, literal(-10)))
        CFI (cfiCond139) V3 load(1, XDATA, add(CFA_XSP16, literal(-9)))
        CFI (cfiCond139) V4 load(1, XDATA, add(CFA_XSP16, literal(-8)))
        CFI (cfiCond139) V5 load(1, XDATA, add(CFA_XSP16, literal(-7)))
        CFI (cfiCond139) R7 load(1, XDATA, add(CFA_XSP16, literal(-6)))
        CFI (cfiCond139) ?RET_LOW load(1, XDATA, add(CFA_XSP16, literal(-5)))
        CFI (cfiCond139) ?RET_HIGH load(1, XDATA, add(CFA_XSP16, literal(-4)))
        CFI (cfiCond139) ?BRET_EXT load(1, XDATA, add(CFA_XSP16, literal(-3)))
        CFI (cfiCond139) DPL0 load(1, XDATA, add(CFA_XSP16, literal(-2)))
        CFI (cfiCond139) DPH0 load(1, XDATA, add(CFA_XSP16, literal(-1)))
        CFI (cfiCond139) CFA_SP SP+0
        CFI (cfiCond139) CFA_XSP16 add(XSP16, 14)
        CFI Block cfiCond140 Using cfiCommon0
        CFI (cfiCond140) NoFunction
        CFI (cfiCond140) Conditional ??CrossCallReturnLabel_45
        CFI (cfiCond140) R6 load(1, XDATA, add(CFA_XSP16, literal(-14)))
        CFI (cfiCond140) VB load(1, XDATA, add(CFA_XSP16, literal(-13)))
        CFI (cfiCond140) V0 load(1, XDATA, add(CFA_XSP16, literal(-12)))
        CFI (cfiCond140) V1 load(1, XDATA, add(CFA_XSP16, literal(-11)))
        CFI (cfiCond140) V2 load(1, XDATA, add(CFA_XSP16, literal(-10)))
        CFI (cfiCond140) V3 load(1, XDATA, add(CFA_XSP16, literal(-9)))
        CFI (cfiCond140) V4 load(1, XDATA, add(CFA_XSP16, literal(-8)))
        CFI (cfiCond140) V5 load(1, XDATA, add(CFA_XSP16, literal(-7)))
        CFI (cfiCond140) R7 load(1, XDATA, add(CFA_XSP16, literal(-6)))
        CFI (cfiCond140) ?RET_LOW load(1, XDATA, add(CFA_XSP16, literal(-5)))
        CFI (cfiCond140) ?RET_HIGH load(1, XDATA, add(CFA_XSP16, literal(-4)))
        CFI (cfiCond140) ?BRET_EXT load(1, XDATA, add(CFA_XSP16, literal(-3)))
        CFI (cfiCond140) DPL0 load(1, XDATA, add(CFA_XSP16, literal(-2)))
        CFI (cfiCond140) DPH0 load(1, XDATA, add(CFA_XSP16, literal(-1)))
        CFI (cfiCond140) CFA_SP SP+0
        CFI (cfiCond140) CFA_XSP16 add(XSP16, 14)
        CFI Block cfiPicker141 Using cfiCommon1
        CFI (cfiPicker141) NoFunction
        CFI (cfiPicker141) Picker
        LCALL   ??Subroutine35_0 & 0xFFFF
??CrossCallReturnLabel_109:
        RET
        CFI EndBlock cfiCond137
        CFI EndBlock cfiCond138
        CFI EndBlock cfiCond139
        CFI EndBlock cfiCond140
        CFI EndBlock cfiPicker141

        RSEG BANKED_CODE:CODE:NOROOT(0)
?Subroutine11:
        CFI Block cfiCond142 Using cfiCommon0
        CFI NoFunction
        CFI Conditional ??CrossCallReturnLabel_40
        CFI R6 load(1, XDATA, add(CFA_XSP16, literal(-14)))
        CFI VB load(1, XDATA, add(CFA_XSP16, literal(-13)))
        CFI V0 load(1, XDATA, add(CFA_XSP16, literal(-12)))
        CFI V1 load(1, XDATA, add(CFA_XSP16, literal(-11)))
        CFI V2 load(1, XDATA, add(CFA_XSP16, literal(-10)))
        CFI V3 load(1, XDATA, add(CFA_XSP16, literal(-9)))
        CFI V4 load(1, XDATA, add(CFA_XSP16, literal(-8)))
        CFI V5 load(1, XDATA, add(CFA_XSP16, literal(-7)))
        CFI R7 load(1, XDATA, add(CFA_XSP16, literal(-6)))
        CFI ?RET_LOW load(1, XDATA, add(CFA_XSP16, literal(-5)))
        CFI ?RET_HIGH load(1, XDATA, add(CFA_XSP16, literal(-4)))
        CFI ?BRET_EXT load(1, XDATA, add(CFA_XSP16, literal(-3)))
        CFI DPL0 load(1, XDATA, add(CFA_XSP16, literal(-2)))
        CFI DPH0 load(1, XDATA, add(CFA_XSP16, literal(-1)))
        CFI CFA_SP SP+0
        CFI CFA_XSP16 add(XSP16, 14)
        CFI Block cfiCond143 Using cfiCommon0
        CFI (cfiCond143) NoFunction
        CFI (cfiCond143) Conditional ??CrossCallReturnLabel_41
        CFI (cfiCond143) R6 load(1, XDATA, add(CFA_XSP16, literal(-14)))
        CFI (cfiCond143) VB load(1, XDATA, add(CFA_XSP16, literal(-13)))
        CFI (cfiCond143) V0 load(1, XDATA, add(CFA_XSP16, literal(-12)))
        CFI (cfiCond143) V1 load(1, XDATA, add(CFA_XSP16, literal(-11)))
        CFI (cfiCond143) V2 load(1, XDATA, add(CFA_XSP16, literal(-10)))
        CFI (cfiCond143) V3 load(1, XDATA, add(CFA_XSP16, literal(-9)))
        CFI (cfiCond143) V4 load(1, XDATA, add(CFA_XSP16, literal(-8)))
        CFI (cfiCond143) V5 load(1, XDATA, add(CFA_XSP16, literal(-7)))
        CFI (cfiCond143) R7 load(1, XDATA, add(CFA_XSP16, literal(-6)))
        CFI (cfiCond143) ?RET_LOW load(1, XDATA, add(CFA_XSP16, literal(-5)))
        CFI (cfiCond143) ?RET_HIGH load(1, XDATA, add(CFA_XSP16, literal(-4)))
        CFI (cfiCond143) ?BRET_EXT load(1, XDATA, add(CFA_XSP16, literal(-3)))
        CFI (cfiCond143) DPL0 load(1, XDATA, add(CFA_XSP16, literal(-2)))
        CFI (cfiCond143) DPH0 load(1, XDATA, add(CFA_XSP16, literal(-1)))
        CFI (cfiCond143) CFA_SP SP+0
        CFI (cfiCond143) CFA_XSP16 add(XSP16, 14)
        CFI Block cfiPicker144 Using cfiCommon1
        CFI (cfiPicker144) NoFunction
        CFI (cfiPicker144) Picker
        LCALL   ?Subroutine34 & 0xFFFF
??CrossCallReturnLabel_105:
        RET
        CFI EndBlock cfiCond142
        CFI EndBlock cfiCond143
        CFI EndBlock cfiPicker144

        RSEG BANKED_CODE:CODE:NOROOT(0)
?Subroutine34:
        CFI Block cfiCond145 Using cfiCommon0
        CFI NoFunction
        CFI Conditional ??CrossCallReturnLabel_104, ??CrossCallReturnLabel_36
        CFI R6 load(1, XDATA, add(CFA_XSP16, literal(-10)))
        CFI VB load(1, XDATA, add(CFA_XSP16, literal(-9)))
        CFI V0 load(1, XDATA, add(CFA_XSP16, literal(-8)))
        CFI V1 load(1, XDATA, add(CFA_XSP16, literal(-7)))
        CFI R7 load(1, XDATA, add(CFA_XSP16, literal(-6)))
        CFI ?RET_LOW load(1, XDATA, add(CFA_XSP16, literal(-5)))
        CFI ?RET_HIGH load(1, XDATA, add(CFA_XSP16, literal(-4)))
        CFI ?BRET_EXT load(1, XDATA, add(CFA_XSP16, literal(-3)))
        CFI DPL0 load(1, XDATA, add(CFA_XSP16, literal(-2)))
        CFI DPH0 load(1, XDATA, add(CFA_XSP16, literal(-1)))
        CFI CFA_SP SP+0
        CFI CFA_XSP16 add(XSP16, 10)
        CFI Block cfiCond146 Using cfiCommon0
        CFI (cfiCond146) NoFunction
        CFI (cfiCond146) Conditional ??CrossCallReturnLabel_104, ??CrossCallReturnLabel_37
        CFI (cfiCond146) R6 load(1, XDATA, add(CFA_XSP16, literal(-10)))
        CFI (cfiCond146) VB load(1, XDATA, add(CFA_XSP16, literal(-9)))
        CFI (cfiCond146) V0 load(1, XDATA, add(CFA_XSP16, literal(-8)))
        CFI (cfiCond146) V1 load(1, XDATA, add(CFA_XSP16, literal(-7)))
        CFI (cfiCond146) R7 load(1, XDATA, add(CFA_XSP16, literal(-6)))
        CFI (cfiCond146) ?RET_LOW load(1, XDATA, add(CFA_XSP16, literal(-5)))
        CFI (cfiCond146) ?RET_HIGH load(1, XDATA, add(CFA_XSP16, literal(-4)))
        CFI (cfiCond146) ?BRET_EXT load(1, XDATA, add(CFA_XSP16, literal(-3)))
        CFI (cfiCond146) DPL0 load(1, XDATA, add(CFA_XSP16, literal(-2)))
        CFI (cfiCond146) DPH0 load(1, XDATA, add(CFA_XSP16, literal(-1)))
        CFI (cfiCond146) CFA_SP SP+0
        CFI (cfiCond146) CFA_XSP16 add(XSP16, 10)
        CFI Block cfiCond147 Using cfiCommon0
        CFI (cfiCond147) NoFunction
        CFI (cfiCond147) Conditional ??CrossCallReturnLabel_105, ??CrossCallReturnLabel_40
        CFI (cfiCond147) R6 load(1, XDATA, add(CFA_XSP16, literal(-14)))
        CFI (cfiCond147) VB load(1, XDATA, add(CFA_XSP16, literal(-13)))
        CFI (cfiCond147) V0 load(1, XDATA, add(CFA_XSP16, literal(-12)))
        CFI (cfiCond147) V1 load(1, XDATA, add(CFA_XSP16, literal(-11)))
        CFI (cfiCond147) V2 load(1, XDATA, add(CFA_XSP16, literal(-10)))
        CFI (cfiCond147) V3 load(1, XDATA, add(CFA_XSP16, literal(-9)))
        CFI (cfiCond147) V4 load(1, XDATA, add(CFA_XSP16, literal(-8)))
        CFI (cfiCond147) V5 load(1, XDATA, add(CFA_XSP16, literal(-7)))
        CFI (cfiCond147) R7 load(1, XDATA, add(CFA_XSP16, literal(-6)))
        CFI (cfiCond147) ?RET_LOW load(1, XDATA, add(CFA_XSP16, literal(-5)))
        CFI (cfiCond147) ?RET_HIGH load(1, XDATA, add(CFA_XSP16, literal(-4)))
        CFI (cfiCond147) ?BRET_EXT load(1, XDATA, add(CFA_XSP16, literal(-3)))
        CFI (cfiCond147) DPL0 load(1, XDATA, add(CFA_XSP16, literal(-2)))
        CFI (cfiCond147) DPH0 load(1, XDATA, add(CFA_XSP16, literal(-1)))
        CFI (cfiCond147) CFA_SP SP+0
        CFI (cfiCond147) CFA_XSP16 add(XSP16, 14)
        CFI Block cfiCond148 Using cfiCommon0
        CFI (cfiCond148) NoFunction
        CFI (cfiCond148) Conditional ??CrossCallReturnLabel_105, ??CrossCallReturnLabel_41
        CFI (cfiCond148) R6 load(1, XDATA, add(CFA_XSP16, literal(-14)))
        CFI (cfiCond148) VB load(1, XDATA, add(CFA_XSP16, literal(-13)))
        CFI (cfiCond148) V0 load(1, XDATA, add(CFA_XSP16, literal(-12)))
        CFI (cfiCond148) V1 load(1, XDATA, add(CFA_XSP16, literal(-11)))
        CFI (cfiCond148) V2 load(1, XDATA, add(CFA_XSP16, literal(-10)))
        CFI (cfiCond148) V3 load(1, XDATA, add(CFA_XSP16, literal(-9)))
        CFI (cfiCond148) V4 load(1, XDATA, add(CFA_XSP16, literal(-8)))
        CFI (cfiCond148) V5 load(1, XDATA, add(CFA_XSP16, literal(-7)))
        CFI (cfiCond148) R7 load(1, XDATA, add(CFA_XSP16, literal(-6)))
        CFI (cfiCond148) ?RET_LOW load(1, XDATA, add(CFA_XSP16, literal(-5)))
        CFI (cfiCond148) ?RET_HIGH load(1, XDATA, add(CFA_XSP16, literal(-4)))
        CFI (cfiCond148) ?BRET_EXT load(1, XDATA, add(CFA_XSP16, literal(-3)))
        CFI (cfiCond148) DPL0 load(1, XDATA, add(CFA_XSP16, literal(-2)))
        CFI (cfiCond148) DPH0 load(1, XDATA, add(CFA_XSP16, literal(-1)))
        CFI (cfiCond148) CFA_SP SP+0
        CFI (cfiCond148) CFA_XSP16 add(XSP16, 14)
        CFI Block cfiPicker149 Using cfiCommon1
        CFI (cfiPicker149) NoFunction
        CFI (cfiPicker149) Picker
        LCALL   ?Subroutine42 & 0xFFFF
??CrossCallReturnLabel_122:
        RET
        CFI EndBlock cfiCond145
        CFI EndBlock cfiCond146
        CFI EndBlock cfiCond147
        CFI EndBlock cfiCond148
        CFI EndBlock cfiPicker149

        RSEG BANKED_CODE:CODE:NOROOT(0)
?Subroutine42:
        CFI Block cfiCond150 Using cfiCommon0
        CFI NoFunction
        CFI Conditional ??CrossCallReturnLabel_121, ??CrossCallReturnLabel_102, ??CrossCallReturnLabel_34
        CFI R6 load(1, XDATA, add(CFA_XSP16, literal(-10)))
        CFI VB load(1, XDATA, add(CFA_XSP16, literal(-9)))
        CFI V0 load(1, XDATA, add(CFA_XSP16, literal(-8)))
        CFI V1 load(1, XDATA, add(CFA_XSP16, literal(-7)))
        CFI R7 load(1, XDATA, add(CFA_XSP16, literal(-6)))
        CFI ?RET_LOW load(1, XDATA, add(CFA_XSP16, literal(-5)))
        CFI ?RET_HIGH load(1, XDATA, add(CFA_XSP16, literal(-4)))
        CFI ?BRET_EXT load(1, XDATA, add(CFA_XSP16, literal(-3)))
        CFI DPL0 load(1, XDATA, add(CFA_XSP16, literal(-2)))
        CFI DPH0 load(1, XDATA, add(CFA_XSP16, literal(-1)))
        CFI CFA_SP SP+0
        CFI CFA_XSP16 add(XSP16, 10)
        CFI Block cfiCond151 Using cfiCommon0
        CFI (cfiCond151) NoFunction
        CFI (cfiCond151) Conditional ??CrossCallReturnLabel_121, ??CrossCallReturnLabel_102, ??CrossCallReturnLabel_35
        CFI (cfiCond151) R6 load(1, XDATA, add(CFA_XSP16, literal(-10)))
        CFI (cfiCond151) VB load(1, XDATA, add(CFA_XSP16, literal(-9)))
        CFI (cfiCond151) V0 load(1, XDATA, add(CFA_XSP16, literal(-8)))
        CFI (cfiCond151) V1 load(1, XDATA, add(CFA_XSP16, literal(-7)))
        CFI (cfiCond151) R7 load(1, XDATA, add(CFA_XSP16, literal(-6)))
        CFI (cfiCond151) ?RET_LOW load(1, XDATA, add(CFA_XSP16, literal(-5)))
        CFI (cfiCond151) ?RET_HIGH load(1, XDATA, add(CFA_XSP16, literal(-4)))
        CFI (cfiCond151) ?BRET_EXT load(1, XDATA, add(CFA_XSP16, literal(-3)))
        CFI (cfiCond151) DPL0 load(1, XDATA, add(CFA_XSP16, literal(-2)))
        CFI (cfiCond151) DPH0 load(1, XDATA, add(CFA_XSP16, literal(-1)))
        CFI (cfiCond151) CFA_SP SP+0
        CFI (cfiCond151) CFA_XSP16 add(XSP16, 10)
        CFI Block cfiCond152 Using cfiCommon0
        CFI (cfiCond152) NoFunction
        CFI (cfiCond152) Conditional ??CrossCallReturnLabel_121, ??CrossCallReturnLabel_103, ??CrossCallReturnLabel_29
        CFI (cfiCond152) R6 load(1, XDATA, add(CFA_XSP16, literal(-10)))
        CFI (cfiCond152) VB load(1, XDATA, add(CFA_XSP16, literal(-9)))
        CFI (cfiCond152) V0 load(1, XDATA, add(CFA_XSP16, literal(-8)))
        CFI (cfiCond152) V1 load(1, XDATA, add(CFA_XSP16, literal(-7)))
        CFI (cfiCond152) R7 load(1, XDATA, add(CFA_XSP16, literal(-6)))
        CFI (cfiCond152) ?RET_LOW load(1, XDATA, add(CFA_XSP16, literal(-5)))
        CFI (cfiCond152) ?RET_HIGH load(1, XDATA, add(CFA_XSP16, literal(-4)))
        CFI (cfiCond152) ?BRET_EXT load(1, XDATA, add(CFA_XSP16, literal(-3)))
        CFI (cfiCond152) DPL0 load(1, XDATA, add(CFA_XSP16, literal(-2)))
        CFI (cfiCond152) DPH0 load(1, XDATA, add(CFA_XSP16, literal(-1)))
        CFI (cfiCond152) CFA_SP SP+0
        CFI (cfiCond152) CFA_XSP16 add(XSP16, 10)
        CFI Block cfiCond153 Using cfiCommon0
        CFI (cfiCond153) NoFunction
        CFI (cfiCond153) Conditional ??CrossCallReturnLabel_121, ??CrossCallReturnLabel_103, ??CrossCallReturnLabel_30
        CFI (cfiCond153) R6 load(1, XDATA, add(CFA_XSP16, literal(-10)))
        CFI (cfiCond153) VB load(1, XDATA, add(CFA_XSP16, literal(-9)))
        CFI (cfiCond153) V0 load(1, XDATA, add(CFA_XSP16, literal(-8)))
        CFI (cfiCond153) V1 load(1, XDATA, add(CFA_XSP16, literal(-7)))
        CFI (cfiCond153) R7 load(1, XDATA, add(CFA_XSP16, literal(-6)))
        CFI (cfiCond153) ?RET_LOW load(1, XDATA, add(CFA_XSP16, literal(-5)))
        CFI (cfiCond153) ?RET_HIGH load(1, XDATA, add(CFA_XSP16, literal(-4)))
        CFI (cfiCond153) ?BRET_EXT load(1, XDATA, add(CFA_XSP16, literal(-3)))
        CFI (cfiCond153) DPL0 load(1, XDATA, add(CFA_XSP16, literal(-2)))
        CFI (cfiCond153) DPH0 load(1, XDATA, add(CFA_XSP16, literal(-1)))
        CFI (cfiCond153) CFA_SP SP+0
        CFI (cfiCond153) CFA_XSP16 add(XSP16, 10)
        CFI Block cfiCond154 Using cfiCommon0
        CFI (cfiCond154) NoFunction
        CFI (cfiCond154) Conditional ??CrossCallReturnLabel_122, ??CrossCallReturnLabel_104, ??CrossCallReturnLabel_36
        CFI (cfiCond154) R6 load(1, XDATA, add(CFA_XSP16, literal(-10)))
        CFI (cfiCond154) VB load(1, XDATA, add(CFA_XSP16, literal(-9)))
        CFI (cfiCond154) V0 load(1, XDATA, add(CFA_XSP16, literal(-8)))
        CFI (cfiCond154) V1 load(1, XDATA, add(CFA_XSP16, literal(-7)))
        CFI (cfiCond154) R7 load(1, XDATA, add(CFA_XSP16, literal(-6)))
        CFI (cfiCond154) ?RET_LOW load(1, XDATA, add(CFA_XSP16, literal(-5)))
        CFI (cfiCond154) ?RET_HIGH load(1, XDATA, add(CFA_XSP16, literal(-4)))
        CFI (cfiCond154) ?BRET_EXT load(1, XDATA, add(CFA_XSP16, literal(-3)))
        CFI (cfiCond154) DPL0 load(1, XDATA, add(CFA_XSP16, literal(-2)))
        CFI (cfiCond154) DPH0 load(1, XDATA, add(CFA_XSP16, literal(-1)))
        CFI (cfiCond154) CFA_SP SP+0
        CFI (cfiCond154) CFA_XSP16 add(XSP16, 10)
        CFI Block cfiCond155 Using cfiCommon0
        CFI (cfiCond155) NoFunction
        CFI (cfiCond155) Conditional ??CrossCallReturnLabel_122, ??CrossCallReturnLabel_104, ??CrossCallReturnLabel_37
        CFI (cfiCond155) R6 load(1, XDATA, add(CFA_XSP16, literal(-10)))
        CFI (cfiCond155) VB load(1, XDATA, add(CFA_XSP16, literal(-9)))
        CFI (cfiCond155) V0 load(1, XDATA, add(CFA_XSP16, literal(-8)))
        CFI (cfiCond155) V1 load(1, XDATA, add(CFA_XSP16, literal(-7)))
        CFI (cfiCond155) R7 load(1, XDATA, add(CFA_XSP16, literal(-6)))
        CFI (cfiCond155) ?RET_LOW load(1, XDATA, add(CFA_XSP16, literal(-5)))
        CFI (cfiCond155) ?RET_HIGH load(1, XDATA, add(CFA_XSP16, literal(-4)))
        CFI (cfiCond155) ?BRET_EXT load(1, XDATA, add(CFA_XSP16, literal(-3)))
        CFI (cfiCond155) DPL0 load(1, XDATA, add(CFA_XSP16, literal(-2)))
        CFI (cfiCond155) DPH0 load(1, XDATA, add(CFA_XSP16, literal(-1)))
        CFI (cfiCond155) CFA_SP SP+0
        CFI (cfiCond155) CFA_XSP16 add(XSP16, 10)
        CFI Block cfiCond156 Using cfiCommon0
        CFI (cfiCond156) NoFunction
        CFI (cfiCond156) Conditional ??CrossCallReturnLabel_122, ??CrossCallReturnLabel_105, ??CrossCallReturnLabel_40
        CFI (cfiCond156) R6 load(1, XDATA, add(CFA_XSP16, literal(-14)))
        CFI (cfiCond156) VB load(1, XDATA, add(CFA_XSP16, literal(-13)))
        CFI (cfiCond156) V0 load(1, XDATA, add(CFA_XSP16, literal(-12)))
        CFI (cfiCond156) V1 load(1, XDATA, add(CFA_XSP16, literal(-11)))
        CFI (cfiCond156) V2 load(1, XDATA, add(CFA_XSP16, literal(-10)))
        CFI (cfiCond156) V3 load(1, XDATA, add(CFA_XSP16, literal(-9)))
        CFI (cfiCond156) V4 load(1, XDATA, add(CFA_XSP16, literal(-8)))
        CFI (cfiCond156) V5 load(1, XDATA, add(CFA_XSP16, literal(-7)))
        CFI (cfiCond156) R7 load(1, XDATA, add(CFA_XSP16, literal(-6)))
        CFI (cfiCond156) ?RET_LOW load(1, XDATA, add(CFA_XSP16, literal(-5)))
        CFI (cfiCond156) ?RET_HIGH load(1, XDATA, add(CFA_XSP16, literal(-4)))
        CFI (cfiCond156) ?BRET_EXT load(1, XDATA, add(CFA_XSP16, literal(-3)))
        CFI (cfiCond156) DPL0 load(1, XDATA, add(CFA_XSP16, literal(-2)))
        CFI (cfiCond156) DPH0 load(1, XDATA, add(CFA_XSP16, literal(-1)))
        CFI (cfiCond156) CFA_SP SP+0
        CFI (cfiCond156) CFA_XSP16 add(XSP16, 14)
        CFI Block cfiCond157 Using cfiCommon0
        CFI (cfiCond157) NoFunction
        CFI (cfiCond157) Conditional ??CrossCallReturnLabel_122, ??CrossCallReturnLabel_105, ??CrossCallReturnLabel_41
        CFI (cfiCond157) R6 load(1, XDATA, add(CFA_XSP16, literal(-14)))
        CFI (cfiCond157) VB load(1, XDATA, add(CFA_XSP16, literal(-13)))
        CFI (cfiCond157) V0 load(1, XDATA, add(CFA_XSP16, literal(-12)))
        CFI (cfiCond157) V1 load(1, XDATA, add(CFA_XSP16, literal(-11)))
        CFI (cfiCond157) V2 load(1, XDATA, add(CFA_XSP16, literal(-10)))
        CFI (cfiCond157) V3 load(1, XDATA, add(CFA_XSP16, literal(-9)))
        CFI (cfiCond157) V4 load(1, XDATA, add(CFA_XSP16, literal(-8)))
        CFI (cfiCond157) V5 load(1, XDATA, add(CFA_XSP16, literal(-7)))
        CFI (cfiCond157) R7 load(1, XDATA, add(CFA_XSP16, literal(-6)))
        CFI (cfiCond157) ?RET_LOW load(1, XDATA, add(CFA_XSP16, literal(-5)))
        CFI (cfiCond157) ?RET_HIGH load(1, XDATA, add(CFA_XSP16, literal(-4)))
        CFI (cfiCond157) ?BRET_EXT load(1, XDATA, add(CFA_XSP16, literal(-3)))
        CFI (cfiCond157) DPL0 load(1, XDATA, add(CFA_XSP16, literal(-2)))
        CFI (cfiCond157) DPH0 load(1, XDATA, add(CFA_XSP16, literal(-1)))
        CFI (cfiCond157) CFA_SP SP+0
        CFI (cfiCond157) CFA_XSP16 add(XSP16, 14)
        CFI Block cfiPicker158 Using cfiCommon1
        CFI (cfiPicker158) NoFunction
        CFI (cfiPicker158) Picker
        MOVX    A,@DPTR
        LCALL   ?Subroutine45 & 0xFFFF
??CrossCallReturnLabel_129:
        RET
        CFI EndBlock cfiCond150
        CFI EndBlock cfiCond151
        CFI EndBlock cfiCond152
        CFI EndBlock cfiCond153
        CFI EndBlock cfiCond154
        CFI EndBlock cfiCond155
        CFI EndBlock cfiCond156
        CFI EndBlock cfiCond157
        CFI EndBlock cfiPicker158

        RSEG BANKED_CODE:CODE:NOROOT(0)
?Subroutine45:
        CFI Block cfiCond159 Using cfiCommon0
        CFI NoFunction
        CFI Conditional ??CrossCallReturnLabel_128, ??CrossCallReturnLabel_69
        CFI R6 load(1, XDATA, add(CFA_XSP16, literal(-10)))
        CFI VB load(1, XDATA, add(CFA_XSP16, literal(-9)))
        CFI V0 load(1, XDATA, add(CFA_XSP16, literal(-8)))
        CFI V1 load(1, XDATA, add(CFA_XSP16, literal(-7)))
        CFI R7 load(1, XDATA, add(CFA_XSP16, literal(-6)))
        CFI ?RET_LOW load(1, XDATA, add(CFA_XSP16, literal(-5)))
        CFI ?RET_HIGH load(1, XDATA, add(CFA_XSP16, literal(-4)))
        CFI ?BRET_EXT load(1, XDATA, add(CFA_XSP16, literal(-3)))
        CFI DPL0 load(1, XDATA, add(CFA_XSP16, literal(-2)))
        CFI DPH0 load(1, XDATA, add(CFA_XSP16, literal(-1)))
        CFI CFA_SP SP+0
        CFI CFA_XSP16 add(XSP16, 10)
        CFI Block cfiCond160 Using cfiCommon0
        CFI (cfiCond160) NoFunction
        CFI (cfiCond160) Conditional ??CrossCallReturnLabel_128, ??CrossCallReturnLabel_70
        CFI (cfiCond160) R6 load(1, XDATA, add(CFA_XSP16, literal(-10)))
        CFI (cfiCond160) VB load(1, XDATA, add(CFA_XSP16, literal(-9)))
        CFI (cfiCond160) V0 load(1, XDATA, add(CFA_XSP16, literal(-8)))
        CFI (cfiCond160) V1 load(1, XDATA, add(CFA_XSP16, literal(-7)))
        CFI (cfiCond160) R7 load(1, XDATA, add(CFA_XSP16, literal(-6)))
        CFI (cfiCond160) ?RET_LOW load(1, XDATA, add(CFA_XSP16, literal(-5)))
        CFI (cfiCond160) ?RET_HIGH load(1, XDATA, add(CFA_XSP16, literal(-4)))
        CFI (cfiCond160) ?BRET_EXT load(1, XDATA, add(CFA_XSP16, literal(-3)))
        CFI (cfiCond160) DPL0 load(1, XDATA, add(CFA_XSP16, literal(-2)))
        CFI (cfiCond160) DPH0 load(1, XDATA, add(CFA_XSP16, literal(-1)))
        CFI (cfiCond160) CFA_SP SP+0
        CFI (cfiCond160) CFA_XSP16 add(XSP16, 10)
        CFI Block cfiCond161 Using cfiCommon0
        CFI (cfiCond161) NoFunction
        CFI (cfiCond161) Conditional ??CrossCallReturnLabel_129, ??CrossCallReturnLabel_121, ??CrossCallReturnLabel_102, ??CrossCallReturnLabel_34
        CFI (cfiCond161) R6 load(1, XDATA, add(CFA_XSP16, literal(-10)))
        CFI (cfiCond161) VB load(1, XDATA, add(CFA_XSP16, literal(-9)))
        CFI (cfiCond161) V0 load(1, XDATA, add(CFA_XSP16, literal(-8)))
        CFI (cfiCond161) V1 load(1, XDATA, add(CFA_XSP16, literal(-7)))
        CFI (cfiCond161) R7 load(1, XDATA, add(CFA_XSP16, literal(-6)))
        CFI (cfiCond161) ?RET_LOW load(1, XDATA, add(CFA_XSP16, literal(-5)))
        CFI (cfiCond161) ?RET_HIGH load(1, XDATA, add(CFA_XSP16, literal(-4)))
        CFI (cfiCond161) ?BRET_EXT load(1, XDATA, add(CFA_XSP16, literal(-3)))
        CFI (cfiCond161) DPL0 load(1, XDATA, add(CFA_XSP16, literal(-2)))
        CFI (cfiCond161) DPH0 load(1, XDATA, add(CFA_XSP16, literal(-1)))
        CFI (cfiCond161) CFA_SP SP+0
        CFI (cfiCond161) CFA_XSP16 add(XSP16, 10)
        CFI Block cfiCond162 Using cfiCommon0
        CFI (cfiCond162) NoFunction
        CFI (cfiCond162) Conditional ??CrossCallReturnLabel_129, ??CrossCallReturnLabel_121, ??CrossCallReturnLabel_102, ??CrossCallReturnLabel_35
        CFI (cfiCond162) R6 load(1, XDATA, add(CFA_XSP16, literal(-10)))
        CFI (cfiCond162) VB load(1, XDATA, add(CFA_XSP16, literal(-9)))
        CFI (cfiCond162) V0 load(1, XDATA, add(CFA_XSP16, literal(-8)))
        CFI (cfiCond162) V1 load(1, XDATA, add(CFA_XSP16, literal(-7)))
        CFI (cfiCond162) R7 load(1, XDATA, add(CFA_XSP16, literal(-6)))
        CFI (cfiCond162) ?RET_LOW load(1, XDATA, add(CFA_XSP16, literal(-5)))
        CFI (cfiCond162) ?RET_HIGH load(1, XDATA, add(CFA_XSP16, literal(-4)))
        CFI (cfiCond162) ?BRET_EXT load(1, XDATA, add(CFA_XSP16, literal(-3)))
        CFI (cfiCond162) DPL0 load(1, XDATA, add(CFA_XSP16, literal(-2)))
        CFI (cfiCond162) DPH0 load(1, XDATA, add(CFA_XSP16, literal(-1)))
        CFI (cfiCond162) CFA_SP SP+0
        CFI (cfiCond162) CFA_XSP16 add(XSP16, 10)
        CFI Block cfiCond163 Using cfiCommon0
        CFI (cfiCond163) NoFunction
        CFI (cfiCond163) Conditional ??CrossCallReturnLabel_129, ??CrossCallReturnLabel_121, ??CrossCallReturnLabel_103, ??CrossCallReturnLabel_29
        CFI (cfiCond163) R6 load(1, XDATA, add(CFA_XSP16, literal(-10)))
        CFI (cfiCond163) VB load(1, XDATA, add(CFA_XSP16, literal(-9)))
        CFI (cfiCond163) V0 load(1, XDATA, add(CFA_XSP16, literal(-8)))
        CFI (cfiCond163) V1 load(1, XDATA, add(CFA_XSP16, literal(-7)))
        CFI (cfiCond163) R7 load(1, XDATA, add(CFA_XSP16, literal(-6)))
        CFI (cfiCond163) ?RET_LOW load(1, XDATA, add(CFA_XSP16, literal(-5)))
        CFI (cfiCond163) ?RET_HIGH load(1, XDATA, add(CFA_XSP16, literal(-4)))
        CFI (cfiCond163) ?BRET_EXT load(1, XDATA, add(CFA_XSP16, literal(-3)))
        CFI (cfiCond163) DPL0 load(1, XDATA, add(CFA_XSP16, literal(-2)))
        CFI (cfiCond163) DPH0 load(1, XDATA, add(CFA_XSP16, literal(-1)))
        CFI (cfiCond163) CFA_SP SP+0
        CFI (cfiCond163) CFA_XSP16 add(XSP16, 10)
        CFI Block cfiCond164 Using cfiCommon0
        CFI (cfiCond164) NoFunction
        CFI (cfiCond164) Conditional ??CrossCallReturnLabel_129, ??CrossCallReturnLabel_121, ??CrossCallReturnLabel_103, ??CrossCallReturnLabel_30
        CFI (cfiCond164) R6 load(1, XDATA, add(CFA_XSP16, literal(-10)))
        CFI (cfiCond164) VB load(1, XDATA, add(CFA_XSP16, literal(-9)))
        CFI (cfiCond164) V0 load(1, XDATA, add(CFA_XSP16, literal(-8)))
        CFI (cfiCond164) V1 load(1, XDATA, add(CFA_XSP16, literal(-7)))
        CFI (cfiCond164) R7 load(1, XDATA, add(CFA_XSP16, literal(-6)))
        CFI (cfiCond164) ?RET_LOW load(1, XDATA, add(CFA_XSP16, literal(-5)))
        CFI (cfiCond164) ?RET_HIGH load(1, XDATA, add(CFA_XSP16, literal(-4)))
        CFI (cfiCond164) ?BRET_EXT load(1, XDATA, add(CFA_XSP16, literal(-3)))
        CFI (cfiCond164) DPL0 load(1, XDATA, add(CFA_XSP16, literal(-2)))
        CFI (cfiCond164) DPH0 load(1, XDATA, add(CFA_XSP16, literal(-1)))
        CFI (cfiCond164) CFA_SP SP+0
        CFI (cfiCond164) CFA_XSP16 add(XSP16, 10)
        CFI Block cfiCond165 Using cfiCommon0
        CFI (cfiCond165) NoFunction
        CFI (cfiCond165) Conditional ??CrossCallReturnLabel_129, ??CrossCallReturnLabel_122, ??CrossCallReturnLabel_104, ??CrossCallReturnLabel_36
        CFI (cfiCond165) R6 load(1, XDATA, add(CFA_XSP16, literal(-10)))
        CFI (cfiCond165) VB load(1, XDATA, add(CFA_XSP16, literal(-9)))
        CFI (cfiCond165) V0 load(1, XDATA, add(CFA_XSP16, literal(-8)))
        CFI (cfiCond165) V1 load(1, XDATA, add(CFA_XSP16, literal(-7)))
        CFI (cfiCond165) R7 load(1, XDATA, add(CFA_XSP16, literal(-6)))
        CFI (cfiCond165) ?RET_LOW load(1, XDATA, add(CFA_XSP16, literal(-5)))
        CFI (cfiCond165) ?RET_HIGH load(1, XDATA, add(CFA_XSP16, literal(-4)))
        CFI (cfiCond165) ?BRET_EXT load(1, XDATA, add(CFA_XSP16, literal(-3)))
        CFI (cfiCond165) DPL0 load(1, XDATA, add(CFA_XSP16, literal(-2)))
        CFI (cfiCond165) DPH0 load(1, XDATA, add(CFA_XSP16, literal(-1)))
        CFI (cfiCond165) CFA_SP SP+0
        CFI (cfiCond165) CFA_XSP16 add(XSP16, 10)
        CFI Block cfiCond166 Using cfiCommon0
        CFI (cfiCond166) NoFunction
        CFI (cfiCond166) Conditional ??CrossCallReturnLabel_129, ??CrossCallReturnLabel_122, ??CrossCallReturnLabel_104, ??CrossCallReturnLabel_37
        CFI (cfiCond166) R6 load(1, XDATA, add(CFA_XSP16, literal(-10)))
        CFI (cfiCond166) VB load(1, XDATA, add(CFA_XSP16, literal(-9)))
        CFI (cfiCond166) V0 load(1, XDATA, add(CFA_XSP16, literal(-8)))
        CFI (cfiCond166) V1 load(1, XDATA, add(CFA_XSP16, literal(-7)))
        CFI (cfiCond166) R7 load(1, XDATA, add(CFA_XSP16, literal(-6)))
        CFI (cfiCond166) ?RET_LOW load(1, XDATA, add(CFA_XSP16, literal(-5)))
        CFI (cfiCond166) ?RET_HIGH load(1, XDATA, add(CFA_XSP16, literal(-4)))
        CFI (cfiCond166) ?BRET_EXT load(1, XDATA, add(CFA_XSP16, literal(-3)))
        CFI (cfiCond166) DPL0 load(1, XDATA, add(CFA_XSP16, literal(-2)))
        CFI (cfiCond166) DPH0 load(1, XDATA, add(CFA_XSP16, literal(-1)))
        CFI (cfiCond166) CFA_SP SP+0
        CFI (cfiCond166) CFA_XSP16 add(XSP16, 10)
        CFI Block cfiCond167 Using cfiCommon0
        CFI (cfiCond167) NoFunction
        CFI (cfiCond167) Conditional ??CrossCallReturnLabel_129, ??CrossCallReturnLabel_122, ??CrossCallReturnLabel_105, ??CrossCallReturnLabel_40
        CFI (cfiCond167) R6 load(1, XDATA, add(CFA_XSP16, literal(-14)))
        CFI (cfiCond167) VB load(1, XDATA, add(CFA_XSP16, literal(-13)))
        CFI (cfiCond167) V0 load(1, XDATA, add(CFA_XSP16, literal(-12)))
        CFI (cfiCond167) V1 load(1, XDATA, add(CFA_XSP16, literal(-11)))
        CFI (cfiCond167) V2 load(1, XDATA, add(CFA_XSP16, literal(-10)))
        CFI (cfiCond167) V3 load(1, XDATA, add(CFA_XSP16, literal(-9)))
        CFI (cfiCond167) V4 load(1, XDATA, add(CFA_XSP16, literal(-8)))
        CFI (cfiCond167) V5 load(1, XDATA, add(CFA_XSP16, literal(-7)))
        CFI (cfiCond167) R7 load(1, XDATA, add(CFA_XSP16, literal(-6)))
        CFI (cfiCond167) ?RET_LOW load(1, XDATA, add(CFA_XSP16, literal(-5)))
        CFI (cfiCond167) ?RET_HIGH load(1, XDATA, add(CFA_XSP16, literal(-4)))
        CFI (cfiCond167) ?BRET_EXT load(1, XDATA, add(CFA_XSP16, literal(-3)))
        CFI (cfiCond167) DPL0 load(1, XDATA, add(CFA_XSP16, literal(-2)))
        CFI (cfiCond167) DPH0 load(1, XDATA, add(CFA_XSP16, literal(-1)))
        CFI (cfiCond167) CFA_SP SP+0
        CFI (cfiCond167) CFA_XSP16 add(XSP16, 14)
        CFI Block cfiCond168 Using cfiCommon0
        CFI (cfiCond168) NoFunction
        CFI (cfiCond168) Conditional ??CrossCallReturnLabel_129, ??CrossCallReturnLabel_122, ??CrossCallReturnLabel_105, ??CrossCallReturnLabel_41
        CFI (cfiCond168) R6 load(1, XDATA, add(CFA_XSP16, literal(-14)))
        CFI (cfiCond168) VB load(1, XDATA, add(CFA_XSP16, literal(-13)))
        CFI (cfiCond168) V0 load(1, XDATA, add(CFA_XSP16, literal(-12)))
        CFI (cfiCond168) V1 load(1, XDATA, add(CFA_XSP16, literal(-11)))
        CFI (cfiCond168) V2 load(1, XDATA, add(CFA_XSP16, literal(-10)))
        CFI (cfiCond168) V3 load(1, XDATA, add(CFA_XSP16, literal(-9)))
        CFI (cfiCond168) V4 load(1, XDATA, add(CFA_XSP16, literal(-8)))
        CFI (cfiCond168) V5 load(1, XDATA, add(CFA_XSP16, literal(-7)))
        CFI (cfiCond168) R7 load(1, XDATA, add(CFA_XSP16, literal(-6)))
        CFI (cfiCond168) ?RET_LOW load(1, XDATA, add(CFA_XSP16, literal(-5)))
        CFI (cfiCond168) ?RET_HIGH load(1, XDATA, add(CFA_XSP16, literal(-4)))
        CFI (cfiCond168) ?BRET_EXT load(1, XDATA, add(CFA_XSP16, literal(-3)))
        CFI (cfiCond168) DPL0 load(1, XDATA, add(CFA_XSP16, literal(-2)))
        CFI (cfiCond168) DPH0 load(1, XDATA, add(CFA_XSP16, literal(-1)))
        CFI (cfiCond168) CFA_SP SP+0
        CFI (cfiCond168) CFA_XSP16 add(XSP16, 14)
        CFI Block cfiPicker169 Using cfiCommon1
        CFI (cfiPicker169) NoFunction
        CFI (cfiPicker169) Picker
        MOV     DPL,R0
        MOV     DPH,R1
        MOVX    @DPTR,A
        INC     DPTR
        INC     R0
        MOV     R1,DPH
        MOV     DPL,R6
        MOV     DPH,R7
        INC     DPTR
        RET
        CFI EndBlock cfiCond159
        CFI EndBlock cfiCond160
        CFI EndBlock cfiCond161
        CFI EndBlock cfiCond162
        CFI EndBlock cfiCond163
        CFI EndBlock cfiCond164
        CFI EndBlock cfiCond165
        CFI EndBlock cfiCond166
        CFI EndBlock cfiCond167
        CFI EndBlock cfiCond168
        CFI EndBlock cfiPicker169

        RSEG BANKED_CODE:CODE:NOROOT(0)
?Subroutine7:
        CFI Block cfiCond170 Using cfiCommon0
        CFI NoFunction
        CFI Conditional ??CrossCallReturnLabel_31
        CFI R6 load(1, XDATA, add(CFA_XSP16, literal(-16)))
        CFI VB load(1, XDATA, add(CFA_XSP16, literal(-15)))
        CFI V0 load(1, XDATA, add(CFA_XSP16, literal(-14)))
        CFI V1 load(1, XDATA, add(CFA_XSP16, literal(-13)))
        CFI V2 load(1, XDATA, add(CFA_XSP16, literal(-12)))
        CFI V3 load(1, XDATA, add(CFA_XSP16, literal(-11)))
        CFI V4 load(1, XDATA, add(CFA_XSP16, literal(-10)))
        CFI V5 load(1, XDATA, add(CFA_XSP16, literal(-9)))
        CFI V6 load(1, XDATA, add(CFA_XSP16, literal(-8)))
        CFI V7 load(1, XDATA, add(CFA_XSP16, literal(-7)))
        CFI R7 load(1, XDATA, add(CFA_XSP16, literal(-6)))
        CFI ?RET_LOW load(1, XDATA, add(CFA_XSP16, literal(-5)))
        CFI ?RET_HIGH load(1, XDATA, add(CFA_XSP16, literal(-4)))
        CFI ?BRET_EXT load(1, XDATA, add(CFA_XSP16, literal(-3)))
        CFI DPL0 load(1, XDATA, add(CFA_XSP16, literal(-2)))
        CFI DPH0 load(1, XDATA, add(CFA_XSP16, literal(-1)))
        CFI CFA_SP SP+0
        CFI CFA_XSP16 add(XSP16, 16)
        CFI Block cfiCond171 Using cfiCommon0
        CFI (cfiCond171) NoFunction
        CFI (cfiCond171) Conditional ??CrossCallReturnLabel_32
        CFI (cfiCond171) R6 load(1, XDATA, add(CFA_XSP16, literal(-16)))
        CFI (cfiCond171) VB load(1, XDATA, add(CFA_XSP16, literal(-15)))
        CFI (cfiCond171) V0 load(1, XDATA, add(CFA_XSP16, literal(-14)))
        CFI (cfiCond171) V1 load(1, XDATA, add(CFA_XSP16, literal(-13)))
        CFI (cfiCond171) V2 load(1, XDATA, add(CFA_XSP16, literal(-12)))
        CFI (cfiCond171) V3 load(1, XDATA, add(CFA_XSP16, literal(-11)))
        CFI (cfiCond171) V4 load(1, XDATA, add(CFA_XSP16, literal(-10)))
        CFI (cfiCond171) V5 load(1, XDATA, add(CFA_XSP16, literal(-9)))
        CFI (cfiCond171) V6 load(1, XDATA, add(CFA_XSP16, literal(-8)))
        CFI (cfiCond171) V7 load(1, XDATA, add(CFA_XSP16, literal(-7)))
        CFI (cfiCond171) R7 load(1, XDATA, add(CFA_XSP16, literal(-6)))
        CFI (cfiCond171) ?RET_LOW load(1, XDATA, add(CFA_XSP16, literal(-5)))
        CFI (cfiCond171) ?RET_HIGH load(1, XDATA, add(CFA_XSP16, literal(-4)))
        CFI (cfiCond171) ?BRET_EXT load(1, XDATA, add(CFA_XSP16, literal(-3)))
        CFI (cfiCond171) DPL0 load(1, XDATA, add(CFA_XSP16, literal(-2)))
        CFI (cfiCond171) DPH0 load(1, XDATA, add(CFA_XSP16, literal(-1)))
        CFI (cfiCond171) CFA_SP SP+0
        CFI (cfiCond171) CFA_XSP16 add(XSP16, 16)
        CFI Block cfiCond172 Using cfiCommon0
        CFI (cfiCond172) NoFunction
        CFI (cfiCond172) Conditional ??CrossCallReturnLabel_33
        CFI (cfiCond172) R6 load(1, XDATA, add(CFA_XSP16, literal(-14)))
        CFI (cfiCond172) VB load(1, XDATA, add(CFA_XSP16, literal(-13)))
        CFI (cfiCond172) V0 load(1, XDATA, add(CFA_XSP16, literal(-12)))
        CFI (cfiCond172) V1 load(1, XDATA, add(CFA_XSP16, literal(-11)))
        CFI (cfiCond172) V2 load(1, XDATA, add(CFA_XSP16, literal(-10)))
        CFI (cfiCond172) V3 load(1, XDATA, add(CFA_XSP16, literal(-9)))
        CFI (cfiCond172) V4 load(1, XDATA, add(CFA_XSP16, literal(-8)))
        CFI (cfiCond172) V5 load(1, XDATA, add(CFA_XSP16, literal(-7)))
        CFI (cfiCond172) R7 load(1, XDATA, add(CFA_XSP16, literal(-6)))
        CFI (cfiCond172) ?RET_LOW load(1, XDATA, add(CFA_XSP16, literal(-5)))
        CFI (cfiCond172) ?RET_HIGH load(1, XDATA, add(CFA_XSP16, literal(-4)))
        CFI (cfiCond172) ?BRET_EXT load(1, XDATA, add(CFA_XSP16, literal(-3)))
        CFI (cfiCond172) DPL0 load(1, XDATA, add(CFA_XSP16, literal(-2)))
        CFI (cfiCond172) DPH0 load(1, XDATA, add(CFA_XSP16, literal(-1)))
        CFI (cfiCond172) CFA_SP SP+0
        CFI (cfiCond172) CFA_XSP16 add(XSP16, 14)
        CFI Block cfiPicker173 Using cfiCommon1
        CFI (cfiPicker173) NoFunction
        CFI (cfiPicker173) Picker
        LCALL   ?Subroutine37 & 0xFFFF
??CrossCallReturnLabel_139:
        RET
        CFI EndBlock cfiCond170
        CFI EndBlock cfiCond171
        CFI EndBlock cfiCond172
        CFI EndBlock cfiPicker173

        RSEG BANKED_CODE:CODE:NOROOT(0)
?Subroutine37:
        CFI Block cfiCond174 Using cfiCommon0
        CFI NoFunction
        CFI Conditional ??CrossCallReturnLabel_139, ??CrossCallReturnLabel_31
        CFI R6 load(1, XDATA, add(CFA_XSP16, literal(-16)))
        CFI VB load(1, XDATA, add(CFA_XSP16, literal(-15)))
        CFI V0 load(1, XDATA, add(CFA_XSP16, literal(-14)))
        CFI V1 load(1, XDATA, add(CFA_XSP16, literal(-13)))
        CFI V2 load(1, XDATA, add(CFA_XSP16, literal(-12)))
        CFI V3 load(1, XDATA, add(CFA_XSP16, literal(-11)))
        CFI V4 load(1, XDATA, add(CFA_XSP16, literal(-10)))
        CFI V5 load(1, XDATA, add(CFA_XSP16, literal(-9)))
        CFI V6 load(1, XDATA, add(CFA_XSP16, literal(-8)))
        CFI V7 load(1, XDATA, add(CFA_XSP16, literal(-7)))
        CFI R7 load(1, XDATA, add(CFA_XSP16, literal(-6)))
        CFI ?RET_LOW load(1, XDATA, add(CFA_XSP16, literal(-5)))
        CFI ?RET_HIGH load(1, XDATA, add(CFA_XSP16, literal(-4)))
        CFI ?BRET_EXT load(1, XDATA, add(CFA_XSP16, literal(-3)))
        CFI DPL0 load(1, XDATA, add(CFA_XSP16, literal(-2)))
        CFI DPH0 load(1, XDATA, add(CFA_XSP16, literal(-1)))
        CFI CFA_SP SP+0
        CFI CFA_XSP16 add(XSP16, 16)
        CFI Block cfiCond175 Using cfiCommon0
        CFI (cfiCond175) NoFunction
        CFI (cfiCond175) Conditional ??CrossCallReturnLabel_139, ??CrossCallReturnLabel_32
        CFI (cfiCond175) R6 load(1, XDATA, add(CFA_XSP16, literal(-16)))
        CFI (cfiCond175) VB load(1, XDATA, add(CFA_XSP16, literal(-15)))
        CFI (cfiCond175) V0 load(1, XDATA, add(CFA_XSP16, literal(-14)))
        CFI (cfiCond175) V1 load(1, XDATA, add(CFA_XSP16, literal(-13)))
        CFI (cfiCond175) V2 load(1, XDATA, add(CFA_XSP16, literal(-12)))
        CFI (cfiCond175) V3 load(1, XDATA, add(CFA_XSP16, literal(-11)))
        CFI (cfiCond175) V4 load(1, XDATA, add(CFA_XSP16, literal(-10)))
        CFI (cfiCond175) V5 load(1, XDATA, add(CFA_XSP16, literal(-9)))
        CFI (cfiCond175) V6 load(1, XDATA, add(CFA_XSP16, literal(-8)))
        CFI (cfiCond175) V7 load(1, XDATA, add(CFA_XSP16, literal(-7)))
        CFI (cfiCond175) R7 load(1, XDATA, add(CFA_XSP16, literal(-6)))
        CFI (cfiCond175) ?RET_LOW load(1, XDATA, add(CFA_XSP16, literal(-5)))
        CFI (cfiCond175) ?RET_HIGH load(1, XDATA, add(CFA_XSP16, literal(-4)))
        CFI (cfiCond175) ?BRET_EXT load(1, XDATA, add(CFA_XSP16, literal(-3)))
        CFI (cfiCond175) DPL0 load(1, XDATA, add(CFA_XSP16, literal(-2)))
        CFI (cfiCond175) DPH0 load(1, XDATA, add(CFA_XSP16, literal(-1)))
        CFI (cfiCond175) CFA_SP SP+0
        CFI (cfiCond175) CFA_XSP16 add(XSP16, 16)
        CFI Block cfiCond176 Using cfiCommon0
        CFI (cfiCond176) NoFunction
        CFI (cfiCond176) Conditional ??CrossCallReturnLabel_139, ??CrossCallReturnLabel_33
        CFI (cfiCond176) R6 load(1, XDATA, add(CFA_XSP16, literal(-14)))
        CFI (cfiCond176) VB load(1, XDATA, add(CFA_XSP16, literal(-13)))
        CFI (cfiCond176) V0 load(1, XDATA, add(CFA_XSP16, literal(-12)))
        CFI (cfiCond176) V1 load(1, XDATA, add(CFA_XSP16, literal(-11)))
        CFI (cfiCond176) V2 load(1, XDATA, add(CFA_XSP16, literal(-10)))
        CFI (cfiCond176) V3 load(1, XDATA, add(CFA_XSP16, literal(-9)))
        CFI (cfiCond176) V4 load(1, XDATA, add(CFA_XSP16, literal(-8)))
        CFI (cfiCond176) V5 load(1, XDATA, add(CFA_XSP16, literal(-7)))
        CFI (cfiCond176) R7 load(1, XDATA, add(CFA_XSP16, literal(-6)))
        CFI (cfiCond176) ?RET_LOW load(1, XDATA, add(CFA_XSP16, literal(-5)))
        CFI (cfiCond176) ?RET_HIGH load(1, XDATA, add(CFA_XSP16, literal(-4)))
        CFI (cfiCond176) ?BRET_EXT load(1, XDATA, add(CFA_XSP16, literal(-3)))
        CFI (cfiCond176) DPL0 load(1, XDATA, add(CFA_XSP16, literal(-2)))
        CFI (cfiCond176) DPH0 load(1, XDATA, add(CFA_XSP16, literal(-1)))
        CFI (cfiCond176) CFA_SP SP+0
        CFI (cfiCond176) CFA_XSP16 add(XSP16, 14)
        CFI Block cfiCond177 Using cfiCommon0
        CFI (cfiCond177) NoFunction
        CFI (cfiCond177) Conditional ??CrossCallReturnLabel_138, ??CrossCallReturnLabel_0
        CFI (cfiCond177) R6 load(1, XDATA, add(CFA_XSP16, literal(-14)))
        CFI (cfiCond177) VB load(1, XDATA, add(CFA_XSP16, literal(-13)))
        CFI (cfiCond177) V0 load(1, XDATA, add(CFA_XSP16, literal(-12)))
        CFI (cfiCond177) V1 load(1, XDATA, add(CFA_XSP16, literal(-11)))
        CFI (cfiCond177) V2 load(1, XDATA, add(CFA_XSP16, literal(-10)))
        CFI (cfiCond177) V3 load(1, XDATA, add(CFA_XSP16, literal(-9)))
        CFI (cfiCond177) V4 load(1, XDATA, add(CFA_XSP16, literal(-8)))
        CFI (cfiCond177) V5 load(1, XDATA, add(CFA_XSP16, literal(-7)))
        CFI (cfiCond177) R7 load(1, XDATA, add(CFA_XSP16, literal(-6)))
        CFI (cfiCond177) ?RET_LOW load(1, XDATA, add(CFA_XSP16, literal(-5)))
        CFI (cfiCond177) ?RET_HIGH load(1, XDATA, add(CFA_XSP16, literal(-4)))
        CFI (cfiCond177) ?BRET_EXT load(1, XDATA, add(CFA_XSP16, literal(-3)))
        CFI (cfiCond177) DPL0 load(1, XDATA, add(CFA_XSP16, literal(-2)))
        CFI (cfiCond177) DPH0 load(1, XDATA, add(CFA_XSP16, literal(-1)))
        CFI (cfiCond177) CFA_SP SP+0
        CFI (cfiCond177) CFA_XSP16 add(XSP16, 14)
        CFI Block cfiCond178 Using cfiCommon0
        CFI (cfiCond178) NoFunction
        CFI (cfiCond178) Conditional ??CrossCallReturnLabel_138, ??CrossCallReturnLabel_1
        CFI (cfiCond178) R6 load(1, XDATA, add(CFA_XSP16, literal(-14)))
        CFI (cfiCond178) VB load(1, XDATA, add(CFA_XSP16, literal(-13)))
        CFI (cfiCond178) V0 load(1, XDATA, add(CFA_XSP16, literal(-12)))
        CFI (cfiCond178) V1 load(1, XDATA, add(CFA_XSP16, literal(-11)))
        CFI (cfiCond178) V2 load(1, XDATA, add(CFA_XSP16, literal(-10)))
        CFI (cfiCond178) V3 load(1, XDATA, add(CFA_XSP16, literal(-9)))
        CFI (cfiCond178) V4 load(1, XDATA, add(CFA_XSP16, literal(-8)))
        CFI (cfiCond178) V5 load(1, XDATA, add(CFA_XSP16, literal(-7)))
        CFI (cfiCond178) R7 load(1, XDATA, add(CFA_XSP16, literal(-6)))
        CFI (cfiCond178) ?RET_LOW load(1, XDATA, add(CFA_XSP16, literal(-5)))
        CFI (cfiCond178) ?RET_HIGH load(1, XDATA, add(CFA_XSP16, literal(-4)))
        CFI (cfiCond178) ?BRET_EXT load(1, XDATA, add(CFA_XSP16, literal(-3)))
        CFI (cfiCond178) DPL0 load(1, XDATA, add(CFA_XSP16, literal(-2)))
        CFI (cfiCond178) DPH0 load(1, XDATA, add(CFA_XSP16, literal(-1)))
        CFI (cfiCond178) CFA_SP SP+0
        CFI (cfiCond178) CFA_XSP16 add(XSP16, 14)
        CFI Block cfiPicker179 Using cfiCommon1
        CFI (cfiPicker179) NoFunction
        CFI (cfiPicker179) Picker
        LCALL   ?Subroutine43 & 0xFFFF
??CrossCallReturnLabel_125:
        SJMP    ?Subroutine50
        CFI EndBlock cfiCond174
        CFI EndBlock cfiCond175
        CFI EndBlock cfiCond176
        CFI EndBlock cfiCond177
        CFI EndBlock cfiCond178
        CFI EndBlock cfiPicker179

        RSEG BANKED_CODE:CODE:NOROOT(0)
?Subroutine0:
        CFI Block cfiCond180 Using cfiCommon0
        CFI NoFunction
        CFI Conditional ??CrossCallReturnLabel_0
        CFI R6 load(1, XDATA, add(CFA_XSP16, literal(-14)))
        CFI VB load(1, XDATA, add(CFA_XSP16, literal(-13)))
        CFI V0 load(1, XDATA, add(CFA_XSP16, literal(-12)))
        CFI V1 load(1, XDATA, add(CFA_XSP16, literal(-11)))
        CFI V2 load(1, XDATA, add(CFA_XSP16, literal(-10)))
        CFI V3 load(1, XDATA, add(CFA_XSP16, literal(-9)))
        CFI V4 load(1, XDATA, add(CFA_XSP16, literal(-8)))
        CFI V5 load(1, XDATA, add(CFA_XSP16, literal(-7)))
        CFI R7 load(1, XDATA, add(CFA_XSP16, literal(-6)))
        CFI ?RET_LOW load(1, XDATA, add(CFA_XSP16, literal(-5)))
        CFI ?RET_HIGH load(1, XDATA, add(CFA_XSP16, literal(-4)))
        CFI ?BRET_EXT load(1, XDATA, add(CFA_XSP16, literal(-3)))
        CFI DPL0 load(1, XDATA, add(CFA_XSP16, literal(-2)))
        CFI DPH0 load(1, XDATA, add(CFA_XSP16, literal(-1)))
        CFI CFA_SP SP+0
        CFI CFA_XSP16 add(XSP16, 14)
        CFI Block cfiCond181 Using cfiCommon0
        CFI (cfiCond181) NoFunction
        CFI (cfiCond181) Conditional ??CrossCallReturnLabel_1
        CFI (cfiCond181) R6 load(1, XDATA, add(CFA_XSP16, literal(-14)))
        CFI (cfiCond181) VB load(1, XDATA, add(CFA_XSP16, literal(-13)))
        CFI (cfiCond181) V0 load(1, XDATA, add(CFA_XSP16, literal(-12)))
        CFI (cfiCond181) V1 load(1, XDATA, add(CFA_XSP16, literal(-11)))
        CFI (cfiCond181) V2 load(1, XDATA, add(CFA_XSP16, literal(-10)))
        CFI (cfiCond181) V3 load(1, XDATA, add(CFA_XSP16, literal(-9)))
        CFI (cfiCond181) V4 load(1, XDATA, add(CFA_XSP16, literal(-8)))
        CFI (cfiCond181) V5 load(1, XDATA, add(CFA_XSP16, literal(-7)))
        CFI (cfiCond181) R7 load(1, XDATA, add(CFA_XSP16, literal(-6)))
        CFI (cfiCond181) ?RET_LOW load(1, XDATA, add(CFA_XSP16, literal(-5)))
        CFI (cfiCond181) ?RET_HIGH load(1, XDATA, add(CFA_XSP16, literal(-4)))
        CFI (cfiCond181) ?BRET_EXT load(1, XDATA, add(CFA_XSP16, literal(-3)))
        CFI (cfiCond181) DPL0 load(1, XDATA, add(CFA_XSP16, literal(-2)))
        CFI (cfiCond181) DPH0 load(1, XDATA, add(CFA_XSP16, literal(-1)))
        CFI (cfiCond181) CFA_SP SP+0
        CFI (cfiCond181) CFA_XSP16 add(XSP16, 14)
        CFI Block cfiPicker182 Using cfiCommon1
        CFI (cfiPicker182) NoFunction
        CFI (cfiPicker182) Picker
        MOV     ?V0 + 0,A
        MOV     A,R5
        ADDC    A,#0x0
        MOV     ?V0 + 1,A
        MOV     DPL,?V0 + 0
        MOV     DPH,A
        MOVX    A,@DPTR
        ADD     A,R6
        MOV     ?V0 + 4,A
        INC     DPTR
        MOVX    A,@DPTR
        ADDC    A,R7
        MOV     DPL,?V0 + 4
        MOV     DPH,A
        LCALL   ?Subroutine37 & 0xFFFF
??CrossCallReturnLabel_138:
        MOV     DPL,?V0 + 0
        MOV     DPH,?V0 + 1
        MOVX    A,@DPTR
        ADD     A,R6
        MOV     ?V0 + 0,A
        INC     DPTR
        MOVX    A,@DPTR
        ADDC    A,R7
        MOV     DPL,?V0 + 0
        MOV     DPH,A
        LCALL   ?Subroutine35 & 0xFFFF
??CrossCallReturnLabel_106:
        INC     ?V0 + 3
        RET
        CFI EndBlock cfiCond180
        CFI EndBlock cfiCond181
        CFI EndBlock cfiPicker182
//  822 
//  823 /*********************************************************************
//  824  * @fn          ZDP_EPRsp
//  825  *
//  826  * @brief       This builds and send an endpoint list. Used in
//  827  *              Active_EP_rsp and Match_Desc_Rsp
//  828  *              message.  This function sends unicast message to the
//  829  *              requesting device.
//  830  *
//  831  * @param       MsgType - either Active_EP_rsp or Match_Desc_Rsp
//  832  * @param       dstAddr - destination address
//  833  * @param       Status - message status (ZDP_SUCCESS or other)
//  834  * @param       nwkAddr - Device's short address that this response describes
//  835  * @param       Count - number of endpoint/interfaces in list
//  836  * @param       pEPIntfList - Array of Endpoint/Interfaces
//  837  * @param       SecurityEnable - Security Options
//  838  *
//  839  * @return      afStatus_t
//  840  */

        RSEG BANKED_CODE:CODE:NOROOT(0)
//  841 afStatus_t ZDP_EPRsp( uint16 MsgType, byte TransSeq, zAddrType_t *dstAddr,
ZDP_EPRsp:
        CFI Block cfiBlock183 Using cfiCommon0
        CFI Function ZDP_EPRsp
//  842                         byte Status, uint16 nwkAddr, byte Count,
//  843                         byte *pEPList,
//  844                         byte SecurityEnable )
//  845 {
        FUNCALL ZDP_EPRsp, osal_memcpy
        LOCFRAME ISTACK, 0, STACK
        LOCFRAME PSTACK, 0, STACK
        LOCFRAME XSTACK, 20, STACK
        LOCFRAME IOVERLAY, 0, STATIC
        LOCFRAME DOVERLAY, 0, STATIC
        ARGFRAME ISTACK, 0, STACK
        ARGFRAME PSTACK, 0, STACK
        ARGFRAME XSTACK, 20, STACK
        ARGFRAME IOVERLAY, 0, STATIC
        ARGFRAME DOVERLAY, 0, STATIC
        FUNCALL ZDP_EPRsp, fillAndSend
        LOCFRAME ISTACK, 0, STACK
        LOCFRAME PSTACK, 0, STACK
        LOCFRAME XSTACK, 19, STACK
        LOCFRAME IOVERLAY, 0, STATIC
        LOCFRAME DOVERLAY, 0, STATIC
        ARGFRAME ISTACK, 0, STACK
        ARGFRAME PSTACK, 0, STACK
        ARGFRAME XSTACK, 19, STACK
        ARGFRAME IOVERLAY, 0, STATIC
        ARGFRAME DOVERLAY, 0, STATIC
        MOV     A,#-0x10
        LCALL   ?BANKED_ENTER_XDATA
        CFI DPH0 load(1, XDATA, add(CFA_XSP16, literal(-1)))
        CFI DPL0 load(1, XDATA, add(CFA_XSP16, literal(-2)))
        CFI ?BRET_EXT load(1, XDATA, add(CFA_XSP16, literal(-3)))
        CFI ?RET_HIGH load(1, XDATA, add(CFA_XSP16, literal(-4)))
        CFI ?RET_LOW load(1, XDATA, add(CFA_XSP16, literal(-5)))
        CFI R7 load(1, XDATA, add(CFA_XSP16, literal(-6)))
        CFI V7 load(1, XDATA, add(CFA_XSP16, literal(-7)))
        CFI V6 load(1, XDATA, add(CFA_XSP16, literal(-8)))
        CFI V5 load(1, XDATA, add(CFA_XSP16, literal(-9)))
        CFI V4 load(1, XDATA, add(CFA_XSP16, literal(-10)))
        CFI V3 load(1, XDATA, add(CFA_XSP16, literal(-11)))
        CFI V2 load(1, XDATA, add(CFA_XSP16, literal(-12)))
        CFI V1 load(1, XDATA, add(CFA_XSP16, literal(-13)))
        CFI V0 load(1, XDATA, add(CFA_XSP16, literal(-14)))
        CFI VB load(1, XDATA, add(CFA_XSP16, literal(-15)))
        CFI R6 load(1, XDATA, add(CFA_XSP16, literal(-16)))
        CFI CFA_SP SP+0
        CFI CFA_XSP16 add(XSP16, 16)
        ; Saved register size: 16
        ; Auto size: 1
        MOV     A,#-0x1
        LCALL   ?ALLOC_XSTACK8
        CFI CFA_XSP16 add(XSP16, 17)
        MOV     A,R1
        MOV     DPL,?XSP + 0
        MOV     DPH,?XSP + 1
        MOVX    @DPTR,A
        MOV     A,R2
        MOV     R6,A
        MOV     A,R3
        MOV     R7,A
        MOV     ?V0 + 6,R4
        MOV     ?V0 + 7,R5
        MOV     A,#0x11
        LCALL   ?XSTACK_DISP0_8
        MOVX    A,@DPTR
        MOV     R5,A
        MOV     A,#0x12
        LCALL   ?XSTACK_DISP0_8
        LCALL   ??Subroutine4_1 & 0xFFFF
??CrossCallReturnLabel_19:
        MOV     A,#0x14
        LCALL   ?XSTACK_DISP0_8
        MOVX    A,@DPTR
        MOV     R4,A
        MOV     A,#0x15
        LCALL   ?XSTACK_DISP0_8
        LCALL   ?Subroutine3 & 0xFFFF
//  846   byte *pBuf = ZDP_TmpBuf;
??CrossCallReturnLabel_9:
        LCALL   ?Subroutine15 & 0xFFFF
//  847   byte len = 1 + 2 + 1;  // Status + nwkAddr + endpoint/interface count.
??CrossCallReturnLabel_48:
        MOV     ?V0 + 3,#0x4
//  848   byte txOptions;
//  849 
//  850   if ( MsgType == Match_Desc_rsp )
        MOV     A,#0x6
        XRL     A,R6
        JNZ     ??ZDP_EPRsp_0
        MOV     A,#-0x80
        XRL     A,R7
??ZDP_EPRsp_0:
        JNZ     ??ZDP_EPRsp_1
//  851     txOptions = AF_MSG_ACK_REQUEST;
        MOV     ?V0 + 4,#0x10
        SJMP    ??ZDP_EPRsp_2
//  852   else
//  853     txOptions = 0;
??ZDP_EPRsp_1:
        MOV     ?V0 + 4,#0x0
//  854 
//  855     *pBuf++ = Status;
??ZDP_EPRsp_2:
        MOV     A,R5
        MOV     DPL,R2
        MOV     DPH,R3
        MOVX    @DPTR,A
        INC     DPTR
//  856   *pBuf++ = LO_UINT16( nwkAddr );
        MOV     A,R0
        MOVX    @DPTR,A
        INC     DPTR
//  857   *pBuf++ = HI_UINT16( nwkAddr );
        MOV     A,R1
        MOVX    @DPTR,A
        INC     DPTR
//  858 
//  859   *pBuf++ = Count;   // Endpoint/Interface count
        MOV     A,R4
        MOVX    @DPTR,A
        INC     DPTR
        MOV     R2,DPL
        MOV     R3,DPH
//  860 
//  861   if ( Count )
        JZ      ??ZDP_EPRsp_3
//  862   {
//  863     len += Count;
        MOV     A,#0x4
        ADD     A,R4
        MOV     ?V0 + 3,A
//  864     osal_memcpy( pBuf, pEPList, Count );
        ; Setup parameters for call to function osal_memcpy
        MOV     ?V0 + 2,#0x0
        MOV     R0,#?V0 + 0
        LCALL   ?PUSH_XSTACK_I_THREE
        CFI CFA_XSP16 add(XSP16, 20)
        MOV     R5,#0x0
        LCALL   ??osal_memcpy?relay
        MOV     A,#0x3
        LCALL   ?DEALLOC_XSTACK8
        CFI CFA_XSP16 add(XSP16, 17)
//  865   }
//  866 
//  867   FillAndSendTxOptions( &TransSeq, dstAddr, MsgType, len, txOptions );
??ZDP_EPRsp_3:
        MOV     A,?V0 + 4
        MOV     DPTR,#ZDP_TxOptions
        MOVX    @DPTR,A
        ; Setup parameters for call to function fillAndSend
        MOV     ?V0 + 0,R6
        MOV     ?V0 + 1,R7
        MOV     R0,#?V0 + 0
        LCALL   ?PUSH_XSTACK_I_TWO
        CFI CFA_XSP16 add(XSP16, 19)
        MOV     R1,?V0 + 3
        MOV     R4,?V0 + 6
        MOV     R5,?V0 + 7
        MOV     A,#0x2
        LCALL   ?XSTACK_DISP0_8
        MOV     R2,DPL
        MOV     R3,DPH
        LCALL   ?Subroutine51 & 0xFFFF
??CrossCallReturnLabel_147:
        LCALL   ?DEALLOC_XSTACK8
        CFI CFA_XSP16 add(XSP16, 17)
        CLR     A
        MOV     DPTR,#ZDP_TxOptions
        MOVX    @DPTR,A
        LJMP    ?Subroutine52 & 0xFFFF
        CFI EndBlock cfiBlock183
//  868 }

        RSEG BANKED_CODE:CODE:NOROOT(0)
?Subroutine3:
        CFI Block cfiCond184 Using cfiCommon0
        CFI NoFunction
        CFI Conditional ??CrossCallReturnLabel_6
        CFI R6 load(1, XDATA, add(CFA_XSP16, literal(-14)))
        CFI VB load(1, XDATA, add(CFA_XSP16, literal(-13)))
        CFI V0 load(1, XDATA, add(CFA_XSP16, literal(-12)))
        CFI V1 load(1, XDATA, add(CFA_XSP16, literal(-11)))
        CFI V2 load(1, XDATA, add(CFA_XSP16, literal(-10)))
        CFI V3 load(1, XDATA, add(CFA_XSP16, literal(-9)))
        CFI V4 load(1, XDATA, add(CFA_XSP16, literal(-8)))
        CFI V5 load(1, XDATA, add(CFA_XSP16, literal(-7)))
        CFI R7 load(1, XDATA, add(CFA_XSP16, literal(-6)))
        CFI ?RET_LOW load(1, XDATA, add(CFA_XSP16, literal(-5)))
        CFI ?RET_HIGH load(1, XDATA, add(CFA_XSP16, literal(-4)))
        CFI ?BRET_EXT load(1, XDATA, add(CFA_XSP16, literal(-3)))
        CFI DPL0 load(1, XDATA, add(CFA_XSP16, literal(-2)))
        CFI DPH0 load(1, XDATA, add(CFA_XSP16, literal(-1)))
        CFI CFA_SP SP+0
        CFI CFA_XSP16 add(XSP16, 14)
        CFI Block cfiCond185 Using cfiCommon0
        CFI (cfiCond185) NoFunction
        CFI (cfiCond185) Conditional ??CrossCallReturnLabel_7
        CFI (cfiCond185) R6 load(1, XDATA, add(CFA_XSP16, literal(-16)))
        CFI (cfiCond185) VB load(1, XDATA, add(CFA_XSP16, literal(-15)))
        CFI (cfiCond185) V0 load(1, XDATA, add(CFA_XSP16, literal(-14)))
        CFI (cfiCond185) V1 load(1, XDATA, add(CFA_XSP16, literal(-13)))
        CFI (cfiCond185) V2 load(1, XDATA, add(CFA_XSP16, literal(-12)))
        CFI (cfiCond185) V3 load(1, XDATA, add(CFA_XSP16, literal(-11)))
        CFI (cfiCond185) V4 load(1, XDATA, add(CFA_XSP16, literal(-10)))
        CFI (cfiCond185) V5 load(1, XDATA, add(CFA_XSP16, literal(-9)))
        CFI (cfiCond185) V6 load(1, XDATA, add(CFA_XSP16, literal(-8)))
        CFI (cfiCond185) V7 load(1, XDATA, add(CFA_XSP16, literal(-7)))
        CFI (cfiCond185) R7 load(1, XDATA, add(CFA_XSP16, literal(-6)))
        CFI (cfiCond185) ?RET_LOW load(1, XDATA, add(CFA_XSP16, literal(-5)))
        CFI (cfiCond185) ?RET_HIGH load(1, XDATA, add(CFA_XSP16, literal(-4)))
        CFI (cfiCond185) ?BRET_EXT load(1, XDATA, add(CFA_XSP16, literal(-3)))
        CFI (cfiCond185) DPL0 load(1, XDATA, add(CFA_XSP16, literal(-2)))
        CFI (cfiCond185) DPH0 load(1, XDATA, add(CFA_XSP16, literal(-1)))
        CFI (cfiCond185) CFA_SP SP+0
        CFI (cfiCond185) CFA_XSP16 add(XSP16, 16)
        CFI Block cfiCond186 Using cfiCommon0
        CFI (cfiCond186) NoFunction
        CFI (cfiCond186) Conditional ??CrossCallReturnLabel_8
        CFI (cfiCond186) R6 load(1, XDATA, add(CFA_XSP16, literal(-16)))
        CFI (cfiCond186) VB load(1, XDATA, add(CFA_XSP16, literal(-15)))
        CFI (cfiCond186) V0 load(1, XDATA, add(CFA_XSP16, literal(-14)))
        CFI (cfiCond186) V1 load(1, XDATA, add(CFA_XSP16, literal(-13)))
        CFI (cfiCond186) V2 load(1, XDATA, add(CFA_XSP16, literal(-12)))
        CFI (cfiCond186) V3 load(1, XDATA, add(CFA_XSP16, literal(-11)))
        CFI (cfiCond186) V4 load(1, XDATA, add(CFA_XSP16, literal(-10)))
        CFI (cfiCond186) V5 load(1, XDATA, add(CFA_XSP16, literal(-9)))
        CFI (cfiCond186) V6 load(1, XDATA, add(CFA_XSP16, literal(-8)))
        CFI (cfiCond186) V7 load(1, XDATA, add(CFA_XSP16, literal(-7)))
        CFI (cfiCond186) R7 load(1, XDATA, add(CFA_XSP16, literal(-6)))
        CFI (cfiCond186) ?RET_LOW load(1, XDATA, add(CFA_XSP16, literal(-5)))
        CFI (cfiCond186) ?RET_HIGH load(1, XDATA, add(CFA_XSP16, literal(-4)))
        CFI (cfiCond186) ?BRET_EXT load(1, XDATA, add(CFA_XSP16, literal(-3)))
        CFI (cfiCond186) DPL0 load(1, XDATA, add(CFA_XSP16, literal(-2)))
        CFI (cfiCond186) DPH0 load(1, XDATA, add(CFA_XSP16, literal(-1)))
        CFI (cfiCond186) CFA_SP SP+0
        CFI (cfiCond186) CFA_XSP16 add(XSP16, 17)
        CFI Block cfiCond187 Using cfiCommon0
        CFI (cfiCond187) NoFunction
        CFI (cfiCond187) Conditional ??CrossCallReturnLabel_9
        CFI (cfiCond187) R6 load(1, XDATA, add(CFA_XSP16, literal(-16)))
        CFI (cfiCond187) VB load(1, XDATA, add(CFA_XSP16, literal(-15)))
        CFI (cfiCond187) V0 load(1, XDATA, add(CFA_XSP16, literal(-14)))
        CFI (cfiCond187) V1 load(1, XDATA, add(CFA_XSP16, literal(-13)))
        CFI (cfiCond187) V2 load(1, XDATA, add(CFA_XSP16, literal(-12)))
        CFI (cfiCond187) V3 load(1, XDATA, add(CFA_XSP16, literal(-11)))
        CFI (cfiCond187) V4 load(1, XDATA, add(CFA_XSP16, literal(-10)))
        CFI (cfiCond187) V5 load(1, XDATA, add(CFA_XSP16, literal(-9)))
        CFI (cfiCond187) V6 load(1, XDATA, add(CFA_XSP16, literal(-8)))
        CFI (cfiCond187) V7 load(1, XDATA, add(CFA_XSP16, literal(-7)))
        CFI (cfiCond187) R7 load(1, XDATA, add(CFA_XSP16, literal(-6)))
        CFI (cfiCond187) ?RET_LOW load(1, XDATA, add(CFA_XSP16, literal(-5)))
        CFI (cfiCond187) ?RET_HIGH load(1, XDATA, add(CFA_XSP16, literal(-4)))
        CFI (cfiCond187) ?BRET_EXT load(1, XDATA, add(CFA_XSP16, literal(-3)))
        CFI (cfiCond187) DPL0 load(1, XDATA, add(CFA_XSP16, literal(-2)))
        CFI (cfiCond187) DPH0 load(1, XDATA, add(CFA_XSP16, literal(-1)))
        CFI (cfiCond187) CFA_SP SP+0
        CFI (cfiCond187) CFA_XSP16 add(XSP16, 17)
        CFI Block cfiCond188 Using cfiCommon0
        CFI (cfiCond188) NoFunction
        CFI (cfiCond188) Conditional ??CrossCallReturnLabel_10
        CFI (cfiCond188) R6 load(1, XDATA, add(CFA_XSP16, literal(-10)))
        CFI (cfiCond188) VB load(1, XDATA, add(CFA_XSP16, literal(-9)))
        CFI (cfiCond188) V0 load(1, XDATA, add(CFA_XSP16, literal(-8)))
        CFI (cfiCond188) V1 load(1, XDATA, add(CFA_XSP16, literal(-7)))
        CFI (cfiCond188) R7 load(1, XDATA, add(CFA_XSP16, literal(-6)))
        CFI (cfiCond188) ?RET_LOW load(1, XDATA, add(CFA_XSP16, literal(-5)))
        CFI (cfiCond188) ?RET_HIGH load(1, XDATA, add(CFA_XSP16, literal(-4)))
        CFI (cfiCond188) ?BRET_EXT load(1, XDATA, add(CFA_XSP16, literal(-3)))
        CFI (cfiCond188) DPL0 load(1, XDATA, add(CFA_XSP16, literal(-2)))
        CFI (cfiCond188) DPH0 load(1, XDATA, add(CFA_XSP16, literal(-1)))
        CFI (cfiCond188) CFA_SP SP+0
        CFI (cfiCond188) CFA_XSP16 add(XSP16, 11)
        CFI Block cfiCond189 Using cfiCommon0
        CFI (cfiCond189) NoFunction
        CFI (cfiCond189) Conditional ??CrossCallReturnLabel_11
        CFI (cfiCond189) R6 load(1, XDATA, add(CFA_XSP16, literal(-16)))
        CFI (cfiCond189) VB load(1, XDATA, add(CFA_XSP16, literal(-15)))
        CFI (cfiCond189) V0 load(1, XDATA, add(CFA_XSP16, literal(-14)))
        CFI (cfiCond189) V1 load(1, XDATA, add(CFA_XSP16, literal(-13)))
        CFI (cfiCond189) V2 load(1, XDATA, add(CFA_XSP16, literal(-12)))
        CFI (cfiCond189) V3 load(1, XDATA, add(CFA_XSP16, literal(-11)))
        CFI (cfiCond189) V4 load(1, XDATA, add(CFA_XSP16, literal(-10)))
        CFI (cfiCond189) V5 load(1, XDATA, add(CFA_XSP16, literal(-9)))
        CFI (cfiCond189) V6 load(1, XDATA, add(CFA_XSP16, literal(-8)))
        CFI (cfiCond189) V7 load(1, XDATA, add(CFA_XSP16, literal(-7)))
        CFI (cfiCond189) R7 load(1, XDATA, add(CFA_XSP16, literal(-6)))
        CFI (cfiCond189) ?RET_LOW load(1, XDATA, add(CFA_XSP16, literal(-5)))
        CFI (cfiCond189) ?RET_HIGH load(1, XDATA, add(CFA_XSP16, literal(-4)))
        CFI (cfiCond189) ?BRET_EXT load(1, XDATA, add(CFA_XSP16, literal(-3)))
        CFI (cfiCond189) DPL0 load(1, XDATA, add(CFA_XSP16, literal(-2)))
        CFI (cfiCond189) DPH0 load(1, XDATA, add(CFA_XSP16, literal(-1)))
        CFI (cfiCond189) CFA_SP SP+0
        CFI (cfiCond189) CFA_XSP16 add(XSP16, 19)
        CFI Block cfiCond190 Using cfiCommon0
        CFI (cfiCond190) NoFunction
        CFI (cfiCond190) Conditional ??CrossCallReturnLabel_12
        CFI (cfiCond190) R6 load(1, XDATA, add(CFA_XSP16, literal(-16)))
        CFI (cfiCond190) VB load(1, XDATA, add(CFA_XSP16, literal(-15)))
        CFI (cfiCond190) V0 load(1, XDATA, add(CFA_XSP16, literal(-14)))
        CFI (cfiCond190) V1 load(1, XDATA, add(CFA_XSP16, literal(-13)))
        CFI (cfiCond190) V2 load(1, XDATA, add(CFA_XSP16, literal(-12)))
        CFI (cfiCond190) V3 load(1, XDATA, add(CFA_XSP16, literal(-11)))
        CFI (cfiCond190) V4 load(1, XDATA, add(CFA_XSP16, literal(-10)))
        CFI (cfiCond190) V5 load(1, XDATA, add(CFA_XSP16, literal(-9)))
        CFI (cfiCond190) V6 load(1, XDATA, add(CFA_XSP16, literal(-8)))
        CFI (cfiCond190) V7 load(1, XDATA, add(CFA_XSP16, literal(-7)))
        CFI (cfiCond190) R7 load(1, XDATA, add(CFA_XSP16, literal(-6)))
        CFI (cfiCond190) ?RET_LOW load(1, XDATA, add(CFA_XSP16, literal(-5)))
        CFI (cfiCond190) ?RET_HIGH load(1, XDATA, add(CFA_XSP16, literal(-4)))
        CFI (cfiCond190) ?BRET_EXT load(1, XDATA, add(CFA_XSP16, literal(-3)))
        CFI (cfiCond190) DPL0 load(1, XDATA, add(CFA_XSP16, literal(-2)))
        CFI (cfiCond190) DPH0 load(1, XDATA, add(CFA_XSP16, literal(-1)))
        CFI (cfiCond190) CFA_SP SP+0
        CFI (cfiCond190) CFA_XSP16 add(XSP16, 16)
        CFI Block cfiPicker191 Using cfiCommon1
        CFI (cfiPicker191) NoFunction
        CFI (cfiPicker191) Picker
        MOVX    A,@DPTR
        MOV     ?V0 + 0,A
        INC     DPTR
        MOVX    A,@DPTR
        MOV     ?V0 + 1,A
        RET
        CFI EndBlock cfiCond184
        CFI EndBlock cfiCond185
        CFI EndBlock cfiCond186
        CFI EndBlock cfiCond187
        CFI EndBlock cfiCond188
        CFI EndBlock cfiCond189
        CFI EndBlock cfiCond190
        CFI EndBlock cfiPicker191
//  869 
//  870 #if defined ( ZDO_USERDESC_RESPONSE )
//  871 /*********************************************************************
//  872  * @fn          ZDP_UserDescRsp
//  873  *
//  874  * @brief       Build and send the User Decriptor Response.
//  875  *
//  876  *
//  877  * @param       dstAddr - destination address
//  878  * @param       nwkAddrOfInterest -
//  879  * @param       userDesc -
//  880  * @param       SecurityEnable - Security Options
//  881  *
//  882  * @return      ZStatus_t
//  883  */
//  884 ZStatus_t ZDP_UserDescRsp( byte TransSeq, zAddrType_t *dstAddr,
//  885                 uint16 nwkAddrOfInterest, UserDescriptorFormat_t *userDesc,
//  886                 byte SecurityEnable )
//  887 {
//  888   byte *pBuf = ZDP_TmpBuf;
//  889   byte len = 1 + 2 + 1;  // Status + nwkAddr + descriptor length.
//  890 
//  891   len += userDesc->len;
//  892 
//  893   *pBuf++ = ZSUCCESS;
//  894 
//  895   *pBuf++ = LO_UINT16( nwkAddrOfInterest );
//  896   *pBuf++ = HI_UINT16( nwkAddrOfInterest );
//  897 
//  898   *pBuf++ = userDesc->len;
//  899   osal_memcpy( pBuf, userDesc->desc, userDesc->len );
//  900 
//  901   return (ZStatus_t)fillAndSend( &TransSeq, dstAddr, User_Desc_rsp, len );
//  902 }
//  903 #endif // ZDO_USERDESC_RESPONSE
//  904 
//  905 #if defined ( ZDO_SERVERDISC_RESPONSE )
//  906 /*********************************************************************
//  907  * @fn          ZDP_ServerDiscRsp
//  908  *
//  909  * @brief       Build and send the Server_Discovery_rsp response.
//  910  *
//  911  * @param       transID - Transaction sequence number of request.
//  912  * @param       dstAddr - Network Destination Address.
//  913  * @param       status - Status of response to request.
//  914  * @param       aoi - Network Address of Interest of request.
//  915  * @param       serverMask - Bit map of service(s) being sought.
//  916  * @param       SecurityEnable - Security Options
//  917  *
//  918  * @return      ZStatus_t
//  919  */
//  920 ZStatus_t ZDP_ServerDiscRsp( byte transID, zAddrType_t *dstAddr, byte status,
//  921                            uint16 aoi, uint16 serverMask, byte SecurityEnable )
//  922 {
//  923   const byte len = 1  + 2;  // status + aoi + mask.
//  924   byte *pBuf = ZDP_TmpBuf;
//  925 
//  926   *pBuf++ = status;
//  927 
//  928   *pBuf++ = LO_UINT16( serverMask );
//  929   *pBuf++ = HI_UINT16( serverMask );
//  930 
//  931   return (ZStatus_t)fillAndSend( &transID, dstAddr, Server_Discovery_rsp, len );
//  932 }
//  933 #endif // ZDO_USERDESC_RESPONSE
//  934 
//  935 /*********************************************************************
//  936  * @fn          ZDP_GenericRsp
//  937  *
//  938  * @brief       Sends a response message with only the parameter status
//  939  *              byte and the addr of interest for data.
//  940  *              This function sends unicast message to the
//  941  *              requesting device.
//  942  *
//  943  * @param       dstAddr - destination address
//  944  * @param       status  - generic status for response
//  945  * @param       aoi     - address of interest
//  946  * @param       dstAddr - destination address
//  947  * @param       rspId   - response cluster ID
//  948  * @param       SecurityEnable - Security Options
//  949  *
//  950  * @return      afStatus_t
//  951  */

        RSEG BANKED_CODE:CODE:NOROOT(0)
//  952 afStatus_t ZDP_GenericRsp( byte TransSeq, zAddrType_t *dstAddr,
ZDP_GenericRsp:
        CFI Block cfiBlock192 Using cfiCommon0
        CFI Function ZDP_GenericRsp
//  953                      byte status, uint16 aoi, uint16 rspID, byte SecurityEnable )
//  954 {
        FUNCALL ZDP_GenericRsp, fillAndSend
        LOCFRAME ISTACK, 0, STACK
        LOCFRAME PSTACK, 0, STACK
        LOCFRAME XSTACK, 13, STACK
        LOCFRAME IOVERLAY, 0, STATIC
        LOCFRAME DOVERLAY, 0, STATIC
        ARGFRAME ISTACK, 0, STACK
        ARGFRAME PSTACK, 0, STACK
        ARGFRAME XSTACK, 13, STACK
        ARGFRAME IOVERLAY, 0, STATIC
        ARGFRAME DOVERLAY, 0, STATIC
        MOV     A,#-0xa
        LCALL   ?BANKED_ENTER_XDATA
        CFI DPH0 load(1, XDATA, add(CFA_XSP16, literal(-1)))
        CFI DPL0 load(1, XDATA, add(CFA_XSP16, literal(-2)))
        CFI ?BRET_EXT load(1, XDATA, add(CFA_XSP16, literal(-3)))
        CFI ?RET_HIGH load(1, XDATA, add(CFA_XSP16, literal(-4)))
        CFI ?RET_LOW load(1, XDATA, add(CFA_XSP16, literal(-5)))
        CFI R7 load(1, XDATA, add(CFA_XSP16, literal(-6)))
        CFI V1 load(1, XDATA, add(CFA_XSP16, literal(-7)))
        CFI V0 load(1, XDATA, add(CFA_XSP16, literal(-8)))
        CFI VB load(1, XDATA, add(CFA_XSP16, literal(-9)))
        CFI R6 load(1, XDATA, add(CFA_XSP16, literal(-10)))
        CFI CFA_SP SP+0
        CFI CFA_XSP16 add(XSP16, 10)
        ; Saved register size: 10
        ; Auto size: 1
        MOV     A,#-0x1
        LCALL   ?ALLOC_XSTACK8
        CFI CFA_XSP16 add(XSP16, 11)
        MOV     A,R1
        MOV     DPL,?XSP + 0
        MOV     DPH,?XSP + 1
        MOVX    @DPTR,A
        MOV     A,#0xb
        LCALL   ?XSTACK_DISP0_8
        LCALL   ??Subroutine4_1 & 0xFFFF
??CrossCallReturnLabel_20:
        MOV     A,#0xd
        LCALL   ?XSTACK_DISP0_8
        LCALL   ?Subroutine3 & 0xFFFF
//  955   uint8 len;
//  956 
//  957   ZDP_TmpBuf[0] = status;
??CrossCallReturnLabel_10:
        MOV     A,R4
        PUSH    A
        CFI CFA_SP SP+-1
        LCALL   ?Subroutine20 & 0xFFFF
??CrossCallReturnLabel_64:
        POP     A
        CFI CFA_SP SP+0
        MOVX    @DPTR,A
//  958   ZDP_TmpBuf[1] = LO_UINT16( aoi );
        LCALL   ?Subroutine20 & 0xFFFF
??CrossCallReturnLabel_65:
        INC     DPTR
        MOV     A,R0
        LCALL   ?Subroutine17 & 0xFFFF
//  959   ZDP_TmpBuf[2] = HI_UINT16( aoi );
??CrossCallReturnLabel_56:
        MOV     A,R1
        LCALL   ?Subroutine17 & 0xFFFF
//  960 
//  961   // Length byte
//  962   ZDP_TmpBuf[3] = 0;
??CrossCallReturnLabel_57:
        INC     DPTR
        CLR     A
        MOVX    @DPTR,A
//  963   len = 4;
//  964   
//  965   return fillAndSend( &TransSeq, dstAddr, rspID, len );
        ; Setup parameters for call to function fillAndSend
        MOV     R0,#?V0 + 0
        LCALL   ?PUSH_XSTACK_I_TWO
        CFI CFA_XSP16 add(XSP16, 13)
        MOV     R1,#0x4
        MOV     A,R2
        MOV     R4,A
        MOV     A,R3
        MOV     R5,A
        MOV     A,#0x2
        LCALL   ?XSTACK_DISP0_8
        MOV     R2,DPL
        MOV     R3,DPH
        LCALL   ?Subroutine51 & 0xFFFF
??CrossCallReturnLabel_148:
        LCALL   ?DEALLOC_XSTACK8
        CFI CFA_XSP16 add(XSP16, 11)
        MOV     A,#0x1
        LJMP    ??Subroutine48_0 & 0xFFFF
        CFI EndBlock cfiBlock192
//  966 }

        RSEG BANKED_CODE:CODE:NOROOT(0)
?Subroutine31:
        CFI Block cfiCond193 Using cfiCommon0
        CFI NoFunction
        CFI Conditional ??CrossCallReturnLabel_142
        CFI R6 load(1, XDATA, add(CFA_XSP16, literal(-12)))
        CFI VB load(1, XDATA, add(CFA_XSP16, literal(-11)))
        CFI V0 load(1, XDATA, add(CFA_XSP16, literal(-10)))
        CFI V1 load(1, XDATA, add(CFA_XSP16, literal(-9)))
        CFI V2 load(1, XDATA, add(CFA_XSP16, literal(-8)))
        CFI V3 load(1, XDATA, add(CFA_XSP16, literal(-7)))
        CFI R7 load(1, XDATA, add(CFA_XSP16, literal(-6)))
        CFI ?RET_LOW load(1, XDATA, add(CFA_XSP16, literal(-5)))
        CFI ?RET_HIGH load(1, XDATA, add(CFA_XSP16, literal(-4)))
        CFI ?BRET_EXT load(1, XDATA, add(CFA_XSP16, literal(-3)))
        CFI DPL0 load(1, XDATA, add(CFA_XSP16, literal(-2)))
        CFI DPH0 load(1, XDATA, add(CFA_XSP16, literal(-1)))
        CFI CFA_SP SP+0
        CFI CFA_XSP16 add(XSP16, 23)
        CFI Block cfiCond194 Using cfiCommon0
        CFI (cfiCond194) NoFunction
        CFI (cfiCond194) Conditional ??CrossCallReturnLabel_143
        CFI (cfiCond194) R6 load(1, XDATA, add(CFA_XSP16, literal(-10)))
        CFI (cfiCond194) VB load(1, XDATA, add(CFA_XSP16, literal(-9)))
        CFI (cfiCond194) V0 load(1, XDATA, add(CFA_XSP16, literal(-8)))
        CFI (cfiCond194) V1 load(1, XDATA, add(CFA_XSP16, literal(-7)))
        CFI (cfiCond194) R7 load(1, XDATA, add(CFA_XSP16, literal(-6)))
        CFI (cfiCond194) ?RET_LOW load(1, XDATA, add(CFA_XSP16, literal(-5)))
        CFI (cfiCond194) ?RET_HIGH load(1, XDATA, add(CFA_XSP16, literal(-4)))
        CFI (cfiCond194) ?BRET_EXT load(1, XDATA, add(CFA_XSP16, literal(-3)))
        CFI (cfiCond194) DPL0 load(1, XDATA, add(CFA_XSP16, literal(-2)))
        CFI (cfiCond194) DPH0 load(1, XDATA, add(CFA_XSP16, literal(-1)))
        CFI (cfiCond194) CFA_SP SP+0
        CFI (cfiCond194) CFA_XSP16 add(XSP16, 21)
        CFI Block cfiPicker195 Using cfiCommon1
        CFI (cfiPicker195) NoFunction
        CFI (cfiPicker195) Picker
        MOV     R4,DPL
        MOV     R5,DPH
        CFI EndBlock cfiCond193
        CFI EndBlock cfiCond194
        CFI EndBlock cfiPicker195
        REQUIRE ?Subroutine53
        ; // Fall through to label ?Subroutine53

        RSEG BANKED_CODE:CODE:NOROOT(0)
?Subroutine53:
        CFI Block cfiCond196 Using cfiCommon0
        CFI NoFunction
        CFI Conditional ??CrossCallReturnLabel_142
        CFI R6 load(1, XDATA, add(CFA_XSP16, literal(-12)))
        CFI VB load(1, XDATA, add(CFA_XSP16, literal(-11)))
        CFI V0 load(1, XDATA, add(CFA_XSP16, literal(-10)))
        CFI V1 load(1, XDATA, add(CFA_XSP16, literal(-9)))
        CFI V2 load(1, XDATA, add(CFA_XSP16, literal(-8)))
        CFI V3 load(1, XDATA, add(CFA_XSP16, literal(-7)))
        CFI R7 load(1, XDATA, add(CFA_XSP16, literal(-6)))
        CFI ?RET_LOW load(1, XDATA, add(CFA_XSP16, literal(-5)))
        CFI ?RET_HIGH load(1, XDATA, add(CFA_XSP16, literal(-4)))
        CFI ?BRET_EXT load(1, XDATA, add(CFA_XSP16, literal(-3)))
        CFI DPL0 load(1, XDATA, add(CFA_XSP16, literal(-2)))
        CFI DPH0 load(1, XDATA, add(CFA_XSP16, literal(-1)))
        CFI CFA_SP SP+0
        CFI CFA_XSP16 add(XSP16, 23)
        CFI Block cfiCond197 Using cfiCommon0
        CFI (cfiCond197) NoFunction
        CFI (cfiCond197) Conditional ??CrossCallReturnLabel_143
        CFI (cfiCond197) R6 load(1, XDATA, add(CFA_XSP16, literal(-10)))
        CFI (cfiCond197) VB load(1, XDATA, add(CFA_XSP16, literal(-9)))
        CFI (cfiCond197) V0 load(1, XDATA, add(CFA_XSP16, literal(-8)))
        CFI (cfiCond197) V1 load(1, XDATA, add(CFA_XSP16, literal(-7)))
        CFI (cfiCond197) R7 load(1, XDATA, add(CFA_XSP16, literal(-6)))
        CFI (cfiCond197) ?RET_LOW load(1, XDATA, add(CFA_XSP16, literal(-5)))
        CFI (cfiCond197) ?RET_HIGH load(1, XDATA, add(CFA_XSP16, literal(-4)))
        CFI (cfiCond197) ?BRET_EXT load(1, XDATA, add(CFA_XSP16, literal(-3)))
        CFI (cfiCond197) DPL0 load(1, XDATA, add(CFA_XSP16, literal(-2)))
        CFI (cfiCond197) DPH0 load(1, XDATA, add(CFA_XSP16, literal(-1)))
        CFI (cfiCond197) CFA_SP SP+0
        CFI (cfiCond197) CFA_XSP16 add(XSP16, 21)
        CFI Block cfiCond198 Using cfiCommon0
        CFI (cfiCond198) NoFunction
        CFI (cfiCond198) Conditional ??CrossCallReturnLabel_144
        CFI (cfiCond198) R6 load(1, XDATA, add(CFA_XSP16, literal(-16)))
        CFI (cfiCond198) VB load(1, XDATA, add(CFA_XSP16, literal(-15)))
        CFI (cfiCond198) V0 load(1, XDATA, add(CFA_XSP16, literal(-14)))
        CFI (cfiCond198) V1 load(1, XDATA, add(CFA_XSP16, literal(-13)))
        CFI (cfiCond198) V2 load(1, XDATA, add(CFA_XSP16, literal(-12)))
        CFI (cfiCond198) V3 load(1, XDATA, add(CFA_XSP16, literal(-11)))
        CFI (cfiCond198) V4 load(1, XDATA, add(CFA_XSP16, literal(-10)))
        CFI (cfiCond198) V5 load(1, XDATA, add(CFA_XSP16, literal(-9)))
        CFI (cfiCond198) V6 load(1, XDATA, add(CFA_XSP16, literal(-8)))
        CFI (cfiCond198) V7 load(1, XDATA, add(CFA_XSP16, literal(-7)))
        CFI (cfiCond198) R7 load(1, XDATA, add(CFA_XSP16, literal(-6)))
        CFI (cfiCond198) ?RET_LOW load(1, XDATA, add(CFA_XSP16, literal(-5)))
        CFI (cfiCond198) ?RET_HIGH load(1, XDATA, add(CFA_XSP16, literal(-4)))
        CFI (cfiCond198) ?BRET_EXT load(1, XDATA, add(CFA_XSP16, literal(-3)))
        CFI (cfiCond198) DPL0 load(1, XDATA, add(CFA_XSP16, literal(-2)))
        CFI (cfiCond198) DPH0 load(1, XDATA, add(CFA_XSP16, literal(-1)))
        CFI (cfiCond198) CFA_SP SP+0
        CFI (cfiCond198) CFA_XSP16 add(XSP16, 18)
        CFI Block cfiCond199 Using cfiCommon0
        CFI (cfiCond199) NoFunction
        CFI (cfiCond199) Conditional ??CrossCallReturnLabel_140
        CFI (cfiCond199) R6 load(1, XDATA, add(CFA_XSP16, literal(-16)))
        CFI (cfiCond199) VB load(1, XDATA, add(CFA_XSP16, literal(-15)))
        CFI (cfiCond199) V0 load(1, XDATA, add(CFA_XSP16, literal(-14)))
        CFI (cfiCond199) V1 load(1, XDATA, add(CFA_XSP16, literal(-13)))
        CFI (cfiCond199) V2 load(1, XDATA, add(CFA_XSP16, literal(-12)))
        CFI (cfiCond199) V3 load(1, XDATA, add(CFA_XSP16, literal(-11)))
        CFI (cfiCond199) V4 load(1, XDATA, add(CFA_XSP16, literal(-10)))
        CFI (cfiCond199) V5 load(1, XDATA, add(CFA_XSP16, literal(-9)))
        CFI (cfiCond199) V6 load(1, XDATA, add(CFA_XSP16, literal(-8)))
        CFI (cfiCond199) V7 load(1, XDATA, add(CFA_XSP16, literal(-7)))
        CFI (cfiCond199) R7 load(1, XDATA, add(CFA_XSP16, literal(-6)))
        CFI (cfiCond199) ?RET_LOW load(1, XDATA, add(CFA_XSP16, literal(-5)))
        CFI (cfiCond199) ?RET_HIGH load(1, XDATA, add(CFA_XSP16, literal(-4)))
        CFI (cfiCond199) ?BRET_EXT load(1, XDATA, add(CFA_XSP16, literal(-3)))
        CFI (cfiCond199) DPL0 load(1, XDATA, add(CFA_XSP16, literal(-2)))
        CFI (cfiCond199) DPH0 load(1, XDATA, add(CFA_XSP16, literal(-1)))
        CFI (cfiCond199) CFA_SP SP+0
        CFI (cfiCond199) CFA_XSP16 add(XSP16, 21)
        CFI Block cfiCond200 Using cfiCommon0
        CFI (cfiCond200) NoFunction
        CFI (cfiCond200) Conditional ??CrossCallReturnLabel_141
        CFI (cfiCond200) R6 load(1, XDATA, add(CFA_XSP16, literal(-16)))
        CFI (cfiCond200) VB load(1, XDATA, add(CFA_XSP16, literal(-15)))
        CFI (cfiCond200) V0 load(1, XDATA, add(CFA_XSP16, literal(-14)))
        CFI (cfiCond200) V1 load(1, XDATA, add(CFA_XSP16, literal(-13)))
        CFI (cfiCond200) V2 load(1, XDATA, add(CFA_XSP16, literal(-12)))
        CFI (cfiCond200) V3 load(1, XDATA, add(CFA_XSP16, literal(-11)))
        CFI (cfiCond200) V4 load(1, XDATA, add(CFA_XSP16, literal(-10)))
        CFI (cfiCond200) V5 load(1, XDATA, add(CFA_XSP16, literal(-9)))
        CFI (cfiCond200) V6 load(1, XDATA, add(CFA_XSP16, literal(-8)))
        CFI (cfiCond200) V7 load(1, XDATA, add(CFA_XSP16, literal(-7)))
        CFI (cfiCond200) R7 load(1, XDATA, add(CFA_XSP16, literal(-6)))
        CFI (cfiCond200) ?RET_LOW load(1, XDATA, add(CFA_XSP16, literal(-5)))
        CFI (cfiCond200) ?RET_HIGH load(1, XDATA, add(CFA_XSP16, literal(-4)))
        CFI (cfiCond200) ?BRET_EXT load(1, XDATA, add(CFA_XSP16, literal(-3)))
        CFI (cfiCond200) DPL0 load(1, XDATA, add(CFA_XSP16, literal(-2)))
        CFI (cfiCond200) DPH0 load(1, XDATA, add(CFA_XSP16, literal(-1)))
        CFI (cfiCond200) CFA_SP SP+0
        CFI (cfiCond200) CFA_XSP16 add(XSP16, 20)
        CFI Block cfiPicker201 Using cfiCommon1
        CFI (cfiPicker201) NoFunction
        CFI (cfiPicker201) Picker
        MOV     R2,#(ZDP_TransID & 0xff)
        MOV     R3,#((ZDP_TransID >> 8) & 0xff)
        LJMP    ?Subroutine51 & 0xFFFF
        CFI EndBlock cfiCond196
        CFI EndBlock cfiCond197
        CFI EndBlock cfiCond198
        CFI EndBlock cfiCond199
        CFI EndBlock cfiCond200
        CFI EndBlock cfiPicker201

        RSEG BANKED_CODE:CODE:NOROOT(0)
?Subroutine20:
        CFI Block cfiCond202 Using cfiCommon0
        CFI NoFunction
        CFI Conditional ??CrossCallReturnLabel_64
        CFI R6 load(1, XDATA, add(CFA_XSP16, literal(-10)))
        CFI VB load(1, XDATA, add(CFA_XSP16, literal(-9)))
        CFI V0 load(1, XDATA, add(CFA_XSP16, literal(-8)))
        CFI V1 load(1, XDATA, add(CFA_XSP16, literal(-7)))
        CFI R7 load(1, XDATA, add(CFA_XSP16, literal(-6)))
        CFI ?RET_LOW load(1, XDATA, add(CFA_XSP16, literal(-5)))
        CFI ?RET_HIGH load(1, XDATA, add(CFA_XSP16, literal(-4)))
        CFI ?BRET_EXT load(1, XDATA, add(CFA_XSP16, literal(-3)))
        CFI DPL0 load(1, XDATA, add(CFA_XSP16, literal(-2)))
        CFI DPH0 load(1, XDATA, add(CFA_XSP16, literal(-1)))
        CFI CFA_SP SP+-1
        CFI CFA_XSP16 add(XSP16, 11)
        CFI Block cfiCond203 Using cfiCommon0
        CFI (cfiCond203) NoFunction
        CFI (cfiCond203) Conditional ??CrossCallReturnLabel_65
        CFI (cfiCond203) R6 load(1, XDATA, add(CFA_XSP16, literal(-10)))
        CFI (cfiCond203) VB load(1, XDATA, add(CFA_XSP16, literal(-9)))
        CFI (cfiCond203) V0 load(1, XDATA, add(CFA_XSP16, literal(-8)))
        CFI (cfiCond203) V1 load(1, XDATA, add(CFA_XSP16, literal(-7)))
        CFI (cfiCond203) R7 load(1, XDATA, add(CFA_XSP16, literal(-6)))
        CFI (cfiCond203) ?RET_LOW load(1, XDATA, add(CFA_XSP16, literal(-5)))
        CFI (cfiCond203) ?RET_HIGH load(1, XDATA, add(CFA_XSP16, literal(-4)))
        CFI (cfiCond203) ?BRET_EXT load(1, XDATA, add(CFA_XSP16, literal(-3)))
        CFI (cfiCond203) DPL0 load(1, XDATA, add(CFA_XSP16, literal(-2)))
        CFI (cfiCond203) DPH0 load(1, XDATA, add(CFA_XSP16, literal(-1)))
        CFI (cfiCond203) CFA_SP SP+0
        CFI (cfiCond203) CFA_XSP16 add(XSP16, 11)
        CFI Block cfiPicker204 Using cfiCommon1
        CFI (cfiPicker204) NoFunction
        CFI (cfiPicker204) Picker
        MOV     DPTR,#ZDP_TmpBuf
        MOVX    A,@DPTR
        MOV     R4,A
        INC     DPTR
        MOVX    A,@DPTR
        MOV     DPH,A
        MOV     DPL,R4
        RET
        CFI EndBlock cfiCond202
        CFI EndBlock cfiCond203
        CFI EndBlock cfiPicker204

        RSEG BANKED_CODE:CODE:NOROOT(0)
?Subroutine17:
        CFI Block cfiCond205 Using cfiCommon0
        CFI NoFunction
        CFI Conditional ??CrossCallReturnLabel_56
        CFI R6 load(1, XDATA, add(CFA_XSP16, literal(-10)))
        CFI VB load(1, XDATA, add(CFA_XSP16, literal(-9)))
        CFI V0 load(1, XDATA, add(CFA_XSP16, literal(-8)))
        CFI V1 load(1, XDATA, add(CFA_XSP16, literal(-7)))
        CFI R7 load(1, XDATA, add(CFA_XSP16, literal(-6)))
        CFI ?RET_LOW load(1, XDATA, add(CFA_XSP16, literal(-5)))
        CFI ?RET_HIGH load(1, XDATA, add(CFA_XSP16, literal(-4)))
        CFI ?BRET_EXT load(1, XDATA, add(CFA_XSP16, literal(-3)))
        CFI DPL0 load(1, XDATA, add(CFA_XSP16, literal(-2)))
        CFI DPH0 load(1, XDATA, add(CFA_XSP16, literal(-1)))
        CFI CFA_SP SP+0
        CFI CFA_XSP16 add(XSP16, 11)
        CFI Block cfiCond206 Using cfiCommon0
        CFI (cfiCond206) NoFunction
        CFI (cfiCond206) Conditional ??CrossCallReturnLabel_57
        CFI (cfiCond206) R6 load(1, XDATA, add(CFA_XSP16, literal(-10)))
        CFI (cfiCond206) VB load(1, XDATA, add(CFA_XSP16, literal(-9)))
        CFI (cfiCond206) V0 load(1, XDATA, add(CFA_XSP16, literal(-8)))
        CFI (cfiCond206) V1 load(1, XDATA, add(CFA_XSP16, literal(-7)))
        CFI (cfiCond206) R7 load(1, XDATA, add(CFA_XSP16, literal(-6)))
        CFI (cfiCond206) ?RET_LOW load(1, XDATA, add(CFA_XSP16, literal(-5)))
        CFI (cfiCond206) ?RET_HIGH load(1, XDATA, add(CFA_XSP16, literal(-4)))
        CFI (cfiCond206) ?BRET_EXT load(1, XDATA, add(CFA_XSP16, literal(-3)))
        CFI (cfiCond206) DPL0 load(1, XDATA, add(CFA_XSP16, literal(-2)))
        CFI (cfiCond206) DPH0 load(1, XDATA, add(CFA_XSP16, literal(-1)))
        CFI (cfiCond206) CFA_SP SP+0
        CFI (cfiCond206) CFA_XSP16 add(XSP16, 11)
        CFI Block cfiPicker207 Using cfiCommon1
        CFI (cfiPicker207) NoFunction
        CFI (cfiPicker207) Picker
        MOVX    @DPTR,A
        MOV     DPTR,#ZDP_TmpBuf
        LCALL   ?Subroutine40 & 0xFFFF
??CrossCallReturnLabel_118:
        INC     DPTR
        INC     DPTR
        RET
        CFI EndBlock cfiCond205
        CFI EndBlock cfiCond206
        CFI EndBlock cfiPicker207
//  967 
//  968 /*********************************************************************
//  969  * Binding
//  970  */
//  971 #if defined ( ZDO_ENDDEVICEBIND_REQUEST )
//  972 /*********************************************************************
//  973  * @fn          ZDP_EndDeviceBindReq
//  974  *
//  975  * @brief       This builds and sends a End_Device_Bind_req message.
//  976  *              This function sends a unicast message.
//  977  *
//  978  * @param       dstAddr - destination address
//  979  * @param       LocalCoordinator - short address of local coordinator
//  980  * @param       epIntf - Endpoint/Interface of Simple Desc
//  981  * @param       ProfileID - Profile ID
//  982  *
//  983  *   The Input cluster list is the opposite of what you would think.
//  984  *   This is the output cluster list of this device
//  985  * @param       NumInClusters - number of input clusters
//  986  * @param       InClusterList - input cluster ID list
//  987  *
//  988  *   The Output cluster list is the opposite of what you would think.
//  989  *   This is the input cluster list of this device
//  990  * @param       NumOutClusters - number of output clusters
//  991  * @param       OutClusterList - output cluster ID list
//  992  *
//  993  * @param       SecurityEnable - Security Options
//  994  *
//  995  * @return      afStatus_t
//  996  */

        RSEG BANKED_CODE:CODE:NOROOT(0)
//  997 afStatus_t ZDP_EndDeviceBindReq( zAddrType_t *dstAddr,
ZDP_EndDeviceBindReq:
        CFI Block cfiBlock208 Using cfiCommon0
        CFI Function ZDP_EndDeviceBindReq
//  998                                  uint16 LocalCoordinator,
//  999                                  byte endPoint,
// 1000                                  uint16 ProfileID,
// 1001                                  byte NumInClusters, cId_t *InClusterList,
// 1002                                  byte NumOutClusters, cId_t *OutClusterList,
// 1003                                  byte SecurityEnable )
// 1004 {
        FUNCALL ZDP_EndDeviceBindReq, NLME_GetShortAddr
        LOCFRAME ISTACK, 0, STACK
        LOCFRAME PSTACK, 0, STACK
        LOCFRAME XSTACK, 19, STACK
        LOCFRAME IOVERLAY, 0, STATIC
        LOCFRAME DOVERLAY, 0, STATIC
        ARGFRAME ISTACK, 0, STACK
        ARGFRAME PSTACK, 0, STACK
        ARGFRAME XSTACK, 19, STACK
        ARGFRAME IOVERLAY, 0, STATIC
        ARGFRAME DOVERLAY, 0, STATIC
        FUNCALL ZDP_EndDeviceBindReq, NLME_GetExtAddr
        LOCFRAME ISTACK, 0, STACK
        LOCFRAME PSTACK, 0, STACK
        LOCFRAME XSTACK, 19, STACK
        LOCFRAME IOVERLAY, 0, STATIC
        LOCFRAME DOVERLAY, 0, STATIC
        ARGFRAME ISTACK, 0, STACK
        ARGFRAME PSTACK, 0, STACK
        ARGFRAME XSTACK, 19, STACK
        ARGFRAME IOVERLAY, 0, STATIC
        ARGFRAME DOVERLAY, 0, STATIC
        FUNCALL ZDP_EndDeviceBindReq, osal_cpyExtAddr
        LOCFRAME ISTACK, 0, STACK
        LOCFRAME PSTACK, 0, STACK
        LOCFRAME XSTACK, 19, STACK
        LOCFRAME IOVERLAY, 0, STATIC
        LOCFRAME DOVERLAY, 0, STATIC
        ARGFRAME ISTACK, 0, STACK
        ARGFRAME PSTACK, 0, STACK
        ARGFRAME XSTACK, 19, STACK
        ARGFRAME IOVERLAY, 0, STATIC
        ARGFRAME DOVERLAY, 0, STATIC
        FUNCALL ZDP_EndDeviceBindReq, fillAndSend
        LOCFRAME ISTACK, 0, STACK
        LOCFRAME PSTACK, 0, STACK
        LOCFRAME XSTACK, 21, STACK
        LOCFRAME IOVERLAY, 0, STATIC
        LOCFRAME DOVERLAY, 0, STATIC
        ARGFRAME ISTACK, 0, STACK
        ARGFRAME PSTACK, 0, STACK
        ARGFRAME XSTACK, 21, STACK
        ARGFRAME IOVERLAY, 0, STATIC
        ARGFRAME DOVERLAY, 0, STATIC
        MOV     A,#-0x10
        LCALL   ?BANKED_ENTER_XDATA
        CFI DPH0 load(1, XDATA, add(CFA_XSP16, literal(-1)))
        CFI DPL0 load(1, XDATA, add(CFA_XSP16, literal(-2)))
        CFI ?BRET_EXT load(1, XDATA, add(CFA_XSP16, literal(-3)))
        CFI ?RET_HIGH load(1, XDATA, add(CFA_XSP16, literal(-4)))
        CFI ?RET_LOW load(1, XDATA, add(CFA_XSP16, literal(-5)))
        CFI R7 load(1, XDATA, add(CFA_XSP16, literal(-6)))
        CFI V7 load(1, XDATA, add(CFA_XSP16, literal(-7)))
        CFI V6 load(1, XDATA, add(CFA_XSP16, literal(-8)))
        CFI V5 load(1, XDATA, add(CFA_XSP16, literal(-9)))
        CFI V4 load(1, XDATA, add(CFA_XSP16, literal(-10)))
        CFI V3 load(1, XDATA, add(CFA_XSP16, literal(-11)))
        CFI V2 load(1, XDATA, add(CFA_XSP16, literal(-12)))
        CFI V1 load(1, XDATA, add(CFA_XSP16, literal(-13)))
        CFI V0 load(1, XDATA, add(CFA_XSP16, literal(-14)))
        CFI VB load(1, XDATA, add(CFA_XSP16, literal(-15)))
        CFI R6 load(1, XDATA, add(CFA_XSP16, literal(-16)))
        CFI CFA_SP SP+0
        CFI CFA_XSP16 add(XSP16, 16)
        ; Saved register size: 16
        ; Auto size: 3
        MOV     A,#-0x3
        LCALL   ?ALLOC_XSTACK8
        CFI CFA_XSP16 add(XSP16, 19)
        MOV     A,#0x1
        LCALL   ?XSTACK_DISP0_8
        LCALL   ?Subroutine25 & 0xFFFF
??CrossCallReturnLabel_77:
        MOV     A,R1
        MOV     DPL,?XSP + 0
        MOV     DPH,?XSP + 1
        MOVX    @DPTR,A
        MOV     A,R4
        MOV     R6,A
        MOV     A,R5
        MOV     R7,A
        MOV     A,#0x13
        LCALL   ?XSTACK_DISP0_8
        LCALL   ?Subroutine3 & 0xFFFF
??CrossCallReturnLabel_11:
        MOV     A,#0x18
        LCALL   ?XSTACK_DISP0_8
        MOVX    A,@DPTR
        MOV     ?V0 + 7,A
// 1005   uint8 *pBuf = ZDP_TmpBuf;
        MOV     DPTR,#ZDP_TmpBuf
        MOVX    A,@DPTR
        MOV     ?V0 + 2,A
        INC     DPTR
        MOVX    A,@DPTR
        MOV     ?V0 + 3,A
// 1006   uint8 i, len;
// 1007   uint8 *ieeeAddr;
// 1008 
// 1009   // LocalCoordinator + SrcExtAddr + ep + ProfileID +  NumInClusters + NumOutClusters.
// 1010   len = 2 + Z_EXTADDR_LEN + 1 + 2 + 1 + 1;
// 1011   len += (NumInClusters + NumOutClusters) * sizeof ( uint16 );
        MOV     A,#0x15
        LCALL   ?XSTACK_DISP0_8
        MOVX    A,@DPTR
        ADD     A,?V0 + 7
        CLR     C
        RLC     A
        ADD     A,#0xf
        MOV     ?V0 + 6,A
// 1012  
// 1013   if ( len >= ZDP_BUF_SZ-1 )
        CLR     C
        SUBB    A,#0x4f
        JC      ??ZDP_EndDeviceBindReq_0
// 1014   {
// 1015     return afStatus_MEM_FAIL;
        MOV     R1,#-0x7f
        LJMP    ??ZDP_EndDeviceBindReq_1 & 0xFFFF
// 1016   }
// 1017   
// 1018   if ( LocalCoordinator != NLME_GetShortAddr() )
??ZDP_EndDeviceBindReq_0:
        ; Setup parameters for call to function NLME_GetShortAddr
        LCALL   ??NLME_GetShortAddr?relay
        MOV     A,R2
        XRL     A,R6
        JNZ     ??ZDP_EndDeviceBindReq_2
        MOV     A,R3
        XRL     A,R7
??ZDP_EndDeviceBindReq_2:
        JZ      ??ZDP_EndDeviceBindReq_3
// 1019   {
// 1020     return afStatus_INVALID_PARAMETER;
        MOV     R1,#-0x7e
        LJMP    ??ZDP_EndDeviceBindReq_1 & 0xFFFF
// 1021   }
// 1022 
// 1023   *pBuf++ = LO_UINT16( LocalCoordinator );
??ZDP_EndDeviceBindReq_3:
        MOV     A,R6
        MOV     DPL,?V0 + 2
        MOV     DPH,?V0 + 3
        MOVX    @DPTR,A
        INC     DPTR
// 1024   *pBuf++ = HI_UINT16( LocalCoordinator );
        MOV     A,R7
        LCALL   ?Subroutine28 & 0xFFFF
// 1025 
// 1026   ieeeAddr = NLME_GetExtAddr();
// 1027   pBuf = osal_cpyExtAddr( pBuf, ieeeAddr );
??CrossCallReturnLabel_82:
        ; Setup parameters for call to function osal_cpyExtAddr
        ; Setup parameters for call to function NLME_GetExtAddr
        LCALL   ??NLME_GetExtAddr?relay
        MOV     A,R2
        MOV     R4,A
        MOV     A,R3
        MOV     R5,A
        MOV     R2,?V0 + 2
        MOV     R3,?V0 + 3
        LCALL   ??osal_cpyExtAddr?relay
// 1028   
// 1029   *pBuf++ = endPoint;
        MOV     DPL,?XSP + 0
        MOV     DPH,?XSP + 1
        LCALL   ?Subroutine39 & 0xFFFF
??CrossCallReturnLabel_114:
        INC     DPTR
// 1030 
// 1031   *pBuf++ = LO_UINT16( ProfileID );   // Profile ID
        MOV     A,?V0 + 0
        MOVX    @DPTR,A
        INC     DPTR
// 1032   *pBuf++ = HI_UINT16( ProfileID );
        MOV     A,?V0 + 1
        LCALL   ?Subroutine28 & 0xFFFF
// 1033 
// 1034   *pBuf++ = NumInClusters; // Input cluster list
??CrossCallReturnLabel_83:
        MOV     A,#0x15
        LCALL   ?XSTACK_DISP0_8
        MOVX    A,@DPTR
        MOV     DPL,?V0 + 2
        MOV     DPH,?V0 + 3
        LCALL   ?Subroutine24 & 0xFFFF
// 1035   for ( i = 0; i < NumInClusters; ++i )
??CrossCallReturnLabel_71:
        SJMP    ??CrossCallReturnLabel_2
// 1036   {
// 1037     *pBuf++ = LO_UINT16(InClusterList[i]);
??ZDP_EndDeviceBindReq_4:
        MOV     A,R2
        CLR     C
        RLC     A
        MOV     R0,A
        CLR     A
        RLC     A
        MOV     R1,A
        MOV     A,#0x16
        LCALL   ?XSTACK_DISP0_8
        LCALL   ?Subroutine1 & 0xFFFF
// 1038     *pBuf++ = HI_UINT16(InClusterList[i]);
// 1039   }
??CrossCallReturnLabel_2:
        MOV     A,#0x15
        LCALL   ?XSTACK_DISP0_8
        MOVX    A,@DPTR
        MOV     R3,A
        MOV     A,R2
        CLR     C
        SUBB    A,R3
        JC      ??ZDP_EndDeviceBindReq_4
// 1040 
// 1041   *pBuf++ = NumOutClusters; // Output cluster list
        MOV     DPL,?V0 + 2
        MOV     DPH,?V0 + 3
        MOV     A,?V0 + 7
        LCALL   ?Subroutine24 & 0xFFFF
// 1042   for ( i = 0; i < NumOutClusters; ++i )
??CrossCallReturnLabel_72:
        SJMP    ??CrossCallReturnLabel_3
// 1043   {
// 1044     *pBuf++ = LO_UINT16(OutClusterList[i]);
??ZDP_EndDeviceBindReq_5:
        MOV     A,R2
        CLR     C
        RLC     A
        MOV     R0,A
        CLR     A
        RLC     A
        MOV     R1,A
        MOV     A,#0x19
        LCALL   ?XSTACK_DISP0_8
        LCALL   ?Subroutine1 & 0xFFFF
// 1045     *pBuf++ = HI_UINT16(OutClusterList[i]);
// 1046   }
??CrossCallReturnLabel_3:
        MOV     A,R2
        CLR     C
        SUBB    A,?V0 + 7
        JC      ??ZDP_EndDeviceBindReq_5
// 1047 
// 1048   return fillAndSend( &ZDP_TransID, dstAddr, End_Device_Bind_req, len );
        ; Setup parameters for call to function fillAndSend
        MOV     ?V0 + 0,#0x20
        MOV     ?V0 + 1,#0x0
        MOV     R0,#?V0 + 0
        LCALL   ?PUSH_XSTACK_I_TWO
        CFI CFA_XSP16 add(XSP16, 21)
        MOV     R1,?V0 + 6
        MOV     A,#0x3
        LCALL   ?XSTACK_DISP0_8
        LCALL   ?Subroutine14 & 0xFFFF
??CrossCallReturnLabel_140:
        LCALL   ?DEALLOC_XSTACK8
        CFI CFA_XSP16 add(XSP16, 19)
??ZDP_EndDeviceBindReq_1:
        MOV     A,#0x3
        LJMP    ??Subroutine52_0 & 0xFFFF
        CFI EndBlock cfiBlock208
// 1049 }

        RSEG BANKED_CODE:CODE:NOROOT(0)
?Subroutine28:
        CFI Block cfiCond209 Using cfiCommon0
        CFI NoFunction
        CFI Conditional ??CrossCallReturnLabel_82
        CFI R6 load(1, XDATA, add(CFA_XSP16, literal(-16)))
        CFI VB load(1, XDATA, add(CFA_XSP16, literal(-15)))
        CFI V0 load(1, XDATA, add(CFA_XSP16, literal(-14)))
        CFI V1 load(1, XDATA, add(CFA_XSP16, literal(-13)))
        CFI V2 load(1, XDATA, add(CFA_XSP16, literal(-12)))
        CFI V3 load(1, XDATA, add(CFA_XSP16, literal(-11)))
        CFI V4 load(1, XDATA, add(CFA_XSP16, literal(-10)))
        CFI V5 load(1, XDATA, add(CFA_XSP16, literal(-9)))
        CFI V6 load(1, XDATA, add(CFA_XSP16, literal(-8)))
        CFI V7 load(1, XDATA, add(CFA_XSP16, literal(-7)))
        CFI R7 load(1, XDATA, add(CFA_XSP16, literal(-6)))
        CFI ?RET_LOW load(1, XDATA, add(CFA_XSP16, literal(-5)))
        CFI ?RET_HIGH load(1, XDATA, add(CFA_XSP16, literal(-4)))
        CFI ?BRET_EXT load(1, XDATA, add(CFA_XSP16, literal(-3)))
        CFI DPL0 load(1, XDATA, add(CFA_XSP16, literal(-2)))
        CFI DPH0 load(1, XDATA, add(CFA_XSP16, literal(-1)))
        CFI CFA_SP SP+0
        CFI CFA_XSP16 add(XSP16, 19)
        CFI Block cfiCond210 Using cfiCommon0
        CFI (cfiCond210) NoFunction
        CFI (cfiCond210) Conditional ??CrossCallReturnLabel_83
        CFI (cfiCond210) R6 load(1, XDATA, add(CFA_XSP16, literal(-16)))
        CFI (cfiCond210) VB load(1, XDATA, add(CFA_XSP16, literal(-15)))
        CFI (cfiCond210) V0 load(1, XDATA, add(CFA_XSP16, literal(-14)))
        CFI (cfiCond210) V1 load(1, XDATA, add(CFA_XSP16, literal(-13)))
        CFI (cfiCond210) V2 load(1, XDATA, add(CFA_XSP16, literal(-12)))
        CFI (cfiCond210) V3 load(1, XDATA, add(CFA_XSP16, literal(-11)))
        CFI (cfiCond210) V4 load(1, XDATA, add(CFA_XSP16, literal(-10)))
        CFI (cfiCond210) V5 load(1, XDATA, add(CFA_XSP16, literal(-9)))
        CFI (cfiCond210) V6 load(1, XDATA, add(CFA_XSP16, literal(-8)))
        CFI (cfiCond210) V7 load(1, XDATA, add(CFA_XSP16, literal(-7)))
        CFI (cfiCond210) R7 load(1, XDATA, add(CFA_XSP16, literal(-6)))
        CFI (cfiCond210) ?RET_LOW load(1, XDATA, add(CFA_XSP16, literal(-5)))
        CFI (cfiCond210) ?RET_HIGH load(1, XDATA, add(CFA_XSP16, literal(-4)))
        CFI (cfiCond210) ?BRET_EXT load(1, XDATA, add(CFA_XSP16, literal(-3)))
        CFI (cfiCond210) DPL0 load(1, XDATA, add(CFA_XSP16, literal(-2)))
        CFI (cfiCond210) DPH0 load(1, XDATA, add(CFA_XSP16, literal(-1)))
        CFI (cfiCond210) CFA_SP SP+0
        CFI (cfiCond210) CFA_XSP16 add(XSP16, 19)
        CFI Block cfiPicker211 Using cfiCommon1
        CFI (cfiPicker211) NoFunction
        CFI (cfiPicker211) Picker
        LCALL   ?Subroutine41 & 0xFFFF
??CrossCallReturnLabel_120:
        RET
        CFI EndBlock cfiCond209
        CFI EndBlock cfiCond210
        CFI EndBlock cfiPicker211

        RSEG BANKED_CODE:CODE:NOROOT(0)
?Subroutine41:
        CFI Block cfiCond212 Using cfiCommon0
        CFI NoFunction
        CFI Conditional ??CrossCallReturnLabel_120, ??CrossCallReturnLabel_82
        CFI R6 load(1, XDATA, add(CFA_XSP16, literal(-16)))
        CFI VB load(1, XDATA, add(CFA_XSP16, literal(-15)))
        CFI V0 load(1, XDATA, add(CFA_XSP16, literal(-14)))
        CFI V1 load(1, XDATA, add(CFA_XSP16, literal(-13)))
        CFI V2 load(1, XDATA, add(CFA_XSP16, literal(-12)))
        CFI V3 load(1, XDATA, add(CFA_XSP16, literal(-11)))
        CFI V4 load(1, XDATA, add(CFA_XSP16, literal(-10)))
        CFI V5 load(1, XDATA, add(CFA_XSP16, literal(-9)))
        CFI V6 load(1, XDATA, add(CFA_XSP16, literal(-8)))
        CFI V7 load(1, XDATA, add(CFA_XSP16, literal(-7)))
        CFI R7 load(1, XDATA, add(CFA_XSP16, literal(-6)))
        CFI ?RET_LOW load(1, XDATA, add(CFA_XSP16, literal(-5)))
        CFI ?RET_HIGH load(1, XDATA, add(CFA_XSP16, literal(-4)))
        CFI ?BRET_EXT load(1, XDATA, add(CFA_XSP16, literal(-3)))
        CFI DPL0 load(1, XDATA, add(CFA_XSP16, literal(-2)))
        CFI DPH0 load(1, XDATA, add(CFA_XSP16, literal(-1)))
        CFI CFA_SP SP+0
        CFI CFA_XSP16 add(XSP16, 19)
        CFI Block cfiCond213 Using cfiCommon0
        CFI (cfiCond213) NoFunction
        CFI (cfiCond213) Conditional ??CrossCallReturnLabel_120, ??CrossCallReturnLabel_83
        CFI (cfiCond213) R6 load(1, XDATA, add(CFA_XSP16, literal(-16)))
        CFI (cfiCond213) VB load(1, XDATA, add(CFA_XSP16, literal(-15)))
        CFI (cfiCond213) V0 load(1, XDATA, add(CFA_XSP16, literal(-14)))
        CFI (cfiCond213) V1 load(1, XDATA, add(CFA_XSP16, literal(-13)))
        CFI (cfiCond213) V2 load(1, XDATA, add(CFA_XSP16, literal(-12)))
        CFI (cfiCond213) V3 load(1, XDATA, add(CFA_XSP16, literal(-11)))
        CFI (cfiCond213) V4 load(1, XDATA, add(CFA_XSP16, literal(-10)))
        CFI (cfiCond213) V5 load(1, XDATA, add(CFA_XSP16, literal(-9)))
        CFI (cfiCond213) V6 load(1, XDATA, add(CFA_XSP16, literal(-8)))
        CFI (cfiCond213) V7 load(1, XDATA, add(CFA_XSP16, literal(-7)))
        CFI (cfiCond213) R7 load(1, XDATA, add(CFA_XSP16, literal(-6)))
        CFI (cfiCond213) ?RET_LOW load(1, XDATA, add(CFA_XSP16, literal(-5)))
        CFI (cfiCond213) ?RET_HIGH load(1, XDATA, add(CFA_XSP16, literal(-4)))
        CFI (cfiCond213) ?BRET_EXT load(1, XDATA, add(CFA_XSP16, literal(-3)))
        CFI (cfiCond213) DPL0 load(1, XDATA, add(CFA_XSP16, literal(-2)))
        CFI (cfiCond213) DPH0 load(1, XDATA, add(CFA_XSP16, literal(-1)))
        CFI (cfiCond213) CFA_SP SP+0
        CFI (cfiCond213) CFA_XSP16 add(XSP16, 19)
        CFI Block cfiCond214 Using cfiCommon0
        CFI (cfiCond214) NoFunction
        CFI (cfiCond214) Conditional ??CrossCallReturnLabel_119, ??CrossCallReturnLabel_71
        CFI (cfiCond214) R6 load(1, XDATA, add(CFA_XSP16, literal(-16)))
        CFI (cfiCond214) VB load(1, XDATA, add(CFA_XSP16, literal(-15)))
        CFI (cfiCond214) V0 load(1, XDATA, add(CFA_XSP16, literal(-14)))
        CFI (cfiCond214) V1 load(1, XDATA, add(CFA_XSP16, literal(-13)))
        CFI (cfiCond214) V2 load(1, XDATA, add(CFA_XSP16, literal(-12)))
        CFI (cfiCond214) V3 load(1, XDATA, add(CFA_XSP16, literal(-11)))
        CFI (cfiCond214) V4 load(1, XDATA, add(CFA_XSP16, literal(-10)))
        CFI (cfiCond214) V5 load(1, XDATA, add(CFA_XSP16, literal(-9)))
        CFI (cfiCond214) V6 load(1, XDATA, add(CFA_XSP16, literal(-8)))
        CFI (cfiCond214) V7 load(1, XDATA, add(CFA_XSP16, literal(-7)))
        CFI (cfiCond214) R7 load(1, XDATA, add(CFA_XSP16, literal(-6)))
        CFI (cfiCond214) ?RET_LOW load(1, XDATA, add(CFA_XSP16, literal(-5)))
        CFI (cfiCond214) ?RET_HIGH load(1, XDATA, add(CFA_XSP16, literal(-4)))
        CFI (cfiCond214) ?BRET_EXT load(1, XDATA, add(CFA_XSP16, literal(-3)))
        CFI (cfiCond214) DPL0 load(1, XDATA, add(CFA_XSP16, literal(-2)))
        CFI (cfiCond214) DPH0 load(1, XDATA, add(CFA_XSP16, literal(-1)))
        CFI (cfiCond214) CFA_SP SP+0
        CFI (cfiCond214) CFA_XSP16 add(XSP16, 19)
        CFI Block cfiCond215 Using cfiCommon0
        CFI (cfiCond215) NoFunction
        CFI (cfiCond215) Conditional ??CrossCallReturnLabel_119, ??CrossCallReturnLabel_72
        CFI (cfiCond215) R6 load(1, XDATA, add(CFA_XSP16, literal(-16)))
        CFI (cfiCond215) VB load(1, XDATA, add(CFA_XSP16, literal(-15)))
        CFI (cfiCond215) V0 load(1, XDATA, add(CFA_XSP16, literal(-14)))
        CFI (cfiCond215) V1 load(1, XDATA, add(CFA_XSP16, literal(-13)))
        CFI (cfiCond215) V2 load(1, XDATA, add(CFA_XSP16, literal(-12)))
        CFI (cfiCond215) V3 load(1, XDATA, add(CFA_XSP16, literal(-11)))
        CFI (cfiCond215) V4 load(1, XDATA, add(CFA_XSP16, literal(-10)))
        CFI (cfiCond215) V5 load(1, XDATA, add(CFA_XSP16, literal(-9)))
        CFI (cfiCond215) V6 load(1, XDATA, add(CFA_XSP16, literal(-8)))
        CFI (cfiCond215) V7 load(1, XDATA, add(CFA_XSP16, literal(-7)))
        CFI (cfiCond215) R7 load(1, XDATA, add(CFA_XSP16, literal(-6)))
        CFI (cfiCond215) ?RET_LOW load(1, XDATA, add(CFA_XSP16, literal(-5)))
        CFI (cfiCond215) ?RET_HIGH load(1, XDATA, add(CFA_XSP16, literal(-4)))
        CFI (cfiCond215) ?BRET_EXT load(1, XDATA, add(CFA_XSP16, literal(-3)))
        CFI (cfiCond215) DPL0 load(1, XDATA, add(CFA_XSP16, literal(-2)))
        CFI (cfiCond215) DPH0 load(1, XDATA, add(CFA_XSP16, literal(-1)))
        CFI (cfiCond215) CFA_SP SP+0
        CFI (cfiCond215) CFA_XSP16 add(XSP16, 19)
        CFI Block cfiPicker216 Using cfiCommon1
        CFI (cfiPicker216) NoFunction
        CFI (cfiPicker216) Picker
        LCALL   ?Subroutine44 & 0xFFFF
??CrossCallReturnLabel_127:
        RET
        CFI EndBlock cfiCond212
        CFI EndBlock cfiCond213
        CFI EndBlock cfiCond214
        CFI EndBlock cfiCond215
        CFI EndBlock cfiPicker216

        RSEG BANKED_CODE:CODE:NOROOT(0)
?Subroutine25:
        CFI Block cfiCond217 Using cfiCommon0
        CFI NoFunction
        CFI Conditional ??CrossCallReturnLabel_75
        CFI R6 load(1, XDATA, add(CFA_XSP16, literal(-15)))
        CFI VB load(1, XDATA, add(CFA_XSP16, literal(-14)))
        CFI V0 load(1, XDATA, add(CFA_XSP16, literal(-13)))
        CFI V1 load(1, XDATA, add(CFA_XSP16, literal(-12)))
        CFI V2 load(1, XDATA, add(CFA_XSP16, literal(-11)))
        CFI V3 load(1, XDATA, add(CFA_XSP16, literal(-10)))
        CFI V4 load(1, XDATA, add(CFA_XSP16, literal(-9)))
        CFI V5 load(1, XDATA, add(CFA_XSP16, literal(-8)))
        CFI V6 load(1, XDATA, add(CFA_XSP16, literal(-7)))
        CFI R7 load(1, XDATA, add(CFA_XSP16, literal(-6)))
        CFI ?RET_LOW load(1, XDATA, add(CFA_XSP16, literal(-5)))
        CFI ?RET_HIGH load(1, XDATA, add(CFA_XSP16, literal(-4)))
        CFI ?BRET_EXT load(1, XDATA, add(CFA_XSP16, literal(-3)))
        CFI DPL0 load(1, XDATA, add(CFA_XSP16, literal(-2)))
        CFI DPH0 load(1, XDATA, add(CFA_XSP16, literal(-1)))
        CFI CFA_SP SP+0
        CFI CFA_XSP16 add(XSP16, 19)
        CFI Block cfiCond218 Using cfiCommon0
        CFI (cfiCond218) NoFunction
        CFI (cfiCond218) Conditional ??CrossCallReturnLabel_76
        CFI (cfiCond218) R6 load(1, XDATA, add(CFA_XSP16, literal(-10)))
        CFI (cfiCond218) VB load(1, XDATA, add(CFA_XSP16, literal(-9)))
        CFI (cfiCond218) V0 load(1, XDATA, add(CFA_XSP16, literal(-8)))
        CFI (cfiCond218) V1 load(1, XDATA, add(CFA_XSP16, literal(-7)))
        CFI (cfiCond218) R7 load(1, XDATA, add(CFA_XSP16, literal(-6)))
        CFI (cfiCond218) ?RET_LOW load(1, XDATA, add(CFA_XSP16, literal(-5)))
        CFI (cfiCond218) ?RET_HIGH load(1, XDATA, add(CFA_XSP16, literal(-4)))
        CFI (cfiCond218) ?BRET_EXT load(1, XDATA, add(CFA_XSP16, literal(-3)))
        CFI (cfiCond218) DPL0 load(1, XDATA, add(CFA_XSP16, literal(-2)))
        CFI (cfiCond218) DPH0 load(1, XDATA, add(CFA_XSP16, literal(-1)))
        CFI (cfiCond218) CFA_SP SP+0
        CFI (cfiCond218) CFA_XSP16 add(XSP16, 19)
        CFI Block cfiCond219 Using cfiCommon0
        CFI (cfiCond219) NoFunction
        CFI (cfiCond219) Conditional ??CrossCallReturnLabel_73
        CFI (cfiCond219) R6 load(1, XDATA, add(CFA_XSP16, literal(-16)))
        CFI (cfiCond219) VB load(1, XDATA, add(CFA_XSP16, literal(-15)))
        CFI (cfiCond219) V0 load(1, XDATA, add(CFA_XSP16, literal(-14)))
        CFI (cfiCond219) V1 load(1, XDATA, add(CFA_XSP16, literal(-13)))
        CFI (cfiCond219) V2 load(1, XDATA, add(CFA_XSP16, literal(-12)))
        CFI (cfiCond219) V3 load(1, XDATA, add(CFA_XSP16, literal(-11)))
        CFI (cfiCond219) V4 load(1, XDATA, add(CFA_XSP16, literal(-10)))
        CFI (cfiCond219) V5 load(1, XDATA, add(CFA_XSP16, literal(-9)))
        CFI (cfiCond219) V6 load(1, XDATA, add(CFA_XSP16, literal(-8)))
        CFI (cfiCond219) V7 load(1, XDATA, add(CFA_XSP16, literal(-7)))
        CFI (cfiCond219) R7 load(1, XDATA, add(CFA_XSP16, literal(-6)))
        CFI (cfiCond219) ?RET_LOW load(1, XDATA, add(CFA_XSP16, literal(-5)))
        CFI (cfiCond219) ?RET_HIGH load(1, XDATA, add(CFA_XSP16, literal(-4)))
        CFI (cfiCond219) ?BRET_EXT load(1, XDATA, add(CFA_XSP16, literal(-3)))
        CFI (cfiCond219) DPL0 load(1, XDATA, add(CFA_XSP16, literal(-2)))
        CFI (cfiCond219) DPH0 load(1, XDATA, add(CFA_XSP16, literal(-1)))
        CFI (cfiCond219) CFA_SP SP+0
        CFI (cfiCond219) CFA_XSP16 add(XSP16, 16)
        CFI Block cfiCond220 Using cfiCommon0
        CFI (cfiCond220) NoFunction
        CFI (cfiCond220) Conditional ??CrossCallReturnLabel_77
        CFI (cfiCond220) R6 load(1, XDATA, add(CFA_XSP16, literal(-16)))
        CFI (cfiCond220) VB load(1, XDATA, add(CFA_XSP16, literal(-15)))
        CFI (cfiCond220) V0 load(1, XDATA, add(CFA_XSP16, literal(-14)))
        CFI (cfiCond220) V1 load(1, XDATA, add(CFA_XSP16, literal(-13)))
        CFI (cfiCond220) V2 load(1, XDATA, add(CFA_XSP16, literal(-12)))
        CFI (cfiCond220) V3 load(1, XDATA, add(CFA_XSP16, literal(-11)))
        CFI (cfiCond220) V4 load(1, XDATA, add(CFA_XSP16, literal(-10)))
        CFI (cfiCond220) V5 load(1, XDATA, add(CFA_XSP16, literal(-9)))
        CFI (cfiCond220) V6 load(1, XDATA, add(CFA_XSP16, literal(-8)))
        CFI (cfiCond220) V7 load(1, XDATA, add(CFA_XSP16, literal(-7)))
        CFI (cfiCond220) R7 load(1, XDATA, add(CFA_XSP16, literal(-6)))
        CFI (cfiCond220) ?RET_LOW load(1, XDATA, add(CFA_XSP16, literal(-5)))
        CFI (cfiCond220) ?RET_HIGH load(1, XDATA, add(CFA_XSP16, literal(-4)))
        CFI (cfiCond220) ?BRET_EXT load(1, XDATA, add(CFA_XSP16, literal(-3)))
        CFI (cfiCond220) DPL0 load(1, XDATA, add(CFA_XSP16, literal(-2)))
        CFI (cfiCond220) DPH0 load(1, XDATA, add(CFA_XSP16, literal(-1)))
        CFI (cfiCond220) CFA_SP SP+0
        CFI (cfiCond220) CFA_XSP16 add(XSP16, 19)
        CFI Block cfiCond221 Using cfiCommon0
        CFI (cfiCond221) NoFunction
        CFI (cfiCond221) Conditional ??CrossCallReturnLabel_78
        CFI (cfiCond221) R6 load(1, XDATA, add(CFA_XSP16, literal(-16)))
        CFI (cfiCond221) VB load(1, XDATA, add(CFA_XSP16, literal(-15)))
        CFI (cfiCond221) V0 load(1, XDATA, add(CFA_XSP16, literal(-14)))
        CFI (cfiCond221) V1 load(1, XDATA, add(CFA_XSP16, literal(-13)))
        CFI (cfiCond221) V2 load(1, XDATA, add(CFA_XSP16, literal(-12)))
        CFI (cfiCond221) V3 load(1, XDATA, add(CFA_XSP16, literal(-11)))
        CFI (cfiCond221) V4 load(1, XDATA, add(CFA_XSP16, literal(-10)))
        CFI (cfiCond221) V5 load(1, XDATA, add(CFA_XSP16, literal(-9)))
        CFI (cfiCond221) V6 load(1, XDATA, add(CFA_XSP16, literal(-8)))
        CFI (cfiCond221) V7 load(1, XDATA, add(CFA_XSP16, literal(-7)))
        CFI (cfiCond221) R7 load(1, XDATA, add(CFA_XSP16, literal(-6)))
        CFI (cfiCond221) ?RET_LOW load(1, XDATA, add(CFA_XSP16, literal(-5)))
        CFI (cfiCond221) ?RET_HIGH load(1, XDATA, add(CFA_XSP16, literal(-4)))
        CFI (cfiCond221) ?BRET_EXT load(1, XDATA, add(CFA_XSP16, literal(-3)))
        CFI (cfiCond221) DPL0 load(1, XDATA, add(CFA_XSP16, literal(-2)))
        CFI (cfiCond221) DPH0 load(1, XDATA, add(CFA_XSP16, literal(-1)))
        CFI (cfiCond221) CFA_SP SP+0
        CFI (cfiCond221) CFA_XSP16 add(XSP16, 16)
        CFI Block cfiCond222 Using cfiCommon0
        CFI (cfiCond222) NoFunction
        CFI (cfiCond222) Conditional ??CrossCallReturnLabel_79
        CFI (cfiCond222) R6 load(1, XDATA, add(CFA_XSP16, literal(-12)))
        CFI (cfiCond222) VB load(1, XDATA, add(CFA_XSP16, literal(-11)))
        CFI (cfiCond222) V0 load(1, XDATA, add(CFA_XSP16, literal(-10)))
        CFI (cfiCond222) V1 load(1, XDATA, add(CFA_XSP16, literal(-9)))
        CFI (cfiCond222) V2 load(1, XDATA, add(CFA_XSP16, literal(-8)))
        CFI (cfiCond222) V3 load(1, XDATA, add(CFA_XSP16, literal(-7)))
        CFI (cfiCond222) R7 load(1, XDATA, add(CFA_XSP16, literal(-6)))
        CFI (cfiCond222) ?RET_LOW load(1, XDATA, add(CFA_XSP16, literal(-5)))
        CFI (cfiCond222) ?RET_HIGH load(1, XDATA, add(CFA_XSP16, literal(-4)))
        CFI (cfiCond222) ?BRET_EXT load(1, XDATA, add(CFA_XSP16, literal(-3)))
        CFI (cfiCond222) DPL0 load(1, XDATA, add(CFA_XSP16, literal(-2)))
        CFI (cfiCond222) DPH0 load(1, XDATA, add(CFA_XSP16, literal(-1)))
        CFI (cfiCond222) CFA_SP SP+0
        CFI (cfiCond222) CFA_XSP16 add(XSP16, 31)
        CFI Block cfiPicker223 Using cfiCommon1
        CFI (cfiPicker223) NoFunction
        CFI (cfiPicker223) Picker
        MOV     A,R2
        CFI Block cfiCond224 Using cfiCommon0
        CFI (cfiCond224) NoFunction
        CFI (cfiCond224) Conditional ??CrossCallReturnLabel_74
        CFI (cfiCond224) R6 load(1, XDATA, add(CFA_XSP16, literal(-10)))
        CFI (cfiCond224) VB load(1, XDATA, add(CFA_XSP16, literal(-9)))
        CFI (cfiCond224) V0 load(1, XDATA, add(CFA_XSP16, literal(-8)))
        CFI (cfiCond224) V1 load(1, XDATA, add(CFA_XSP16, literal(-7)))
        CFI (cfiCond224) R7 load(1, XDATA, add(CFA_XSP16, literal(-6)))
        CFI (cfiCond224) ?RET_LOW load(1, XDATA, add(CFA_XSP16, literal(-5)))
        CFI (cfiCond224) ?RET_HIGH load(1, XDATA, add(CFA_XSP16, literal(-4)))
        CFI (cfiCond224) ?BRET_EXT load(1, XDATA, add(CFA_XSP16, literal(-3)))
        CFI (cfiCond224) DPL0 load(1, XDATA, add(CFA_XSP16, literal(-2)))
        CFI (cfiCond224) DPH0 load(1, XDATA, add(CFA_XSP16, literal(-1)))
        CFI (cfiCond224) CFA_SP SP+0
        CFI (cfiCond224) CFA_XSP16 add(XSP16, 19)
??Subroutine25_0:
        MOVX    @DPTR,A
        INC     DPTR
        MOV     A,R3
        MOVX    @DPTR,A
        RET
        CFI EndBlock cfiCond217
        CFI EndBlock cfiCond218
        CFI EndBlock cfiCond219
        CFI EndBlock cfiCond220
        CFI EndBlock cfiCond221
        CFI EndBlock cfiCond222
        CFI EndBlock cfiPicker223
        CFI EndBlock cfiCond224

        RSEG BANKED_CODE:CODE:NOROOT(0)
?Subroutine24:
        CFI Block cfiCond225 Using cfiCommon0
        CFI NoFunction
        CFI Conditional ??CrossCallReturnLabel_71
        CFI R6 load(1, XDATA, add(CFA_XSP16, literal(-16)))
        CFI VB load(1, XDATA, add(CFA_XSP16, literal(-15)))
        CFI V0 load(1, XDATA, add(CFA_XSP16, literal(-14)))
        CFI V1 load(1, XDATA, add(CFA_XSP16, literal(-13)))
        CFI V2 load(1, XDATA, add(CFA_XSP16, literal(-12)))
        CFI V3 load(1, XDATA, add(CFA_XSP16, literal(-11)))
        CFI V4 load(1, XDATA, add(CFA_XSP16, literal(-10)))
        CFI V5 load(1, XDATA, add(CFA_XSP16, literal(-9)))
        CFI V6 load(1, XDATA, add(CFA_XSP16, literal(-8)))
        CFI V7 load(1, XDATA, add(CFA_XSP16, literal(-7)))
        CFI R7 load(1, XDATA, add(CFA_XSP16, literal(-6)))
        CFI ?RET_LOW load(1, XDATA, add(CFA_XSP16, literal(-5)))
        CFI ?RET_HIGH load(1, XDATA, add(CFA_XSP16, literal(-4)))
        CFI ?BRET_EXT load(1, XDATA, add(CFA_XSP16, literal(-3)))
        CFI DPL0 load(1, XDATA, add(CFA_XSP16, literal(-2)))
        CFI DPH0 load(1, XDATA, add(CFA_XSP16, literal(-1)))
        CFI CFA_SP SP+0
        CFI CFA_XSP16 add(XSP16, 19)
        CFI Block cfiCond226 Using cfiCommon0
        CFI (cfiCond226) NoFunction
        CFI (cfiCond226) Conditional ??CrossCallReturnLabel_72
        CFI (cfiCond226) R6 load(1, XDATA, add(CFA_XSP16, literal(-16)))
        CFI (cfiCond226) VB load(1, XDATA, add(CFA_XSP16, literal(-15)))
        CFI (cfiCond226) V0 load(1, XDATA, add(CFA_XSP16, literal(-14)))
        CFI (cfiCond226) V1 load(1, XDATA, add(CFA_XSP16, literal(-13)))
        CFI (cfiCond226) V2 load(1, XDATA, add(CFA_XSP16, literal(-12)))
        CFI (cfiCond226) V3 load(1, XDATA, add(CFA_XSP16, literal(-11)))
        CFI (cfiCond226) V4 load(1, XDATA, add(CFA_XSP16, literal(-10)))
        CFI (cfiCond226) V5 load(1, XDATA, add(CFA_XSP16, literal(-9)))
        CFI (cfiCond226) V6 load(1, XDATA, add(CFA_XSP16, literal(-8)))
        CFI (cfiCond226) V7 load(1, XDATA, add(CFA_XSP16, literal(-7)))
        CFI (cfiCond226) R7 load(1, XDATA, add(CFA_XSP16, literal(-6)))
        CFI (cfiCond226) ?RET_LOW load(1, XDATA, add(CFA_XSP16, literal(-5)))
        CFI (cfiCond226) ?RET_HIGH load(1, XDATA, add(CFA_XSP16, literal(-4)))
        CFI (cfiCond226) ?BRET_EXT load(1, XDATA, add(CFA_XSP16, literal(-3)))
        CFI (cfiCond226) DPL0 load(1, XDATA, add(CFA_XSP16, literal(-2)))
        CFI (cfiCond226) DPH0 load(1, XDATA, add(CFA_XSP16, literal(-1)))
        CFI (cfiCond226) CFA_SP SP+0
        CFI (cfiCond226) CFA_XSP16 add(XSP16, 19)
        CFI Block cfiPicker227 Using cfiCommon1
        CFI (cfiPicker227) NoFunction
        CFI (cfiPicker227) Picker
        LCALL   ?Subroutine41 & 0xFFFF
??CrossCallReturnLabel_119:
        MOV     R2,#0x0
        RET
        CFI EndBlock cfiCond225
        CFI EndBlock cfiCond226
        CFI EndBlock cfiPicker227

        RSEG BANKED_CODE:CODE:NOROOT(0)
?Subroutine1:
        CFI Block cfiCond228 Using cfiCommon0
        CFI NoFunction
        CFI Conditional ??CrossCallReturnLabel_2
        CFI R6 load(1, XDATA, add(CFA_XSP16, literal(-16)))
        CFI VB load(1, XDATA, add(CFA_XSP16, literal(-15)))
        CFI V0 load(1, XDATA, add(CFA_XSP16, literal(-14)))
        CFI V1 load(1, XDATA, add(CFA_XSP16, literal(-13)))
        CFI V2 load(1, XDATA, add(CFA_XSP16, literal(-12)))
        CFI V3 load(1, XDATA, add(CFA_XSP16, literal(-11)))
        CFI V4 load(1, XDATA, add(CFA_XSP16, literal(-10)))
        CFI V5 load(1, XDATA, add(CFA_XSP16, literal(-9)))
        CFI V6 load(1, XDATA, add(CFA_XSP16, literal(-8)))
        CFI V7 load(1, XDATA, add(CFA_XSP16, literal(-7)))
        CFI R7 load(1, XDATA, add(CFA_XSP16, literal(-6)))
        CFI ?RET_LOW load(1, XDATA, add(CFA_XSP16, literal(-5)))
        CFI ?RET_HIGH load(1, XDATA, add(CFA_XSP16, literal(-4)))
        CFI ?BRET_EXT load(1, XDATA, add(CFA_XSP16, literal(-3)))
        CFI DPL0 load(1, XDATA, add(CFA_XSP16, literal(-2)))
        CFI DPH0 load(1, XDATA, add(CFA_XSP16, literal(-1)))
        CFI CFA_SP SP+0
        CFI CFA_XSP16 add(XSP16, 19)
        CFI Block cfiCond229 Using cfiCommon0
        CFI (cfiCond229) NoFunction
        CFI (cfiCond229) Conditional ??CrossCallReturnLabel_3
        CFI (cfiCond229) R6 load(1, XDATA, add(CFA_XSP16, literal(-16)))
        CFI (cfiCond229) VB load(1, XDATA, add(CFA_XSP16, literal(-15)))
        CFI (cfiCond229) V0 load(1, XDATA, add(CFA_XSP16, literal(-14)))
        CFI (cfiCond229) V1 load(1, XDATA, add(CFA_XSP16, literal(-13)))
        CFI (cfiCond229) V2 load(1, XDATA, add(CFA_XSP16, literal(-12)))
        CFI (cfiCond229) V3 load(1, XDATA, add(CFA_XSP16, literal(-11)))
        CFI (cfiCond229) V4 load(1, XDATA, add(CFA_XSP16, literal(-10)))
        CFI (cfiCond229) V5 load(1, XDATA, add(CFA_XSP16, literal(-9)))
        CFI (cfiCond229) V6 load(1, XDATA, add(CFA_XSP16, literal(-8)))
        CFI (cfiCond229) V7 load(1, XDATA, add(CFA_XSP16, literal(-7)))
        CFI (cfiCond229) R7 load(1, XDATA, add(CFA_XSP16, literal(-6)))
        CFI (cfiCond229) ?RET_LOW load(1, XDATA, add(CFA_XSP16, literal(-5)))
        CFI (cfiCond229) ?RET_HIGH load(1, XDATA, add(CFA_XSP16, literal(-4)))
        CFI (cfiCond229) ?BRET_EXT load(1, XDATA, add(CFA_XSP16, literal(-3)))
        CFI (cfiCond229) DPL0 load(1, XDATA, add(CFA_XSP16, literal(-2)))
        CFI (cfiCond229) DPH0 load(1, XDATA, add(CFA_XSP16, literal(-1)))
        CFI (cfiCond229) CFA_SP SP+0
        CFI (cfiCond229) CFA_XSP16 add(XSP16, 19)
        CFI Block cfiPicker230 Using cfiCommon1
        CFI (cfiPicker230) NoFunction
        CFI (cfiPicker230) Picker
        MOVX    A,@DPTR
        ADD     A,R0
        MOV     R0,A
        INC     DPTR
        MOVX    A,@DPTR
        ADDC    A,R1
        MOV     R1,A
        MOV     DPL,R0
        MOV     DPH,R1
        LCALL   ?Subroutine36 & 0xFFFF
??CrossCallReturnLabel_110:
        MOV     DPL,R0
        MOV     DPH,R1
        INC     DPTR
        LCALL   ?Subroutine36 & 0xFFFF
??CrossCallReturnLabel_111:
        INC     R2
        RET
        CFI EndBlock cfiCond228
        CFI EndBlock cfiCond229
        CFI EndBlock cfiPicker230

        RSEG BANKED_CODE:CODE:NOROOT(0)
?Subroutine36:
        CFI Block cfiCond231 Using cfiCommon0
        CFI NoFunction
        CFI Conditional ??CrossCallReturnLabel_110, ??CrossCallReturnLabel_2
        CFI R6 load(1, XDATA, add(CFA_XSP16, literal(-16)))
        CFI VB load(1, XDATA, add(CFA_XSP16, literal(-15)))
        CFI V0 load(1, XDATA, add(CFA_XSP16, literal(-14)))
        CFI V1 load(1, XDATA, add(CFA_XSP16, literal(-13)))
        CFI V2 load(1, XDATA, add(CFA_XSP16, literal(-12)))
        CFI V3 load(1, XDATA, add(CFA_XSP16, literal(-11)))
        CFI V4 load(1, XDATA, add(CFA_XSP16, literal(-10)))
        CFI V5 load(1, XDATA, add(CFA_XSP16, literal(-9)))
        CFI V6 load(1, XDATA, add(CFA_XSP16, literal(-8)))
        CFI V7 load(1, XDATA, add(CFA_XSP16, literal(-7)))
        CFI R7 load(1, XDATA, add(CFA_XSP16, literal(-6)))
        CFI ?RET_LOW load(1, XDATA, add(CFA_XSP16, literal(-5)))
        CFI ?RET_HIGH load(1, XDATA, add(CFA_XSP16, literal(-4)))
        CFI ?BRET_EXT load(1, XDATA, add(CFA_XSP16, literal(-3)))
        CFI DPL0 load(1, XDATA, add(CFA_XSP16, literal(-2)))
        CFI DPH0 load(1, XDATA, add(CFA_XSP16, literal(-1)))
        CFI CFA_SP SP+0
        CFI CFA_XSP16 add(XSP16, 19)
        CFI Block cfiCond232 Using cfiCommon0
        CFI (cfiCond232) NoFunction
        CFI (cfiCond232) Conditional ??CrossCallReturnLabel_110, ??CrossCallReturnLabel_3
        CFI (cfiCond232) R6 load(1, XDATA, add(CFA_XSP16, literal(-16)))
        CFI (cfiCond232) VB load(1, XDATA, add(CFA_XSP16, literal(-15)))
        CFI (cfiCond232) V0 load(1, XDATA, add(CFA_XSP16, literal(-14)))
        CFI (cfiCond232) V1 load(1, XDATA, add(CFA_XSP16, literal(-13)))
        CFI (cfiCond232) V2 load(1, XDATA, add(CFA_XSP16, literal(-12)))
        CFI (cfiCond232) V3 load(1, XDATA, add(CFA_XSP16, literal(-11)))
        CFI (cfiCond232) V4 load(1, XDATA, add(CFA_XSP16, literal(-10)))
        CFI (cfiCond232) V5 load(1, XDATA, add(CFA_XSP16, literal(-9)))
        CFI (cfiCond232) V6 load(1, XDATA, add(CFA_XSP16, literal(-8)))
        CFI (cfiCond232) V7 load(1, XDATA, add(CFA_XSP16, literal(-7)))
        CFI (cfiCond232) R7 load(1, XDATA, add(CFA_XSP16, literal(-6)))
        CFI (cfiCond232) ?RET_LOW load(1, XDATA, add(CFA_XSP16, literal(-5)))
        CFI (cfiCond232) ?RET_HIGH load(1, XDATA, add(CFA_XSP16, literal(-4)))
        CFI (cfiCond232) ?BRET_EXT load(1, XDATA, add(CFA_XSP16, literal(-3)))
        CFI (cfiCond232) DPL0 load(1, XDATA, add(CFA_XSP16, literal(-2)))
        CFI (cfiCond232) DPH0 load(1, XDATA, add(CFA_XSP16, literal(-1)))
        CFI (cfiCond232) CFA_SP SP+0
        CFI (cfiCond232) CFA_XSP16 add(XSP16, 19)
        CFI Block cfiCond233 Using cfiCommon0
        CFI (cfiCond233) NoFunction
        CFI (cfiCond233) Conditional ??CrossCallReturnLabel_111, ??CrossCallReturnLabel_2
        CFI (cfiCond233) R6 load(1, XDATA, add(CFA_XSP16, literal(-16)))
        CFI (cfiCond233) VB load(1, XDATA, add(CFA_XSP16, literal(-15)))
        CFI (cfiCond233) V0 load(1, XDATA, add(CFA_XSP16, literal(-14)))
        CFI (cfiCond233) V1 load(1, XDATA, add(CFA_XSP16, literal(-13)))
        CFI (cfiCond233) V2 load(1, XDATA, add(CFA_XSP16, literal(-12)))
        CFI (cfiCond233) V3 load(1, XDATA, add(CFA_XSP16, literal(-11)))
        CFI (cfiCond233) V4 load(1, XDATA, add(CFA_XSP16, literal(-10)))
        CFI (cfiCond233) V5 load(1, XDATA, add(CFA_XSP16, literal(-9)))
        CFI (cfiCond233) V6 load(1, XDATA, add(CFA_XSP16, literal(-8)))
        CFI (cfiCond233) V7 load(1, XDATA, add(CFA_XSP16, literal(-7)))
        CFI (cfiCond233) R7 load(1, XDATA, add(CFA_XSP16, literal(-6)))
        CFI (cfiCond233) ?RET_LOW load(1, XDATA, add(CFA_XSP16, literal(-5)))
        CFI (cfiCond233) ?RET_HIGH load(1, XDATA, add(CFA_XSP16, literal(-4)))
        CFI (cfiCond233) ?BRET_EXT load(1, XDATA, add(CFA_XSP16, literal(-3)))
        CFI (cfiCond233) DPL0 load(1, XDATA, add(CFA_XSP16, literal(-2)))
        CFI (cfiCond233) DPH0 load(1, XDATA, add(CFA_XSP16, literal(-1)))
        CFI (cfiCond233) CFA_SP SP+0
        CFI (cfiCond233) CFA_XSP16 add(XSP16, 19)
        CFI Block cfiCond234 Using cfiCommon0
        CFI (cfiCond234) NoFunction
        CFI (cfiCond234) Conditional ??CrossCallReturnLabel_111, ??CrossCallReturnLabel_3
        CFI (cfiCond234) R6 load(1, XDATA, add(CFA_XSP16, literal(-16)))
        CFI (cfiCond234) VB load(1, XDATA, add(CFA_XSP16, literal(-15)))
        CFI (cfiCond234) V0 load(1, XDATA, add(CFA_XSP16, literal(-14)))
        CFI (cfiCond234) V1 load(1, XDATA, add(CFA_XSP16, literal(-13)))
        CFI (cfiCond234) V2 load(1, XDATA, add(CFA_XSP16, literal(-12)))
        CFI (cfiCond234) V3 load(1, XDATA, add(CFA_XSP16, literal(-11)))
        CFI (cfiCond234) V4 load(1, XDATA, add(CFA_XSP16, literal(-10)))
        CFI (cfiCond234) V5 load(1, XDATA, add(CFA_XSP16, literal(-9)))
        CFI (cfiCond234) V6 load(1, XDATA, add(CFA_XSP16, literal(-8)))
        CFI (cfiCond234) V7 load(1, XDATA, add(CFA_XSP16, literal(-7)))
        CFI (cfiCond234) R7 load(1, XDATA, add(CFA_XSP16, literal(-6)))
        CFI (cfiCond234) ?RET_LOW load(1, XDATA, add(CFA_XSP16, literal(-5)))
        CFI (cfiCond234) ?RET_HIGH load(1, XDATA, add(CFA_XSP16, literal(-4)))
        CFI (cfiCond234) ?BRET_EXT load(1, XDATA, add(CFA_XSP16, literal(-3)))
        CFI (cfiCond234) DPL0 load(1, XDATA, add(CFA_XSP16, literal(-2)))
        CFI (cfiCond234) DPH0 load(1, XDATA, add(CFA_XSP16, literal(-1)))
        CFI (cfiCond234) CFA_SP SP+0
        CFI (cfiCond234) CFA_XSP16 add(XSP16, 19)
        CFI Block cfiPicker235 Using cfiCommon1
        CFI (cfiPicker235) NoFunction
        CFI (cfiPicker235) Picker
        MOVX    A,@DPTR
        MOV     DPL,?V0 + 2
        MOV     DPH,?V0 + 3
        LCALL   ?Subroutine44 & 0xFFFF
??CrossCallReturnLabel_126:
        RET
        CFI EndBlock cfiCond231
        CFI EndBlock cfiCond232
        CFI EndBlock cfiCond233
        CFI EndBlock cfiCond234
        CFI EndBlock cfiPicker235

        RSEG BANKED_CODE:CODE:NOROOT(0)
?Subroutine44:
        CFI Block cfiCond236 Using cfiCommon0
        CFI NoFunction
        CFI Conditional ??CrossCallReturnLabel_127, ??CrossCallReturnLabel_120, ??CrossCallReturnLabel_82
        CFI R6 load(1, XDATA, add(CFA_XSP16, literal(-16)))
        CFI VB load(1, XDATA, add(CFA_XSP16, literal(-15)))
        CFI V0 load(1, XDATA, add(CFA_XSP16, literal(-14)))
        CFI V1 load(1, XDATA, add(CFA_XSP16, literal(-13)))
        CFI V2 load(1, XDATA, add(CFA_XSP16, literal(-12)))
        CFI V3 load(1, XDATA, add(CFA_XSP16, literal(-11)))
        CFI V4 load(1, XDATA, add(CFA_XSP16, literal(-10)))
        CFI V5 load(1, XDATA, add(CFA_XSP16, literal(-9)))
        CFI V6 load(1, XDATA, add(CFA_XSP16, literal(-8)))
        CFI V7 load(1, XDATA, add(CFA_XSP16, literal(-7)))
        CFI R7 load(1, XDATA, add(CFA_XSP16, literal(-6)))
        CFI ?RET_LOW load(1, XDATA, add(CFA_XSP16, literal(-5)))
        CFI ?RET_HIGH load(1, XDATA, add(CFA_XSP16, literal(-4)))
        CFI ?BRET_EXT load(1, XDATA, add(CFA_XSP16, literal(-3)))
        CFI DPL0 load(1, XDATA, add(CFA_XSP16, literal(-2)))
        CFI DPH0 load(1, XDATA, add(CFA_XSP16, literal(-1)))
        CFI CFA_SP SP+0
        CFI CFA_XSP16 add(XSP16, 19)
        CFI Block cfiCond237 Using cfiCommon0
        CFI (cfiCond237) NoFunction
        CFI (cfiCond237) Conditional ??CrossCallReturnLabel_127, ??CrossCallReturnLabel_120, ??CrossCallReturnLabel_83
        CFI (cfiCond237) R6 load(1, XDATA, add(CFA_XSP16, literal(-16)))
        CFI (cfiCond237) VB load(1, XDATA, add(CFA_XSP16, literal(-15)))
        CFI (cfiCond237) V0 load(1, XDATA, add(CFA_XSP16, literal(-14)))
        CFI (cfiCond237) V1 load(1, XDATA, add(CFA_XSP16, literal(-13)))
        CFI (cfiCond237) V2 load(1, XDATA, add(CFA_XSP16, literal(-12)))
        CFI (cfiCond237) V3 load(1, XDATA, add(CFA_XSP16, literal(-11)))
        CFI (cfiCond237) V4 load(1, XDATA, add(CFA_XSP16, literal(-10)))
        CFI (cfiCond237) V5 load(1, XDATA, add(CFA_XSP16, literal(-9)))
        CFI (cfiCond237) V6 load(1, XDATA, add(CFA_XSP16, literal(-8)))
        CFI (cfiCond237) V7 load(1, XDATA, add(CFA_XSP16, literal(-7)))
        CFI (cfiCond237) R7 load(1, XDATA, add(CFA_XSP16, literal(-6)))
        CFI (cfiCond237) ?RET_LOW load(1, XDATA, add(CFA_XSP16, literal(-5)))
        CFI (cfiCond237) ?RET_HIGH load(1, XDATA, add(CFA_XSP16, literal(-4)))
        CFI (cfiCond237) ?BRET_EXT load(1, XDATA, add(CFA_XSP16, literal(-3)))
        CFI (cfiCond237) DPL0 load(1, XDATA, add(CFA_XSP16, literal(-2)))
        CFI (cfiCond237) DPH0 load(1, XDATA, add(CFA_XSP16, literal(-1)))
        CFI (cfiCond237) CFA_SP SP+0
        CFI (cfiCond237) CFA_XSP16 add(XSP16, 19)
        CFI Block cfiCond238 Using cfiCommon0
        CFI (cfiCond238) NoFunction
        CFI (cfiCond238) Conditional ??CrossCallReturnLabel_127, ??CrossCallReturnLabel_119, ??CrossCallReturnLabel_71
        CFI (cfiCond238) R6 load(1, XDATA, add(CFA_XSP16, literal(-16)))
        CFI (cfiCond238) VB load(1, XDATA, add(CFA_XSP16, literal(-15)))
        CFI (cfiCond238) V0 load(1, XDATA, add(CFA_XSP16, literal(-14)))
        CFI (cfiCond238) V1 load(1, XDATA, add(CFA_XSP16, literal(-13)))
        CFI (cfiCond238) V2 load(1, XDATA, add(CFA_XSP16, literal(-12)))
        CFI (cfiCond238) V3 load(1, XDATA, add(CFA_XSP16, literal(-11)))
        CFI (cfiCond238) V4 load(1, XDATA, add(CFA_XSP16, literal(-10)))
        CFI (cfiCond238) V5 load(1, XDATA, add(CFA_XSP16, literal(-9)))
        CFI (cfiCond238) V6 load(1, XDATA, add(CFA_XSP16, literal(-8)))
        CFI (cfiCond238) V7 load(1, XDATA, add(CFA_XSP16, literal(-7)))
        CFI (cfiCond238) R7 load(1, XDATA, add(CFA_XSP16, literal(-6)))
        CFI (cfiCond238) ?RET_LOW load(1, XDATA, add(CFA_XSP16, literal(-5)))
        CFI (cfiCond238) ?RET_HIGH load(1, XDATA, add(CFA_XSP16, literal(-4)))
        CFI (cfiCond238) ?BRET_EXT load(1, XDATA, add(CFA_XSP16, literal(-3)))
        CFI (cfiCond238) DPL0 load(1, XDATA, add(CFA_XSP16, literal(-2)))
        CFI (cfiCond238) DPH0 load(1, XDATA, add(CFA_XSP16, literal(-1)))
        CFI (cfiCond238) CFA_SP SP+0
        CFI (cfiCond238) CFA_XSP16 add(XSP16, 19)
        CFI Block cfiCond239 Using cfiCommon0
        CFI (cfiCond239) NoFunction
        CFI (cfiCond239) Conditional ??CrossCallReturnLabel_127, ??CrossCallReturnLabel_119, ??CrossCallReturnLabel_72
        CFI (cfiCond239) R6 load(1, XDATA, add(CFA_XSP16, literal(-16)))
        CFI (cfiCond239) VB load(1, XDATA, add(CFA_XSP16, literal(-15)))
        CFI (cfiCond239) V0 load(1, XDATA, add(CFA_XSP16, literal(-14)))
        CFI (cfiCond239) V1 load(1, XDATA, add(CFA_XSP16, literal(-13)))
        CFI (cfiCond239) V2 load(1, XDATA, add(CFA_XSP16, literal(-12)))
        CFI (cfiCond239) V3 load(1, XDATA, add(CFA_XSP16, literal(-11)))
        CFI (cfiCond239) V4 load(1, XDATA, add(CFA_XSP16, literal(-10)))
        CFI (cfiCond239) V5 load(1, XDATA, add(CFA_XSP16, literal(-9)))
        CFI (cfiCond239) V6 load(1, XDATA, add(CFA_XSP16, literal(-8)))
        CFI (cfiCond239) V7 load(1, XDATA, add(CFA_XSP16, literal(-7)))
        CFI (cfiCond239) R7 load(1, XDATA, add(CFA_XSP16, literal(-6)))
        CFI (cfiCond239) ?RET_LOW load(1, XDATA, add(CFA_XSP16, literal(-5)))
        CFI (cfiCond239) ?RET_HIGH load(1, XDATA, add(CFA_XSP16, literal(-4)))
        CFI (cfiCond239) ?BRET_EXT load(1, XDATA, add(CFA_XSP16, literal(-3)))
        CFI (cfiCond239) DPL0 load(1, XDATA, add(CFA_XSP16, literal(-2)))
        CFI (cfiCond239) DPH0 load(1, XDATA, add(CFA_XSP16, literal(-1)))
        CFI (cfiCond239) CFA_SP SP+0
        CFI (cfiCond239) CFA_XSP16 add(XSP16, 19)
        CFI Block cfiCond240 Using cfiCommon0
        CFI (cfiCond240) NoFunction
        CFI (cfiCond240) Conditional ??CrossCallReturnLabel_126, ??CrossCallReturnLabel_110, ??CrossCallReturnLabel_2
        CFI (cfiCond240) R6 load(1, XDATA, add(CFA_XSP16, literal(-16)))
        CFI (cfiCond240) VB load(1, XDATA, add(CFA_XSP16, literal(-15)))
        CFI (cfiCond240) V0 load(1, XDATA, add(CFA_XSP16, literal(-14)))
        CFI (cfiCond240) V1 load(1, XDATA, add(CFA_XSP16, literal(-13)))
        CFI (cfiCond240) V2 load(1, XDATA, add(CFA_XSP16, literal(-12)))
        CFI (cfiCond240) V3 load(1, XDATA, add(CFA_XSP16, literal(-11)))
        CFI (cfiCond240) V4 load(1, XDATA, add(CFA_XSP16, literal(-10)))
        CFI (cfiCond240) V5 load(1, XDATA, add(CFA_XSP16, literal(-9)))
        CFI (cfiCond240) V6 load(1, XDATA, add(CFA_XSP16, literal(-8)))
        CFI (cfiCond240) V7 load(1, XDATA, add(CFA_XSP16, literal(-7)))
        CFI (cfiCond240) R7 load(1, XDATA, add(CFA_XSP16, literal(-6)))
        CFI (cfiCond240) ?RET_LOW load(1, XDATA, add(CFA_XSP16, literal(-5)))
        CFI (cfiCond240) ?RET_HIGH load(1, XDATA, add(CFA_XSP16, literal(-4)))
        CFI (cfiCond240) ?BRET_EXT load(1, XDATA, add(CFA_XSP16, literal(-3)))
        CFI (cfiCond240) DPL0 load(1, XDATA, add(CFA_XSP16, literal(-2)))
        CFI (cfiCond240) DPH0 load(1, XDATA, add(CFA_XSP16, literal(-1)))
        CFI (cfiCond240) CFA_SP SP+0
        CFI (cfiCond240) CFA_XSP16 add(XSP16, 19)
        CFI Block cfiCond241 Using cfiCommon0
        CFI (cfiCond241) NoFunction
        CFI (cfiCond241) Conditional ??CrossCallReturnLabel_126, ??CrossCallReturnLabel_110, ??CrossCallReturnLabel_3
        CFI (cfiCond241) R6 load(1, XDATA, add(CFA_XSP16, literal(-16)))
        CFI (cfiCond241) VB load(1, XDATA, add(CFA_XSP16, literal(-15)))
        CFI (cfiCond241) V0 load(1, XDATA, add(CFA_XSP16, literal(-14)))
        CFI (cfiCond241) V1 load(1, XDATA, add(CFA_XSP16, literal(-13)))
        CFI (cfiCond241) V2 load(1, XDATA, add(CFA_XSP16, literal(-12)))
        CFI (cfiCond241) V3 load(1, XDATA, add(CFA_XSP16, literal(-11)))
        CFI (cfiCond241) V4 load(1, XDATA, add(CFA_XSP16, literal(-10)))
        CFI (cfiCond241) V5 load(1, XDATA, add(CFA_XSP16, literal(-9)))
        CFI (cfiCond241) V6 load(1, XDATA, add(CFA_XSP16, literal(-8)))
        CFI (cfiCond241) V7 load(1, XDATA, add(CFA_XSP16, literal(-7)))
        CFI (cfiCond241) R7 load(1, XDATA, add(CFA_XSP16, literal(-6)))
        CFI (cfiCond241) ?RET_LOW load(1, XDATA, add(CFA_XSP16, literal(-5)))
        CFI (cfiCond241) ?RET_HIGH load(1, XDATA, add(CFA_XSP16, literal(-4)))
        CFI (cfiCond241) ?BRET_EXT load(1, XDATA, add(CFA_XSP16, literal(-3)))
        CFI (cfiCond241) DPL0 load(1, XDATA, add(CFA_XSP16, literal(-2)))
        CFI (cfiCond241) DPH0 load(1, XDATA, add(CFA_XSP16, literal(-1)))
        CFI (cfiCond241) CFA_SP SP+0
        CFI (cfiCond241) CFA_XSP16 add(XSP16, 19)
        CFI Block cfiCond242 Using cfiCommon0
        CFI (cfiCond242) NoFunction
        CFI (cfiCond242) Conditional ??CrossCallReturnLabel_126, ??CrossCallReturnLabel_111, ??CrossCallReturnLabel_2
        CFI (cfiCond242) R6 load(1, XDATA, add(CFA_XSP16, literal(-16)))
        CFI (cfiCond242) VB load(1, XDATA, add(CFA_XSP16, literal(-15)))
        CFI (cfiCond242) V0 load(1, XDATA, add(CFA_XSP16, literal(-14)))
        CFI (cfiCond242) V1 load(1, XDATA, add(CFA_XSP16, literal(-13)))
        CFI (cfiCond242) V2 load(1, XDATA, add(CFA_XSP16, literal(-12)))
        CFI (cfiCond242) V3 load(1, XDATA, add(CFA_XSP16, literal(-11)))
        CFI (cfiCond242) V4 load(1, XDATA, add(CFA_XSP16, literal(-10)))
        CFI (cfiCond242) V5 load(1, XDATA, add(CFA_XSP16, literal(-9)))
        CFI (cfiCond242) V6 load(1, XDATA, add(CFA_XSP16, literal(-8)))
        CFI (cfiCond242) V7 load(1, XDATA, add(CFA_XSP16, literal(-7)))
        CFI (cfiCond242) R7 load(1, XDATA, add(CFA_XSP16, literal(-6)))
        CFI (cfiCond242) ?RET_LOW load(1, XDATA, add(CFA_XSP16, literal(-5)))
        CFI (cfiCond242) ?RET_HIGH load(1, XDATA, add(CFA_XSP16, literal(-4)))
        CFI (cfiCond242) ?BRET_EXT load(1, XDATA, add(CFA_XSP16, literal(-3)))
        CFI (cfiCond242) DPL0 load(1, XDATA, add(CFA_XSP16, literal(-2)))
        CFI (cfiCond242) DPH0 load(1, XDATA, add(CFA_XSP16, literal(-1)))
        CFI (cfiCond242) CFA_SP SP+0
        CFI (cfiCond242) CFA_XSP16 add(XSP16, 19)
        CFI Block cfiCond243 Using cfiCommon0
        CFI (cfiCond243) NoFunction
        CFI (cfiCond243) Conditional ??CrossCallReturnLabel_126, ??CrossCallReturnLabel_111, ??CrossCallReturnLabel_3
        CFI (cfiCond243) R6 load(1, XDATA, add(CFA_XSP16, literal(-16)))
        CFI (cfiCond243) VB load(1, XDATA, add(CFA_XSP16, literal(-15)))
        CFI (cfiCond243) V0 load(1, XDATA, add(CFA_XSP16, literal(-14)))
        CFI (cfiCond243) V1 load(1, XDATA, add(CFA_XSP16, literal(-13)))
        CFI (cfiCond243) V2 load(1, XDATA, add(CFA_XSP16, literal(-12)))
        CFI (cfiCond243) V3 load(1, XDATA, add(CFA_XSP16, literal(-11)))
        CFI (cfiCond243) V4 load(1, XDATA, add(CFA_XSP16, literal(-10)))
        CFI (cfiCond243) V5 load(1, XDATA, add(CFA_XSP16, literal(-9)))
        CFI (cfiCond243) V6 load(1, XDATA, add(CFA_XSP16, literal(-8)))
        CFI (cfiCond243) V7 load(1, XDATA, add(CFA_XSP16, literal(-7)))
        CFI (cfiCond243) R7 load(1, XDATA, add(CFA_XSP16, literal(-6)))
        CFI (cfiCond243) ?RET_LOW load(1, XDATA, add(CFA_XSP16, literal(-5)))
        CFI (cfiCond243) ?RET_HIGH load(1, XDATA, add(CFA_XSP16, literal(-4)))
        CFI (cfiCond243) ?BRET_EXT load(1, XDATA, add(CFA_XSP16, literal(-3)))
        CFI (cfiCond243) DPL0 load(1, XDATA, add(CFA_XSP16, literal(-2)))
        CFI (cfiCond243) DPH0 load(1, XDATA, add(CFA_XSP16, literal(-1)))
        CFI (cfiCond243) CFA_SP SP+0
        CFI (cfiCond243) CFA_XSP16 add(XSP16, 19)
        CFI Block cfiPicker244 Using cfiCommon1
        CFI (cfiPicker244) NoFunction
        CFI (cfiPicker244) Picker
        MOVX    @DPTR,A
        INC     DPTR
        MOV     ?V0 + 2,DPL
        MOV     ?V0 + 3,DPH
        RET
        CFI EndBlock cfiCond236
        CFI EndBlock cfiCond237
        CFI EndBlock cfiCond238
        CFI EndBlock cfiCond239
        CFI EndBlock cfiCond240
        CFI EndBlock cfiCond241
        CFI EndBlock cfiCond242
        CFI EndBlock cfiCond243
        CFI EndBlock cfiPicker244
// 1050 #endif // ZDO_ENDDEVICEBIND_REQUEST
// 1051 
// 1052 #if defined ( ZDO_BIND_UNBIND_REQUEST ) || defined ( ZDO_COORDINATOR )
// 1053 /*********************************************************************
// 1054  * @fn          ZDP_BindUnbindReq
// 1055  *
// 1056  * @brief       This builds and send a Bind_req or Unbind_req message
// 1057  *              Depending on the ClusterID. This function
// 1058  *              sends a unicast message to the local coordinator.
// 1059  *
// 1060  * @param       BindOrUnbind - either Bind_req or Unbind_req
// 1061  * @param       dstAddr - destination address of the message
// 1062  * @param       SourceAddr - source 64 bit address of the binding
// 1063  * @param       SrcEPIntf - Source endpoint/interface
// 1064  * @param       ClusterID - Binding cluster ID
// 1065  * @param       DestinationAddr - destination 64 bit addr of binding
// 1066  * @param       DstEPIntf - destination endpoint/interface
// 1067  * @param       SecurityEnable - Security Options
// 1068  *
// 1069  * @return      afStatus_t
// 1070  */

        RSEG BANKED_CODE:CODE:NOROOT(0)
// 1071 afStatus_t ZDP_BindUnbindReq( uint16 BindOrUnbind, zAddrType_t *dstAddr,
ZDP_BindUnbindReq:
        CFI Block cfiBlock245 Using cfiCommon0
        CFI Function ZDP_BindUnbindReq
// 1072                               byte *SourceAddr, byte SrcEndPoint,
// 1073                               cId_t ClusterID,
// 1074                               zAddrType_t *destinationAddr, byte DstEndPoint,
// 1075                               byte SecurityEnable )
// 1076 {
        FUNCALL ZDP_BindUnbindReq, osal_cpyExtAddr
        LOCFRAME ISTACK, 0, STACK
        LOCFRAME PSTACK, 0, STACK
        LOCFRAME XSTACK, 18, STACK
        LOCFRAME IOVERLAY, 0, STATIC
        LOCFRAME DOVERLAY, 0, STATIC
        ARGFRAME ISTACK, 0, STACK
        ARGFRAME PSTACK, 0, STACK
        ARGFRAME XSTACK, 18, STACK
        ARGFRAME IOVERLAY, 0, STATIC
        ARGFRAME DOVERLAY, 0, STATIC
        FUNCALL ZDP_BindUnbindReq, osal_cpyExtAddr
        LOCFRAME ISTACK, 0, STACK
        LOCFRAME PSTACK, 0, STACK
        LOCFRAME XSTACK, 18, STACK
        LOCFRAME IOVERLAY, 0, STATIC
        LOCFRAME DOVERLAY, 0, STATIC
        ARGFRAME ISTACK, 0, STACK
        ARGFRAME PSTACK, 0, STACK
        ARGFRAME XSTACK, 18, STACK
        ARGFRAME IOVERLAY, 0, STATIC
        ARGFRAME DOVERLAY, 0, STATIC
        FUNCALL ZDP_BindUnbindReq, fillAndSend
        LOCFRAME ISTACK, 0, STACK
        LOCFRAME PSTACK, 0, STACK
        LOCFRAME XSTACK, 20, STACK
        LOCFRAME IOVERLAY, 0, STATIC
        LOCFRAME DOVERLAY, 0, STATIC
        ARGFRAME ISTACK, 0, STACK
        ARGFRAME PSTACK, 0, STACK
        ARGFRAME XSTACK, 20, STACK
        ARGFRAME IOVERLAY, 0, STATIC
        ARGFRAME DOVERLAY, 0, STATIC
        MOV     A,#-0x10
        LCALL   ?BANKED_ENTER_XDATA
        CFI DPH0 load(1, XDATA, add(CFA_XSP16, literal(-1)))
        CFI DPL0 load(1, XDATA, add(CFA_XSP16, literal(-2)))
        CFI ?BRET_EXT load(1, XDATA, add(CFA_XSP16, literal(-3)))
        CFI ?RET_HIGH load(1, XDATA, add(CFA_XSP16, literal(-4)))
        CFI ?RET_LOW load(1, XDATA, add(CFA_XSP16, literal(-5)))
        CFI R7 load(1, XDATA, add(CFA_XSP16, literal(-6)))
        CFI V7 load(1, XDATA, add(CFA_XSP16, literal(-7)))
        CFI V6 load(1, XDATA, add(CFA_XSP16, literal(-8)))
        CFI V5 load(1, XDATA, add(CFA_XSP16, literal(-9)))
        CFI V4 load(1, XDATA, add(CFA_XSP16, literal(-10)))
        CFI V3 load(1, XDATA, add(CFA_XSP16, literal(-11)))
        CFI V2 load(1, XDATA, add(CFA_XSP16, literal(-12)))
        CFI V1 load(1, XDATA, add(CFA_XSP16, literal(-13)))
        CFI V0 load(1, XDATA, add(CFA_XSP16, literal(-14)))
        CFI VB load(1, XDATA, add(CFA_XSP16, literal(-15)))
        CFI R6 load(1, XDATA, add(CFA_XSP16, literal(-16)))
        CFI CFA_SP SP+0
        CFI CFA_XSP16 add(XSP16, 16)
        ; Saved register size: 16
        ; Auto size: 2
        MOV     A,#-0x2
        LCALL   ?ALLOC_XSTACK8
        CFI CFA_XSP16 add(XSP16, 18)
        MOV     DPL,?XSP + 0
        MOV     DPH,?XSP + 1
        MOV     A,R4
        MOVX    @DPTR,A
        INC     DPTR
        MOV     A,R5
        MOVX    @DPTR,A
        MOV     ?V0 + 2,R2
        MOV     ?V0 + 3,R3
        MOV     ?V0 + 1,R1
        MOV     A,#0x12
        LCALL   ?XSTACK_DISP0_8
        MOVX    A,@DPTR
        MOV     R4,A
        INC     DPTR
        MOVX    A,@DPTR
        MOV     R5,A
        MOV     A,#0x14
        LCALL   ?XSTACK_DISP0_8
        LCALL   ?Subroutine19 & 0xFFFF
??CrossCallReturnLabel_63:
        MOV     A,#0x16
        LCALL   ?XSTACK_DISP0_8
        MOVX    A,@DPTR
        MOV     ?V0 + 6,A
        INC     DPTR
        MOVX    A,@DPTR
        MOV     ?V0 + 7,A
// 1077   uint8 *pBuf = ZDP_TmpBuf;
        LCALL   ?Subroutine15 & 0xFFFF
// 1078   byte len;
// 1079 
// 1080   // SourceAddr + SrcEPIntf + ClusterID +  addrMode.
// 1081   len = Z_EXTADDR_LEN + 1 + sizeof( cId_t ) + sizeof( uint8 );
??CrossCallReturnLabel_49:
        MOV     ?V0 + 0,#0xc
// 1082   if ( destinationAddr->addrMode == Addr64Bit )
        MOV     DPL,?V0 + 6
        MOV     DPH,?V0 + 7
        INC     DPTR
        INC     DPTR
        INC     DPTR
        INC     DPTR
        INC     DPTR
        INC     DPTR
        INC     DPTR
        INC     DPTR
        MOVX    A,@DPTR
        XRL     A,#0x3
        JNZ     ??ZDP_BindUnbindReq_0
// 1083     len += Z_EXTADDR_LEN + 1;     // +1 for DstEPIntf
        MOV     ?V0 + 0,#0x15
        SJMP    ??ZDP_BindUnbindReq_1
// 1084   else if ( destinationAddr->addrMode == AddrGroup )
??ZDP_BindUnbindReq_0:
        MOV     DPL,?V0 + 6
        MOV     DPH,?V0 + 7
        INC     DPTR
        INC     DPTR
        INC     DPTR
        INC     DPTR
        INC     DPTR
        INC     DPTR
        INC     DPTR
        INC     DPTR
        MOVX    A,@DPTR
        XRL     A,#0x1
        JNZ     ??ZDP_BindUnbindReq_1
// 1085     len += sizeof ( uint16 );
        MOV     ?V0 + 0,#0xe
// 1086 
// 1087   pBuf = osal_cpyExtAddr( pBuf, SourceAddr );
??ZDP_BindUnbindReq_1:
        ; Setup parameters for call to function osal_cpyExtAddr
        LCALL   ??osal_cpyExtAddr?relay
// 1088   *pBuf++ = SrcEndPoint;
        MOV     DPL,R2
        MOV     DPH,R3
        MOV     A,?V0 + 1
        MOVX    @DPTR,A
        INC     DPTR
// 1089 
// 1090   *pBuf++ = LO_UINT16( ClusterID );
        MOV     A,R6
        MOVX    @DPTR,A
        INC     DPTR
// 1091 
// 1092   *pBuf++ = HI_UINT16( ClusterID );
        MOV     A,R7
        MOVX    @DPTR,A
        INC     DPTR
        MOV     R2,DPL
        MOV     R3,DPH
// 1093   *pBuf++ = destinationAddr->addrMode;
        MOV     A,?V0 + 6
        ADD     A,#0x8
        MOV     R0,A
        MOV     A,?V0 + 7
        ADDC    A,#0x0
        MOV     R1,A
        MOV     DPL,R0
        MOV     DPH,R1
        LCALL   ?Subroutine18 & 0xFFFF
// 1094   if ( destinationAddr->addrMode == Addr64Bit )
??CrossCallReturnLabel_58:
        MOV     DPL,R0
        MOV     DPH,R1
        MOVX    A,@DPTR
        XRL     A,#0x3
        JNZ     ??ZDP_BindUnbindReq_2
// 1095   {
// 1096     pBuf = osal_cpyExtAddr( pBuf, destinationAddr->addr.extAddr );
        ; Setup parameters for call to function osal_cpyExtAddr
        MOV     R4,?V0 + 6
        MOV     R5,?V0 + 7
        LCALL   ??osal_cpyExtAddr?relay
// 1097     *pBuf = DstEndPoint;
        MOV     A,#0x18
        LCALL   ?XSTACK_DISP0_8
        SJMP    ??ZDP_BindUnbindReq_3
// 1098   }
// 1099   else if ( destinationAddr->addrMode == AddrGroup )
??ZDP_BindUnbindReq_2:
        MOV     DPL,?V0 + 6
        MOV     DPH,?V0 + 7
        INC     DPTR
        INC     DPTR
        INC     DPTR
        INC     DPTR
        INC     DPTR
        INC     DPTR
        INC     DPTR
        INC     DPTR
        MOVX    A,@DPTR
        XRL     A,#0x1
        JNZ     ??CrossCallReturnLabel_115
// 1100   {
// 1101     *pBuf++ = LO_UINT16( destinationAddr->addr.shortAddr );
        MOV     DPL,?V0 + 6
        MOV     DPH,?V0 + 7
        LCALL   ?Subroutine18 & 0xFFFF
// 1102     *pBuf++ = HI_UINT16( destinationAddr->addr.shortAddr );
??CrossCallReturnLabel_59:
        MOV     DPL,?V0 + 6
        MOV     DPH,?V0 + 7
        INC     DPTR
??ZDP_BindUnbindReq_3:
        LCALL   ?Subroutine39 & 0xFFFF
// 1103   }
// 1104 
// 1105   FillAndSendTxOptions( &ZDP_TransID, dstAddr, BindOrUnbind, len, AF_MSG_ACK_REQUEST );
??CrossCallReturnLabel_115:
        MOV     A,#0x10
        MOV     DPTR,#ZDP_TxOptions
        MOVX    @DPTR,A
        ; Setup parameters for call to function fillAndSend
        MOV     R0,#?V0 + 2
        LCALL   ?PUSH_XSTACK_I_TWO
        CFI CFA_XSP16 add(XSP16, 20)
        MOV     R1,?V0 + 0
        MOV     A,#0x2
        LCALL   ?XSTACK_DISP0_8
        LCALL   ?Subroutine14 & 0xFFFF
??CrossCallReturnLabel_141:
        LCALL   ?DEALLOC_XSTACK8
        CFI CFA_XSP16 add(XSP16, 18)
        CLR     A
        MOV     DPTR,#ZDP_TxOptions
        MOVX    @DPTR,A
        MOV     A,#0x2
        SJMP    ??Subroutine52_0
        CFI EndBlock cfiBlock245
// 1106 }

        RSEG BANKED_CODE:CODE:NOROOT(0)
?Subroutine52:
        CFI Block cfiBlock246 Using cfiCommon0
        CFI NoFunction
        CFI CFA_SP SP+0
        CFI CFA_XSP16 add(XSP16, 17)
        CFI VB load(1, XDATA, add(CFA_XSP16, literal(-15)))
        CFI DPL0 load(1, XDATA, add(CFA_XSP16, literal(-2)))
        CFI DPH0 load(1, XDATA, add(CFA_XSP16, literal(-1)))
        CFI R6 load(1, XDATA, add(CFA_XSP16, literal(-16)))
        CFI R7 load(1, XDATA, add(CFA_XSP16, literal(-6)))
        CFI V0 load(1, XDATA, add(CFA_XSP16, literal(-14)))
        CFI V1 load(1, XDATA, add(CFA_XSP16, literal(-13)))
        CFI V2 load(1, XDATA, add(CFA_XSP16, literal(-12)))
        CFI V3 load(1, XDATA, add(CFA_XSP16, literal(-11)))
        CFI V4 load(1, XDATA, add(CFA_XSP16, literal(-10)))
        CFI V5 load(1, XDATA, add(CFA_XSP16, literal(-9)))
        CFI V6 load(1, XDATA, add(CFA_XSP16, literal(-8)))
        CFI V7 load(1, XDATA, add(CFA_XSP16, literal(-7)))
        CFI ?BRET_EXT load(1, XDATA, add(CFA_XSP16, literal(-3)))
        CFI ?RET_HIGH load(1, XDATA, add(CFA_XSP16, literal(-4)))
        CFI ?RET_LOW load(1, XDATA, add(CFA_XSP16, literal(-5)))
        MOV     A,#0x1
??Subroutine52_0:
        LCALL   ?DEALLOC_XSTACK8
        CFI CFA_XSP16 add(XSP16, 16)
??Subroutine52_1:
        MOV     R7,#0x8
        LJMP    ?BANKED_LEAVE_XDATA
        CFI EndBlock cfiBlock246

        RSEG BANKED_CODE:CODE:NOROOT(0)
?Subroutine39:
        CFI Block cfiCond247 Using cfiCommon0
        CFI NoFunction
        CFI Conditional ??CrossCallReturnLabel_114
        CFI R6 load(1, XDATA, add(CFA_XSP16, literal(-16)))
        CFI VB load(1, XDATA, add(CFA_XSP16, literal(-15)))
        CFI V0 load(1, XDATA, add(CFA_XSP16, literal(-14)))
        CFI V1 load(1, XDATA, add(CFA_XSP16, literal(-13)))
        CFI V2 load(1, XDATA, add(CFA_XSP16, literal(-12)))
        CFI V3 load(1, XDATA, add(CFA_XSP16, literal(-11)))
        CFI V4 load(1, XDATA, add(CFA_XSP16, literal(-10)))
        CFI V5 load(1, XDATA, add(CFA_XSP16, literal(-9)))
        CFI V6 load(1, XDATA, add(CFA_XSP16, literal(-8)))
        CFI V7 load(1, XDATA, add(CFA_XSP16, literal(-7)))
        CFI R7 load(1, XDATA, add(CFA_XSP16, literal(-6)))
        CFI ?RET_LOW load(1, XDATA, add(CFA_XSP16, literal(-5)))
        CFI ?RET_HIGH load(1, XDATA, add(CFA_XSP16, literal(-4)))
        CFI ?BRET_EXT load(1, XDATA, add(CFA_XSP16, literal(-3)))
        CFI DPL0 load(1, XDATA, add(CFA_XSP16, literal(-2)))
        CFI DPH0 load(1, XDATA, add(CFA_XSP16, literal(-1)))
        CFI CFA_SP SP+0
        CFI CFA_XSP16 add(XSP16, 19)
        CFI Block cfiCond248 Using cfiCommon0
        CFI (cfiCond248) NoFunction
        CFI (cfiCond248) Conditional ??CrossCallReturnLabel_115
        CFI (cfiCond248) R6 load(1, XDATA, add(CFA_XSP16, literal(-16)))
        CFI (cfiCond248) VB load(1, XDATA, add(CFA_XSP16, literal(-15)))
        CFI (cfiCond248) V0 load(1, XDATA, add(CFA_XSP16, literal(-14)))
        CFI (cfiCond248) V1 load(1, XDATA, add(CFA_XSP16, literal(-13)))
        CFI (cfiCond248) V2 load(1, XDATA, add(CFA_XSP16, literal(-12)))
        CFI (cfiCond248) V3 load(1, XDATA, add(CFA_XSP16, literal(-11)))
        CFI (cfiCond248) V4 load(1, XDATA, add(CFA_XSP16, literal(-10)))
        CFI (cfiCond248) V5 load(1, XDATA, add(CFA_XSP16, literal(-9)))
        CFI (cfiCond248) V6 load(1, XDATA, add(CFA_XSP16, literal(-8)))
        CFI (cfiCond248) V7 load(1, XDATA, add(CFA_XSP16, literal(-7)))
        CFI (cfiCond248) R7 load(1, XDATA, add(CFA_XSP16, literal(-6)))
        CFI (cfiCond248) ?RET_LOW load(1, XDATA, add(CFA_XSP16, literal(-5)))
        CFI (cfiCond248) ?RET_HIGH load(1, XDATA, add(CFA_XSP16, literal(-4)))
        CFI (cfiCond248) ?BRET_EXT load(1, XDATA, add(CFA_XSP16, literal(-3)))
        CFI (cfiCond248) DPL0 load(1, XDATA, add(CFA_XSP16, literal(-2)))
        CFI (cfiCond248) DPH0 load(1, XDATA, add(CFA_XSP16, literal(-1)))
        CFI (cfiCond248) CFA_SP SP+0
        CFI (cfiCond248) CFA_XSP16 add(XSP16, 18)
        CFI Block cfiCond249 Using cfiCommon0
        CFI (cfiCond249) NoFunction
        CFI (cfiCond249) Conditional ??CrossCallReturnLabel_116, ??CrossCallReturnLabel_58
        CFI (cfiCond249) R6 load(1, XDATA, add(CFA_XSP16, literal(-16)))
        CFI (cfiCond249) VB load(1, XDATA, add(CFA_XSP16, literal(-15)))
        CFI (cfiCond249) V0 load(1, XDATA, add(CFA_XSP16, literal(-14)))
        CFI (cfiCond249) V1 load(1, XDATA, add(CFA_XSP16, literal(-13)))
        CFI (cfiCond249) V2 load(1, XDATA, add(CFA_XSP16, literal(-12)))
        CFI (cfiCond249) V3 load(1, XDATA, add(CFA_XSP16, literal(-11)))
        CFI (cfiCond249) V4 load(1, XDATA, add(CFA_XSP16, literal(-10)))
        CFI (cfiCond249) V5 load(1, XDATA, add(CFA_XSP16, literal(-9)))
        CFI (cfiCond249) V6 load(1, XDATA, add(CFA_XSP16, literal(-8)))
        CFI (cfiCond249) V7 load(1, XDATA, add(CFA_XSP16, literal(-7)))
        CFI (cfiCond249) R7 load(1, XDATA, add(CFA_XSP16, literal(-6)))
        CFI (cfiCond249) ?RET_LOW load(1, XDATA, add(CFA_XSP16, literal(-5)))
        CFI (cfiCond249) ?RET_HIGH load(1, XDATA, add(CFA_XSP16, literal(-4)))
        CFI (cfiCond249) ?BRET_EXT load(1, XDATA, add(CFA_XSP16, literal(-3)))
        CFI (cfiCond249) DPL0 load(1, XDATA, add(CFA_XSP16, literal(-2)))
        CFI (cfiCond249) DPH0 load(1, XDATA, add(CFA_XSP16, literal(-1)))
        CFI (cfiCond249) CFA_SP SP+0
        CFI (cfiCond249) CFA_XSP16 add(XSP16, 18)
        CFI Block cfiCond250 Using cfiCommon0
        CFI (cfiCond250) NoFunction
        CFI (cfiCond250) Conditional ??CrossCallReturnLabel_116, ??CrossCallReturnLabel_59
        CFI (cfiCond250) R6 load(1, XDATA, add(CFA_XSP16, literal(-16)))
        CFI (cfiCond250) VB load(1, XDATA, add(CFA_XSP16, literal(-15)))
        CFI (cfiCond250) V0 load(1, XDATA, add(CFA_XSP16, literal(-14)))
        CFI (cfiCond250) V1 load(1, XDATA, add(CFA_XSP16, literal(-13)))
        CFI (cfiCond250) V2 load(1, XDATA, add(CFA_XSP16, literal(-12)))
        CFI (cfiCond250) V3 load(1, XDATA, add(CFA_XSP16, literal(-11)))
        CFI (cfiCond250) V4 load(1, XDATA, add(CFA_XSP16, literal(-10)))
        CFI (cfiCond250) V5 load(1, XDATA, add(CFA_XSP16, literal(-9)))
        CFI (cfiCond250) V6 load(1, XDATA, add(CFA_XSP16, literal(-8)))
        CFI (cfiCond250) V7 load(1, XDATA, add(CFA_XSP16, literal(-7)))
        CFI (cfiCond250) R7 load(1, XDATA, add(CFA_XSP16, literal(-6)))
        CFI (cfiCond250) ?RET_LOW load(1, XDATA, add(CFA_XSP16, literal(-5)))
        CFI (cfiCond250) ?RET_HIGH load(1, XDATA, add(CFA_XSP16, literal(-4)))
        CFI (cfiCond250) ?BRET_EXT load(1, XDATA, add(CFA_XSP16, literal(-3)))
        CFI (cfiCond250) DPL0 load(1, XDATA, add(CFA_XSP16, literal(-2)))
        CFI (cfiCond250) DPH0 load(1, XDATA, add(CFA_XSP16, literal(-1)))
        CFI (cfiCond250) CFA_SP SP+0
        CFI (cfiCond250) CFA_XSP16 add(XSP16, 18)
        CFI Block cfiPicker251 Using cfiCommon1
        CFI (cfiPicker251) NoFunction
        CFI (cfiPicker251) Picker
        MOVX    A,@DPTR
        MOV     DPL,R2
        MOV     DPH,R3
        MOVX    @DPTR,A
        RET
        CFI EndBlock cfiCond247
        CFI EndBlock cfiCond248
        CFI EndBlock cfiCond249
        CFI EndBlock cfiCond250
        CFI EndBlock cfiPicker251

        RSEG BANKED_CODE:CODE:NOROOT(0)
?Subroutine18:
        CFI Block cfiCond252 Using cfiCommon0
        CFI NoFunction
        CFI Conditional ??CrossCallReturnLabel_58
        CFI R6 load(1, XDATA, add(CFA_XSP16, literal(-16)))
        CFI VB load(1, XDATA, add(CFA_XSP16, literal(-15)))
        CFI V0 load(1, XDATA, add(CFA_XSP16, literal(-14)))
        CFI V1 load(1, XDATA, add(CFA_XSP16, literal(-13)))
        CFI V2 load(1, XDATA, add(CFA_XSP16, literal(-12)))
        CFI V3 load(1, XDATA, add(CFA_XSP16, literal(-11)))
        CFI V4 load(1, XDATA, add(CFA_XSP16, literal(-10)))
        CFI V5 load(1, XDATA, add(CFA_XSP16, literal(-9)))
        CFI V6 load(1, XDATA, add(CFA_XSP16, literal(-8)))
        CFI V7 load(1, XDATA, add(CFA_XSP16, literal(-7)))
        CFI R7 load(1, XDATA, add(CFA_XSP16, literal(-6)))
        CFI ?RET_LOW load(1, XDATA, add(CFA_XSP16, literal(-5)))
        CFI ?RET_HIGH load(1, XDATA, add(CFA_XSP16, literal(-4)))
        CFI ?BRET_EXT load(1, XDATA, add(CFA_XSP16, literal(-3)))
        CFI DPL0 load(1, XDATA, add(CFA_XSP16, literal(-2)))
        CFI DPH0 load(1, XDATA, add(CFA_XSP16, literal(-1)))
        CFI CFA_SP SP+0
        CFI CFA_XSP16 add(XSP16, 18)
        CFI Block cfiCond253 Using cfiCommon0
        CFI (cfiCond253) NoFunction
        CFI (cfiCond253) Conditional ??CrossCallReturnLabel_59
        CFI (cfiCond253) R6 load(1, XDATA, add(CFA_XSP16, literal(-16)))
        CFI (cfiCond253) VB load(1, XDATA, add(CFA_XSP16, literal(-15)))
        CFI (cfiCond253) V0 load(1, XDATA, add(CFA_XSP16, literal(-14)))
        CFI (cfiCond253) V1 load(1, XDATA, add(CFA_XSP16, literal(-13)))
        CFI (cfiCond253) V2 load(1, XDATA, add(CFA_XSP16, literal(-12)))
        CFI (cfiCond253) V3 load(1, XDATA, add(CFA_XSP16, literal(-11)))
        CFI (cfiCond253) V4 load(1, XDATA, add(CFA_XSP16, literal(-10)))
        CFI (cfiCond253) V5 load(1, XDATA, add(CFA_XSP16, literal(-9)))
        CFI (cfiCond253) V6 load(1, XDATA, add(CFA_XSP16, literal(-8)))
        CFI (cfiCond253) V7 load(1, XDATA, add(CFA_XSP16, literal(-7)))
        CFI (cfiCond253) R7 load(1, XDATA, add(CFA_XSP16, literal(-6)))
        CFI (cfiCond253) ?RET_LOW load(1, XDATA, add(CFA_XSP16, literal(-5)))
        CFI (cfiCond253) ?RET_HIGH load(1, XDATA, add(CFA_XSP16, literal(-4)))
        CFI (cfiCond253) ?BRET_EXT load(1, XDATA, add(CFA_XSP16, literal(-3)))
        CFI (cfiCond253) DPL0 load(1, XDATA, add(CFA_XSP16, literal(-2)))
        CFI (cfiCond253) DPH0 load(1, XDATA, add(CFA_XSP16, literal(-1)))
        CFI (cfiCond253) CFA_SP SP+0
        CFI (cfiCond253) CFA_XSP16 add(XSP16, 18)
        CFI Block cfiPicker254 Using cfiCommon1
        CFI (cfiPicker254) NoFunction
        CFI (cfiPicker254) Picker
        LCALL   ?Subroutine39 & 0xFFFF
??CrossCallReturnLabel_116:
        INC     DPTR
        INC     R2
        MOV     R3,DPH
        RET
        CFI EndBlock cfiCond252
        CFI EndBlock cfiCond253
        CFI EndBlock cfiPicker254

        RSEG BANKED_CODE:CODE:NOROOT(0)
?Subroutine14:
        CFI Block cfiCond255 Using cfiCommon0
        CFI NoFunction
        CFI Conditional ??CrossCallReturnLabel_140
        CFI R6 load(1, XDATA, add(CFA_XSP16, literal(-16)))
        CFI VB load(1, XDATA, add(CFA_XSP16, literal(-15)))
        CFI V0 load(1, XDATA, add(CFA_XSP16, literal(-14)))
        CFI V1 load(1, XDATA, add(CFA_XSP16, literal(-13)))
        CFI V2 load(1, XDATA, add(CFA_XSP16, literal(-12)))
        CFI V3 load(1, XDATA, add(CFA_XSP16, literal(-11)))
        CFI V4 load(1, XDATA, add(CFA_XSP16, literal(-10)))
        CFI V5 load(1, XDATA, add(CFA_XSP16, literal(-9)))
        CFI V6 load(1, XDATA, add(CFA_XSP16, literal(-8)))
        CFI V7 load(1, XDATA, add(CFA_XSP16, literal(-7)))
        CFI R7 load(1, XDATA, add(CFA_XSP16, literal(-6)))
        CFI ?RET_LOW load(1, XDATA, add(CFA_XSP16, literal(-5)))
        CFI ?RET_HIGH load(1, XDATA, add(CFA_XSP16, literal(-4)))
        CFI ?BRET_EXT load(1, XDATA, add(CFA_XSP16, literal(-3)))
        CFI DPL0 load(1, XDATA, add(CFA_XSP16, literal(-2)))
        CFI DPH0 load(1, XDATA, add(CFA_XSP16, literal(-1)))
        CFI CFA_SP SP+0
        CFI CFA_XSP16 add(XSP16, 21)
        CFI Block cfiCond256 Using cfiCommon0
        CFI (cfiCond256) NoFunction
        CFI (cfiCond256) Conditional ??CrossCallReturnLabel_141
        CFI (cfiCond256) R6 load(1, XDATA, add(CFA_XSP16, literal(-16)))
        CFI (cfiCond256) VB load(1, XDATA, add(CFA_XSP16, literal(-15)))
        CFI (cfiCond256) V0 load(1, XDATA, add(CFA_XSP16, literal(-14)))
        CFI (cfiCond256) V1 load(1, XDATA, add(CFA_XSP16, literal(-13)))
        CFI (cfiCond256) V2 load(1, XDATA, add(CFA_XSP16, literal(-12)))
        CFI (cfiCond256) V3 load(1, XDATA, add(CFA_XSP16, literal(-11)))
        CFI (cfiCond256) V4 load(1, XDATA, add(CFA_XSP16, literal(-10)))
        CFI (cfiCond256) V5 load(1, XDATA, add(CFA_XSP16, literal(-9)))
        CFI (cfiCond256) V6 load(1, XDATA, add(CFA_XSP16, literal(-8)))
        CFI (cfiCond256) V7 load(1, XDATA, add(CFA_XSP16, literal(-7)))
        CFI (cfiCond256) R7 load(1, XDATA, add(CFA_XSP16, literal(-6)))
        CFI (cfiCond256) ?RET_LOW load(1, XDATA, add(CFA_XSP16, literal(-5)))
        CFI (cfiCond256) ?RET_HIGH load(1, XDATA, add(CFA_XSP16, literal(-4)))
        CFI (cfiCond256) ?BRET_EXT load(1, XDATA, add(CFA_XSP16, literal(-3)))
        CFI (cfiCond256) DPL0 load(1, XDATA, add(CFA_XSP16, literal(-2)))
        CFI (cfiCond256) DPH0 load(1, XDATA, add(CFA_XSP16, literal(-1)))
        CFI (cfiCond256) CFA_SP SP+0
        CFI (cfiCond256) CFA_XSP16 add(XSP16, 20)
        CFI Block cfiPicker257 Using cfiCommon1
        CFI (cfiPicker257) NoFunction
        CFI (cfiPicker257) Picker
        MOVX    A,@DPTR
        MOV     R4,A
        INC     DPTR
        MOVX    A,@DPTR
        MOV     R5,A
        LJMP    ?Subroutine53 & 0xFFFF
        CFI EndBlock cfiCond255
        CFI EndBlock cfiCond256
        CFI EndBlock cfiPicker257
// 1107 #endif // ZDO_BIND_UNBIND_REQUEST
// 1108 
// 1109 /*********************************************************************
// 1110  * Network Management
// 1111  */
// 1112 
// 1113 #if defined ( ZDO_MGMT_NWKDISC_REQUEST )
// 1114 /*********************************************************************
// 1115  * @fn          ZDP_MgmtNwkDiscReq
// 1116  *
// 1117  * @brief       This builds and send a Mgmt_NWK_Disc_req message. This
// 1118  *              function sends a unicast message.
// 1119  *
// 1120  * @param       dstAddr - destination address of the message
// 1121  * @param       ScanChannels - 32 bit address bit map
// 1122  * @param       StartIndex - Starting index within the reporting network
// 1123  *                           list
// 1124  * @param       SecurityEnable - Security Options
// 1125  *
// 1126  * @return      afStatus_t
// 1127  */
// 1128 afStatus_t ZDP_MgmtNwkDiscReq( zAddrType_t *dstAddr,
// 1129                                uint32 ScanChannels,
// 1130                                byte ScanDuration,
// 1131                                byte StartIndex,
// 1132                                byte SecurityEnable )
// 1133 {
// 1134   byte *pBuf = ZDP_TmpBuf;
// 1135   byte len = sizeof( uint32 )+1+1;  // ScanChannels + ScanDuration + StartIndex.
// 1136 
// 1137   *pBuf++ = BREAK_UINT32( ScanChannels, 0 );
// 1138   *pBuf++ = BREAK_UINT32( ScanChannels, 1 );
// 1139   *pBuf++ = BREAK_UINT32( ScanChannels, 2 );
// 1140   *pBuf++ = BREAK_UINT32( ScanChannels, 3 );
// 1141 
// 1142   *pBuf++ = ScanDuration;
// 1143   *pBuf = StartIndex;
// 1144 
// 1145   return fillAndSend( &ZDP_TransID, dstAddr, Mgmt_NWK_Disc_req, len );
// 1146 }
// 1147 #endif // ZDO_MGMT_NWKDISC_REQUEST
// 1148 
// 1149 #if defined ( ZDO_MGMT_JOINDIRECT_REQUEST )
// 1150 /*********************************************************************
// 1151  * @fn          ZDP_MgmtDirectJoinReq
// 1152  *
// 1153  * @brief       This builds and send a Mgmt_Direct_Join_req message. This
// 1154  *              function sends a unicast message.
// 1155  *
// 1156  * @param       dstAddr - destination address of the message
// 1157  * @param       deviceAddr - 64 bit IEEE Address
// 1158  * @param       SecurityEnable - Security Options
// 1159  *
// 1160  * @return      afStatus_t
// 1161  */
// 1162 afStatus_t ZDP_MgmtDirectJoinReq( zAddrType_t *dstAddr,
// 1163                                byte *deviceAddr,
// 1164                                byte capInfo,
// 1165                                byte SecurityEnable )
// 1166 {
// 1167   osal_cpyExtAddr( ZDP_TmpBuf, deviceAddr );
// 1168   ZDP_TmpBuf[Z_EXTADDR_LEN] = capInfo;
// 1169 
// 1170   return fillAndSend( &ZDP_TransID, dstAddr, Mgmt_Direct_Join_req, (Z_EXTADDR_LEN + 1) );
// 1171 }
// 1172 #endif // ZDO_MGMT_JOINDIRECT_REQUEST
// 1173 
// 1174 #if defined ( ZDO_MGMT_PERMIT_JOIN_REQUEST )
// 1175 /*********************************************************************
// 1176  * @fn          ZDP_MgmtPermitJoinReq
// 1177  *
// 1178  * @brief       This builds and send a Mgmt_Permit_Join_req message.
// 1179  *
// 1180  * @param       dstAddr - destination address of the message
// 1181  * @param       duration - Permit duration
// 1182  * @param       TcSignificance - Trust Center Significance
// 1183  *
// 1184  * @return      afStatus_t
// 1185  */
// 1186 afStatus_t ZDP_MgmtPermitJoinReq( zAddrType_t *dstAddr, byte duration,
// 1187                                   byte TcSignificance, byte SecurityEnable )
// 1188 {
// 1189   // Build buffer
// 1190   ZDP_TmpBuf[ZDP_MGMT_PERMIT_JOIN_REQ_DURATION] = duration;
// 1191   ZDP_TmpBuf[ZDP_MGMT_PERMIT_JOIN_REQ_TC_SIG]   = TcSignificance;
// 1192 
// 1193   // Send the message
// 1194   return fillAndSend( &ZDP_TransID, dstAddr, Mgmt_Permit_Join_req,
// 1195                       ZDP_MGMT_PERMIT_JOIN_REQ_SIZE );
// 1196 }
// 1197 #endif // ZDO_MGMT_PERMIT_JOIN_REQUEST
// 1198 
// 1199 /*********************************************************************
// 1200  * Network Management Responses
// 1201  */
// 1202 
// 1203 #if defined ( ZDO_MGMT_NWKDISC_RESPONSE )
// 1204 /*********************************************************************
// 1205  * @fn          ZDP_MgmtNwkDiscRsp
// 1206  *
// 1207  * @brief       This builds and send a Mgmt_NWK_Disc_rsp message. This
// 1208  *              function sends a unicast message.
// 1209  *
// 1210  * @param       dstAddr - destination address of the message
// 1211  * @param       Status - message status (ZDP_SUCCESS or other)
// 1212  * @param       NetworkCount - Total number of networks found
// 1213  * @param       StartIndex - Starting index within the reporting network
// 1214  *                           list
// 1215  * @param       NetworkListCount - number of network lists included
// 1216  *                                 in this message
// 1217  * @param       NetworkList - List of network descriptors
// 1218  * @param       SecurityEnable - Security Options
// 1219  *
// 1220  * @return      afStatus_t
// 1221  */
// 1222 afStatus_t ZDP_MgmtNwkDiscRsp( byte TransSeq, zAddrType_t *dstAddr,
// 1223                             byte Status,
// 1224                             byte NetworkCount,
// 1225                             byte StartIndex,
// 1226                             byte NetworkListCount,
// 1227                             networkDesc_t *NetworkList,
// 1228                             byte SecurityEnable )
// 1229 {
// 1230   byte *buf;
// 1231   byte *pBuf;
// 1232   byte len = 1+1+1+1;  // Status + NetworkCount + StartIndex + NetworkCountList.
// 1233   byte idx;
// 1234 
// 1235   len += ((NetworkListCount - StartIndex) * ( ZDP_NETWORK_EXTENDED_DISCRIPTOR_SIZE - 2 ));
// 1236 
// 1237   buf = osal_mem_alloc( len+1 );
// 1238   if ( buf == NULL )
// 1239   {
// 1240     return afStatus_MEM_FAIL;
// 1241   }
// 1242 
// 1243   pBuf = buf+1;
// 1244 
// 1245   *pBuf++ = Status;
// 1246   *pBuf++ = NetworkCount;
// 1247   *pBuf++ = StartIndex;
// 1248   *pBuf++ = NetworkListCount;
// 1249 
// 1250   for ( idx = StartIndex; idx < (NetworkListCount - StartIndex); idx++ )
// 1251   {
// 1252     osal_cpyExtAddr( pBuf, NetworkList->extendedPANID);
// 1253     pBuf += Z_EXTADDR_LEN;
// 1254    
// 1255     *pBuf++  = NetworkList->logicalChannel;                // LogicalChannel
// 1256     *pBuf    = NetworkList->stackProfile;                  // Stack profile
// 1257     *pBuf++ |= (byte)(NetworkList->version << 4);          // ZigBee Version
// 1258     *pBuf    = NetworkList->beaconOrder;                   // Beacon Order
// 1259     *pBuf++ |= (byte)(NetworkList->superFrameOrder << 4);  // Superframe Order
// 1260 
// 1261     if ( NetworkList->chosenRouter != INVALID_NODE_ADDR )
// 1262     {
// 1263       *pBuf++ = TRUE;                         // Permit Joining
// 1264     }
// 1265     else
// 1266     {
// 1267       *pBuf++ = FALSE;
// 1268     }
// 1269 
// 1270     NetworkList = NetworkList->nextDesc;    // Move to next list entry
// 1271   }
// 1272 
// 1273   FillAndSendBuffer( &TransSeq, dstAddr, Mgmt_NWK_Disc_rsp, len, buf );
// 1274 }
// 1275 #endif // ZDO_MGMT_NWKDISC_RESPONSE
// 1276 
// 1277 #if defined ( ZDO_MGMT_LQI_RESPONSE ) && defined ( RTR_NWK )
// 1278 /*********************************************************************
// 1279  * @fn          ZDP_MgmtLqiRsp
// 1280  *
// 1281  * @brief       This builds and send a Mgmt_Lqi_rsp message. This
// 1282  *              function sends a unicast message.
// 1283  *
// 1284  * @param       dstAddr - destination address of the message
// 1285  * @param       Status - message status (ZDP_SUCCESS or other)
// 1286  * @param       NeighborLqiEntries - Total number of entries found
// 1287  * @param       StartIndex - Starting index within the reporting list
// 1288  * @param       NeighborLqiCount - number of lists included
// 1289  *                                 in this message
// 1290  * @param       NeighborLqiList - List of NeighborLqiItems.  This list
// 1291  *                is the list to be sent, not the entire list
// 1292  * @param       SecurityEnable - true if secure
// 1293  *
// 1294  * @return      ZStatus_t
// 1295  */
// 1296 ZStatus_t ZDP_MgmtLqiRsp( byte TransSeq, zAddrType_t *dstAddr,
// 1297                           byte Status,
// 1298                           byte NeighborLqiEntries,
// 1299                           byte StartIndex,
// 1300                           byte NeighborLqiCount,
// 1301                           ZDP_MgmtLqiItem_t* NeighborList,
// 1302                           byte SecurityEnable )
// 1303 {
// 1304   ZDP_MgmtLqiItem_t* list = NeighborList;
// 1305   byte *buf, *pBuf;
// 1306   byte len, x;
// 1307 
// 1308   if ( ZSuccess != Status )
// 1309   {
// 1310     ZDP_TmpBuf[0] = Status;
// 1311     return fillAndSend( &TransSeq, dstAddr, Mgmt_Lqi_rsp, 1 );
// 1312   }
// 1313 
// 1314   // (Status + NeighborLqiEntries + StartIndex + NeighborLqiCount) +
// 1315   //  neighbor LQI data.
// 1316   len = (1 + 1 + 1 + 1) + (NeighborLqiCount * ZDP_MGMTLQI_EXTENDED_SIZE);
// 1317 
// 1318   buf = osal_mem_alloc( len+1 );
// 1319   if ( buf == NULL )
// 1320   {
// 1321     return afStatus_MEM_FAIL;
// 1322   }
// 1323 
// 1324   pBuf = buf+1;
// 1325 
// 1326   *pBuf++ = Status;
// 1327   *pBuf++ = NeighborLqiEntries;
// 1328   *pBuf++ = StartIndex;
// 1329   *pBuf++ = NeighborLqiCount;
// 1330 
// 1331   for ( x = 0; x < NeighborLqiCount; x++ )
// 1332   {
// 1333     osal_cpyExtAddr( pBuf, list->extPanID);         // Extended PanID
// 1334     pBuf += Z_EXTADDR_LEN;
// 1335    
// 1336     // EXTADDR
// 1337     pBuf = osal_cpyExtAddr( pBuf, list->extAddr );
// 1338 
// 1339     // NWKADDR
// 1340     *pBuf++ = LO_UINT16( list->nwkAddr );
// 1341     *pBuf++ = HI_UINT16( list->nwkAddr );
// 1342 
// 1343     // DEVICETYPE
// 1344     *pBuf = list->devType;
// 1345 
// 1346     // RXONIDLE
// 1347     *pBuf |= (uint8)(list->rxOnIdle << 2);
// 1348 
// 1349     // RELATIONSHIP
// 1350     *pBuf++ |= (uint8)(list->relation << 4);
// 1351 
// 1352     // PERMITJOINING
// 1353     *pBuf++ = (uint8)(list->permit);
// 1354 
// 1355     // DEPTH
// 1356     *pBuf++ = list->depth;
// 1357     
// 1358     // LQI
// 1359     *pBuf++ = list->lqi;
// 1360 
// 1361     list++; // next list entry
// 1362   }
// 1363 
// 1364   FillAndSendBuffer( &TransSeq, dstAddr, Mgmt_Lqi_rsp, len, buf );
// 1365 }
// 1366 #endif // ZDO_MGMT_LQI_RESPONSE && RTR_NWK
// 1367 
// 1368 #if defined ( ZDO_MGMT_RTG_RESPONSE )
// 1369 /*********************************************************************
// 1370  * @fn          ZDP_MgmtRtgRsp
// 1371  *
// 1372  * @brief       This builds and send a Mgmt_Rtg_rsp message. This
// 1373  *              function sends a unicast message.
// 1374  *
// 1375  * @param       dstAddr - destination address of the message
// 1376  * @param       Status - message status (ZDP_SUCCESS or other)
// 1377  * @param       RoutingTableEntries - Total number of entries
// 1378  * @param       StartIndex - Starting index within the reporting list
// 1379  * @param       RoutingTableListCount - number of entries included
// 1380  *                                      in this message
// 1381  * @param       RoutingTableList - List of Routing Table entries
// 1382  * @param       SecurityEnable - true to enable security for this message
// 1383  *
// 1384  * @return      ZStatus_t
// 1385  */
// 1386 ZStatus_t ZDP_MgmtRtgRsp( byte TransSeq, zAddrType_t *dstAddr,
// 1387                             byte Status,
// 1388                             byte RoutingTableEntries,
// 1389                             byte StartIndex,
// 1390                             byte RoutingListCount,
// 1391                             rtgItem_t *RoutingTableList,
// 1392                             byte SecurityEnable )
// 1393 {
// 1394   byte *buf;
// 1395   byte *pBuf;
// 1396   // Status + RoutingTableEntries + StartIndex + RoutingListCount.
// 1397   byte len = 1 + 1 + 1 + 1;
// 1398   byte x;
// 1399 
// 1400   // Add an array for Routing List data
// 1401   len += (RoutingListCount * ZDP_ROUTINGENTRY_SIZE);
// 1402 
// 1403   buf = osal_mem_alloc( (short)(len+1) );
// 1404   if ( buf == NULL )
// 1405   {
// 1406     return afStatus_MEM_FAIL;
// 1407   }
// 1408 
// 1409   pBuf = buf+1;
// 1410 
// 1411   *pBuf++ = Status;
// 1412   *pBuf++ = RoutingTableEntries;
// 1413   *pBuf++ = StartIndex;
// 1414   *pBuf++ = RoutingListCount;
// 1415 
// 1416   for ( x = 0; x < RoutingListCount; x++ )
// 1417   {
// 1418     *pBuf++ = LO_UINT16( RoutingTableList->dstAddress );  // Destination Address
// 1419     *pBuf++ = HI_UINT16( RoutingTableList->dstAddress );
// 1420     *pBuf++ = RoutingTableList->status;
// 1421     *pBuf++ = LO_UINT16( RoutingTableList->nextHopAddress );  // Next hop
// 1422     *pBuf++ = HI_UINT16( RoutingTableList->nextHopAddress );
// 1423     RoutingTableList++;    // Move to next list entry
// 1424   }
// 1425 
// 1426   FillAndSendBuffer( &TransSeq, dstAddr, Mgmt_Rtg_rsp, len, buf );
// 1427 }
// 1428 #endif // ZDO_MGMT_RTG_RESPONSE
// 1429 
// 1430 #if defined ( ZDO_MGMT_BIND_RESPONSE ) && defined ( REFLECTOR )
// 1431 /*********************************************************************
// 1432  * @fn          ZDP_MgmtBindRsp
// 1433  *
// 1434  * @brief       This builds and send a Mgmt_Bind_rsp message. This
// 1435  *              function sends a unicast message.
// 1436  *
// 1437  * @param       dstAddr - destination address of the message
// 1438  * @param       Status - message status (ZDP_SUCCESS or other)
// 1439  * @param       BindingTableEntries - Total number of entries
// 1440  * @param       StartIndex - Starting index within the reporting list
// 1441  * @param       BindingTableListCount - number of entries included
// 1442  *                                 in this message
// 1443  * @param       BindingTableList - List of Binding Table entries
// 1444  * @param       SecurityEnable - Security Options
// 1445  *
// 1446  * @return      ZStatus_t
// 1447  */
// 1448 ZStatus_t ZDP_MgmtBindRsp( byte TransSeq, zAddrType_t *dstAddr,
// 1449                             byte Status,
// 1450                             byte BindingTableEntries,
// 1451                             byte StartIndex,
// 1452                             byte BindingTableListCount,
// 1453                             apsBindingItem_t *BindingTableList,
// 1454                             byte SecurityEnable )
// 1455 {
// 1456   uint8 *buf;
// 1457   uint8 *pBuf;
// 1458   uint8 maxLen; // maxLen is the maximum packet length to allocate enough memory space
// 1459   uint8 len;    // Actual length varies due to different addrMode
// 1460   uint8 x;
// 1461   byte extZdpBindEntrySize = ZDP_BINDINGENTRY_SIZE + 1 + 1; // One more byte for cluserID and DstAddrMode
// 1462   byte shortZdpBindEntrySize = ZDP_BINDINGENTRY_SIZE + 1 + 1 + 2 - 8 - 1; // clusterID + DstAddrMode + shortAddr - ExtAddr - DstEndpoint
// 1463 
// 1464   // Status + BindingTableEntries + StartIndex + BindingTableListCount.
// 1465   maxLen = 1 + 1 + 1 + 1;
// 1466   maxLen += (BindingTableListCount * extZdpBindEntrySize );  //max length
// 1467   buf = osal_mem_alloc( maxLen + 1 );  // +1 for transaction ID
// 1468 
// 1469   if ( buf == NULL )
// 1470   {
// 1471     return afStatus_MEM_FAIL;
// 1472   }
// 1473 
// 1474   pBuf = buf+1;
// 1475 
// 1476   *pBuf++ = Status;
// 1477   *pBuf++ = BindingTableEntries;
// 1478   *pBuf++ = StartIndex;
// 1479   *pBuf++ = BindingTableListCount;
// 1480 
// 1481   // Initial length = Status + BindingTableEntries + StartIndex + BindingTableListCount.
// 1482   // length += ZDP_BINDINGENTRY_SIZE   -- Version 1.0
// 1483   //           extZdpBindEntrySize     -- Version 1.1 extended address mode
// 1484   //           shortZdpBindEntrySize   -- Version 1.1 group address mode
// 1485 
// 1486   len = 1 + 1 + 1 + 1;
// 1487   for ( x = 0; x < BindingTableListCount; x++ )
// 1488   {
// 1489     pBuf = osal_cpyExtAddr( pBuf, BindingTableList->srcAddr );
// 1490     *pBuf++ = BindingTableList->srcEP;
// 1491 
// 1492     // Cluster ID
// 1493     *pBuf++ = LO_UINT16( BindingTableList->clusterID );
// 1494     *pBuf++ = HI_UINT16( BindingTableList->clusterID );
// 1495 
// 1496     *pBuf++ = BindingTableList->dstAddr.addrMode;
// 1497     if ( BindingTableList->dstAddr.addrMode == Addr64Bit )
// 1498     {
// 1499       len += extZdpBindEntrySize;
// 1500       pBuf = osal_cpyExtAddr( pBuf, BindingTableList->dstAddr.addr.extAddr );
// 1501       *pBuf++ = BindingTableList->dstEP;
// 1502     }
// 1503     else
// 1504     {
// 1505       len += shortZdpBindEntrySize;
// 1506       *pBuf++ = LO_UINT16( BindingTableList->dstAddr.addr.shortAddr );
// 1507       *pBuf++ = HI_UINT16( BindingTableList->dstAddr.addr.shortAddr );
// 1508     }  
// 1509     BindingTableList++;    // Move to next list entry
// 1510   }
// 1511 
// 1512   FillAndSendBuffer( &TransSeq, dstAddr, Mgmt_Bind_rsp, len, buf );
// 1513 }
// 1514 #endif // ZDO_MGMT_BIND_RESPONSE && REFLECTOR
// 1515 
// 1516 /*********************************************************************
// 1517  * Functions to register for ZDO Over-the-air messages
// 1518  */
// 1519 
// 1520 /*********************************************************************
// 1521  * @fn          ZDO_RegisterForZDOMsg
// 1522  *
// 1523  * @brief       Call this function to register of an incoming over
// 1524  *              the air ZDO message - probably a response message
// 1525  *              but requests can also be received.
// 1526  *              Messages are delivered to the task with ZDO_CB_MSG
// 1527  *              as the message ID.
// 1528  *
// 1529  * @param       taskID - Where you would like the message delivered
// 1530  * @param       clusterID - What message?
// 1531  *
// 1532  * @return      ZSuccess - successful, ZMemError if not 
// 1533  */

        RSEG BANKED_CODE:CODE:NOROOT(0)
// 1534 ZStatus_t ZDO_RegisterForZDOMsg( uint8 taskID, uint16 clusterID )
ZDO_RegisterForZDOMsg:
        CFI Block cfiBlock258 Using cfiCommon0
        CFI Function ZDO_RegisterForZDOMsg
// 1535 {
        FUNCALL ZDO_RegisterForZDOMsg, osal_mem_alloc
        LOCFRAME ISTACK, 0, STACK
        LOCFRAME PSTACK, 0, STACK
        LOCFRAME XSTACK, 14, STACK
        LOCFRAME IOVERLAY, 0, STATIC
        LOCFRAME DOVERLAY, 0, STATIC
        ARGFRAME ISTACK, 0, STACK
        ARGFRAME PSTACK, 0, STACK
        ARGFRAME XSTACK, 14, STACK
        ARGFRAME IOVERLAY, 0, STATIC
        ARGFRAME DOVERLAY, 0, STATIC
        MOV     A,#-0xe
        LCALL   ?BANKED_ENTER_XDATA
        CFI DPH0 load(1, XDATA, add(CFA_XSP16, literal(-1)))
        CFI DPL0 load(1, XDATA, add(CFA_XSP16, literal(-2)))
        CFI ?BRET_EXT load(1, XDATA, add(CFA_XSP16, literal(-3)))
        CFI ?RET_HIGH load(1, XDATA, add(CFA_XSP16, literal(-4)))
        CFI ?RET_LOW load(1, XDATA, add(CFA_XSP16, literal(-5)))
        CFI R7 load(1, XDATA, add(CFA_XSP16, literal(-6)))
        CFI V5 load(1, XDATA, add(CFA_XSP16, literal(-7)))
        CFI V4 load(1, XDATA, add(CFA_XSP16, literal(-8)))
        CFI V3 load(1, XDATA, add(CFA_XSP16, literal(-9)))
        CFI V2 load(1, XDATA, add(CFA_XSP16, literal(-10)))
        CFI V1 load(1, XDATA, add(CFA_XSP16, literal(-11)))
        CFI V0 load(1, XDATA, add(CFA_XSP16, literal(-12)))
        CFI VB load(1, XDATA, add(CFA_XSP16, literal(-13)))
        CFI R6 load(1, XDATA, add(CFA_XSP16, literal(-14)))
        CFI CFA_SP SP+0
        CFI CFA_XSP16 add(XSP16, 14)
        ; Saved register size: 14
        ; Auto size: 0
        MOV     ?V0 + 2,R1
        MOV     A,R2
        MOV     R6,A
        MOV     A,R3
        MOV     R7,A
// 1536   ZDO_MsgCB_t *pList;
// 1537   ZDO_MsgCB_t *pLast;
// 1538   ZDO_MsgCB_t *pNew;
// 1539 
// 1540   // Look for duplicate
// 1541   pList = zdoMsgCBs;
        MOV     DPTR,#zdoMsgCBs
        SJMP    ??ZDO_RegisterForZDOMsg_0
// 1542   while ( pList )
// 1543   {
// 1544     if ( pList->taskID == taskID && pList->clusterID == clusterID )
// 1545       return ( ZSuccess );
// 1546     pLast = pList;
??ZDO_RegisterForZDOMsg_1:
        MOV     ?V0 + 0,R0
        MOV     ?V0 + 1,R1
// 1547     pList = (ZDO_MsgCB_t *)pList->next;
        MOV     DPL,R0
        MOV     DPH,R1
??ZDO_RegisterForZDOMsg_0:
        LCALL   ??Subroutine4_1 & 0xFFFF
??CrossCallReturnLabel_21:
        MOV     A,R0
        JNZ     ??ZDO_RegisterForZDOMsg_2
        MOV     A,R1
??ZDO_RegisterForZDOMsg_2:
        JZ      ??ZDO_RegisterForZDOMsg_3
        MOV     DPL,R0
        MOV     DPH,R1
        INC     DPTR
        INC     DPTR
        MOVX    A,@DPTR
        XRL     A,?V0 + 2
        JNZ     ??ZDO_RegisterForZDOMsg_1
        MOV     DPL,R0
        MOV     DPH,R1
        INC     DPTR
        INC     DPTR
        INC     DPTR
        MOVX    A,@DPTR
        XRL     A,R6
        JNZ     ??ZDO_RegisterForZDOMsg_4
        INC     DPTR
        MOVX    A,@DPTR
        XRL     A,R7
??ZDO_RegisterForZDOMsg_4:
        JNZ     ??ZDO_RegisterForZDOMsg_1
??ZDO_RegisterForZDOMsg_5:
        MOV     R1,#0x0
        SJMP    ??ZDO_RegisterForZDOMsg_6
// 1548   }
// 1549   
// 1550   // Add to the list
// 1551   pNew = (ZDO_MsgCB_t *)osal_mem_alloc( sizeof ( ZDO_MsgCB_t ) );
??ZDO_RegisterForZDOMsg_3:
        ; Setup parameters for call to function osal_mem_alloc
        MOV     R2,#0x5
        MOV     R3,#0x0
        LCALL   ??osal_mem_alloc?relay
        MOV     ?V0 + 4,R2
        MOV     ?V0 + 5,R3
        MOV     R0,?V0 + 4
        MOV     R1,?V0 + 5
// 1552   if ( pNew )
        MOV     A,R0
        JNZ     ??ZDO_RegisterForZDOMsg_7
        MOV     A,R1
??ZDO_RegisterForZDOMsg_7:
        JZ      ??ZDO_RegisterForZDOMsg_8
// 1553   {
// 1554     pNew->taskID = taskID;
        MOV     DPL,R0
        MOV     DPH,R1
        INC     DPTR
        INC     DPTR
        MOV     A,?V0 + 2
        MOVX    @DPTR,A
// 1555     pNew->clusterID = clusterID;
        MOV     DPL,R0
        MOV     DPH,R1
        INC     DPTR
        INC     DPTR
        INC     DPTR
        MOV     A,R6
        MOVX    @DPTR,A
        INC     DPTR
        MOV     A,R7
        MOVX    @DPTR,A
// 1556     pNew->next = NULL;
        MOV     DPL,R0
        MOV     DPH,R1
        CLR     A
        MOVX    @DPTR,A
        INC     DPTR
        MOVX    @DPTR,A
// 1557     if ( zdoMsgCBs )
        MOV     DPTR,#zdoMsgCBs
        MOVX    A,@DPTR
        JNZ     ??ZDO_RegisterForZDOMsg_9
        INC     DPTR
        MOVX    A,@DPTR
??ZDO_RegisterForZDOMsg_9:
        JZ      ??ZDO_RegisterForZDOMsg_10
// 1558     {
// 1559       pLast->next = pNew;
        MOV     DPL,?V0 + 0
        MOV     DPH,?V0 + 1
??ZDO_RegisterForZDOMsg_11:
        MOV     A,R0
        MOVX    @DPTR,A
        INC     DPTR
        MOV     A,R1
        MOVX    @DPTR,A
        SJMP    ??ZDO_RegisterForZDOMsg_5
// 1560     }
// 1561     else
// 1562       zdoMsgCBs = pNew;
??ZDO_RegisterForZDOMsg_10:
        MOV     DPTR,#zdoMsgCBs
        SJMP    ??ZDO_RegisterForZDOMsg_11
// 1563     return ( ZSuccess );
// 1564   }
// 1565   else
// 1566     return ( ZMemError );
??ZDO_RegisterForZDOMsg_8:
        MOV     R1,#0x10
??ZDO_RegisterForZDOMsg_6:
        LJMP    ?Subroutine46 & 0xFFFF
        CFI EndBlock cfiBlock258
// 1567 }
// 1568 
// 1569 /*********************************************************************
// 1570  * @fn          ZDO_RemoveRegisteredCB
// 1571  *
// 1572  * @brief       Call this function if you don't want to receive the 
// 1573  *              incoming message.
// 1574  *
// 1575  * @param       taskID - Where the messages are being delivered.
// 1576  * @param       clusterID - What message?
// 1577  *
// 1578  * @return      ZSuccess - successful, ZFailure if not found
// 1579  */

        RSEG BANKED_CODE:CODE:NOROOT(0)
// 1580 ZStatus_t ZDO_RemoveRegisteredCB( uint8 taskID, uint16 clusterID )
ZDO_RemoveRegisteredCB:
        CFI Block cfiBlock259 Using cfiCommon0
        CFI Function ZDO_RemoveRegisteredCB
// 1581 {
        FUNCALL ZDO_RemoveRegisteredCB, osal_mem_free
        LOCFRAME ISTACK, 0, STACK
        LOCFRAME PSTACK, 0, STACK
        LOCFRAME XSTACK, 9, STACK
        LOCFRAME IOVERLAY, 0, STATIC
        LOCFRAME DOVERLAY, 0, STATIC
        ARGFRAME ISTACK, 0, STACK
        ARGFRAME PSTACK, 0, STACK
        ARGFRAME XSTACK, 9, STACK
        ARGFRAME IOVERLAY, 0, STATIC
        ARGFRAME DOVERLAY, 0, STATIC
        MOV     A,#-0x9
        LCALL   ?BANKED_ENTER_XDATA
        CFI DPH0 load(1, XDATA, add(CFA_XSP16, literal(-1)))
        CFI DPL0 load(1, XDATA, add(CFA_XSP16, literal(-2)))
        CFI ?BRET_EXT load(1, XDATA, add(CFA_XSP16, literal(-3)))
        CFI ?RET_HIGH load(1, XDATA, add(CFA_XSP16, literal(-4)))
        CFI ?RET_LOW load(1, XDATA, add(CFA_XSP16, literal(-5)))
        CFI R7 load(1, XDATA, add(CFA_XSP16, literal(-6)))
        CFI V0 load(1, XDATA, add(CFA_XSP16, literal(-7)))
        CFI VB load(1, XDATA, add(CFA_XSP16, literal(-8)))
        CFI R6 load(1, XDATA, add(CFA_XSP16, literal(-9)))
        CFI CFA_SP SP+0
        CFI CFA_XSP16 add(XSP16, 9)
        ; Saved register size: 9
        ; Auto size: 0
        MOV     A,R1
        MOV     R6,A
// 1582   ZDO_MsgCB_t *pList;
// 1583   ZDO_MsgCB_t *pLast = NULL;
        MOV     R4,#0x0
        MOV     R5,#0x0
// 1584 
// 1585   pList = zdoMsgCBs;  
        MOV     DPTR,#zdoMsgCBs
        SJMP    ??ZDO_RemoveRegisteredCB_0
// 1586   while ( pList )
// 1587   {
// 1588     if ( pList->taskID == taskID && pList->clusterID == clusterID )
// 1589     {
// 1590       if ( pLast )
// 1591       {
// 1592         // remove this one from the linked list
// 1593         pLast->next = pList->next;
// 1594       }
// 1595       else if ( pList->next )
// 1596       {
// 1597         // remove the first one from the linked list
// 1598         zdoMsgCBs = pList->next;
// 1599       }
// 1600       else
// 1601       {
// 1602         // remove the only item from the list
// 1603         zdoMsgCBs = (ZDO_MsgCB_t *)NULL;
// 1604       }
// 1605       osal_mem_free( pList );
// 1606       return ( ZSuccess );      
// 1607     }
// 1608     pLast = pList;
??ZDO_RemoveRegisteredCB_1:
        MOV     A,R0
        MOV     R4,A
        MOV     A,R1
        MOV     R5,A
// 1609     pList = pList->next;
        MOV     DPL,R0
        MOV     DPH,R1
??ZDO_RemoveRegisteredCB_0:
        LCALL   ??Subroutine4_1 & 0xFFFF
??CrossCallReturnLabel_22:
        MOV     A,R0
        JNZ     ??ZDO_RemoveRegisteredCB_2
        MOV     A,R1
??ZDO_RemoveRegisteredCB_2:
        JZ      ??ZDO_RemoveRegisteredCB_3
        MOV     DPL,R0
        MOV     DPH,R1
        INC     DPTR
        INC     DPTR
        MOVX    A,@DPTR
        XRL     A,R6
        JNZ     ??ZDO_RemoveRegisteredCB_1
        MOV     DPL,R0
        MOV     DPH,R1
        INC     DPTR
        INC     DPTR
        INC     DPTR
        MOVX    A,@DPTR
        XRL     A,R2
        JNZ     ??ZDO_RemoveRegisteredCB_4
        INC     DPTR
        MOVX    A,@DPTR
        XRL     A,R3
??ZDO_RemoveRegisteredCB_4:
        JNZ     ??ZDO_RemoveRegisteredCB_1
        MOV     A,R4
        JNZ     ??ZDO_RemoveRegisteredCB_5
        MOV     A,R5
??ZDO_RemoveRegisteredCB_5:
        MOV     DPL,R0
        MOV     DPH,R1
        JZ      ??ZDO_RemoveRegisteredCB_6
        LCALL   ??Subroutine15_0 & 0xFFFF
??CrossCallReturnLabel_50:
        MOV     DPL,R4
        MOV     DPH,R5
??ZDO_RemoveRegisteredCB_7:
        MOV     A,R2
        MOVX    @DPTR,A
        INC     DPTR
        MOV     A,R3
        SJMP    ??ZDO_RemoveRegisteredCB_8
??ZDO_RemoveRegisteredCB_6:
        MOVX    A,@DPTR
        JNZ     ??ZDO_RemoveRegisteredCB_9
        INC     DPTR
        MOVX    A,@DPTR
??ZDO_RemoveRegisteredCB_9:
        JZ      ??ZDO_RemoveRegisteredCB_10
        MOV     DPL,R0
        MOV     DPH,R1
        LCALL   ??Subroutine15_0 & 0xFFFF
??CrossCallReturnLabel_51:
        MOV     DPTR,#zdoMsgCBs
        SJMP    ??ZDO_RemoveRegisteredCB_7
??ZDO_RemoveRegisteredCB_10:
        MOV     DPTR,#zdoMsgCBs
        CLR     A
        MOVX    @DPTR,A
        INC     DPTR
??ZDO_RemoveRegisteredCB_8:
        MOVX    @DPTR,A
        ; Setup parameters for call to function osal_mem_free
        MOV     A,R0
        MOV     R2,A
        MOV     A,R1
        MOV     R3,A
        LCALL   ??osal_mem_free?relay
        MOV     R1,#0x0
        SJMP    ??ZDO_RemoveRegisteredCB_11
// 1610   }
// 1611   
// 1612   return ( ZFailure );
??ZDO_RemoveRegisteredCB_3:
        MOV     R1,#0x1
??ZDO_RemoveRegisteredCB_11:
        MOV     R7,#0x1
        LJMP    ?BANKED_LEAVE_XDATA
        CFI EndBlock cfiBlock259
// 1613 }

        RSEG BANKED_CODE:CODE:NOROOT(0)
?Subroutine15:
        CFI Block cfiCond260 Using cfiCommon0
        CFI NoFunction
        CFI Conditional ??CrossCallReturnLabel_48
        CFI R6 load(1, XDATA, add(CFA_XSP16, literal(-16)))
        CFI VB load(1, XDATA, add(CFA_XSP16, literal(-15)))
        CFI V0 load(1, XDATA, add(CFA_XSP16, literal(-14)))
        CFI V1 load(1, XDATA, add(CFA_XSP16, literal(-13)))
        CFI V2 load(1, XDATA, add(CFA_XSP16, literal(-12)))
        CFI V3 load(1, XDATA, add(CFA_XSP16, literal(-11)))
        CFI V4 load(1, XDATA, add(CFA_XSP16, literal(-10)))
        CFI V5 load(1, XDATA, add(CFA_XSP16, literal(-9)))
        CFI V6 load(1, XDATA, add(CFA_XSP16, literal(-8)))
        CFI V7 load(1, XDATA, add(CFA_XSP16, literal(-7)))
        CFI R7 load(1, XDATA, add(CFA_XSP16, literal(-6)))
        CFI ?RET_LOW load(1, XDATA, add(CFA_XSP16, literal(-5)))
        CFI ?RET_HIGH load(1, XDATA, add(CFA_XSP16, literal(-4)))
        CFI ?BRET_EXT load(1, XDATA, add(CFA_XSP16, literal(-3)))
        CFI DPL0 load(1, XDATA, add(CFA_XSP16, literal(-2)))
        CFI DPH0 load(1, XDATA, add(CFA_XSP16, literal(-1)))
        CFI CFA_SP SP+0
        CFI CFA_XSP16 add(XSP16, 17)
        CFI Block cfiCond261 Using cfiCommon0
        CFI (cfiCond261) NoFunction
        CFI (cfiCond261) Conditional ??CrossCallReturnLabel_49
        CFI (cfiCond261) R6 load(1, XDATA, add(CFA_XSP16, literal(-16)))
        CFI (cfiCond261) VB load(1, XDATA, add(CFA_XSP16, literal(-15)))
        CFI (cfiCond261) V0 load(1, XDATA, add(CFA_XSP16, literal(-14)))
        CFI (cfiCond261) V1 load(1, XDATA, add(CFA_XSP16, literal(-13)))
        CFI (cfiCond261) V2 load(1, XDATA, add(CFA_XSP16, literal(-12)))
        CFI (cfiCond261) V3 load(1, XDATA, add(CFA_XSP16, literal(-11)))
        CFI (cfiCond261) V4 load(1, XDATA, add(CFA_XSP16, literal(-10)))
        CFI (cfiCond261) V5 load(1, XDATA, add(CFA_XSP16, literal(-9)))
        CFI (cfiCond261) V6 load(1, XDATA, add(CFA_XSP16, literal(-8)))
        CFI (cfiCond261) V7 load(1, XDATA, add(CFA_XSP16, literal(-7)))
        CFI (cfiCond261) R7 load(1, XDATA, add(CFA_XSP16, literal(-6)))
        CFI (cfiCond261) ?RET_LOW load(1, XDATA, add(CFA_XSP16, literal(-5)))
        CFI (cfiCond261) ?RET_HIGH load(1, XDATA, add(CFA_XSP16, literal(-4)))
        CFI (cfiCond261) ?BRET_EXT load(1, XDATA, add(CFA_XSP16, literal(-3)))
        CFI (cfiCond261) DPL0 load(1, XDATA, add(CFA_XSP16, literal(-2)))
        CFI (cfiCond261) DPH0 load(1, XDATA, add(CFA_XSP16, literal(-1)))
        CFI (cfiCond261) CFA_SP SP+0
        CFI (cfiCond261) CFA_XSP16 add(XSP16, 18)
        CFI Block cfiPicker262 Using cfiCommon1
        CFI (cfiPicker262) NoFunction
        CFI (cfiPicker262) Picker
        MOV     DPTR,#ZDP_TmpBuf
        CFI Block cfiCond263 Using cfiCommon0
        CFI (cfiCond263) NoFunction
        CFI (cfiCond263) Conditional ??CrossCallReturnLabel_46
        CFI (cfiCond263) R6 load(1, XDATA, add(CFA_XSP16, literal(-15)))
        CFI (cfiCond263) VB load(1, XDATA, add(CFA_XSP16, literal(-14)))
        CFI (cfiCond263) V0 load(1, XDATA, add(CFA_XSP16, literal(-13)))
        CFI (cfiCond263) V1 load(1, XDATA, add(CFA_XSP16, literal(-12)))
        CFI (cfiCond263) V2 load(1, XDATA, add(CFA_XSP16, literal(-11)))
        CFI (cfiCond263) V3 load(1, XDATA, add(CFA_XSP16, literal(-10)))
        CFI (cfiCond263) V4 load(1, XDATA, add(CFA_XSP16, literal(-9)))
        CFI (cfiCond263) V5 load(1, XDATA, add(CFA_XSP16, literal(-8)))
        CFI (cfiCond263) V6 load(1, XDATA, add(CFA_XSP16, literal(-7)))
        CFI (cfiCond263) R7 load(1, XDATA, add(CFA_XSP16, literal(-6)))
        CFI (cfiCond263) ?RET_LOW load(1, XDATA, add(CFA_XSP16, literal(-5)))
        CFI (cfiCond263) ?RET_HIGH load(1, XDATA, add(CFA_XSP16, literal(-4)))
        CFI (cfiCond263) ?BRET_EXT load(1, XDATA, add(CFA_XSP16, literal(-3)))
        CFI (cfiCond263) DPL0 load(1, XDATA, add(CFA_XSP16, literal(-2)))
        CFI (cfiCond263) DPH0 load(1, XDATA, add(CFA_XSP16, literal(-1)))
        CFI (cfiCond263) CFA_SP SP+0
        CFI (cfiCond263) CFA_XSP16 add(XSP16, 19)
        CFI Block cfiCond264 Using cfiCommon0
        CFI (cfiCond264) NoFunction
        CFI (cfiCond264) Conditional ??CrossCallReturnLabel_47
        CFI (cfiCond264) R6 load(1, XDATA, add(CFA_XSP16, literal(-16)))
        CFI (cfiCond264) VB load(1, XDATA, add(CFA_XSP16, literal(-15)))
        CFI (cfiCond264) V0 load(1, XDATA, add(CFA_XSP16, literal(-14)))
        CFI (cfiCond264) V1 load(1, XDATA, add(CFA_XSP16, literal(-13)))
        CFI (cfiCond264) V2 load(1, XDATA, add(CFA_XSP16, literal(-12)))
        CFI (cfiCond264) V3 load(1, XDATA, add(CFA_XSP16, literal(-11)))
        CFI (cfiCond264) V4 load(1, XDATA, add(CFA_XSP16, literal(-10)))
        CFI (cfiCond264) V5 load(1, XDATA, add(CFA_XSP16, literal(-9)))
        CFI (cfiCond264) V6 load(1, XDATA, add(CFA_XSP16, literal(-8)))
        CFI (cfiCond264) V7 load(1, XDATA, add(CFA_XSP16, literal(-7)))
        CFI (cfiCond264) R7 load(1, XDATA, add(CFA_XSP16, literal(-6)))
        CFI (cfiCond264) ?RET_LOW load(1, XDATA, add(CFA_XSP16, literal(-5)))
        CFI (cfiCond264) ?RET_HIGH load(1, XDATA, add(CFA_XSP16, literal(-4)))
        CFI (cfiCond264) ?BRET_EXT load(1, XDATA, add(CFA_XSP16, literal(-3)))
        CFI (cfiCond264) DPL0 load(1, XDATA, add(CFA_XSP16, literal(-2)))
        CFI (cfiCond264) DPH0 load(1, XDATA, add(CFA_XSP16, literal(-1)))
        CFI (cfiCond264) CFA_SP SP+0
        CFI (cfiCond264) CFA_XSP16 add(XSP16, 16)
        CFI Block cfiCond265 Using cfiCommon0
        CFI (cfiCond265) NoFunction
        CFI (cfiCond265) Conditional ??CrossCallReturnLabel_50
        CFI (cfiCond265) R6 load(1, XDATA, add(CFA_XSP16, literal(-9)))
        CFI (cfiCond265) VB load(1, XDATA, add(CFA_XSP16, literal(-8)))
        CFI (cfiCond265) V0 load(1, XDATA, add(CFA_XSP16, literal(-7)))
        CFI (cfiCond265) R7 load(1, XDATA, add(CFA_XSP16, literal(-6)))
        CFI (cfiCond265) ?RET_LOW load(1, XDATA, add(CFA_XSP16, literal(-5)))
        CFI (cfiCond265) ?RET_HIGH load(1, XDATA, add(CFA_XSP16, literal(-4)))
        CFI (cfiCond265) ?BRET_EXT load(1, XDATA, add(CFA_XSP16, literal(-3)))
        CFI (cfiCond265) DPL0 load(1, XDATA, add(CFA_XSP16, literal(-2)))
        CFI (cfiCond265) DPH0 load(1, XDATA, add(CFA_XSP16, literal(-1)))
        CFI (cfiCond265) CFA_SP SP+0
        CFI (cfiCond265) CFA_XSP16 add(XSP16, 9)
        CFI Block cfiCond266 Using cfiCommon0
        CFI (cfiCond266) NoFunction
        CFI (cfiCond266) Conditional ??CrossCallReturnLabel_51
        CFI (cfiCond266) R6 load(1, XDATA, add(CFA_XSP16, literal(-9)))
        CFI (cfiCond266) VB load(1, XDATA, add(CFA_XSP16, literal(-8)))
        CFI (cfiCond266) V0 load(1, XDATA, add(CFA_XSP16, literal(-7)))
        CFI (cfiCond266) R7 load(1, XDATA, add(CFA_XSP16, literal(-6)))
        CFI (cfiCond266) ?RET_LOW load(1, XDATA, add(CFA_XSP16, literal(-5)))
        CFI (cfiCond266) ?RET_HIGH load(1, XDATA, add(CFA_XSP16, literal(-4)))
        CFI (cfiCond266) ?BRET_EXT load(1, XDATA, add(CFA_XSP16, literal(-3)))
        CFI (cfiCond266) DPL0 load(1, XDATA, add(CFA_XSP16, literal(-2)))
        CFI (cfiCond266) DPH0 load(1, XDATA, add(CFA_XSP16, literal(-1)))
        CFI (cfiCond266) CFA_SP SP+0
        CFI (cfiCond266) CFA_XSP16 add(XSP16, 9)
??Subroutine15_0:
        MOVX    A,@DPTR
        MOV     R2,A
        INC     DPTR
        MOVX    A,@DPTR
        MOV     R3,A
        RET
        CFI EndBlock cfiCond260
        CFI EndBlock cfiCond261
        CFI EndBlock cfiPicker262
        CFI EndBlock cfiCond263
        CFI EndBlock cfiCond264
        CFI EndBlock cfiCond265
        CFI EndBlock cfiCond266
// 1614 
// 1615 /*********************************************************************
// 1616  * @fn          ZDO_SendMsgCBs
// 1617  *
// 1618  * @brief       This function sends messages to registered tasks.
// 1619  *              Local to ZDO and shouldn't be called outside of ZDO.
// 1620  *
// 1621  * @param       inMsg - incoming message
// 1622  *
// 1623  * @return      TRUE if sent to at least 1 task, FALSE if not
// 1624  */

        RSEG BANKED_CODE:CODE:NOROOT(0)
// 1625 uint8 ZDO_SendMsgCBs( zdoIncomingMsg_t *inMsg )
ZDO_SendMsgCBs:
        CFI Block cfiBlock267 Using cfiCommon0
        CFI Function ZDO_SendMsgCBs
// 1626 {
        FUNCALL ZDO_SendMsgCBs, osal_msg_allocate
        LOCFRAME ISTACK, 0, STACK
        LOCFRAME PSTACK, 0, STACK
        LOCFRAME XSTACK, 16, STACK
        LOCFRAME IOVERLAY, 0, STATIC
        LOCFRAME DOVERLAY, 0, STATIC
        ARGFRAME ISTACK, 0, STACK
        ARGFRAME PSTACK, 0, STACK
        ARGFRAME XSTACK, 16, STACK
        ARGFRAME IOVERLAY, 0, STATIC
        ARGFRAME DOVERLAY, 0, STATIC
        FUNCALL ZDO_SendMsgCBs, osal_memcpy
        LOCFRAME ISTACK, 0, STACK
        LOCFRAME PSTACK, 0, STACK
        LOCFRAME XSTACK, 19, STACK
        LOCFRAME IOVERLAY, 0, STATIC
        LOCFRAME DOVERLAY, 0, STATIC
        ARGFRAME ISTACK, 0, STACK
        ARGFRAME PSTACK, 0, STACK
        ARGFRAME XSTACK, 19, STACK
        ARGFRAME IOVERLAY, 0, STATIC
        ARGFRAME DOVERLAY, 0, STATIC
        FUNCALL ZDO_SendMsgCBs, osal_memcpy
        LOCFRAME ISTACK, 0, STACK
        LOCFRAME PSTACK, 0, STACK
        LOCFRAME XSTACK, 19, STACK
        LOCFRAME IOVERLAY, 0, STATIC
        LOCFRAME DOVERLAY, 0, STATIC
        ARGFRAME ISTACK, 0, STACK
        ARGFRAME PSTACK, 0, STACK
        ARGFRAME XSTACK, 19, STACK
        ARGFRAME IOVERLAY, 0, STATIC
        ARGFRAME DOVERLAY, 0, STATIC
        FUNCALL ZDO_SendMsgCBs, osal_msg_send
        LOCFRAME ISTACK, 0, STACK
        LOCFRAME PSTACK, 0, STACK
        LOCFRAME XSTACK, 16, STACK
        LOCFRAME IOVERLAY, 0, STATIC
        LOCFRAME DOVERLAY, 0, STATIC
        ARGFRAME ISTACK, 0, STACK
        ARGFRAME PSTACK, 0, STACK
        ARGFRAME XSTACK, 16, STACK
        ARGFRAME IOVERLAY, 0, STATIC
        ARGFRAME DOVERLAY, 0, STATIC
        MOV     A,#-0x10
        LCALL   ?BANKED_ENTER_XDATA
        CFI DPH0 load(1, XDATA, add(CFA_XSP16, literal(-1)))
        CFI DPL0 load(1, XDATA, add(CFA_XSP16, literal(-2)))
        CFI ?BRET_EXT load(1, XDATA, add(CFA_XSP16, literal(-3)))
        CFI ?RET_HIGH load(1, XDATA, add(CFA_XSP16, literal(-4)))
        CFI ?RET_LOW load(1, XDATA, add(CFA_XSP16, literal(-5)))
        CFI R7 load(1, XDATA, add(CFA_XSP16, literal(-6)))
        CFI V7 load(1, XDATA, add(CFA_XSP16, literal(-7)))
        CFI V6 load(1, XDATA, add(CFA_XSP16, literal(-8)))
        CFI V5 load(1, XDATA, add(CFA_XSP16, literal(-9)))
        CFI V4 load(1, XDATA, add(CFA_XSP16, literal(-10)))
        CFI V3 load(1, XDATA, add(CFA_XSP16, literal(-11)))
        CFI V2 load(1, XDATA, add(CFA_XSP16, literal(-12)))
        CFI V1 load(1, XDATA, add(CFA_XSP16, literal(-13)))
        CFI V0 load(1, XDATA, add(CFA_XSP16, literal(-14)))
        CFI VB load(1, XDATA, add(CFA_XSP16, literal(-15)))
        CFI R6 load(1, XDATA, add(CFA_XSP16, literal(-16)))
        CFI CFA_SP SP+0
        CFI CFA_XSP16 add(XSP16, 16)
        ; Saved register size: 16
        ; Auto size: 0
        MOV     ?V0 + 6,R2
        MOV     ?V0 + 7,R3
// 1627   uint8 ret = FALSE;
        MOV     ?V0 + 0,#0x0
// 1628   ZDO_MsgCB_t *pList = zdoMsgCBs;
        MOV     DPTR,#zdoMsgCBs
        LJMP    ??ZDO_SendMsgCBs_0 & 0xFFFF
// 1629   while ( pList )
// 1630   {
// 1631     if ( pList->clusterID == inMsg->clusterID )
??ZDO_SendMsgCBs_1:
        MOV     DPL,?V0 + 4
        MOV     DPH,?V0 + 5
        INC     DPTR
        INC     DPTR
        INC     DPTR
        LCALL   ??Subroutine4_1 & 0xFFFF
??CrossCallReturnLabel_23:
        LCALL   ?Subroutine29 & 0xFFFF
??CrossCallReturnLabel_92:
        XRL     A,R0
        JNZ     ??ZDO_SendMsgCBs_2
        INC     DPTR
        MOVX    A,@DPTR
        XRL     A,R1
??ZDO_SendMsgCBs_2:
        JZ      $+5
        LJMP    ??ZDO_SendMsgCBs_3 & 0xFFFF
// 1632     {
// 1633       zdoIncomingMsg_t *msgPtr;
// 1634 
// 1635       // Send the address to the task
// 1636       msgPtr = (zdoIncomingMsg_t *)osal_msg_allocate( sizeof( zdoIncomingMsg_t ) + inMsg->asduLen );
        ; Setup parameters for call to function osal_msg_allocate
        MOV     A,?V0 + 6
        ADD     A,#0x10
        LCALL   ??Subroutine29_0 & 0xFFFF
??CrossCallReturnLabel_93:
        MOV     R0,A
        MOV     A,#0x13
        ADD     A,R0
        MOV     R2,A
        CLR     A
        ADDC    A,#0x0
        MOV     R3,A
        LCALL   ??osal_msg_allocate?relay
        MOV     ?V0 + 2,R2
        MOV     ?V0 + 3,R3
        MOV     R6,?V0 + 2
        MOV     R7,?V0 + 3
// 1637       if ( msgPtr )
        MOV     A,R6
        JNZ     ??ZDO_SendMsgCBs_4
        MOV     A,R7
??ZDO_SendMsgCBs_4:
        JZ      ??ZDO_SendMsgCBs_3
// 1638       {
// 1639         // copy struct
// 1640         osal_memcpy( msgPtr, inMsg, sizeof( zdoIncomingMsg_t ));
        ; Setup parameters for call to function osal_memcpy
        MOV     ?V0 + 0,?V0 + 6
        MOV     ?V0 + 1,?V0 + 7
        MOV     ?V0 + 2,#0x0
        MOV     R0,#?V0 + 0
        LCALL   ?PUSH_XSTACK_I_THREE
        CFI CFA_XSP16 add(XSP16, 19)
        MOV     R4,#0x13
        MOV     R5,#0x0
        LCALL   ??osal_memcpy?relay
        MOV     A,#0x3
        LCALL   ?DEALLOC_XSTACK8
        CFI CFA_XSP16 add(XSP16, 16)
// 1641         
// 1642         if ( inMsg->asduLen )
        MOV     A,?V0 + 6
        ADD     A,#0x10
        LCALL   ??Subroutine29_0 & 0xFFFF
??CrossCallReturnLabel_94:
        JZ      ??ZDO_SendMsgCBs_5
// 1643         {
// 1644           msgPtr->asdu = (byte*)(((byte*)msgPtr) + sizeof( zdoIncomingMsg_t ));
        MOV     A,R6
        ADD     A,#0x13
        MOV     R2,A
        MOV     A,R7
        ADDC    A,#0x0
        MOV     R3,A
        MOV     A,R6
        ADD     A,#0x11
        MOV     DPL,A
        MOV     A,R7
        ADDC    A,#0x0
        MOV     DPH,A
        LCALL   ?Subroutine25 & 0xFFFF
// 1645           osal_memcpy( msgPtr->asdu, inMsg->asdu, inMsg->asduLen );
??CrossCallReturnLabel_78:
        ; Setup parameters for call to function osal_memcpy
        MOV     A,?V0 + 6
        ADD     A,#0x11
        MOV     DPL,A
        MOV     A,?V0 + 7
        ADDC    A,#0x0
        MOV     DPH,A
        LCALL   ?Subroutine3 & 0xFFFF
??CrossCallReturnLabel_12:
        MOV     R0,#?V0 + 0
        LCALL   ?PUSH_XSTACK_I_THREE
        CFI CFA_XSP16 add(XSP16, 19)
        MOV     A,?V0 + 6
        ADD     A,#0x10
        LCALL   ??Subroutine29_0 & 0xFFFF
??CrossCallReturnLabel_95:
        MOV     R4,A
        MOV     R5,#0x0
        LCALL   ??osal_memcpy?relay
        MOV     A,#0x3
        LCALL   ?DEALLOC_XSTACK8
        CFI CFA_XSP16 add(XSP16, 16)
// 1646         }
// 1647     
// 1648         msgPtr->hdr.event = ZDO_CB_MSG;
??ZDO_SendMsgCBs_5:
        MOV     A,#-0x2d
        MOV     DPL,R6
        MOV     DPH,R7
        MOVX    @DPTR,A
// 1649         osal_msg_send( pList->taskID, (uint8 *)msgPtr );
        ; Setup parameters for call to function osal_msg_send
        MOV     A,R6
        MOV     R2,A
        MOV     A,R7
        MOV     R3,A
        MOV     DPL,?V0 + 4
        MOV     DPH,?V0 + 5
        INC     DPTR
        INC     DPTR
        MOVX    A,@DPTR
        MOV     R1,A
        LCALL   ??osal_msg_send?relay
// 1650         ret = TRUE;
        MOV     ?V0 + 0,#0x1
// 1651       }
// 1652     }
// 1653     pList = (ZDO_MsgCB_t *)pList->next;
??ZDO_SendMsgCBs_3:
        MOV     DPL,?V0 + 4
        MOV     DPH,?V0 + 5
??ZDO_SendMsgCBs_0:
        MOVX    A,@DPTR
        MOV     ?V0 + 4,A
        INC     DPTR
        MOVX    A,@DPTR
        MOV     ?V0 + 5,A
// 1654   }
        MOV     A,?V0 + 4
        JNZ     ??ZDO_SendMsgCBs_6
        MOV     A,?V0 + 5
??ZDO_SendMsgCBs_6:
        JZ      $+5
        LJMP    ??ZDO_SendMsgCBs_1 & 0xFFFF
// 1655   return ( ret );
        MOV     R1,?V0 + 0
        LJMP    ??Subroutine52_1 & 0xFFFF
        CFI EndBlock cfiBlock267
// 1656 }  

        RSEG BANKED_CODE:CODE:NOROOT(0)
?Subroutine4:
        CFI Block cfiCond268 Using cfiCommon0
        CFI NoFunction
        CFI Conditional ??CrossCallReturnLabel_13
        CFI R6 load(1, XDATA, add(CFA_XSP16, literal(-14)))
        CFI VB load(1, XDATA, add(CFA_XSP16, literal(-13)))
        CFI V0 load(1, XDATA, add(CFA_XSP16, literal(-12)))
        CFI V1 load(1, XDATA, add(CFA_XSP16, literal(-11)))
        CFI V2 load(1, XDATA, add(CFA_XSP16, literal(-10)))
        CFI V3 load(1, XDATA, add(CFA_XSP16, literal(-9)))
        CFI V4 load(1, XDATA, add(CFA_XSP16, literal(-8)))
        CFI V5 load(1, XDATA, add(CFA_XSP16, literal(-7)))
        CFI R7 load(1, XDATA, add(CFA_XSP16, literal(-6)))
        CFI ?RET_LOW load(1, XDATA, add(CFA_XSP16, literal(-5)))
        CFI ?RET_HIGH load(1, XDATA, add(CFA_XSP16, literal(-4)))
        CFI ?BRET_EXT load(1, XDATA, add(CFA_XSP16, literal(-3)))
        CFI DPL0 load(1, XDATA, add(CFA_XSP16, literal(-2)))
        CFI DPH0 load(1, XDATA, add(CFA_XSP16, literal(-1)))
        CFI CFA_SP SP+0
        CFI CFA_XSP16 add(XSP16, 14)
        CFI Block cfiCond269 Using cfiCommon0
        CFI (cfiCond269) NoFunction
        CFI (cfiCond269) Conditional ??CrossCallReturnLabel_14
        CFI (cfiCond269) R6 load(1, XDATA, add(CFA_XSP16, literal(-16)))
        CFI (cfiCond269) VB load(1, XDATA, add(CFA_XSP16, literal(-15)))
        CFI (cfiCond269) V0 load(1, XDATA, add(CFA_XSP16, literal(-14)))
        CFI (cfiCond269) V1 load(1, XDATA, add(CFA_XSP16, literal(-13)))
        CFI (cfiCond269) V2 load(1, XDATA, add(CFA_XSP16, literal(-12)))
        CFI (cfiCond269) V3 load(1, XDATA, add(CFA_XSP16, literal(-11)))
        CFI (cfiCond269) V4 load(1, XDATA, add(CFA_XSP16, literal(-10)))
        CFI (cfiCond269) V5 load(1, XDATA, add(CFA_XSP16, literal(-9)))
        CFI (cfiCond269) V6 load(1, XDATA, add(CFA_XSP16, literal(-8)))
        CFI (cfiCond269) V7 load(1, XDATA, add(CFA_XSP16, literal(-7)))
        CFI (cfiCond269) R7 load(1, XDATA, add(CFA_XSP16, literal(-6)))
        CFI (cfiCond269) ?RET_LOW load(1, XDATA, add(CFA_XSP16, literal(-5)))
        CFI (cfiCond269) ?RET_HIGH load(1, XDATA, add(CFA_XSP16, literal(-4)))
        CFI (cfiCond269) ?BRET_EXT load(1, XDATA, add(CFA_XSP16, literal(-3)))
        CFI (cfiCond269) DPL0 load(1, XDATA, add(CFA_XSP16, literal(-2)))
        CFI (cfiCond269) DPH0 load(1, XDATA, add(CFA_XSP16, literal(-1)))
        CFI (cfiCond269) CFA_SP SP+0
        CFI (cfiCond269) CFA_XSP16 add(XSP16, 16)
        CFI Block cfiPicker270 Using cfiCommon1
        CFI (cfiPicker270) NoFunction
        CFI (cfiPicker270) Picker
        MOVX    A,@DPTR
        MOV     ?V0 + 3,A
        CFI Block cfiCond271 Using cfiCommon0
        CFI (cfiCond271) NoFunction
        CFI (cfiCond271) Conditional ??CrossCallReturnLabel_16
        CFI (cfiCond271) R6 load(1, XDATA, add(CFA_XSP16, literal(-10)))
        CFI (cfiCond271) VB load(1, XDATA, add(CFA_XSP16, literal(-9)))
        CFI (cfiCond271) V0 load(1, XDATA, add(CFA_XSP16, literal(-8)))
        CFI (cfiCond271) V1 load(1, XDATA, add(CFA_XSP16, literal(-7)))
        CFI (cfiCond271) R7 load(1, XDATA, add(CFA_XSP16, literal(-6)))
        CFI (cfiCond271) ?RET_LOW load(1, XDATA, add(CFA_XSP16, literal(-5)))
        CFI (cfiCond271) ?RET_HIGH load(1, XDATA, add(CFA_XSP16, literal(-4)))
        CFI (cfiCond271) ?BRET_EXT load(1, XDATA, add(CFA_XSP16, literal(-3)))
        CFI (cfiCond271) DPL0 load(1, XDATA, add(CFA_XSP16, literal(-2)))
        CFI (cfiCond271) DPH0 load(1, XDATA, add(CFA_XSP16, literal(-1)))
        CFI (cfiCond271) CFA_SP SP+0
        CFI (cfiCond271) CFA_XSP16 add(XSP16, 19)
        CFI Block cfiCond272 Using cfiCommon0
        CFI (cfiCond272) NoFunction
        CFI (cfiCond272) Conditional ??CrossCallReturnLabel_18
        CFI (cfiCond272) R6 load(1, XDATA, add(CFA_XSP16, literal(-14)))
        CFI (cfiCond272) VB load(1, XDATA, add(CFA_XSP16, literal(-13)))
        CFI (cfiCond272) V0 load(1, XDATA, add(CFA_XSP16, literal(-12)))
        CFI (cfiCond272) V1 load(1, XDATA, add(CFA_XSP16, literal(-11)))
        CFI (cfiCond272) V2 load(1, XDATA, add(CFA_XSP16, literal(-10)))
        CFI (cfiCond272) V3 load(1, XDATA, add(CFA_XSP16, literal(-9)))
        CFI (cfiCond272) V4 load(1, XDATA, add(CFA_XSP16, literal(-8)))
        CFI (cfiCond272) V5 load(1, XDATA, add(CFA_XSP16, literal(-7)))
        CFI (cfiCond272) R7 load(1, XDATA, add(CFA_XSP16, literal(-6)))
        CFI (cfiCond272) ?RET_LOW load(1, XDATA, add(CFA_XSP16, literal(-5)))
        CFI (cfiCond272) ?RET_HIGH load(1, XDATA, add(CFA_XSP16, literal(-4)))
        CFI (cfiCond272) ?BRET_EXT load(1, XDATA, add(CFA_XSP16, literal(-3)))
        CFI (cfiCond272) DPL0 load(1, XDATA, add(CFA_XSP16, literal(-2)))
        CFI (cfiCond272) DPH0 load(1, XDATA, add(CFA_XSP16, literal(-1)))
        CFI (cfiCond272) CFA_SP SP+0
        CFI (cfiCond272) CFA_XSP16 add(XSP16, 14)
??Subroutine4_0:
        MOV     DPTR,#ZDP_TmpBuf
        CFI Block cfiCond273 Using cfiCommon0
        CFI (cfiCond273) NoFunction
        CFI (cfiCond273) Conditional ??CrossCallReturnLabel_15
        CFI (cfiCond273) R6 load(1, XDATA, add(CFA_XSP16, literal(-12)))
        CFI (cfiCond273) VB load(1, XDATA, add(CFA_XSP16, literal(-11)))
        CFI (cfiCond273) V0 load(1, XDATA, add(CFA_XSP16, literal(-10)))
        CFI (cfiCond273) V1 load(1, XDATA, add(CFA_XSP16, literal(-9)))
        CFI (cfiCond273) V2 load(1, XDATA, add(CFA_XSP16, literal(-8)))
        CFI (cfiCond273) V3 load(1, XDATA, add(CFA_XSP16, literal(-7)))
        CFI (cfiCond273) R7 load(1, XDATA, add(CFA_XSP16, literal(-6)))
        CFI (cfiCond273) ?RET_LOW load(1, XDATA, add(CFA_XSP16, literal(-5)))
        CFI (cfiCond273) ?RET_HIGH load(1, XDATA, add(CFA_XSP16, literal(-4)))
        CFI (cfiCond273) ?BRET_EXT load(1, XDATA, add(CFA_XSP16, literal(-3)))
        CFI (cfiCond273) DPL0 load(1, XDATA, add(CFA_XSP16, literal(-2)))
        CFI (cfiCond273) DPH0 load(1, XDATA, add(CFA_XSP16, literal(-1)))
        CFI (cfiCond273) CFA_SP SP+0
        CFI (cfiCond273) CFA_XSP16 add(XSP16, 21)
        CFI Block cfiCond274 Using cfiCommon0
        CFI (cfiCond274) NoFunction
        CFI (cfiCond274) Conditional ??CrossCallReturnLabel_17
        CFI (cfiCond274) R6 load(1, XDATA, add(CFA_XSP16, literal(-16)))
        CFI (cfiCond274) VB load(1, XDATA, add(CFA_XSP16, literal(-15)))
        CFI (cfiCond274) V0 load(1, XDATA, add(CFA_XSP16, literal(-14)))
        CFI (cfiCond274) V1 load(1, XDATA, add(CFA_XSP16, literal(-13)))
        CFI (cfiCond274) V2 load(1, XDATA, add(CFA_XSP16, literal(-12)))
        CFI (cfiCond274) V3 load(1, XDATA, add(CFA_XSP16, literal(-11)))
        CFI (cfiCond274) V4 load(1, XDATA, add(CFA_XSP16, literal(-10)))
        CFI (cfiCond274) V5 load(1, XDATA, add(CFA_XSP16, literal(-9)))
        CFI (cfiCond274) V6 load(1, XDATA, add(CFA_XSP16, literal(-8)))
        CFI (cfiCond274) V7 load(1, XDATA, add(CFA_XSP16, literal(-7)))
        CFI (cfiCond274) R7 load(1, XDATA, add(CFA_XSP16, literal(-6)))
        CFI (cfiCond274) ?RET_LOW load(1, XDATA, add(CFA_XSP16, literal(-5)))
        CFI (cfiCond274) ?RET_HIGH load(1, XDATA, add(CFA_XSP16, literal(-4)))
        CFI (cfiCond274) ?BRET_EXT load(1, XDATA, add(CFA_XSP16, literal(-3)))
        CFI (cfiCond274) DPL0 load(1, XDATA, add(CFA_XSP16, literal(-2)))
        CFI (cfiCond274) DPH0 load(1, XDATA, add(CFA_XSP16, literal(-1)))
        CFI (cfiCond274) CFA_SP SP+0
        CFI (cfiCond274) CFA_XSP16 add(XSP16, 17)
        CFI Block cfiCond275 Using cfiCommon0
        CFI (cfiCond275) NoFunction
        CFI (cfiCond275) Conditional ??CrossCallReturnLabel_19
        CFI (cfiCond275) R6 load(1, XDATA, add(CFA_XSP16, literal(-16)))
        CFI (cfiCond275) VB load(1, XDATA, add(CFA_XSP16, literal(-15)))
        CFI (cfiCond275) V0 load(1, XDATA, add(CFA_XSP16, literal(-14)))
        CFI (cfiCond275) V1 load(1, XDATA, add(CFA_XSP16, literal(-13)))
        CFI (cfiCond275) V2 load(1, XDATA, add(CFA_XSP16, literal(-12)))
        CFI (cfiCond275) V3 load(1, XDATA, add(CFA_XSP16, literal(-11)))
        CFI (cfiCond275) V4 load(1, XDATA, add(CFA_XSP16, literal(-10)))
        CFI (cfiCond275) V5 load(1, XDATA, add(CFA_XSP16, literal(-9)))
        CFI (cfiCond275) V6 load(1, XDATA, add(CFA_XSP16, literal(-8)))
        CFI (cfiCond275) V7 load(1, XDATA, add(CFA_XSP16, literal(-7)))
        CFI (cfiCond275) R7 load(1, XDATA, add(CFA_XSP16, literal(-6)))
        CFI (cfiCond275) ?RET_LOW load(1, XDATA, add(CFA_XSP16, literal(-5)))
        CFI (cfiCond275) ?RET_HIGH load(1, XDATA, add(CFA_XSP16, literal(-4)))
        CFI (cfiCond275) ?BRET_EXT load(1, XDATA, add(CFA_XSP16, literal(-3)))
        CFI (cfiCond275) DPL0 load(1, XDATA, add(CFA_XSP16, literal(-2)))
        CFI (cfiCond275) DPH0 load(1, XDATA, add(CFA_XSP16, literal(-1)))
        CFI (cfiCond275) CFA_SP SP+0
        CFI (cfiCond275) CFA_XSP16 add(XSP16, 17)
        CFI Block cfiCond276 Using cfiCommon0
        CFI (cfiCond276) NoFunction
        CFI (cfiCond276) Conditional ??CrossCallReturnLabel_20
        CFI (cfiCond276) R6 load(1, XDATA, add(CFA_XSP16, literal(-10)))
        CFI (cfiCond276) VB load(1, XDATA, add(CFA_XSP16, literal(-9)))
        CFI (cfiCond276) V0 load(1, XDATA, add(CFA_XSP16, literal(-8)))
        CFI (cfiCond276) V1 load(1, XDATA, add(CFA_XSP16, literal(-7)))
        CFI (cfiCond276) R7 load(1, XDATA, add(CFA_XSP16, literal(-6)))
        CFI (cfiCond276) ?RET_LOW load(1, XDATA, add(CFA_XSP16, literal(-5)))
        CFI (cfiCond276) ?RET_HIGH load(1, XDATA, add(CFA_XSP16, literal(-4)))
        CFI (cfiCond276) ?BRET_EXT load(1, XDATA, add(CFA_XSP16, literal(-3)))
        CFI (cfiCond276) DPL0 load(1, XDATA, add(CFA_XSP16, literal(-2)))
        CFI (cfiCond276) DPH0 load(1, XDATA, add(CFA_XSP16, literal(-1)))
        CFI (cfiCond276) CFA_SP SP+0
        CFI (cfiCond276) CFA_XSP16 add(XSP16, 11)
        CFI Block cfiCond277 Using cfiCommon0
        CFI (cfiCond277) NoFunction
        CFI (cfiCond277) Conditional ??CrossCallReturnLabel_21
        CFI (cfiCond277) R6 load(1, XDATA, add(CFA_XSP16, literal(-14)))
        CFI (cfiCond277) VB load(1, XDATA, add(CFA_XSP16, literal(-13)))
        CFI (cfiCond277) V0 load(1, XDATA, add(CFA_XSP16, literal(-12)))
        CFI (cfiCond277) V1 load(1, XDATA, add(CFA_XSP16, literal(-11)))
        CFI (cfiCond277) V2 load(1, XDATA, add(CFA_XSP16, literal(-10)))
        CFI (cfiCond277) V3 load(1, XDATA, add(CFA_XSP16, literal(-9)))
        CFI (cfiCond277) V4 load(1, XDATA, add(CFA_XSP16, literal(-8)))
        CFI (cfiCond277) V5 load(1, XDATA, add(CFA_XSP16, literal(-7)))
        CFI (cfiCond277) R7 load(1, XDATA, add(CFA_XSP16, literal(-6)))
        CFI (cfiCond277) ?RET_LOW load(1, XDATA, add(CFA_XSP16, literal(-5)))
        CFI (cfiCond277) ?RET_HIGH load(1, XDATA, add(CFA_XSP16, literal(-4)))
        CFI (cfiCond277) ?BRET_EXT load(1, XDATA, add(CFA_XSP16, literal(-3)))
        CFI (cfiCond277) DPL0 load(1, XDATA, add(CFA_XSP16, literal(-2)))
        CFI (cfiCond277) DPH0 load(1, XDATA, add(CFA_XSP16, literal(-1)))
        CFI (cfiCond277) CFA_SP SP+0
        CFI (cfiCond277) CFA_XSP16 add(XSP16, 14)
        CFI Block cfiCond278 Using cfiCommon0
        CFI (cfiCond278) NoFunction
        CFI (cfiCond278) Conditional ??CrossCallReturnLabel_22
        CFI (cfiCond278) R6 load(1, XDATA, add(CFA_XSP16, literal(-9)))
        CFI (cfiCond278) VB load(1, XDATA, add(CFA_XSP16, literal(-8)))
        CFI (cfiCond278) V0 load(1, XDATA, add(CFA_XSP16, literal(-7)))
        CFI (cfiCond278) R7 load(1, XDATA, add(CFA_XSP16, literal(-6)))
        CFI (cfiCond278) ?RET_LOW load(1, XDATA, add(CFA_XSP16, literal(-5)))
        CFI (cfiCond278) ?RET_HIGH load(1, XDATA, add(CFA_XSP16, literal(-4)))
        CFI (cfiCond278) ?BRET_EXT load(1, XDATA, add(CFA_XSP16, literal(-3)))
        CFI (cfiCond278) DPL0 load(1, XDATA, add(CFA_XSP16, literal(-2)))
        CFI (cfiCond278) DPH0 load(1, XDATA, add(CFA_XSP16, literal(-1)))
        CFI (cfiCond278) CFA_SP SP+0
        CFI (cfiCond278) CFA_XSP16 add(XSP16, 9)
        CFI Block cfiCond279 Using cfiCommon0
        CFI (cfiCond279) NoFunction
        CFI (cfiCond279) Conditional ??CrossCallReturnLabel_23
        CFI (cfiCond279) R6 load(1, XDATA, add(CFA_XSP16, literal(-16)))
        CFI (cfiCond279) VB load(1, XDATA, add(CFA_XSP16, literal(-15)))
        CFI (cfiCond279) V0 load(1, XDATA, add(CFA_XSP16, literal(-14)))
        CFI (cfiCond279) V1 load(1, XDATA, add(CFA_XSP16, literal(-13)))
        CFI (cfiCond279) V2 load(1, XDATA, add(CFA_XSP16, literal(-12)))
        CFI (cfiCond279) V3 load(1, XDATA, add(CFA_XSP16, literal(-11)))
        CFI (cfiCond279) V4 load(1, XDATA, add(CFA_XSP16, literal(-10)))
        CFI (cfiCond279) V5 load(1, XDATA, add(CFA_XSP16, literal(-9)))
        CFI (cfiCond279) V6 load(1, XDATA, add(CFA_XSP16, literal(-8)))
        CFI (cfiCond279) V7 load(1, XDATA, add(CFA_XSP16, literal(-7)))
        CFI (cfiCond279) R7 load(1, XDATA, add(CFA_XSP16, literal(-6)))
        CFI (cfiCond279) ?RET_LOW load(1, XDATA, add(CFA_XSP16, literal(-5)))
        CFI (cfiCond279) ?RET_HIGH load(1, XDATA, add(CFA_XSP16, literal(-4)))
        CFI (cfiCond279) ?BRET_EXT load(1, XDATA, add(CFA_XSP16, literal(-3)))
        CFI (cfiCond279) DPL0 load(1, XDATA, add(CFA_XSP16, literal(-2)))
        CFI (cfiCond279) DPH0 load(1, XDATA, add(CFA_XSP16, literal(-1)))
        CFI (cfiCond279) CFA_SP SP+0
        CFI (cfiCond279) CFA_XSP16 add(XSP16, 16)
        CFI Block cfiCond280 Using cfiCommon0
        CFI (cfiCond280) NoFunction
        CFI (cfiCond280) Conditional ??CrossCallReturnLabel_24
        CFI (cfiCond280) R6 load(1, XDATA, add(CFA_XSP16, literal(-12)))
        CFI (cfiCond280) VB load(1, XDATA, add(CFA_XSP16, literal(-11)))
        CFI (cfiCond280) V0 load(1, XDATA, add(CFA_XSP16, literal(-10)))
        CFI (cfiCond280) V1 load(1, XDATA, add(CFA_XSP16, literal(-9)))
        CFI (cfiCond280) V2 load(1, XDATA, add(CFA_XSP16, literal(-8)))
        CFI (cfiCond280) V3 load(1, XDATA, add(CFA_XSP16, literal(-7)))
        CFI (cfiCond280) R7 load(1, XDATA, add(CFA_XSP16, literal(-6)))
        CFI (cfiCond280) ?RET_LOW load(1, XDATA, add(CFA_XSP16, literal(-5)))
        CFI (cfiCond280) ?RET_HIGH load(1, XDATA, add(CFA_XSP16, literal(-4)))
        CFI (cfiCond280) ?BRET_EXT load(1, XDATA, add(CFA_XSP16, literal(-3)))
        CFI (cfiCond280) DPL0 load(1, XDATA, add(CFA_XSP16, literal(-2)))
        CFI (cfiCond280) DPH0 load(1, XDATA, add(CFA_XSP16, literal(-1)))
        CFI (cfiCond280) CFA_SP SP+0
        CFI (cfiCond280) CFA_XSP16 add(XSP16, 31)
        CFI Block cfiCond281 Using cfiCommon0
        CFI (cfiCond281) NoFunction
        CFI (cfiCond281) Conditional ??CrossCallReturnLabel_25
        CFI (cfiCond281) R6 load(1, XDATA, add(CFA_XSP16, literal(-12)))
        CFI (cfiCond281) VB load(1, XDATA, add(CFA_XSP16, literal(-11)))
        CFI (cfiCond281) V0 load(1, XDATA, add(CFA_XSP16, literal(-10)))
        CFI (cfiCond281) V1 load(1, XDATA, add(CFA_XSP16, literal(-9)))
        CFI (cfiCond281) V2 load(1, XDATA, add(CFA_XSP16, literal(-8)))
        CFI (cfiCond281) V3 load(1, XDATA, add(CFA_XSP16, literal(-7)))
        CFI (cfiCond281) R7 load(1, XDATA, add(CFA_XSP16, literal(-6)))
        CFI (cfiCond281) ?RET_LOW load(1, XDATA, add(CFA_XSP16, literal(-5)))
        CFI (cfiCond281) ?RET_HIGH load(1, XDATA, add(CFA_XSP16, literal(-4)))
        CFI (cfiCond281) ?BRET_EXT load(1, XDATA, add(CFA_XSP16, literal(-3)))
        CFI (cfiCond281) DPL0 load(1, XDATA, add(CFA_XSP16, literal(-2)))
        CFI (cfiCond281) DPH0 load(1, XDATA, add(CFA_XSP16, literal(-1)))
        CFI (cfiCond281) CFA_SP SP+0
        CFI (cfiCond281) CFA_XSP16 add(XSP16, 31)
??Subroutine4_1:
        MOVX    A,@DPTR
        MOV     R0,A
        INC     DPTR
        MOVX    A,@DPTR
        MOV     R1,A
        RET
        CFI EndBlock cfiCond268
        CFI EndBlock cfiCond269
        CFI EndBlock cfiPicker270
        CFI EndBlock cfiCond271
        CFI EndBlock cfiCond272
        CFI EndBlock cfiCond273
        CFI EndBlock cfiCond274
        CFI EndBlock cfiCond275
        CFI EndBlock cfiCond276
        CFI EndBlock cfiCond277
        CFI EndBlock cfiCond278
        CFI EndBlock cfiCond279
        CFI EndBlock cfiCond280
        CFI EndBlock cfiCond281
// 1657 
// 1658 /*********************************************************************
// 1659  * Incoming message processor
// 1660  */
// 1661 
// 1662 /*********************************************************************
// 1663  * @fn          ZDP_IncomingData
// 1664  *
// 1665  * @brief       This function indicates the transfer of a data PDU (ASDU)
// 1666  *              from the APS sub-layer to the ZDO.
// 1667  *
// 1668  * @param       pData - Incoming Message
// 1669  *
// 1670  * @return      none
// 1671  */

        RSEG BANKED_CODE:CODE:NOROOT(0)
// 1672 void ZDP_IncomingData( afIncomingMSGPacket_t *pData )
ZDP_IncomingData:
        CFI Block cfiBlock282 Using cfiCommon0
        CFI Function ZDP_IncomingData
// 1673 {
        FUNCALL ZDP_IncomingData, ZDO_SendMsgCBs
        LOCFRAME ISTACK, 0, STACK
        LOCFRAME PSTACK, 0, STACK
        LOCFRAME XSTACK, 31, STACK
        LOCFRAME IOVERLAY, 0, STATIC
        LOCFRAME DOVERLAY, 0, STATIC
        ARGFRAME ISTACK, 0, STACK
        ARGFRAME PSTACK, 0, STACK
        ARGFRAME XSTACK, 31, STACK
        ARGFRAME IOVERLAY, 0, STATIC
        ARGFRAME DOVERLAY, 0, STATIC
        FUNCALL ZDP_IncomingData, ZDApp_InMsgCB
        LOCFRAME ISTACK, 0, STACK
        LOCFRAME PSTACK, 0, STACK
        LOCFRAME XSTACK, 31, STACK
        LOCFRAME IOVERLAY, 0, STATIC
        LOCFRAME DOVERLAY, 0, STATIC
        ARGFRAME ISTACK, 0, STACK
        ARGFRAME PSTACK, 0, STACK
        ARGFRAME XSTACK, 31, STACK
        ARGFRAME IOVERLAY, 0, STATIC
        ARGFRAME DOVERLAY, 0, STATIC
        MOV     A,#-0xc
        LCALL   ?BANKED_ENTER_XDATA
        CFI DPH0 load(1, XDATA, add(CFA_XSP16, literal(-1)))
        CFI DPL0 load(1, XDATA, add(CFA_XSP16, literal(-2)))
        CFI ?BRET_EXT load(1, XDATA, add(CFA_XSP16, literal(-3)))
        CFI ?RET_HIGH load(1, XDATA, add(CFA_XSP16, literal(-4)))
        CFI ?RET_LOW load(1, XDATA, add(CFA_XSP16, literal(-5)))
        CFI R7 load(1, XDATA, add(CFA_XSP16, literal(-6)))
        CFI V3 load(1, XDATA, add(CFA_XSP16, literal(-7)))
        CFI V2 load(1, XDATA, add(CFA_XSP16, literal(-8)))
        CFI V1 load(1, XDATA, add(CFA_XSP16, literal(-9)))
        CFI V0 load(1, XDATA, add(CFA_XSP16, literal(-10)))
        CFI VB load(1, XDATA, add(CFA_XSP16, literal(-11)))
        CFI R6 load(1, XDATA, add(CFA_XSP16, literal(-12)))
        CFI CFA_SP SP+0
        CFI CFA_XSP16 add(XSP16, 12)
        ; Saved register size: 12
        ; Auto size: 19
        MOV     A,#-0x13
        LCALL   ?ALLOC_XSTACK8
        CFI CFA_XSP16 add(XSP16, 31)
// 1674   uint8 x = 0;
        MOV     ?V0 + 0,#0x0
// 1675   uint8 handled;
// 1676   zdoIncomingMsg_t inMsg;
// 1677 
// 1678   inMsg.srcAddr.addrMode = Addr16Bit;
        MOV     A,#0xa
        LCALL   ?XSTACK_DISP0_8
        MOV     A,#0x2
        LCALL   ?Subroutine27 & 0xFFFF
// 1679   inMsg.srcAddr.addr.shortAddr = pData->srcAddr.addr.shortAddr;
??CrossCallReturnLabel_80:
        INC     DPTR
        INC     DPTR
        LCALL   ??Subroutine4_1 & 0xFFFF
??CrossCallReturnLabel_24:
        MOV     A,#0x2
        LCALL   ?XSTACK_DISP0_8
        MOV     A,R0
        MOVX    @DPTR,A
        INC     DPTR
        MOV     A,R1
        MOVX    @DPTR,A
// 1680   inMsg.wasBroadcast = pData->wasBroadcast;
        MOV     A,R2
        ADD     A,#0xb
        MOV     DPL,A
        MOV     A,R3
        LCALL   ??Subroutine29_1 & 0xFFFF
??CrossCallReturnLabel_96:
        PUSH    A
        CFI CFA_SP SP+-1
        MOV     A,#0xb
        LCALL   ?XSTACK_DISP0_8
        POP     A
        CFI CFA_SP SP+0
        LCALL   ?Subroutine27 & 0xFFFF
// 1681   inMsg.clusterID = pData->clusterId;
??CrossCallReturnLabel_81:
        LCALL   ??Subroutine4_1 & 0xFFFF
??CrossCallReturnLabel_25:
        MOV     A,#0xc
        LCALL   ?XSTACK_DISP0_8
        MOV     A,R0
        MOVX    @DPTR,A
        INC     DPTR
        MOV     A,R1
        MOVX    @DPTR,A
// 1682   inMsg.SecurityUse = pData->SecurityUse;
        MOV     A,R2
        ADD     A,#0xd
        MOV     DPL,A
        MOV     A,R3
        LCALL   ??Subroutine29_1 & 0xFFFF
??CrossCallReturnLabel_97:
        PUSH    A
        CFI CFA_SP SP+-1
        MOV     A,#0xe
        LCALL   ?XSTACK_DISP0_8
        POP     A
        CFI CFA_SP SP+0
        MOVX    @DPTR,A
// 1683 
// 1684   inMsg.asduLen = pData->cmd.DataLength-1;
        MOV     A,R2
        ADD     A,#0x13
        MOV     DPL,A
        MOV     A,R3
        LCALL   ??Subroutine29_1 & 0xFFFF
??CrossCallReturnLabel_98:
        DEC     A
        PUSH    A
        CFI CFA_SP SP+-1
        MOV     A,#0x10
        LCALL   ?XSTACK_DISP0_8
        POP     A
        CFI CFA_SP SP+0
        MOVX    @DPTR,A
// 1685   inMsg.asdu = pData->cmd.Data+1;
        MOV     A,R2
        ADD     A,#0x15
        MOV     R0,A
        MOV     A,R3
        ADDC    A,#0x0
        MOV     R1,A
        MOV     DPL,R0
        MOV     DPH,R1
        MOVX    A,@DPTR
        ADD     A,#0x1
        MOV     R2,A
        INC     DPTR
        MOVX    A,@DPTR
        ADDC    A,#0x0
        MOV     R3,A
        MOV     A,#0x11
        LCALL   ?XSTACK_DISP0_8
        LCALL   ?Subroutine25 & 0xFFFF
// 1686   inMsg.TransSeq = pData->cmd.Data[0];
??CrossCallReturnLabel_79:
        MOV     DPL,R0
        MOV     DPH,R1
        LCALL   ?Subroutine40 & 0xFFFF
??CrossCallReturnLabel_117:
        MOVX    A,@DPTR
        PUSH    A
        CFI CFA_SP SP+-1
        MOV     A,#0xf
        LCALL   ?XSTACK_DISP0_8
        POP     A
        CFI CFA_SP SP+0
        LCALL   ?Subroutine22 & 0xFFFF
// 1687   
// 1688   handled = ZDO_SendMsgCBs( &inMsg );
??CrossCallReturnLabel_68:
        MOV     R2,DPL
        MOV     R3,DPH
        LCALL   ??ZDO_SendMsgCBs?relay
        MOV     A,R1
        MOV     R2,A
        SJMP    ??ZDP_IncomingData_0
// 1689   
// 1690 #if defined( MT_ZDO_FUNC )
// 1691   MT_ZdoRsp( &inMsg );
// 1692 #endif
// 1693 
// 1694   while ( zdpMsgProcs[x].clusterID != 0xFFFF )
// 1695   {
// 1696     if ( zdpMsgProcs[x].clusterID == inMsg.clusterID )
// 1697     {
// 1698       zdpMsgProcs[x].pFn( &inMsg );
// 1699       return;
// 1700     }
// 1701     x++;
??ZDP_IncomingData_1:
        INC     ?V0 + 0
??ZDP_IncomingData_0:
        MOV     ?V0 + 2,?V0 + 0
        MOV     ?V0 + 3,#0x0
        MOV     A,#0x2
        MOV     R0,#?V0 + 2
        LCALL   ?S_SHL
        MOV     A,?V0 + 2
        ADD     A,#(zdpMsgProcs & 0xff)
        MOV     DPL,A
        MOV     A,?V0 + 3
        ADDC    A,#((zdpMsgProcs >> 8) & 0xff)
        MOV     DPH,A
        CLR     A
        MOVC    A,@A+DPTR
        MOV     R0,A
        MOV     A,#0x1
        MOVC    A,@A+DPTR
        MOV     R1,A
        MOV     A,#-0x1
        XRL     A,R0
        JNZ     ??ZDP_IncomingData_2
        MOV     A,#-0x1
        XRL     A,R1
??ZDP_IncomingData_2:
        JZ      ??ZDP_IncomingData_3
        CLR     A
        MOVC    A,@A+DPTR
        MOV     R0,A
        MOV     A,#0x1
        MOVC    A,@A+DPTR
        MOV     R1,A
        MOV     A,#0xc
        LCALL   ?XSTACK_DISP0_8
        MOVX    A,@DPTR
        XRL     A,R0
        JNZ     ??ZDP_IncomingData_4
        INC     DPTR
        MOVX    A,@DPTR
        XRL     A,R1
??ZDP_IncomingData_4:
        JNZ     ??ZDP_IncomingData_1
        ; Setup parameters for indirect call
        MOV     DPL,?XSP + 0
        MOV     DPH,?XSP + 1
        MOV     R2,DPL
        MOV     R3,DPH
        MOV     ?V0 + 1,#0x0
        MOV     A,#0x2
        MOV     R0,#?V0 + 0
        LCALL   ?S_SHL
        MOV     A,?V0 + 0
        ADD     A,#((zdpMsgProcs + 2) & 0xff)
        MOV     DPL,A
        MOV     A,?V0 + 1
        ADDC    A,#(((zdpMsgProcs + 2) >> 8) & 0xff)
        MOV     DPH,A
        CLR     A
        MOVC    A,@A+DPTR
        PUSH    A
        MOV     A,#0x1
        MOVC    A,@A+DPTR
        MOV     DPH,A
        POP     DPL
        LCALL   ?CALL_IND
        SJMP    ??ZDP_IncomingData_5
// 1702   }
// 1703 
// 1704   // Handle unhandled messages
// 1705   if ( !handled )
??ZDP_IncomingData_3:
        MOV     A,R2
        JNZ     ??ZDP_IncomingData_5
// 1706     ZDApp_InMsgCB( &inMsg );
        ; Setup parameters for call to function ZDApp_InMsgCB
        MOV     DPL,?XSP + 0
        MOV     DPH,?XSP + 1
        MOV     R2,DPL
        MOV     R3,DPH
        LCALL   ??ZDApp_InMsgCB?relay
??ZDP_IncomingData_5:
        MOV     A,#0x13
        LJMP    ?Subroutine47 & 0xFFFF
        CFI EndBlock cfiBlock282
// 1707 }

        RSEG BANKED_CODE:CODE:NOROOT(0)
?Subroutine40:
        CFI Block cfiCond283 Using cfiCommon0
        CFI NoFunction
        CFI Conditional ??CrossCallReturnLabel_118, ??CrossCallReturnLabel_56
        CFI R6 load(1, XDATA, add(CFA_XSP16, literal(-10)))
        CFI VB load(1, XDATA, add(CFA_XSP16, literal(-9)))
        CFI V0 load(1, XDATA, add(CFA_XSP16, literal(-8)))
        CFI V1 load(1, XDATA, add(CFA_XSP16, literal(-7)))
        CFI R7 load(1, XDATA, add(CFA_XSP16, literal(-6)))
        CFI ?RET_LOW load(1, XDATA, add(CFA_XSP16, literal(-5)))
        CFI ?RET_HIGH load(1, XDATA, add(CFA_XSP16, literal(-4)))
        CFI ?BRET_EXT load(1, XDATA, add(CFA_XSP16, literal(-3)))
        CFI DPL0 load(1, XDATA, add(CFA_XSP16, literal(-2)))
        CFI DPH0 load(1, XDATA, add(CFA_XSP16, literal(-1)))
        CFI CFA_SP SP+0
        CFI CFA_XSP16 add(XSP16, 11)
        CFI Block cfiCond284 Using cfiCommon0
        CFI (cfiCond284) NoFunction
        CFI (cfiCond284) Conditional ??CrossCallReturnLabel_118, ??CrossCallReturnLabel_57
        CFI (cfiCond284) R6 load(1, XDATA, add(CFA_XSP16, literal(-10)))
        CFI (cfiCond284) VB load(1, XDATA, add(CFA_XSP16, literal(-9)))
        CFI (cfiCond284) V0 load(1, XDATA, add(CFA_XSP16, literal(-8)))
        CFI (cfiCond284) V1 load(1, XDATA, add(CFA_XSP16, literal(-7)))
        CFI (cfiCond284) R7 load(1, XDATA, add(CFA_XSP16, literal(-6)))
        CFI (cfiCond284) ?RET_LOW load(1, XDATA, add(CFA_XSP16, literal(-5)))
        CFI (cfiCond284) ?RET_HIGH load(1, XDATA, add(CFA_XSP16, literal(-4)))
        CFI (cfiCond284) ?BRET_EXT load(1, XDATA, add(CFA_XSP16, literal(-3)))
        CFI (cfiCond284) DPL0 load(1, XDATA, add(CFA_XSP16, literal(-2)))
        CFI (cfiCond284) DPH0 load(1, XDATA, add(CFA_XSP16, literal(-1)))
        CFI (cfiCond284) CFA_SP SP+0
        CFI (cfiCond284) CFA_XSP16 add(XSP16, 11)
        CFI Block cfiCond285 Using cfiCommon0
        CFI (cfiCond285) NoFunction
        CFI (cfiCond285) Conditional ??CrossCallReturnLabel_117
        CFI (cfiCond285) R6 load(1, XDATA, add(CFA_XSP16, literal(-12)))
        CFI (cfiCond285) VB load(1, XDATA, add(CFA_XSP16, literal(-11)))
        CFI (cfiCond285) V0 load(1, XDATA, add(CFA_XSP16, literal(-10)))
        CFI (cfiCond285) V1 load(1, XDATA, add(CFA_XSP16, literal(-9)))
        CFI (cfiCond285) V2 load(1, XDATA, add(CFA_XSP16, literal(-8)))
        CFI (cfiCond285) V3 load(1, XDATA, add(CFA_XSP16, literal(-7)))
        CFI (cfiCond285) R7 load(1, XDATA, add(CFA_XSP16, literal(-6)))
        CFI (cfiCond285) ?RET_LOW load(1, XDATA, add(CFA_XSP16, literal(-5)))
        CFI (cfiCond285) ?RET_HIGH load(1, XDATA, add(CFA_XSP16, literal(-4)))
        CFI (cfiCond285) ?BRET_EXT load(1, XDATA, add(CFA_XSP16, literal(-3)))
        CFI (cfiCond285) DPL0 load(1, XDATA, add(CFA_XSP16, literal(-2)))
        CFI (cfiCond285) DPH0 load(1, XDATA, add(CFA_XSP16, literal(-1)))
        CFI (cfiCond285) CFA_SP SP+0
        CFI (cfiCond285) CFA_XSP16 add(XSP16, 31)
        CFI Block cfiPicker286 Using cfiCommon1
        CFI (cfiPicker286) NoFunction
        CFI (cfiPicker286) Picker
        MOVX    A,@DPTR
        MOV     R0,A
        INC     DPTR
        MOVX    A,@DPTR
        MOV     DPH,A
        MOV     DPL,R0
        RET
        CFI EndBlock cfiCond283
        CFI EndBlock cfiCond284
        CFI EndBlock cfiCond285
        CFI EndBlock cfiPicker286

        RSEG BANKED_CODE:CODE:NOROOT(0)
?Subroutine29:
        CFI Block cfiCond287 Using cfiCommon0
        CFI NoFunction
        CFI Conditional ??CrossCallReturnLabel_88
        CFI R6 load(1, XDATA, add(CFA_XSP16, literal(-16)))
        CFI VB load(1, XDATA, add(CFA_XSP16, literal(-15)))
        CFI V0 load(1, XDATA, add(CFA_XSP16, literal(-14)))
        CFI V1 load(1, XDATA, add(CFA_XSP16, literal(-13)))
        CFI V2 load(1, XDATA, add(CFA_XSP16, literal(-12)))
        CFI V3 load(1, XDATA, add(CFA_XSP16, literal(-11)))
        CFI V4 load(1, XDATA, add(CFA_XSP16, literal(-10)))
        CFI V5 load(1, XDATA, add(CFA_XSP16, literal(-9)))
        CFI V6 load(1, XDATA, add(CFA_XSP16, literal(-8)))
        CFI V7 load(1, XDATA, add(CFA_XSP16, literal(-7)))
        CFI R7 load(1, XDATA, add(CFA_XSP16, literal(-6)))
        CFI ?RET_LOW load(1, XDATA, add(CFA_XSP16, literal(-5)))
        CFI ?RET_HIGH load(1, XDATA, add(CFA_XSP16, literal(-4)))
        CFI ?BRET_EXT load(1, XDATA, add(CFA_XSP16, literal(-3)))
        CFI DPL0 load(1, XDATA, add(CFA_XSP16, literal(-2)))
        CFI DPH0 load(1, XDATA, add(CFA_XSP16, literal(-1)))
        CFI CFA_SP SP+0
        CFI CFA_XSP16 add(XSP16, 17)
        CFI Block cfiCond288 Using cfiCommon0
        CFI (cfiCond288) NoFunction
        CFI (cfiCond288) Conditional ??CrossCallReturnLabel_89
        CFI (cfiCond288) R6 load(1, XDATA, add(CFA_XSP16, literal(-16)))
        CFI (cfiCond288) VB load(1, XDATA, add(CFA_XSP16, literal(-15)))
        CFI (cfiCond288) V0 load(1, XDATA, add(CFA_XSP16, literal(-14)))
        CFI (cfiCond288) V1 load(1, XDATA, add(CFA_XSP16, literal(-13)))
        CFI (cfiCond288) V2 load(1, XDATA, add(CFA_XSP16, literal(-12)))
        CFI (cfiCond288) V3 load(1, XDATA, add(CFA_XSP16, literal(-11)))
        CFI (cfiCond288) V4 load(1, XDATA, add(CFA_XSP16, literal(-10)))
        CFI (cfiCond288) V5 load(1, XDATA, add(CFA_XSP16, literal(-9)))
        CFI (cfiCond288) V6 load(1, XDATA, add(CFA_XSP16, literal(-8)))
        CFI (cfiCond288) V7 load(1, XDATA, add(CFA_XSP16, literal(-7)))
        CFI (cfiCond288) R7 load(1, XDATA, add(CFA_XSP16, literal(-6)))
        CFI (cfiCond288) ?RET_LOW load(1, XDATA, add(CFA_XSP16, literal(-5)))
        CFI (cfiCond288) ?RET_HIGH load(1, XDATA, add(CFA_XSP16, literal(-4)))
        CFI (cfiCond288) ?BRET_EXT load(1, XDATA, add(CFA_XSP16, literal(-3)))
        CFI (cfiCond288) DPL0 load(1, XDATA, add(CFA_XSP16, literal(-2)))
        CFI (cfiCond288) DPH0 load(1, XDATA, add(CFA_XSP16, literal(-1)))
        CFI (cfiCond288) CFA_SP SP+0
        CFI (cfiCond288) CFA_XSP16 add(XSP16, 17)
        CFI Block cfiCond289 Using cfiCommon0
        CFI (cfiCond289) NoFunction
        CFI (cfiCond289) Conditional ??CrossCallReturnLabel_91
        CFI (cfiCond289) R6 load(1, XDATA, add(CFA_XSP16, literal(-16)))
        CFI (cfiCond289) VB load(1, XDATA, add(CFA_XSP16, literal(-15)))
        CFI (cfiCond289) V0 load(1, XDATA, add(CFA_XSP16, literal(-14)))
        CFI (cfiCond289) V1 load(1, XDATA, add(CFA_XSP16, literal(-13)))
        CFI (cfiCond289) V2 load(1, XDATA, add(CFA_XSP16, literal(-12)))
        CFI (cfiCond289) V3 load(1, XDATA, add(CFA_XSP16, literal(-11)))
        CFI (cfiCond289) V4 load(1, XDATA, add(CFA_XSP16, literal(-10)))
        CFI (cfiCond289) V5 load(1, XDATA, add(CFA_XSP16, literal(-9)))
        CFI (cfiCond289) V6 load(1, XDATA, add(CFA_XSP16, literal(-8)))
        CFI (cfiCond289) V7 load(1, XDATA, add(CFA_XSP16, literal(-7)))
        CFI (cfiCond289) R7 load(1, XDATA, add(CFA_XSP16, literal(-6)))
        CFI (cfiCond289) ?RET_LOW load(1, XDATA, add(CFA_XSP16, literal(-5)))
        CFI (cfiCond289) ?RET_HIGH load(1, XDATA, add(CFA_XSP16, literal(-4)))
        CFI (cfiCond289) ?BRET_EXT load(1, XDATA, add(CFA_XSP16, literal(-3)))
        CFI (cfiCond289) DPL0 load(1, XDATA, add(CFA_XSP16, literal(-2)))
        CFI (cfiCond289) DPH0 load(1, XDATA, add(CFA_XSP16, literal(-1)))
        CFI (cfiCond289) CFA_SP SP+0
        CFI (cfiCond289) CFA_XSP16 add(XSP16, 17)
        CFI Block cfiCond290 Using cfiCommon0
        CFI (cfiCond290) NoFunction
        CFI (cfiCond290) Conditional ??CrossCallReturnLabel_92
        CFI (cfiCond290) R6 load(1, XDATA, add(CFA_XSP16, literal(-16)))
        CFI (cfiCond290) VB load(1, XDATA, add(CFA_XSP16, literal(-15)))
        CFI (cfiCond290) V0 load(1, XDATA, add(CFA_XSP16, literal(-14)))
        CFI (cfiCond290) V1 load(1, XDATA, add(CFA_XSP16, literal(-13)))
        CFI (cfiCond290) V2 load(1, XDATA, add(CFA_XSP16, literal(-12)))
        CFI (cfiCond290) V3 load(1, XDATA, add(CFA_XSP16, literal(-11)))
        CFI (cfiCond290) V4 load(1, XDATA, add(CFA_XSP16, literal(-10)))
        CFI (cfiCond290) V5 load(1, XDATA, add(CFA_XSP16, literal(-9)))
        CFI (cfiCond290) V6 load(1, XDATA, add(CFA_XSP16, literal(-8)))
        CFI (cfiCond290) V7 load(1, XDATA, add(CFA_XSP16, literal(-7)))
        CFI (cfiCond290) R7 load(1, XDATA, add(CFA_XSP16, literal(-6)))
        CFI (cfiCond290) ?RET_LOW load(1, XDATA, add(CFA_XSP16, literal(-5)))
        CFI (cfiCond290) ?RET_HIGH load(1, XDATA, add(CFA_XSP16, literal(-4)))
        CFI (cfiCond290) ?BRET_EXT load(1, XDATA, add(CFA_XSP16, literal(-3)))
        CFI (cfiCond290) DPL0 load(1, XDATA, add(CFA_XSP16, literal(-2)))
        CFI (cfiCond290) DPH0 load(1, XDATA, add(CFA_XSP16, literal(-1)))
        CFI (cfiCond290) CFA_SP SP+0
        CFI (cfiCond290) CFA_XSP16 add(XSP16, 16)
        CFI Block cfiPicker291 Using cfiCommon1
        CFI (cfiPicker291) NoFunction
        CFI (cfiPicker291) Picker
        MOV     A,?V0 + 6
        ADD     A,#0xc
        CFI Block cfiCond292 Using cfiCommon0
        CFI (cfiCond292) NoFunction
        CFI (cfiCond292) Conditional ??CrossCallReturnLabel_90
        CFI (cfiCond292) R6 load(1, XDATA, add(CFA_XSP16, literal(-16)))
        CFI (cfiCond292) VB load(1, XDATA, add(CFA_XSP16, literal(-15)))
        CFI (cfiCond292) V0 load(1, XDATA, add(CFA_XSP16, literal(-14)))
        CFI (cfiCond292) V1 load(1, XDATA, add(CFA_XSP16, literal(-13)))
        CFI (cfiCond292) V2 load(1, XDATA, add(CFA_XSP16, literal(-12)))
        CFI (cfiCond292) V3 load(1, XDATA, add(CFA_XSP16, literal(-11)))
        CFI (cfiCond292) V4 load(1, XDATA, add(CFA_XSP16, literal(-10)))
        CFI (cfiCond292) V5 load(1, XDATA, add(CFA_XSP16, literal(-9)))
        CFI (cfiCond292) V6 load(1, XDATA, add(CFA_XSP16, literal(-8)))
        CFI (cfiCond292) V7 load(1, XDATA, add(CFA_XSP16, literal(-7)))
        CFI (cfiCond292) R7 load(1, XDATA, add(CFA_XSP16, literal(-6)))
        CFI (cfiCond292) ?RET_LOW load(1, XDATA, add(CFA_XSP16, literal(-5)))
        CFI (cfiCond292) ?RET_HIGH load(1, XDATA, add(CFA_XSP16, literal(-4)))
        CFI (cfiCond292) ?BRET_EXT load(1, XDATA, add(CFA_XSP16, literal(-3)))
        CFI (cfiCond292) DPL0 load(1, XDATA, add(CFA_XSP16, literal(-2)))
        CFI (cfiCond292) DPH0 load(1, XDATA, add(CFA_XSP16, literal(-1)))
        CFI (cfiCond292) CFA_SP SP+0
        CFI (cfiCond292) CFA_XSP16 add(XSP16, 17)
        CFI Block cfiCond293 Using cfiCommon0
        CFI (cfiCond293) NoFunction
        CFI (cfiCond293) Conditional ??CrossCallReturnLabel_93
        CFI (cfiCond293) R6 load(1, XDATA, add(CFA_XSP16, literal(-16)))
        CFI (cfiCond293) VB load(1, XDATA, add(CFA_XSP16, literal(-15)))
        CFI (cfiCond293) V0 load(1, XDATA, add(CFA_XSP16, literal(-14)))
        CFI (cfiCond293) V1 load(1, XDATA, add(CFA_XSP16, literal(-13)))
        CFI (cfiCond293) V2 load(1, XDATA, add(CFA_XSP16, literal(-12)))
        CFI (cfiCond293) V3 load(1, XDATA, add(CFA_XSP16, literal(-11)))
        CFI (cfiCond293) V4 load(1, XDATA, add(CFA_XSP16, literal(-10)))
        CFI (cfiCond293) V5 load(1, XDATA, add(CFA_XSP16, literal(-9)))
        CFI (cfiCond293) V6 load(1, XDATA, add(CFA_XSP16, literal(-8)))
        CFI (cfiCond293) V7 load(1, XDATA, add(CFA_XSP16, literal(-7)))
        CFI (cfiCond293) R7 load(1, XDATA, add(CFA_XSP16, literal(-6)))
        CFI (cfiCond293) ?RET_LOW load(1, XDATA, add(CFA_XSP16, literal(-5)))
        CFI (cfiCond293) ?RET_HIGH load(1, XDATA, add(CFA_XSP16, literal(-4)))
        CFI (cfiCond293) ?BRET_EXT load(1, XDATA, add(CFA_XSP16, literal(-3)))
        CFI (cfiCond293) DPL0 load(1, XDATA, add(CFA_XSP16, literal(-2)))
        CFI (cfiCond293) DPH0 load(1, XDATA, add(CFA_XSP16, literal(-1)))
        CFI (cfiCond293) CFA_SP SP+0
        CFI (cfiCond293) CFA_XSP16 add(XSP16, 16)
        CFI Block cfiCond294 Using cfiCommon0
        CFI (cfiCond294) NoFunction
        CFI (cfiCond294) Conditional ??CrossCallReturnLabel_94
        CFI (cfiCond294) R6 load(1, XDATA, add(CFA_XSP16, literal(-16)))
        CFI (cfiCond294) VB load(1, XDATA, add(CFA_XSP16, literal(-15)))
        CFI (cfiCond294) V0 load(1, XDATA, add(CFA_XSP16, literal(-14)))
        CFI (cfiCond294) V1 load(1, XDATA, add(CFA_XSP16, literal(-13)))
        CFI (cfiCond294) V2 load(1, XDATA, add(CFA_XSP16, literal(-12)))
        CFI (cfiCond294) V3 load(1, XDATA, add(CFA_XSP16, literal(-11)))
        CFI (cfiCond294) V4 load(1, XDATA, add(CFA_XSP16, literal(-10)))
        CFI (cfiCond294) V5 load(1, XDATA, add(CFA_XSP16, literal(-9)))
        CFI (cfiCond294) V6 load(1, XDATA, add(CFA_XSP16, literal(-8)))
        CFI (cfiCond294) V7 load(1, XDATA, add(CFA_XSP16, literal(-7)))
        CFI (cfiCond294) R7 load(1, XDATA, add(CFA_XSP16, literal(-6)))
        CFI (cfiCond294) ?RET_LOW load(1, XDATA, add(CFA_XSP16, literal(-5)))
        CFI (cfiCond294) ?RET_HIGH load(1, XDATA, add(CFA_XSP16, literal(-4)))
        CFI (cfiCond294) ?BRET_EXT load(1, XDATA, add(CFA_XSP16, literal(-3)))
        CFI (cfiCond294) DPL0 load(1, XDATA, add(CFA_XSP16, literal(-2)))
        CFI (cfiCond294) DPH0 load(1, XDATA, add(CFA_XSP16, literal(-1)))
        CFI (cfiCond294) CFA_SP SP+0
        CFI (cfiCond294) CFA_XSP16 add(XSP16, 16)
        CFI Block cfiCond295 Using cfiCommon0
        CFI (cfiCond295) NoFunction
        CFI (cfiCond295) Conditional ??CrossCallReturnLabel_95
        CFI (cfiCond295) R6 load(1, XDATA, add(CFA_XSP16, literal(-16)))
        CFI (cfiCond295) VB load(1, XDATA, add(CFA_XSP16, literal(-15)))
        CFI (cfiCond295) V0 load(1, XDATA, add(CFA_XSP16, literal(-14)))
        CFI (cfiCond295) V1 load(1, XDATA, add(CFA_XSP16, literal(-13)))
        CFI (cfiCond295) V2 load(1, XDATA, add(CFA_XSP16, literal(-12)))
        CFI (cfiCond295) V3 load(1, XDATA, add(CFA_XSP16, literal(-11)))
        CFI (cfiCond295) V4 load(1, XDATA, add(CFA_XSP16, literal(-10)))
        CFI (cfiCond295) V5 load(1, XDATA, add(CFA_XSP16, literal(-9)))
        CFI (cfiCond295) V6 load(1, XDATA, add(CFA_XSP16, literal(-8)))
        CFI (cfiCond295) V7 load(1, XDATA, add(CFA_XSP16, literal(-7)))
        CFI (cfiCond295) R7 load(1, XDATA, add(CFA_XSP16, literal(-6)))
        CFI (cfiCond295) ?RET_LOW load(1, XDATA, add(CFA_XSP16, literal(-5)))
        CFI (cfiCond295) ?RET_HIGH load(1, XDATA, add(CFA_XSP16, literal(-4)))
        CFI (cfiCond295) ?BRET_EXT load(1, XDATA, add(CFA_XSP16, literal(-3)))
        CFI (cfiCond295) DPL0 load(1, XDATA, add(CFA_XSP16, literal(-2)))
        CFI (cfiCond295) DPH0 load(1, XDATA, add(CFA_XSP16, literal(-1)))
        CFI (cfiCond295) CFA_SP SP+0
        CFI (cfiCond295) CFA_XSP16 add(XSP16, 19)
??Subroutine29_0:
        MOV     DPL,A
        MOV     A,?V0 + 7
        CFI Block cfiCond296 Using cfiCommon0
        CFI (cfiCond296) NoFunction
        CFI (cfiCond296) Conditional ??CrossCallReturnLabel_84
        CFI (cfiCond296) R6 load(1, XDATA, add(CFA_XSP16, literal(-16)))
        CFI (cfiCond296) VB load(1, XDATA, add(CFA_XSP16, literal(-15)))
        CFI (cfiCond296) V0 load(1, XDATA, add(CFA_XSP16, literal(-14)))
        CFI (cfiCond296) V1 load(1, XDATA, add(CFA_XSP16, literal(-13)))
        CFI (cfiCond296) V2 load(1, XDATA, add(CFA_XSP16, literal(-12)))
        CFI (cfiCond296) V3 load(1, XDATA, add(CFA_XSP16, literal(-11)))
        CFI (cfiCond296) V4 load(1, XDATA, add(CFA_XSP16, literal(-10)))
        CFI (cfiCond296) V5 load(1, XDATA, add(CFA_XSP16, literal(-9)))
        CFI (cfiCond296) V6 load(1, XDATA, add(CFA_XSP16, literal(-8)))
        CFI (cfiCond296) V7 load(1, XDATA, add(CFA_XSP16, literal(-7)))
        CFI (cfiCond296) R7 load(1, XDATA, add(CFA_XSP16, literal(-6)))
        CFI (cfiCond296) ?RET_LOW load(1, XDATA, add(CFA_XSP16, literal(-5)))
        CFI (cfiCond296) ?RET_HIGH load(1, XDATA, add(CFA_XSP16, literal(-4)))
        CFI (cfiCond296) ?BRET_EXT load(1, XDATA, add(CFA_XSP16, literal(-3)))
        CFI (cfiCond296) DPL0 load(1, XDATA, add(CFA_XSP16, literal(-2)))
        CFI (cfiCond296) DPH0 load(1, XDATA, add(CFA_XSP16, literal(-1)))
        CFI (cfiCond296) CFA_SP SP+0
        CFI (cfiCond296) CFA_XSP16 add(XSP16, 17)
        CFI Block cfiCond297 Using cfiCommon0
        CFI (cfiCond297) NoFunction
        CFI (cfiCond297) Conditional ??CrossCallReturnLabel_85
        CFI (cfiCond297) R6 load(1, XDATA, add(CFA_XSP16, literal(-16)))
        CFI (cfiCond297) VB load(1, XDATA, add(CFA_XSP16, literal(-15)))
        CFI (cfiCond297) V0 load(1, XDATA, add(CFA_XSP16, literal(-14)))
        CFI (cfiCond297) V1 load(1, XDATA, add(CFA_XSP16, literal(-13)))
        CFI (cfiCond297) V2 load(1, XDATA, add(CFA_XSP16, literal(-12)))
        CFI (cfiCond297) V3 load(1, XDATA, add(CFA_XSP16, literal(-11)))
        CFI (cfiCond297) V4 load(1, XDATA, add(CFA_XSP16, literal(-10)))
        CFI (cfiCond297) V5 load(1, XDATA, add(CFA_XSP16, literal(-9)))
        CFI (cfiCond297) V6 load(1, XDATA, add(CFA_XSP16, literal(-8)))
        CFI (cfiCond297) V7 load(1, XDATA, add(CFA_XSP16, literal(-7)))
        CFI (cfiCond297) R7 load(1, XDATA, add(CFA_XSP16, literal(-6)))
        CFI (cfiCond297) ?RET_LOW load(1, XDATA, add(CFA_XSP16, literal(-5)))
        CFI (cfiCond297) ?RET_HIGH load(1, XDATA, add(CFA_XSP16, literal(-4)))
        CFI (cfiCond297) ?BRET_EXT load(1, XDATA, add(CFA_XSP16, literal(-3)))
        CFI (cfiCond297) DPL0 load(1, XDATA, add(CFA_XSP16, literal(-2)))
        CFI (cfiCond297) DPH0 load(1, XDATA, add(CFA_XSP16, literal(-1)))
        CFI (cfiCond297) CFA_SP SP+0
        CFI (cfiCond297) CFA_XSP16 add(XSP16, 17)
        CFI Block cfiCond298 Using cfiCommon0
        CFI (cfiCond298) NoFunction
        CFI (cfiCond298) Conditional ??CrossCallReturnLabel_86
        CFI (cfiCond298) R6 load(1, XDATA, add(CFA_XSP16, literal(-16)))
        CFI (cfiCond298) VB load(1, XDATA, add(CFA_XSP16, literal(-15)))
        CFI (cfiCond298) V0 load(1, XDATA, add(CFA_XSP16, literal(-14)))
        CFI (cfiCond298) V1 load(1, XDATA, add(CFA_XSP16, literal(-13)))
        CFI (cfiCond298) V2 load(1, XDATA, add(CFA_XSP16, literal(-12)))
        CFI (cfiCond298) V3 load(1, XDATA, add(CFA_XSP16, literal(-11)))
        CFI (cfiCond298) V4 load(1, XDATA, add(CFA_XSP16, literal(-10)))
        CFI (cfiCond298) V5 load(1, XDATA, add(CFA_XSP16, literal(-9)))
        CFI (cfiCond298) V6 load(1, XDATA, add(CFA_XSP16, literal(-8)))
        CFI (cfiCond298) V7 load(1, XDATA, add(CFA_XSP16, literal(-7)))
        CFI (cfiCond298) R7 load(1, XDATA, add(CFA_XSP16, literal(-6)))
        CFI (cfiCond298) ?RET_LOW load(1, XDATA, add(CFA_XSP16, literal(-5)))
        CFI (cfiCond298) ?RET_HIGH load(1, XDATA, add(CFA_XSP16, literal(-4)))
        CFI (cfiCond298) ?BRET_EXT load(1, XDATA, add(CFA_XSP16, literal(-3)))
        CFI (cfiCond298) DPL0 load(1, XDATA, add(CFA_XSP16, literal(-2)))
        CFI (cfiCond298) DPH0 load(1, XDATA, add(CFA_XSP16, literal(-1)))
        CFI (cfiCond298) CFA_SP SP+0
        CFI (cfiCond298) CFA_XSP16 add(XSP16, 17)
        CFI Block cfiCond299 Using cfiCommon0
        CFI (cfiCond299) NoFunction
        CFI (cfiCond299) Conditional ??CrossCallReturnLabel_87
        CFI (cfiCond299) R6 load(1, XDATA, add(CFA_XSP16, literal(-16)))
        CFI (cfiCond299) VB load(1, XDATA, add(CFA_XSP16, literal(-15)))
        CFI (cfiCond299) V0 load(1, XDATA, add(CFA_XSP16, literal(-14)))
        CFI (cfiCond299) V1 load(1, XDATA, add(CFA_XSP16, literal(-13)))
        CFI (cfiCond299) V2 load(1, XDATA, add(CFA_XSP16, literal(-12)))
        CFI (cfiCond299) V3 load(1, XDATA, add(CFA_XSP16, literal(-11)))
        CFI (cfiCond299) V4 load(1, XDATA, add(CFA_XSP16, literal(-10)))
        CFI (cfiCond299) V5 load(1, XDATA, add(CFA_XSP16, literal(-9)))
        CFI (cfiCond299) V6 load(1, XDATA, add(CFA_XSP16, literal(-8)))
        CFI (cfiCond299) V7 load(1, XDATA, add(CFA_XSP16, literal(-7)))
        CFI (cfiCond299) R7 load(1, XDATA, add(CFA_XSP16, literal(-6)))
        CFI (cfiCond299) ?RET_LOW load(1, XDATA, add(CFA_XSP16, literal(-5)))
        CFI (cfiCond299) ?RET_HIGH load(1, XDATA, add(CFA_XSP16, literal(-4)))
        CFI (cfiCond299) ?BRET_EXT load(1, XDATA, add(CFA_XSP16, literal(-3)))
        CFI (cfiCond299) DPL0 load(1, XDATA, add(CFA_XSP16, literal(-2)))
        CFI (cfiCond299) DPH0 load(1, XDATA, add(CFA_XSP16, literal(-1)))
        CFI (cfiCond299) CFA_SP SP+0
        CFI (cfiCond299) CFA_XSP16 add(XSP16, 17)
        CFI Block cfiCond300 Using cfiCommon0
        CFI (cfiCond300) NoFunction
        CFI (cfiCond300) Conditional ??CrossCallReturnLabel_96
        CFI (cfiCond300) R6 load(1, XDATA, add(CFA_XSP16, literal(-12)))
        CFI (cfiCond300) VB load(1, XDATA, add(CFA_XSP16, literal(-11)))
        CFI (cfiCond300) V0 load(1, XDATA, add(CFA_XSP16, literal(-10)))
        CFI (cfiCond300) V1 load(1, XDATA, add(CFA_XSP16, literal(-9)))
        CFI (cfiCond300) V2 load(1, XDATA, add(CFA_XSP16, literal(-8)))
        CFI (cfiCond300) V3 load(1, XDATA, add(CFA_XSP16, literal(-7)))
        CFI (cfiCond300) R7 load(1, XDATA, add(CFA_XSP16, literal(-6)))
        CFI (cfiCond300) ?RET_LOW load(1, XDATA, add(CFA_XSP16, literal(-5)))
        CFI (cfiCond300) ?RET_HIGH load(1, XDATA, add(CFA_XSP16, literal(-4)))
        CFI (cfiCond300) ?BRET_EXT load(1, XDATA, add(CFA_XSP16, literal(-3)))
        CFI (cfiCond300) DPL0 load(1, XDATA, add(CFA_XSP16, literal(-2)))
        CFI (cfiCond300) DPH0 load(1, XDATA, add(CFA_XSP16, literal(-1)))
        CFI (cfiCond300) CFA_SP SP+0
        CFI (cfiCond300) CFA_XSP16 add(XSP16, 31)
        CFI Block cfiCond301 Using cfiCommon0
        CFI (cfiCond301) NoFunction
        CFI (cfiCond301) Conditional ??CrossCallReturnLabel_97
        CFI (cfiCond301) R6 load(1, XDATA, add(CFA_XSP16, literal(-12)))
        CFI (cfiCond301) VB load(1, XDATA, add(CFA_XSP16, literal(-11)))
        CFI (cfiCond301) V0 load(1, XDATA, add(CFA_XSP16, literal(-10)))
        CFI (cfiCond301) V1 load(1, XDATA, add(CFA_XSP16, literal(-9)))
        CFI (cfiCond301) V2 load(1, XDATA, add(CFA_XSP16, literal(-8)))
        CFI (cfiCond301) V3 load(1, XDATA, add(CFA_XSP16, literal(-7)))
        CFI (cfiCond301) R7 load(1, XDATA, add(CFA_XSP16, literal(-6)))
        CFI (cfiCond301) ?RET_LOW load(1, XDATA, add(CFA_XSP16, literal(-5)))
        CFI (cfiCond301) ?RET_HIGH load(1, XDATA, add(CFA_XSP16, literal(-4)))
        CFI (cfiCond301) ?BRET_EXT load(1, XDATA, add(CFA_XSP16, literal(-3)))
        CFI (cfiCond301) DPL0 load(1, XDATA, add(CFA_XSP16, literal(-2)))
        CFI (cfiCond301) DPH0 load(1, XDATA, add(CFA_XSP16, literal(-1)))
        CFI (cfiCond301) CFA_SP SP+0
        CFI (cfiCond301) CFA_XSP16 add(XSP16, 31)
        CFI Block cfiCond302 Using cfiCommon0
        CFI (cfiCond302) NoFunction
        CFI (cfiCond302) Conditional ??CrossCallReturnLabel_98
        CFI (cfiCond302) R6 load(1, XDATA, add(CFA_XSP16, literal(-12)))
        CFI (cfiCond302) VB load(1, XDATA, add(CFA_XSP16, literal(-11)))
        CFI (cfiCond302) V0 load(1, XDATA, add(CFA_XSP16, literal(-10)))
        CFI (cfiCond302) V1 load(1, XDATA, add(CFA_XSP16, literal(-9)))
        CFI (cfiCond302) V2 load(1, XDATA, add(CFA_XSP16, literal(-8)))
        CFI (cfiCond302) V3 load(1, XDATA, add(CFA_XSP16, literal(-7)))
        CFI (cfiCond302) R7 load(1, XDATA, add(CFA_XSP16, literal(-6)))
        CFI (cfiCond302) ?RET_LOW load(1, XDATA, add(CFA_XSP16, literal(-5)))
        CFI (cfiCond302) ?RET_HIGH load(1, XDATA, add(CFA_XSP16, literal(-4)))
        CFI (cfiCond302) ?BRET_EXT load(1, XDATA, add(CFA_XSP16, literal(-3)))
        CFI (cfiCond302) DPL0 load(1, XDATA, add(CFA_XSP16, literal(-2)))
        CFI (cfiCond302) DPH0 load(1, XDATA, add(CFA_XSP16, literal(-1)))
        CFI (cfiCond302) CFA_SP SP+0
        CFI (cfiCond302) CFA_XSP16 add(XSP16, 31)
??Subroutine29_1:
        ADDC    A,#0x0
        MOV     DPH,A
        MOVX    A,@DPTR
        RET
        CFI EndBlock cfiCond287
        CFI EndBlock cfiCond288
        CFI EndBlock cfiCond289
        CFI EndBlock cfiCond290
        CFI EndBlock cfiPicker291
        CFI EndBlock cfiCond292
        CFI EndBlock cfiCond293
        CFI EndBlock cfiCond294
        CFI EndBlock cfiCond295
        CFI EndBlock cfiCond296
        CFI EndBlock cfiCond297
        CFI EndBlock cfiCond298
        CFI EndBlock cfiCond299
        CFI EndBlock cfiCond300
        CFI EndBlock cfiCond301
        CFI EndBlock cfiCond302

        RSEG BANKED_CODE:CODE:NOROOT(0)
?Subroutine27:
        CFI Block cfiCond303 Using cfiCommon0
        CFI NoFunction
        CFI Conditional ??CrossCallReturnLabel_80
        CFI R6 load(1, XDATA, add(CFA_XSP16, literal(-12)))
        CFI VB load(1, XDATA, add(CFA_XSP16, literal(-11)))
        CFI V0 load(1, XDATA, add(CFA_XSP16, literal(-10)))
        CFI V1 load(1, XDATA, add(CFA_XSP16, literal(-9)))
        CFI V2 load(1, XDATA, add(CFA_XSP16, literal(-8)))
        CFI V3 load(1, XDATA, add(CFA_XSP16, literal(-7)))
        CFI R7 load(1, XDATA, add(CFA_XSP16, literal(-6)))
        CFI ?RET_LOW load(1, XDATA, add(CFA_XSP16, literal(-5)))
        CFI ?RET_HIGH load(1, XDATA, add(CFA_XSP16, literal(-4)))
        CFI ?BRET_EXT load(1, XDATA, add(CFA_XSP16, literal(-3)))
        CFI DPL0 load(1, XDATA, add(CFA_XSP16, literal(-2)))
        CFI DPH0 load(1, XDATA, add(CFA_XSP16, literal(-1)))
        CFI CFA_SP SP+0
        CFI CFA_XSP16 add(XSP16, 31)
        CFI Block cfiCond304 Using cfiCommon0
        CFI (cfiCond304) NoFunction
        CFI (cfiCond304) Conditional ??CrossCallReturnLabel_81
        CFI (cfiCond304) R6 load(1, XDATA, add(CFA_XSP16, literal(-12)))
        CFI (cfiCond304) VB load(1, XDATA, add(CFA_XSP16, literal(-11)))
        CFI (cfiCond304) V0 load(1, XDATA, add(CFA_XSP16, literal(-10)))
        CFI (cfiCond304) V1 load(1, XDATA, add(CFA_XSP16, literal(-9)))
        CFI (cfiCond304) V2 load(1, XDATA, add(CFA_XSP16, literal(-8)))
        CFI (cfiCond304) V3 load(1, XDATA, add(CFA_XSP16, literal(-7)))
        CFI (cfiCond304) R7 load(1, XDATA, add(CFA_XSP16, literal(-6)))
        CFI (cfiCond304) ?RET_LOW load(1, XDATA, add(CFA_XSP16, literal(-5)))
        CFI (cfiCond304) ?RET_HIGH load(1, XDATA, add(CFA_XSP16, literal(-4)))
        CFI (cfiCond304) ?BRET_EXT load(1, XDATA, add(CFA_XSP16, literal(-3)))
        CFI (cfiCond304) DPL0 load(1, XDATA, add(CFA_XSP16, literal(-2)))
        CFI (cfiCond304) DPH0 load(1, XDATA, add(CFA_XSP16, literal(-1)))
        CFI (cfiCond304) CFA_SP SP+0
        CFI (cfiCond304) CFA_XSP16 add(XSP16, 31)
        CFI Block cfiPicker305 Using cfiCommon1
        CFI (cfiPicker305) NoFunction
        CFI (cfiPicker305) Picker
        MOVX    @DPTR,A
        MOV     DPL,R2
        MOV     DPH,R3
        INC     DPTR
        INC     DPTR
        INC     DPTR
        INC     DPTR
        RET
        CFI EndBlock cfiCond303
        CFI EndBlock cfiCond304
        CFI EndBlock cfiPicker305

        RSEG XDATA_ID:CODE:NOROOT(0)
        DATA
`?<Initializer for ZDP_TmpBuf>`:
        DW ZDP_Buf + 1H

        RSEG BANK_RELAYS:CODE:REORDER:NOROOT(0)
??fillAndSend?relay:
        LCALL   ?BDISPATCH
        DATA
        DC24    fillAndSend

        RSEG BANK_RELAYS:CODE:REORDER:NOROOT(0)
??ZDP_SendData?relay:
        LCALL   ?BDISPATCH
        DATA
        DC24    ZDP_SendData

        RSEG BANK_RELAYS:CODE:REORDER:NOROOT(0)
??ZDP_NwkAddrReq?relay:
        LCALL   ?BDISPATCH
        DATA
        DC24    ZDP_NwkAddrReq

        RSEG BANK_RELAYS:CODE:REORDER:NOROOT(0)
??ZDP_IEEEAddrReq?relay:
        LCALL   ?BDISPATCH
        DATA
        DC24    ZDP_IEEEAddrReq

        RSEG BANK_RELAYS:CODE:REORDER:NOROOT(0)
??ZDP_MatchDescReq?relay:
        LCALL   ?BDISPATCH
        DATA
        DC24    ZDP_MatchDescReq

        RSEG BANK_RELAYS:CODE:REORDER:NOROOT(0)
??zdpProcessAddrReq?relay:
        LCALL   ?BDISPATCH
        DATA
        DC24    zdpProcessAddrReq

        RSEG BANK_RELAYS:CODE:REORDER:NOROOT(0)
??ZDP_NodeDescMsg?relay:
        LCALL   ?BDISPATCH
        DATA
        DC24    ZDP_NodeDescMsg

        RSEG BANK_RELAYS:CODE:REORDER:NOROOT(0)
??ZDP_PowerDescMsg?relay:
        LCALL   ?BDISPATCH
        DATA
        DC24    ZDP_PowerDescMsg

        RSEG BANK_RELAYS:CODE:REORDER:NOROOT(0)
??ZDP_SimpleDescMsg?relay:
        LCALL   ?BDISPATCH
        DATA
        DC24    ZDP_SimpleDescMsg

        RSEG BANK_RELAYS:CODE:REORDER:NOROOT(0)
??ZDP_EPRsp?relay:
        LCALL   ?BDISPATCH
        DATA
        DC24    ZDP_EPRsp

        RSEG BANK_RELAYS:CODE:REORDER:NOROOT(0)
??ZDP_GenericRsp?relay:
        LCALL   ?BDISPATCH
        DATA
        DC24    ZDP_GenericRsp

        RSEG BANK_RELAYS:CODE:REORDER:NOROOT(0)
??ZDP_EndDeviceBindReq?relay:
        LCALL   ?BDISPATCH
        DATA
        DC24    ZDP_EndDeviceBindReq

        RSEG BANK_RELAYS:CODE:REORDER:NOROOT(0)
??ZDP_BindUnbindReq?relay:
        LCALL   ?BDISPATCH
        DATA
        DC24    ZDP_BindUnbindReq

        RSEG BANK_RELAYS:CODE:REORDER:NOROOT(0)
??ZDO_RegisterForZDOMsg?relay:
        LCALL   ?BDISPATCH
        DATA
        DC24    ZDO_RegisterForZDOMsg

        RSEG BANK_RELAYS:CODE:REORDER:NOROOT(0)
??ZDO_RemoveRegisteredCB?relay:
        LCALL   ?BDISPATCH
        DATA
        DC24    ZDO_RemoveRegisteredCB

        RSEG BANK_RELAYS:CODE:REORDER:NOROOT(0)
??ZDO_SendMsgCBs?relay:
        LCALL   ?BDISPATCH
        DATA
        DC24    ZDO_SendMsgCBs

        RSEG BANK_RELAYS:CODE:REORDER:NOROOT(0)
??ZDP_IncomingData?relay:
        LCALL   ?BDISPATCH
        DATA
        DC24    ZDP_IncomingData

        END
// 1708 
// 1709 /*********************************************************************
// 1710 *********************************************************************/
// 1711 
// 
// 3 633 bytes in segment BANKED_CODE
//   102 bytes in segment BANK_RELAYS
//    33 bytes in segment CODE_C
//     2 bytes in segment XDATA_I
//     2 bytes in segment XDATA_ID
//    84 bytes in segment XDATA_Z
// 
// 3 770 bytes of CODE  memory
//    86 bytes of XDATA memory
//
//Errors: none
//Warnings: none
