###############################################################################
#                                                                             #
# IAR 8051 C/C++ Compiler V7.30B/W32                    03/Jan/2013  20:33:42 #
# Copyright 2004-2007 IAR Systems. All rights reserved.                       #
#                                                                             #
#    Core               =  plain                                              #
#    Code model         =  banked                                             #
#    Data model         =  large                                              #
#    Calling convention =  xdata reentrant                                    #
#    Constant location  =  data                                               #
#    Dptr setup         =  1,16                                               #
#    Source file        =  C:\Texas Instruments\ZStack-1.4.3-1.2.1\Projects\z #
#                          stack\Samples\AXDApp\Drivers\adxl345.c             #
#    Command line       =  -f "C:\Texas Instruments\ZStack-1.4.3-1.2.1\Projec #
#                          ts\zstack\Samples\AXDApp\CC2430DB\..\..\..\Tools\C #
#                          C2430DB\f8wRouter.cfg" (-DCPU32MHZ                 #
#                          -DFORCE_MAC_NEAR -DROOT=__near_func                #
#                          -DMAC_CFG_APP_PENDING_QUEUE=TRUE -DRTR_NWK         #
#                          -DBLINK_LEDS "-DCONST=const __code"                #
#                          -DGENERIC=__generic) -f "C:\Texas                  #
#                          Instruments\ZStack-1.4.3-1.2.1\Projects\zstack\Sam #
#                          ples\AXDApp\CC2430DB\..\..\..\Tools\CC2430DB\f8wCo #
#                          nfig.cfg" (-DSECURE=0 -DDEFAULT_CHANLIST=0x0000080 #
#                          0 -DZDAPP_CONFIG_PAN_ID=0xFFFF                     #
#                          -DNWK_START_DELAY=100 -DEXTENDED_JOINING_RANDOM_MA #
#                          SK=0x007F -DBEACON_REQUEST_DELAY=100               #
#                          -DBEACON_REQ_DELAY_MASK=0x00FF                     #
#                          -DROUTE_EXPIRY_TIME=30 -DAPSC_ACK_WAIT_DURATION_PO #
#                          LLED=3000 -DNWK_INDIRECT_MSG_TIMEOUT=7             #
#                          -DMAX_RREQ_ENTRIES=10 -DAPSC_MAX_FRAME_RETRIES=3   #
#                          -DNWK_MAX_DATA_RETRIES=2                           #
#                          -DMAX_POLL_FAILURE_RETRIES=2 -DMAX_BCAST=9         #
#                          -DAPS_MAX_GROUPS=16 -DMAX_RTG_ENTRIES=20           #
#                          -DNWK_MAX_BINDING_ENTRIES=10                       #
#                          -DMAX_BINDING_CLUSTER_IDS=5 "-DDEFAULT_KEY={0x01,  #
#                          0x03, 0x05, 0x07, 0x09, 0x0B, 0x0D, 0x0F, 0x00,    #
#                          0x02, 0x04, 0x06, 0x08, 0x0A, 0x0C, 0x0D}"         #
#                          -DRFD_RCVC_ALWAYS_ON=FALSE -DPOLL_RATE=1000        #
#                          -DQUEUED_POLL_RATE=100 -DRESPONSE_POLL_RATE=100)   #
#                          -DREJOIN_POLL_RATE=440 "C:\Texas                   #
#                          Instruments\ZStack-1.4.3-1.2.1\Projects\zstack\Sam #
#                          ples\AXDApp\Drivers\adxl345.c" -D CC2430EB -D      #
#                          AXD_ROUTER -D REFLECTOR -D ZTOOL_P1 -D MT_TASK -D  #
#                          xMT_ZDO_FUNC -D xLCD_SUPPORTED=DEBUG -lC           #
#                          "C:\Texas Instruments\ZStack-1.4.3-1.2.1\Projects\ #
#                          zstack\Samples\AXDApp\CC2430DB\RouterEB\List\"     #
#                          -lA "C:\Texas Instruments\ZStack-1.4.3-1.2.1\Proje #
#                          cts\zstack\Samples\AXDApp\CC2430DB\RouterEB\List\" #
#                           --diag_suppress Pe001,Pa010 --diag_remark pe550   #
#                          -o "C:\Texas Instruments\ZStack-1.4.3-1.2.1\Projec #
#                          ts\zstack\Samples\AXDApp\CC2430DB\RouterEB\Obj\"   #
#                          -e --require_prototypes -z9 --no_code_motion       #
#                          --debug --core=plain --dptr=16,1                   #
#                          --data_model=large --code_model=banked             #
#                          --calling_convention=xdata_reentrant               #
#                          --place_constants=data --nr_virtual_regs 8 -I      #
#                          "C:\Texas Instruments\ZStack-1.4.3-1.2.1\Projects\ #
#                          zstack\Samples\AXDApp\CC2430DB\" -I "C:\Texas      #
#                          Instruments\ZStack-1.4.3-1.2.1\Projects\zstack\Sam #
#                          ples\AXDApp\CC2430DB\..\SOURCE\" -I "C:\Texas      #
#                          Instruments\ZStack-1.4.3-1.2.1\Projects\zstack\Sam #
#                          ples\AXDApp\CC2430DB\..\Drivers\" -I "C:\Texas     #
#                          Instruments\ZStack-1.4.3-1.2.1\Projects\zstack\Sam #
#                          ples\AXDApp\CC2430DB\..\..\..\ZMAIN\TI2430DB\" -I  #
#                          "C:\Texas Instruments\ZStack-1.4.3-1.2.1\Projects\ #
#                          zstack\Samples\AXDApp\CC2430DB\..\..\..\..\..\COMP #
#                          ONENTS\MT\" -I "C:\Texas                           #
#                          Instruments\ZStack-1.4.3-1.2.1\Projects\zstack\Sam #
#                          ples\AXDApp\CC2430DB\..\..\..\..\..\COMPONENTS\HAL #
#                          \INCLUDE\" -I "C:\Texas Instruments\ZStack-1.4.3-1 #
#                          .2.1\Projects\zstack\Samples\AXDApp\CC2430DB\..\.. #
#                          \..\..\..\COMPONENTS\HAL\TARGET\CC2430EB\" -I      #
#                          "C:\Texas Instruments\ZStack-1.4.3-1.2.1\Projects\ #
#                          zstack\Samples\AXDApp\CC2430DB\..\..\..\..\..\COMP #
#                          ONENTS\OSAL\MCU\CCSOC\" -I "C:\Texas               #
#                          Instruments\ZStack-1.4.3-1.2.1\Projects\zstack\Sam #
#                          ples\AXDApp\CC2430DB\..\..\..\..\..\COMPONENTS\OSA #
#                          L\INCLUDE\" -I "C:\Texas                           #
#                          Instruments\ZStack-1.4.3-1.2.1\Projects\zstack\Sam #
#                          ples\AXDApp\CC2430DB\..\..\..\..\..\COMPONENTS\STA #
#                          CK\AF\" -I "C:\Texas Instruments\ZStack-1.4.3-1.2. #
#                          1\Projects\zstack\Samples\AXDApp\CC2430DB\..\..\.. #
#                          \..\..\COMPONENTS\STACK\NWK\" -I "C:\Texas         #
#                          Instruments\ZStack-1.4.3-1.2.1\Projects\zstack\Sam #
#                          ples\AXDApp\CC2430DB\..\..\..\..\..\COMPONENTS\STA #
#                          CK\SEC\" -I "C:\Texas Instruments\ZStack-1.4.3-1.2 #
#                          .1\Projects\zstack\Samples\AXDApp\CC2430DB\..\..\. #
#                          .\..\..\COMPONENTS\STACK\SYS\" -I "C:\Texas        #
#                          Instruments\ZStack-1.4.3-1.2.1\Projects\zstack\Sam #
#                          ples\AXDApp\CC2430DB\..\..\..\..\..\COMPONENTS\STA #
#                          CK\ZDO\" -I "C:\Texas Instruments\ZStack-1.4.3-1.2 #
#                          .1\Projects\zstack\Samples\AXDApp\CC2430DB\..\..\. #
#                          .\..\..\COMPONENTS\ZMAC\F8W\" -I "C:\Texas         #
#                          Instruments\ZStack-1.4.3-1.2.1\Projects\zstack\Sam #
#                          ples\AXDApp\CC2430DB\..\..\..\..\..\COMPONENTS\ZMA #
#                          C\" -I "C:\Texas Instruments\ZStack-1.4.3-1.2.1\Pr #
#                          ojects\zstack\Samples\AXDApp\CC2430DB\..\..\..\..\ #
#                          ..\COMPONENTS\SERVICES\SADDR\" -I "C:\Texas        #
#                          Instruments\ZStack-1.4.3-1.2.1\Projects\zstack\Sam #
#                          ples\AXDApp\CC2430DB\..\..\..\..\..\COMPONENTS\SER #
#                          VICES\SDATA\" -I "C:\Texas                         #
#                          Instruments\ZStack-1.4.3-1.2.1\Projects\zstack\Sam #
#                          ples\AXDApp\CC2430DB\..\..\..\..\..\COMPONENTS\MAC #
#                          \INCLUDE\" -I "C:\Texas Instruments\ZStack-1.4.3-1 #
#                          .2.1\Projects\zstack\Samples\AXDApp\CC2430DB\..\.. #
#                          \..\..\..\COMPONENTS\MAC\HIGH_LEVEL\" -I           #
#                          "C:\Texas Instruments\ZStack-1.4.3-1.2.1\Projects\ #
#                          zstack\Samples\AXDApp\CC2430DB\..\..\..\..\..\COMP #
#                          ONENTS\MAC\LOW_LEVEL\SRF03\" -I "C:\Texas          #
#                          Instruments\ZStack-1.4.3-1.2.1\Projects\zstack\Sam #
#                          ples\AXDApp\CC2430DB\..\..\..\..\..\COMPONENTS\MAC #
#                          \LOW_LEVEL\SRF03\SINGLE_CHIP\" -I "C:\Program      #
#                          Files\IAR Systems\Embedded Workbench 4.0           #
#                          Evaluation version\8051\INC\" -I "C:\Program       #
#                          Files\IAR Systems\Embedded Workbench 4.0           #
#                          Evaluation version\8051\INC\CLIB\"                 #
#    List file          =  C:\Texas Instruments\ZStack-1.4.3-1.2.1\Projects\z #
#                          stack\Samples\AXDApp\CC2430DB\RouterEB\List\adxl34 #
#                          5.lst                                              #
#    Object file        =  C:\Texas Instruments\ZStack-1.4.3-1.2.1\Projects\z #
#                          stack\Samples\AXDApp\CC2430DB\RouterEB\Obj\adxl345 #
#                          .r51                                               #
#                                                                             #
#                                                                             #
###############################################################################

C:\Texas Instruments\ZStack-1.4.3-1.2.1\Projects\zstack\Samples\AXDApp\Drivers\adxl345.c
      1          #include <ioCC2430.h>

   \                                 In  segment SFR_AN, at 0x90
   \   union <unnamed> volatile __sfr _A_P1
   \                     _A_P1:
   \   000000                DS 1

   \                                 In  segment SFR_AN, at 0xfe
   \   unsigned char volatile __sfr P1DIR
   \                     P1DIR:
   \   000000                DS 1
      2          #include <string.h>
      3          #include <math.h>
      4          #include <stdio.h>
      5          #include "adxl345.h"
      6          //#include "LCD3310.h"
      7          #define SCL     P1_2   
      8          #define SDA     P1_3
      9          
     10          #define SDADirOut P1DIR|=0x08;      //xxxx1M01
     11          #define SDADirIn  P1DIR&=~0x08;
     12          
     13          #define TRUE 1
     14          #define FALSE 0
     15          #define	SlaveAddress 0xA6 //定义器件在IIC总线中的从地址,根据ALT  ADDRESS地址引脚不同修改
     16          

   \                                 In  segment XDATA_Z, align 1, keep-with-next
     17          INT8U BUFFER[8];
   \                     BUFFER:
   \   000000                DS 8
   \   000008                REQUIRE __INIT_XDATA_Z

   \                                 In  segment XDATA_Z, align 1, keep-with-next
     18          int  dis_data;
   \                     dis_data:
   \   000000                DS 2
   \   000002                REQUIRE __INIT_XDATA_Z
     19          

   \                                 In  segment XDATA_Z, align 1, keep-with-next
     20          char wan,qian,bai,shi,ge;
   \                     wan:
   \   000000                DS 1
   \   000001                REQUIRE __INIT_XDATA_Z

   \                                 In  segment XDATA_Z, align 1, keep-with-next
   \                     qian:
   \   000000                DS 1
   \   000001                REQUIRE __INIT_XDATA_Z

   \                                 In  segment XDATA_Z, align 1, keep-with-next
   \                     bai:
   \   000000                DS 1
   \   000001                REQUIRE __INIT_XDATA_Z

   \                                 In  segment XDATA_Z, align 1, keep-with-next
   \                     shi:
   \   000000                DS 1
   \   000001                REQUIRE __INIT_XDATA_Z

   \                                 In  segment XDATA_Z, align 1, keep-with-next
   \                     `ge`:
   \   000000                DS 1
   \   000001                REQUIRE __INIT_XDATA_Z
     21          
     22          void initUARTtest(void);
     23          void UartTX_Send_String(char *Data,int len);
     24          void conversion(INT16U temp_data);
     25          
     26          void Sendack(unsigned char h);
     27          unsigned char I2C_Check_ack();
     28          
     29          void I2C_Start_1(void);
     30          void I2C_Stop_1(void);
     31          
     32          void WriteI2CByte_1(INT8U b);
     33          unsigned char ReadI2CByte_1(void);
     34          
     35          unsigned char Single_Read_ADXL345(INT8U REG_Address);
     36          void Single_Write_ADXL345(INT8U REG_Address,INT8U REG_data);
     37          
     38          void Init_ADXL345();
     39          
     40          void Delay_1u(unsigned int microSecs);
     41          void Delay(INT16U n);
     42          
     43          INT8U I2C_Check_ack(void);
     44          
     45          
     46          void Multiple_Read_ADXL345(void);
     47          

   \                                 In  segment BANKED_CODE, align 1, keep-with-next
     48          void Delay(INT16U n)      //(5/32)*n   us
   \                     Delay:
     49          {
   \   000000                ; Saved register size: 0
   \   000000                ; Auto size: 0
     50          	INT16U d;
     51          	for(d=0;d<n;d++);
   \   000000   7800         MOV     R0,#0x0
   \   000002   7900         MOV     R1,#0x0
   \   000004   8003         SJMP    ??CrossCallReturnLabel_3
   \                     ??Delay_0:
   \   000006   12....       LCALL   ?Subroutine1 & 0xFFFF
   \                     ??CrossCallReturnLabel_3:
   \   000009   C3           CLR     C
   \   00000A   E8           MOV     A,R0
   \   00000B   9A           SUBB    A,R2
   \   00000C   E9           MOV     A,R1
   \   00000D   9B           SUBB    A,R3
   \   00000E   40F6         JC      ??Delay_0
     52          	for(d=0;d<n;d++);
   \   000010   7800         MOV     R0,#0x0
   \   000012   7900         MOV     R1,#0x0
   \   000014   8003         SJMP    ??CrossCallReturnLabel_4
   \                     ??Delay_1:
   \   000016   12....       LCALL   ?Subroutine1 & 0xFFFF
   \                     ??CrossCallReturnLabel_4:
   \   000019   C3           CLR     C
   \   00001A   E8           MOV     A,R0
   \   00001B   9A           SUBB    A,R2
   \   00001C   E9           MOV     A,R1
   \   00001D   9B           SUBB    A,R3
   \   00001E   40F6         JC      ??Delay_1
     53          	for(d=0;d<n;d++);
   \   000020   7800         MOV     R0,#0x0
   \   000022   7900         MOV     R1,#0x0
   \   000024   8003         SJMP    ??CrossCallReturnLabel_5
   \                     ??Delay_2:
   \   000026   12....       LCALL   ?Subroutine1 & 0xFFFF
   \                     ??CrossCallReturnLabel_5:
   \   000029   C3           CLR     C
   \   00002A   E8           MOV     A,R0
   \   00002B   9A           SUBB    A,R2
   \   00002C   E9           MOV     A,R1
   \   00002D   9B           SUBB    A,R3
   \   00002E   40F6         JC      ??Delay_2
     54          	for(d=0;d<n;d++);
   \   000030   7800         MOV     R0,#0x0
   \   000032   7900         MOV     R1,#0x0
   \   000034   8003         SJMP    ??CrossCallReturnLabel_6
   \                     ??Delay_3:
   \   000036   12....       LCALL   ?Subroutine1 & 0xFFFF
   \                     ??CrossCallReturnLabel_6:
   \   000039   C3           CLR     C
   \   00003A   E8           MOV     A,R0
   \   00003B   9A           SUBB    A,R2
   \   00003C   E9           MOV     A,R1
   \   00003D   9B           SUBB    A,R3
   \   00003E   40F6         JC      ??Delay_3
     55          	for(d=0;d<n;d++);
   \   000040   7800         MOV     R0,#0x0
   \   000042   7900         MOV     R1,#0x0
   \   000044   8003         SJMP    ??CrossCallReturnLabel_7
   \                     ??Delay_4:
   \   000046   12....       LCALL   ?Subroutine1 & 0xFFFF
   \                     ??CrossCallReturnLabel_7:
   \   000049   C3           CLR     C
   \   00004A   E8           MOV     A,R0
   \   00004B   9A           SUBB    A,R2
   \   00004C   E9           MOV     A,R1
   \   00004D   9B           SUBB    A,R3
   \   00004E   40F6         JC      ??Delay_4
     56          }
   \   000050   02....       LJMP    ?BRET

   \                                 In  segment BANKED_CODE, align 1, keep-with-next
   \                     ?Subroutine1:
   \   000000   E8           MOV     A,R0
   \   000001   2401         ADD     A,#0x1
   \   000003   08           INC     R0
   \   000004   E9           MOV     A,R1
   \   000005   3400         ADDC    A,#0x0
   \   000007   F9           MOV     R1,A
   \   000008   22           RET
     57          

   \                                 In  segment BANKED_CODE, align 1, keep-with-next
     58          void Delay_1u(unsigned int microSecs) {
   \                     Delay_1u:
   \   000000                ; Saved register size: 0
   \   000000                ; Auto size: 0
   \   000000   8020         SJMP    ??Delay_1u_0
     59            while(microSecs--)
     60            {
     61              /* 32 NOPs == 1 usecs */
     62              asm("nop"); asm("nop"); asm("nop"); asm("nop"); asm("nop");
   \                     ??Delay_1u_1:
   \   000002   00           nop
   \   000003   00           nop
   \   000004   00           nop
   \   000005   00           nop
   \   000006   00           nop
     63              asm("nop"); asm("nop"); asm("nop"); asm("nop"); asm("nop");
   \   000007   00           nop
   \   000008   00           nop
   \   000009   00           nop
   \   00000A   00           nop
   \   00000B   00           nop
     64              asm("nop"); asm("nop"); asm("nop"); asm("nop"); asm("nop");
   \   00000C   00           nop
   \   00000D   00           nop
   \   00000E   00           nop
   \   00000F   00           nop
   \   000010   00           nop
     65              asm("nop"); asm("nop"); asm("nop"); asm("nop"); asm("nop");
   \   000011   00           nop
   \   000012   00           nop
   \   000013   00           nop
   \   000014   00           nop
   \   000015   00           nop
     66              asm("nop"); asm("nop"); asm("nop"); asm("nop"); asm("nop");
   \   000016   00           nop
   \   000017   00           nop
   \   000018   00           nop
   \   000019   00           nop
   \   00001A   00           nop
     67              asm("nop"); asm("nop"); asm("nop"); asm("nop"); asm("nop");
   \   00001B   00           nop
   \   00001C   00           nop
   \   00001D   00           nop
   \   00001E   00           nop
   \   00001F   00           nop
     68              asm("nop"); asm("nop");
   \   000020   00           nop
   \   000021   00           nop
     69            }
   \                     ??Delay_1u_0:
   \   000022   EA           MOV     A,R2
   \   000023   F8           MOV     R0,A
   \   000024   EB           MOV     A,R3
   \   000025   F9           MOV     R1,A
   \   000026   74FF         MOV     A,#-0x1
   \   000028   28           ADD     A,R0
   \   000029   1A           DEC     R2
   \   00002A   74FF         MOV     A,#-0x1
   \   00002C   39           ADDC    A,R1
   \   00002D   FB           MOV     R3,A
   \   00002E   E8           MOV     A,R0
   \   00002F   7001         JNZ     ??Delay_1u_2
   \   000031   E9           MOV     A,R1
   \                     ??Delay_1u_2:
   \   000032   70CE         JNZ     ??Delay_1u_1
     70          }
   \   000034   02....       LJMP    ?BRET
     71          

   \                                 In  segment BANKED_CODE, align 1, keep-with-next
     72          void conversion(INT16U temp_data)   
   \                     conversion:
     73          {   
   \   000000   74F6         MOV     A,#-0xa
   \   000002   12....       LCALL   ?BANKED_ENTER_XDATA
   \   000005                ; Saved register size: 10
   \   000005                ; Auto size: 0
   \   000005   EA           MOV     A,R2
   \   000006   FC           MOV     R4,A
   \   000007   EB           MOV     A,R3
   \   000008   FD           MOV     R5,A
     74              wan=temp_data/10000; 
   \   000009   EC           MOV     A,R4
   \   00000A   F8           MOV     R0,A
   \   00000B   ED           MOV     A,R5
   \   00000C   F9           MOV     R1,A
   \   00000D   7A10         MOV     R2,#0x10
   \   00000F   7B27         MOV     R3,#0x27
   \   000011   12....       LCALL   ?US_DIV_MOD
   \   000014   E8           MOV     A,R0
   \   000015   90....       MOV     DPTR,#wan
   \   000018   12....       LCALL   ?Subroutine7 & 0xFFFF
     75              temp_data=temp_data%10000;   //取余运算 
   \                     ??CrossCallReturnLabel_17:
   \   00001B   7A10         MOV     R2,#0x10
   \   00001D   7B27         MOV     R3,#0x27
   \   00001F   12....       LCALL   ?US_DIV_MOD
   \   000022   8A..         MOV     ?V0 + 0,R2
   \   000024   8B..         MOV     ?V0 + 1,R3
   \   000026   AC..         MOV     R4,?V0 + 0
   \   000028   AD..         MOV     R5,?V0 + 1
     76          	qian=temp_data/1000; 
   \   00002A   EC           MOV     A,R4
   \   00002B   F8           MOV     R0,A
   \   00002C   ED           MOV     A,R5
   \   00002D   F9           MOV     R1,A
   \   00002E   7AE8         MOV     R2,#-0x18
   \   000030   7B03         MOV     R3,#0x3
   \   000032   12....       LCALL   ?US_DIV_MOD
   \   000035   E8           MOV     A,R0
   \   000036   90....       MOV     DPTR,#qian
   \   000039   12....       LCALL   ?Subroutine7 & 0xFFFF
     77              temp_data=temp_data%1000;    //取余运算 
   \                     ??CrossCallReturnLabel_18:
   \   00003C   7AE8         MOV     R2,#-0x18
   \   00003E   7B03         MOV     R3,#0x3
   \   000040   12....       LCALL   ?US_DIV_MOD
   \   000043   8A..         MOV     ?V0 + 0,R2
   \   000045   8B..         MOV     ?V0 + 1,R3
   \   000047   AC..         MOV     R4,?V0 + 0
   \   000049   AD..         MOV     R5,?V0 + 1
     78              bai=temp_data/100; 
   \   00004B   EC           MOV     A,R4
   \   00004C   F8           MOV     R0,A
   \   00004D   ED           MOV     A,R5
   \   00004E   F9           MOV     R1,A
   \   00004F   7A64         MOV     R2,#0x64
   \   000051   7B00         MOV     R3,#0x0
   \   000053   12....       LCALL   ?US_DIV_MOD
   \   000056   E8           MOV     A,R0
   \   000057   90....       MOV     DPTR,#bai
   \   00005A   12....       LCALL   ?Subroutine7 & 0xFFFF
     79              temp_data=temp_data%100;     //取余运算 
   \                     ??CrossCallReturnLabel_19:
   \   00005D   7A64         MOV     R2,#0x64
   \   00005F   7B00         MOV     R3,#0x0
   \   000061   12....       LCALL   ?US_DIV_MOD
   \   000064   8A..         MOV     ?V0 + 0,R2
   \   000066   8B..         MOV     ?V0 + 1,R3
   \   000068   AC..         MOV     R4,?V0 + 0
   \   00006A   AD..         MOV     R5,?V0 + 1
     80              shi=temp_data/10; 
   \   00006C   EC           MOV     A,R4
   \   00006D   F8           MOV     R0,A
   \   00006E   ED           MOV     A,R5
   \   00006F   F9           MOV     R1,A
   \   000070   7A0A         MOV     R2,#0xa
   \   000072   7B00         MOV     R3,#0x0
   \   000074   12....       LCALL   ?US_DIV_MOD
   \   000077   E8           MOV     A,R0
   \   000078   90....       MOV     DPTR,#shi
   \   00007B   12....       LCALL   ?Subroutine7 & 0xFFFF
     81              temp_data=temp_data%10;      //取余运算 
     82              ge=temp_data; 	
   \                     ??CrossCallReturnLabel_20:
   \   00007E   7A0A         MOV     R2,#0xa
   \   000080   7B00         MOV     R3,#0x0
   \   000082   12....       LCALL   ?US_DIV_MOD
   \   000085   EA           MOV     A,R2
   \   000086   90....       MOV     DPTR,#`ge`
   \   000089   F0           MOVX    @DPTR,A
     83          } 
   \   00008A                REQUIRE ?Subroutine15
   \   00008A                ; // Fall through to label ?Subroutine15

   \                                 In  segment BANKED_CODE, align 1, keep-with-next
   \                     ?Subroutine15:
   \   000000   7F02         MOV     R7,#0x2
   \   000002   02....       LJMP    ?BANKED_LEAVE_XDATA

   \                                 In  segment BANKED_CODE, align 1, keep-with-next
   \                     ?Subroutine7:
   \   000000   F0           MOVX    @DPTR,A
   \   000001   EC           MOV     A,R4
   \   000002   F8           MOV     R0,A
   \   000003   ED           MOV     A,R5
   \   000004   F9           MOV     R1,A
   \   000005   22           RET
     84          

   \                                 In  segment BANKED_CODE, align 1, keep-with-next
     85          void I2C_Start_1(void)
   \                     I2C_Start_1:
     86              {
   \   000000   C082         PUSH    DPL
   \   000002   C083         PUSH    DPH
   \   000004                ; Saved register size: 2
   \   000004                ; Auto size: 0
     87                  /*启动I2C总线的函数，当SCL为高电平时使SDA产生一个负跳变*/
     88                  SDADirOut;
   \   000004   12....       LCALL   ?Subroutine5 & 0xFFFF
     89                  Delay_1u(1); 
     90                  SDA=1;
   \                     ??CrossCallReturnLabel_33:
   \   000007   D293         SETB    0x90.3
     91                  SCL=1;
   \   000009   D292         SETB    0x90.2
     92                  Delay_1u(5);
   \   00000B                ; Setup parameters for call to function Delay_1u
   \   00000B   7A05         MOV     R2,#0x5
   \   00000D   7B00         MOV     R3,#0x0
   \   00000F   12....       LCALL   ??Delay_1u?relay
     93                  SDA=0;
   \   000012   C293         CLR     0x90.3
     94                  Delay_1u(5);
   \   000014                ; Setup parameters for call to function Delay_1u
   \   000014   7A05         MOV     R2,#0x5
   \   000016   7B00         MOV     R3,#0x0
   \   000018   12....       LCALL   ??Delay_1u?relay
     95                  SCL=0;
   \   00001B   C292         CLR     0x90.2
     96                  Delay_1u(5);
   \   00001D                ; Setup parameters for call to function Delay_1u
   \   00001D   02....       LJMP    ?Subroutine13 & 0xFFFF
   \   000020                REQUIRE _A_P1
   \   000020                REQUIRE P1DIR
     97              }

   \                                 In  segment BANKED_CODE, align 1, keep-with-next
   \                     ?Subroutine5:
   \   000000   43FE08       ORL     0xfe,#0x8
   \   000003                ; Setup parameters for call to function Delay_1u
   \   000003                ; Setup parameters for call to function Delay_1u
   \   000003   7A01         MOV     R2,#0x1
   \   000005                REQUIRE ?Subroutine14
   \   000005                ; // Fall through to label ?Subroutine14

   \                                 In  segment BANKED_CODE, align 1, keep-with-next
   \                     ?Subroutine14:
   \   000000   7B00         MOV     R3,#0x0
   \   000002   12....       LCALL   ??Delay_1u?relay
   \   000005   22           RET

   \                                 In  segment BANKED_CODE, align 1, keep-with-next
   \                     ?Subroutine13:
   \   000000   7A05         MOV     R2,#0x5
   \   000002   7B00         MOV     R3,#0x0
   \   000004   12....       LCALL   ??Delay_1u?relay
   \                     ??Subroutine13_0:
   \   000007   D083         POP     DPH
   \   000009   D082         POP     DPL
   \   00000B   02....       LJMP    ?BRET
     98          

   \                                 In  segment BANKED_CODE, align 1, keep-with-next
     99              void I2C_Stop_1(void)
   \                     I2C_Stop_1:
    100              {
   \   000000   C082         PUSH    DPL
   \   000002   C083         PUSH    DPH
   \   000004                ; Saved register size: 2
   \   000004                ; Auto size: 0
    101                  /*终止I2C总线，当SCL为高电平时使SDA产生一个正跳变*/
    102                  SCL=0;
   \   000004   C292         CLR     0x90.2
    103                  Delay_1u(1);
   \   000006                ; Setup parameters for call to function Delay_1u
   \   000006   7A01         MOV     R2,#0x1
   \   000008   7B00         MOV     R3,#0x0
   \   00000A   12....       LCALL   ??Delay_1u?relay
    104                  SDADirOut;
   \   00000D   12....       LCALL   ?Subroutine5 & 0xFFFF
    105                  Delay_1u(1);
    106                  SDA=0;
   \                     ??CrossCallReturnLabel_34:
   \   000010   C293         CLR     0x90.3
    107                  Delay_1u(5);
   \   000012                ; Setup parameters for call to function Delay_1u
   \   000012   12....       LCALL   ?Subroutine3 & 0xFFFF
    108                  SCL=1;
    109                  Delay_1u(5);
    110                  SDA=1;
   \                     ??CrossCallReturnLabel_10:
   \   000015   D293         SETB    0x90.3
    111                  Delay_1u(5);
   \   000017                ; Setup parameters for call to function Delay_1u
   \   000017   80..         SJMP    ?Subroutine13
   \   000019                REQUIRE _A_P1
   \   000019                REQUIRE P1DIR
    112              }

   \                                 In  segment BANKED_CODE, align 1, keep-with-next
   \                     ?Subroutine3:
   \   000000   7A05         MOV     R2,#0x5
   \                     ??Subroutine3_0:
   \   000002   12....       LCALL   ?Subroutine11 & 0xFFFF
   \                     ??CrossCallReturnLabel_31:
   \   000005   22           RET

   \                                 In  segment BANKED_CODE, align 1, keep-with-next
   \                     ?Subroutine11:
   \   000000   7B00         MOV     R3,#0x0
   \   000002   12....       LCALL   ??Delay_1u?relay
   \   000005   D292         SETB    0x90.2
   \   000007                ; Setup parameters for call to function Delay_1u
   \   000007                ; Setup parameters for call to function Delay_1u
   \   000007                ; Setup parameters for call to function Delay_1u
   \   000007                ; Setup parameters for call to function Delay_1u
   \   000007                ; Setup parameters for call to function Delay_1u
   \   000007   7A05         MOV     R2,#0x5
   \   000009   80..         SJMP    ?Subroutine14
    113          

   \                                 In  segment BANKED_CODE, align 1, keep-with-next
    114          void Sendack(unsigned char h){
   \                     Sendack:
   \   000000   74F7         MOV     A,#-0x9
   \   000002   12....       LCALL   ?BANKED_ENTER_XDATA
   \   000005                ; Saved register size: 9
   \   000005                ; Auto size: 0
   \   000005   E9           MOV     A,R1
   \   000006   FE           MOV     R6,A
    115                  SCL=0;
   \   000007   C292         CLR     0x90.2
    116                  Delay_1u(5);
   \   000009                ; Setup parameters for call to function Delay_1u
   \   000009   7A05         MOV     R2,#0x5
   \   00000B   7B00         MOV     R3,#0x0
   \   00000D   12....       LCALL   ??Delay_1u?relay
    117                  SDADirOut;
   \   000010   43FE08       ORL     0xfe,#0x8
    118                  Delay(5);
   \   000013                ; Setup parameters for call to function Delay
   \   000013   7A05         MOV     R2,#0x5
   \   000015   7B00         MOV     R3,#0x0
   \   000017   12....       LCALL   ??Delay?relay
    119                  SDA=h&0x01;
   \   00001A   EE           MOV     A,R6
   \   00001B   A2E0         MOV     C,0xE0 /* A   */.0
   \   00001D   9293         MOV     0x90.3,C
    120                  Delay_1u(5);
   \   00001F                ; Setup parameters for call to function Delay_1u
   \   00001F   12....       LCALL   ?Subroutine3 & 0xFFFF
    121                  SCL=1;
    122                  Delay_1u(5);
    123                  SCL=0;
   \                     ??CrossCallReturnLabel_11:
   \   000022   C292         CLR     0x90.2
    124                  Delay_1u(5);
   \   000024                ; Setup parameters for call to function Delay_1u
   \   000024   7A05         MOV     R2,#0x5
   \   000026   7B00         MOV     R3,#0x0
   \   000028   12....       LCALL   ??Delay_1u?relay
    125              }
   \   00002B   80..         SJMP    ??Subroutine16_0
   \   00002D                REQUIRE _A_P1
   \   00002D                REQUIRE P1DIR

   \                                 In  segment BANKED_CODE, align 1, keep-with-next
   \                     ?Subroutine16:
   \   000000   F9           MOV     R1,A
   \                     ??Subroutine16_0:
   \   000001   7F01         MOV     R7,#0x1
   \   000003   02....       LJMP    ?BANKED_LEAVE_XDATA
    126          

   \                                 In  segment BANKED_CODE, align 1, keep-with-next
    127          INT8U I2C_Check_ack(void){
   \                     I2C_Check_ack:
   \   000000   C082         PUSH    DPL
   \   000002   C083         PUSH    DPH
   \   000004                ; Saved register size: 2
   \   000004                ; Auto size: 0
    128              SCL=0;
   \   000004   C292         CLR     0x90.2
    129              Delay_1u(5);
   \   000006                ; Setup parameters for call to function Delay_1u
   \   000006   7A05         MOV     R2,#0x5
   \   000008   7B00         MOV     R3,#0x0
   \   00000A   12....       LCALL   ??Delay_1u?relay
    130              SDADirOut;
   \   00000D   43FE08       ORL     0xfe,#0x8
    131              SDA=1;
   \   000010   D293         SETB    0x90.3
    132              SDADirIn;
   \   000012   53FEF7       ANL     0xfe,#0xf7
    133              Delay_1u(5);          //此处是否有必要使SDA先拉高？！？！
   \   000015                ; Setup parameters for call to function Delay_1u
   \   000015   12....       LCALL   ?Subroutine2 & 0xFFFF
    134              SCL=1;
    135              Delay_1u(5);
    136              if(SDA==1)
   \                     ??CrossCallReturnLabel_8:
   \   000018   C292         CLR     0x90.2
   \   00001A   5004         JNC     ??I2C_Check_ack_0
    137              {
    138                SCL=0;
    139                return 0;  //er
   \   00001C   7900         MOV     R1,#0x0
   \   00001E   8002         SJMP    ??I2C_Check_ack_1
    140              }
    141              SCL=0;
    142              return 1;
   \                     ??I2C_Check_ack_0:
   \   000020   7901         MOV     R1,#0x1
   \                     ??I2C_Check_ack_1:
   \   000022   80..         SJMP    ??Subroutine13_0
   \   000024                REQUIRE _A_P1
   \   000024                REQUIRE P1DIR
    143          }

   \                                 In  segment BANKED_CODE, align 1, keep-with-next
   \                     ?Subroutine2:
   \   000000   7A05         MOV     R2,#0x5
   \   000002   12....       LCALL   ?Subroutine11 & 0xFFFF
   \                     ??CrossCallReturnLabel_32:
   \   000005   A293         MOV     C,0x90.3
   \   000007   22           RET
    144          
    145              
    146          
    147          

   \                                 In  segment BANKED_CODE, align 1, keep-with-next
    148              void WriteI2CByte_1(unsigned char b)
   \                     WriteI2CByte_1:
    149              {
   \   000000   74F7         MOV     A,#-0x9
   \   000002   12....       LCALL   ?BANKED_ENTER_XDATA
   \   000005                ; Saved register size: 9
   \   000005                ; Auto size: 0
   \   000005   E9           MOV     A,R1
   \   000006   FE           MOV     R6,A
    150                  /*向I2C总线写一个字节*/
    151                  unsigned char e=8;
   \   000007   7F08         MOV     R7,#0x8
    152                  SDADirOut;
   \   000009   43FE08       ORL     0xfe,#0x8
   \   00000C   800A         SJMP    ??CrossCallReturnLabel_12
    153                  while(e--){
    154                    SCL=0;
    155                    Delay_1u(5);
    156                    if(b&0x80)SDA=1;
    157                    else SDA=0;
   \                     ??WriteI2CByte_1_0:
   \   00000E   C293         CLR     0x90.3
    158                    b<<=1;
   \                     ??WriteI2CByte_1_1:
   \   000010   C3           CLR     C
   \   000011   33           RLC     A
   \   000012   FE           MOV     R6,A
    159                    Delay_1u(3);
   \   000013                ; Setup parameters for call to function Delay_1u
   \   000013   7A03         MOV     R2,#0x3
   \   000015   12....       LCALL   ??Subroutine3_0 & 0xFFFF
    160                    SCL=1;
    161                    Delay_1u(5);
   \                     ??CrossCallReturnLabel_12:
   \   000018   EF           MOV     A,R7
   \   000019   1F           DEC     R7
   \   00001A   C292         CLR     0x90.2
   \   00001C   6010         JZ      ??WriteI2CByte_1_2
   \   00001E                ; Setup parameters for call to function Delay_1u
   \   00001E   7A05         MOV     R2,#0x5
   \   000020   7B00         MOV     R3,#0x0
   \   000022   12....       LCALL   ??Delay_1u?relay
   \   000025   EE           MOV     A,R6
   \   000026   A2E7         MOV     C,0xE0 /* A   */.7
   \   000028   50E4         JNC     ??WriteI2CByte_1_0
   \   00002A   D293         SETB    0x90.3
   \   00002C   80E2         SJMP    ??WriteI2CByte_1_1
    162                  }
    163                  SCL=0;
    164                  I2C_Check_ack();
   \                     ??WriteI2CByte_1_2:
   \   00002E                ; Setup parameters for call to function I2C_Check_ack
   \   00002E   12....       LCALL   ??I2C_Check_ack?relay
    165              }
   \   000031   80..         SJMP    ??Subroutine16_0
   \   000033                REQUIRE _A_P1
   \   000033                REQUIRE P1DIR
    166          

   \                                 In  segment BANKED_CODE, align 1, keep-with-next
    167          unsigned char ReadI2CByte_1(void)
   \                     ReadI2CByte_1:
    168              {
   \   000000   74F7         MOV     A,#-0x9
   \   000002   12....       LCALL   ?BANKED_ENTER_XDATA
   \   000005                ; Saved register size: 9
   \   000005                ; Auto size: 0
    169                  /*从I2C总线读一个字节*/
    170              unsigned char i=8;
   \   000005   7E08         MOV     R6,#0x8
    171              unsigned char c=0;
   \   000007   7F00         MOV     R7,#0x0
    172              SCL=0;
   \   000009   C292         CLR     0x90.2
    173              SDADirOut;
   \   00000B   43FE08       ORL     0xfe,#0x8
    174              SDA=1;
   \   00000E   D293         SETB    0x90.3
    175              Delay_1u(3);
   \   000010                ; Setup parameters for call to function Delay_1u
   \   000010   7A03         MOV     R2,#0x3
   \   000012   7B00         MOV     R3,#0x0
   \   000014   12....       LCALL   ??Delay_1u?relay
    176              SDADirIn;
   \   000017   53FEF7       ANL     0xfe,#0xf7
   \   00001A   8003         SJMP    ??ReadI2CByte_1_0
    177              while(i--){
    178                c<<=1;
    179                SCL=0;
    180                Delay_1u(5);
    181                SCL=1;
    182                Delay_1u(5);
    183                if(SDA==1)c|=0x01;
   \                     ??ReadI2CByte_1_1:
   \   00001C   D2E0         SETB    0xE0 /* A   */.0
   \                     ??ReadI2CByte_1_2:
   \   00001E   FF           MOV     R7,A
   \                     ??ReadI2CByte_1_0:
   \   00001F   EE           MOV     A,R6
   \   000020   1E           DEC     R6
   \   000021   6010         JZ      ??ReadI2CByte_1_3
   \   000023   EF           MOV     A,R7
   \   000024   C3           CLR     C
   \   000025   33           RLC     A
   \   000026   FF           MOV     R7,A
   \   000027   C292         CLR     0x90.2
   \   000029                ; Setup parameters for call to function Delay_1u
   \   000029   12....       LCALL   ?Subroutine2 & 0xFFFF
   \                     ??CrossCallReturnLabel_9:
   \   00002C   EF           MOV     A,R7
   \   00002D   40ED         JC      ??ReadI2CByte_1_1
    184                else c&=0xfe;
   \   00002F   C2E0         CLR     0xE0 /* A   */.0
   \   000031   80EB         SJMP    ??ReadI2CByte_1_2
    185              }
    186              SCL=0;
   \                     ??ReadI2CByte_1_3:
   \   000033   C292         CLR     0x90.2
    187              SDADirOut;
   \   000035   43FE08       ORL     0xfe,#0x8
    188              return c; 
   \   000038   EF           MOV     A,R7
   \   000039   02....       LJMP    ?Subroutine16 & 0xFFFF
   \   00003C                REQUIRE _A_P1
   \   00003C                REQUIRE P1DIR
    189              }
    190          //******单字节写入******************************************* 
    191          

   \                                 In  segment BANKED_CODE, align 1, keep-with-next
    192          void Single_Write_ADXL345(INT8U REG_Address,INT8U REG_data) 
   \                     Single_Write_ADXL345:
    193          { 
   \   000000   74F7         MOV     A,#-0x9
   \   000002   12....       LCALL   ?BANKED_ENTER_XDATA
   \   000005                ; Saved register size: 9
   \   000005                ; Auto size: 0
   \   000005   E9           MOV     A,R1
   \   000006   FE           MOV     R6,A
   \   000007   EA           MOV     A,R2
   \   000008   FF           MOV     R7,A
    194              I2C_Start_1();                  //起始信号 
   \   000009                ; Setup parameters for call to function I2C_Start_1
   \   000009   12....       LCALL   ?Subroutine4 & 0xFFFF
    195              WriteI2CByte_1(SlaveAddress);   //发送设备地址+写信号 
    196              WriteI2CByte_1(REG_Address);    //内部寄存器地址，请参考中文pdf22页  
    197              WriteI2CByte_1(REG_data);       //内部寄存器数据，请参考中文pdf22页  
   \                     ??CrossCallReturnLabel_13:
   \   00000C                ; Setup parameters for call to function WriteI2CByte_1
   \   00000C   EF           MOV     A,R7
   \   00000D   F9           MOV     R1,A
   \   00000E   12....       LCALL   ??WriteI2CByte_1?relay
    198              I2C_Stop_1();                   //发送停止信号 
   \   000011                ; Setup parameters for call to function I2C_Stop_1
   \   000011   12....       LCALL   ??I2C_Stop_1?relay
    199          } 
   \   000014   02....       LJMP    ??Subroutine16_0 & 0xFFFF

   \                                 In  segment BANKED_CODE, align 1, keep-with-next
   \                     ?Subroutine4:
   \   000000   12....       LCALL   ?Subroutine12 & 0xFFFF
   \                     ??CrossCallReturnLabel_29:
   \   000003                ; Setup parameters for call to function WriteI2CByte_1
   \   000003                ; Setup parameters for call to function WriteI2CByte_1
   \   000003   EE           MOV     A,R6
   \   000004   F9           MOV     R1,A
   \   000005   12....       LCALL   ??WriteI2CByte_1?relay
   \   000008   22           RET

   \                                 In  segment BANKED_CODE, align 1, keep-with-next
   \                     ?Subroutine12:
   \   000000   12....       LCALL   ??I2C_Start_1?relay
   \   000003                ; Setup parameters for call to function WriteI2CByte_1
   \   000003                ; Setup parameters for call to function WriteI2CByte_1
   \   000003                ; Setup parameters for call to function WriteI2CByte_1
   \   000003   79A6         MOV     R1,#-0x5a
   \   000005   12....       LCALL   ??WriteI2CByte_1?relay
   \   000008   22           RET
    200          
    201          //********单字节读取***************************************** 

   \                                 In  segment BANKED_CODE, align 1, keep-with-next
    202          unsigned char Single_Read_ADXL345(INT8U REG_Address) 
   \                     Single_Read_ADXL345:
    203          {  INT8U REG_data;
   \   000000   74F7         MOV     A,#-0x9
   \   000002   12....       LCALL   ?BANKED_ENTER_XDATA
   \   000005                ; Saved register size: 9
   \   000005                ; Auto size: 0
   \   000005   E9           MOV     A,R1
   \   000006   FE           MOV     R6,A
    204              I2C_Start_1();                          //起始信号 
   \   000007                ; Setup parameters for call to function I2C_Start_1
   \   000007   12....       LCALL   ?Subroutine4 & 0xFFFF
    205              WriteI2CByte_1(SlaveAddress);           //发送设备地址+写信号 
    206              WriteI2CByte_1(REG_Address);                   //发送存储单元地址，从0开始	
    207              I2C_Start_1();                          //起始信号 
   \                     ??CrossCallReturnLabel_14:
   \   00000A                ; Setup parameters for call to function I2C_Start_1
   \   00000A   12....       LCALL   ?Subroutine8 & 0xFFFF
    208              WriteI2CByte_1(SlaveAddress+1);         //发送设备地址+读信号 
    209              REG_data=ReadI2CByte_1();              //读出寄存器数据 
   \                     ??CrossCallReturnLabel_21:
   \   00000D                ; Setup parameters for call to function ReadI2CByte_1
   \   00000D   12....       LCALL   ??ReadI2CByte_1?relay
   \   000010   E9           MOV     A,R1
   \   000011   FE           MOV     R6,A
    210              Sendack(1);   
   \   000012                ; Setup parameters for call to function Sendack
   \   000012   7901         MOV     R1,#0x1
   \   000014   12....       LCALL   ??Sendack?relay
    211              I2C_Stop_1();                           //停止信号 
   \   000017                ; Setup parameters for call to function I2C_Stop_1
   \   000017   12....       LCALL   ??I2C_Stop_1?relay
    212              return REG_data;  
   \   00001A   EE           MOV     A,R6
   \   00001B   02....       LJMP    ?Subroutine16 & 0xFFFF
    213          } 

   \                                 In  segment BANKED_CODE, align 1, keep-with-next
   \                     ?Subroutine8:
   \   000000   12....       LCALL   ??I2C_Start_1?relay
   \   000003                ; Setup parameters for call to function WriteI2CByte_1
   \   000003                ; Setup parameters for call to function WriteI2CByte_1
   \   000003   79A7         MOV     R1,#-0x59
   \   000005   12....       LCALL   ??WriteI2CByte_1?relay
   \   000008   22           RET
    214          

   \                                 In  segment BANKED_CODE, align 1, keep-with-next
    215          void Init_ADXL345() 
   \                     Init_ADXL345:
    216          { 
   \   000000   C082         PUSH    DPL
   \   000002   C083         PUSH    DPH
   \   000004                ; Saved register size: 2
   \   000004                ; Auto size: 0
    217            P1DIR = 0x0C;
   \   000004   75FE0C       MOV     0xfe,#0xc
    218             Single_Write_ADXL345(0x31,0x0B);   //测量范围,正负16g，13位模式 
   \   000007                ; Setup parameters for call to function Single_Write_ADXL345
   \   000007   7A0B         MOV     R2,#0xb
   \   000009   7931         MOV     R1,#0x31
   \   00000B   12....       LCALL   ??Single_Write_ADXL345?relay
    219             Single_Write_ADXL345(0x2C,0x0F);   //速率设定为12.5 参考pdf13页 
   \   00000E                ; Setup parameters for call to function Single_Write_ADXL345
   \   00000E   7A0F         MOV     R2,#0xf
   \   000010   792C         MOV     R1,#0x2c
   \   000012   12....       LCALL   ??Single_Write_ADXL345?relay
    220             Single_Write_ADXL345(0x2D,0x08);   //选择电源模式   参考pdf24页 
   \   000015                ; Setup parameters for call to function Single_Write_ADXL345
   \   000015   7A08         MOV     R2,#0x8
   \   000017   792D         MOV     R1,#0x2d
   \   000019   12....       LCALL   ??Single_Write_ADXL345?relay
    221             Single_Write_ADXL345(0x2E,0x80);   //使能 DATA_READY 中断 
   \   00001C                ; Setup parameters for call to function Single_Write_ADXL345
   \   00001C   7A80         MOV     R2,#-0x80
   \   00001E   792E         MOV     R1,#0x2e
   \   000020   12....       LCALL   ??Single_Write_ADXL345?relay
    222             Single_Write_ADXL345(0x1E,0x00);   //X 偏移量 根据测试传感器的状态写入pdf29页 
   \   000023                ; Setup parameters for call to function Single_Write_ADXL345
   \   000023   7A00         MOV     R2,#0x0
   \   000025   791E         MOV     R1,#0x1e
   \   000027   12....       LCALL   ??Single_Write_ADXL345?relay
    223             Single_Write_ADXL345(0x1F,0x00);   //Y 偏移量 根据测试传感器的状态写入pdf29页 
   \   00002A                ; Setup parameters for call to function Single_Write_ADXL345
   \   00002A   7A00         MOV     R2,#0x0
   \   00002C   791F         MOV     R1,#0x1f
   \   00002E   12....       LCALL   ??Single_Write_ADXL345?relay
    224             Single_Write_ADXL345(0x20,0x05);   //Z 偏移量 根据测试传感器的状态写入pdf29页 
   \   000031                ; Setup parameters for call to function Single_Write_ADXL345
   \   000031   7A05         MOV     R2,#0x5
   \   000033   7920         MOV     R1,#0x20
   \   000035   12....       LCALL   ??Single_Write_ADXL345?relay
    225          } 
   \   000038   02....       LJMP    ??Subroutine13_0 & 0xFFFF
   \   00003B                REQUIRE P1DIR
    226          
    227          //********************************************************* 
    228          // 
    229          //连续读出ADXL345内部加速度数据，地址范围0x32~0x37 
    230          // 
    231          //********************************************************* 

   \                                 In  segment BANKED_CODE, align 1, keep-with-next
    232          void Multiple_Read_ADXL345(void) 
   \                     Multiple_Read_ADXL345:
    233          {   INT8U f; 
   \   000000   74F6         MOV     A,#-0xa
   \   000002   12....       LCALL   ?BANKED_ENTER_XDATA
   \   000005                ; Saved register size: 10
   \   000005                ; Auto size: 0
    234              I2C_Start_1();                          //起始信号 
   \   000005                ; Setup parameters for call to function I2C_Start_1
   \   000005   12....       LCALL   ?Subroutine12 & 0xFFFF
    235              WriteI2CByte_1(SlaveAddress);           //发送设备地址+写信号 
    236              WriteI2CByte_1(0x32);                   //发送存储单元地址，从0x32开始	
   \                     ??CrossCallReturnLabel_30:
   \   000008                ; Setup parameters for call to function WriteI2CByte_1
   \   000008   7932         MOV     R1,#0x32
   \   00000A   12....       LCALL   ??WriteI2CByte_1?relay
    237              I2C_Start_1();                          //起始信号 
   \   00000D                ; Setup parameters for call to function I2C_Start_1
   \   00000D   12....       LCALL   ?Subroutine8 & 0xFFFF
    238              WriteI2CByte_1(SlaveAddress+1);         //发送设备地址+读信号 
    239           for (f=0; f<6; f++)                      //连续读取6个地址数据，存储中BUF 
   \                     ??CrossCallReturnLabel_22:
   \   000010   7E00         MOV     R6,#0x0
    240              { 
    241                  BUFFER[f] = ReadI2CByte_1();          //BUF[0]存储0x32地址中的数据 
   \                     ??Multiple_Read_ADXL345_0:
   \   000012                ; Setup parameters for call to function ReadI2CByte_1
   \   000012   12....       LCALL   ??ReadI2CByte_1?relay
   \   000015   8E..         MOV     ?V0 + 0,R6
   \   000017   E5..         MOV     A,?V0 + 0
   \   000019   24..         ADD     A,#(BUFFER & 0xff)
   \   00001B   F582         MOV     DPL,A
   \   00001D   E4           CLR     A
   \   00001E   34..         ADDC    A,#((BUFFER >> 8) & 0xff)
   \   000020   F583         MOV     DPH,A
   \   000022   E9           MOV     A,R1
   \   000023   F0           MOVX    @DPTR,A
    242                if (f == 5) 
   \   000024   7405         MOV     A,#0x5
   \   000026   6E           XRL     A,R6
   \   000027   7004         JNZ     ??Multiple_Read_ADXL345_1
    243                  { 
    244                    Sendack(1);                //最后一个数据需要回NOACK 
   \   000029                ; Setup parameters for call to function Sendack
   \   000029   7901         MOV     R1,#0x1
   \   00002B   8002         SJMP    ??Multiple_Read_ADXL345_2
    245                  } 
    246                  else 
    247                  { 
    248                    Sendack(0);                //回应ACK 
   \                     ??Multiple_Read_ADXL345_1:
   \   00002D                ; Setup parameters for call to function Sendack
   \   00002D   7900         MOV     R1,#0x0
   \                     ??Multiple_Read_ADXL345_2:
   \   00002F   12....       LCALL   ??Sendack?relay
    249                 } 
    250             } 
   \   000032   0E           INC     R6
   \   000033   EE           MOV     A,R6
   \   000034   C3           CLR     C
   \   000035   9406         SUBB    A,#0x6
   \   000037   40D9         JC      ??Multiple_Read_ADXL345_0
    251              I2C_Stop_1();                          //停止信号 
   \   000039                ; Setup parameters for call to function I2C_Stop_1
   \   000039   12....       LCALL   ??I2C_Stop_1?relay
    252              Delay(500);
   \   00003C                ; Setup parameters for call to function Delay
   \   00003C   12....       LCALL   ?Subroutine6 & 0xFFFF
    253              Delay(500);
    254              Delay(500);
   \                     ??CrossCallReturnLabel_15:
   \   00003F                ; Setup parameters for call to function Delay
   \   00003F   12....       LCALL   ?Subroutine6 & 0xFFFF
    255              Delay(500);
    256          } 
   \                     ??CrossCallReturnLabel_16:
   \   000042   02....       LJMP    ?Subroutine15 & 0xFFFF

   \                                 In  segment BANKED_CODE, align 1, keep-with-next
   \                     ?Subroutine6:
   \   000000   7AF4         MOV     R2,#-0xc
   \   000002   7B01         MOV     R3,#0x1
   \   000004   12....       LCALL   ??Delay?relay
   \   000007                ; Setup parameters for call to function Delay
   \   000007                ; Setup parameters for call to function Delay
   \   000007   7AF4         MOV     R2,#-0xc
   \   000009   7B01         MOV     R3,#0x1
   \   00000B   12....       LCALL   ??Delay?relay
   \   00000E   22           RET
    257          

   \                                 In  segment BANKED_CODE, align 1, keep-with-next
    258          void displayXYZ(INT8U *pData){
   \                     displayXYZ:
   \   000000   74F0         MOV     A,#-0x10
   \   000002   12....       LCALL   ?BANKED_ENTER_XDATA
   \   000005                ; Saved register size: 16
   \   000005                ; Auto size: 0
   \   000005   EA           MOV     A,R2
   \   000006   FE           MOV     R6,A
   \   000007   EB           MOV     A,R3
   \   000008   FF           MOV     R7,A
    259            int  dis_data;
    260            uint16 temp;
    261            dis_data=(pData[1]<<8)+pData[0];
   \   000009   8E82         MOV     DPL,R6
   \   00000B   8F83         MOV     DPH,R7
   \   00000D   12....       LCALL   ??Subroutine10_0 & 0xFFFF
   \                     ??CrossCallReturnLabel_26:
   \   000010   12....       LCALL   ??Subroutine0_0 & 0xFFFF
    262              temp=(uint16)((float)dis_data*3.9);  //计算数据和显示,查考ADXL345快速入门第4页
   \                     ??CrossCallReturnLabel_2:
   \   000013   12....       LCALL   ?L_TO_FLT
   \   000016   90....       MOV     DPTR,#__Constant_4079999a
   \   000019   78..         MOV     R0,#?V0 + 0
   \   00001B   12....       LCALL   ?L_MOV_X
   \   00001E   78..         MOV     R0,#?V0 + 4
   \   000020   79..         MOV     R1,#?V0 + 0
   \   000022   12....       LCALL   ?FLT_MUL
   \   000025   78..         MOV     R0,#?V0 + 4
   \   000027   12....       LCALL   ?FLT_TO_L
   \   00002A   12....       LCALL   ?Subroutine9 & 0xFFFF
    263          	if(dis_data<0){
   \                     ??CrossCallReturnLabel_23:
   \   00002D   75..00       MOV     ?V0 + 0,#0x0
   \   000030   78..         MOV     R0,#?V0 + 0
   \   000032   500B         JNC     ??displayXYZ_0
    264          	dis_data=-dis_data;
    265                  HalLcdWriteStringValue("X: -",temp,10,0);
   \   000034                ; Setup parameters for call to function HalLcdWriteStringValue
   \   000034   12....       LCALL   ?PUSH_XSTACK_I_ONE
   \   000037   790A         MOV     R1,#0xa
   \   000039   7A..         MOV     R2,#(`?<Constant "X: -">` & 0xff)
   \   00003B   7B..         MOV     R3,#((`?<Constant "X: -">` >> 8) & 0xff)
   \   00003D   8009         SJMP    ??displayXYZ_1
    266          	}
    267          	else
    268              {
    269                  HalLcdWriteStringValue("X:  ",temp,10,0);
   \                     ??displayXYZ_0:
   \   00003F                ; Setup parameters for call to function HalLcdWriteStringValue
   \   00003F   12....       LCALL   ?PUSH_XSTACK_I_ONE
   \   000042   790A         MOV     R1,#0xa
   \   000044   7A..         MOV     R2,#(`?<Constant "X:  ">` & 0xff)
   \   000046   7B..         MOV     R3,#((`?<Constant "X:  ">` >> 8) & 0xff)
   \                     ??displayXYZ_1:
   \   000048   12....       LCALL   ??HalLcdWriteStringValue?relay
   \   00004B   7401         MOV     A,#0x1
   \   00004D   12....       LCALL   ?DEALLOC_XSTACK8
    270              }
    271              dis_data=(pData[3]<<8)+pData[2];  //合成数据   
   \   000050   8E82         MOV     DPL,R6
   \   000052   8F83         MOV     DPH,R7
   \   000054   12....       LCALL   ?Subroutine10 & 0xFFFF
   \                     ??CrossCallReturnLabel_27:
   \   000057   12....       LCALL   ?Subroutine0 & 0xFFFF
    272          	    temp=(uint16)((float)dis_data*3.9);  //计算数据和显示,查考ADXL345快速入门第4页
   \                     ??CrossCallReturnLabel_0:
   \   00005A   12....       LCALL   ?L_TO_FLT
   \   00005D   90....       MOV     DPTR,#__Constant_4079999a
   \   000060   78..         MOV     R0,#?V0 + 0
   \   000062   12....       LCALL   ?L_MOV_X
   \   000065   78..         MOV     R0,#?V0 + 4
   \   000067   79..         MOV     R1,#?V0 + 0
   \   000069   12....       LCALL   ?FLT_MUL
   \   00006C   78..         MOV     R0,#?V0 + 4
   \   00006E   12....       LCALL   ?FLT_TO_L
   \   000071   12....       LCALL   ?Subroutine9 & 0xFFFF
    273          	if(dis_data<0){
   \                     ??CrossCallReturnLabel_24:
   \   000074   75..01       MOV     ?V0 + 0,#0x1
   \   000077   78..         MOV     R0,#?V0 + 0
   \   000079   500B         JNC     ??displayXYZ_2
    274          	dis_data=-dis_data;
    275                  HalLcdWriteStringValue("Y: -",temp,10,1);
   \   00007B                ; Setup parameters for call to function HalLcdWriteStringValue
   \   00007B   12....       LCALL   ?PUSH_XSTACK_I_ONE
   \   00007E   790A         MOV     R1,#0xa
   \   000080   7A..         MOV     R2,#(`?<Constant "Y: -">` & 0xff)
   \   000082   7B..         MOV     R3,#((`?<Constant "Y: -">` >> 8) & 0xff)
   \   000084   8009         SJMP    ??displayXYZ_3
    276          	}
    277          	else
    278              {
    279                  HalLcdWriteStringValue("Y:  ",temp,10,1);
   \                     ??displayXYZ_2:
   \   000086                ; Setup parameters for call to function HalLcdWriteStringValue
   \   000086   12....       LCALL   ?PUSH_XSTACK_I_ONE
   \   000089   790A         MOV     R1,#0xa
   \   00008B   7A..         MOV     R2,#(`?<Constant "Y:  ">` & 0xff)
   \   00008D   7B..         MOV     R3,#((`?<Constant "Y:  ">` >> 8) & 0xff)
   \                     ??displayXYZ_3:
   \   00008F   12....       LCALL   ??HalLcdWriteStringValue?relay
   \   000092   7401         MOV     A,#0x1
   \   000094   12....       LCALL   ?DEALLOC_XSTACK8
    280              }
    281              dis_data=(pData[5]<<8)+pData[4];    //合成数据  
   \   000097   8E82         MOV     DPL,R6
   \   000099   8F83         MOV     DPH,R7
   \   00009B   A3           INC     DPTR
   \   00009C   A3           INC     DPTR
   \   00009D   12....       LCALL   ?Subroutine10 & 0xFFFF
   \                     ??CrossCallReturnLabel_28:
   \   0000A0   A3           INC     DPTR
   \   0000A1   A3           INC     DPTR
   \   0000A2   12....       LCALL   ?Subroutine0 & 0xFFFF
    282              temp=(uint16)((float)dis_data*3.9);  //计算数据和显示,查考ADXL345快速入门第4页
   \                     ??CrossCallReturnLabel_1:
   \   0000A5   12....       LCALL   ?L_TO_FLT
   \   0000A8   90....       MOV     DPTR,#__Constant_4079999a
   \   0000AB   78..         MOV     R0,#?V0 + 0
   \   0000AD   12....       LCALL   ?L_MOV_X
   \   0000B0   78..         MOV     R0,#?V0 + 4
   \   0000B2   79..         MOV     R1,#?V0 + 0
   \   0000B4   12....       LCALL   ?FLT_MUL
   \   0000B7   78..         MOV     R0,#?V0 + 4
   \   0000B9   12....       LCALL   ?FLT_TO_L
   \   0000BC   12....       LCALL   ?Subroutine9 & 0xFFFF
    283          	if(dis_data<0){
   \                     ??CrossCallReturnLabel_25:
   \   0000BF   75..02       MOV     ?V0 + 0,#0x2
   \   0000C2   78..         MOV     R0,#?V0 + 0
   \   0000C4   500B         JNC     ??displayXYZ_4
    284          	dis_data=-dis_data;
    285                  HalLcdWriteStringValue("Z: -",temp,10,2);
   \   0000C6                ; Setup parameters for call to function HalLcdWriteStringValue
   \   0000C6   12....       LCALL   ?PUSH_XSTACK_I_ONE
   \   0000C9   790A         MOV     R1,#0xa
   \   0000CB   7A..         MOV     R2,#(`?<Constant "Z: -">` & 0xff)
   \   0000CD   7B..         MOV     R3,#((`?<Constant "Z: -">` >> 8) & 0xff)
   \   0000CF   8009         SJMP    ??displayXYZ_5
    286          	}
    287          	else
    288              {
    289                  HalLcdWriteStringValue("Z:  ",temp,10,2);
   \                     ??displayXYZ_4:
   \   0000D1                ; Setup parameters for call to function HalLcdWriteStringValue
   \   0000D1   12....       LCALL   ?PUSH_XSTACK_I_ONE
   \   0000D4   790A         MOV     R1,#0xa
   \   0000D6   7A..         MOV     R2,#(`?<Constant "Z:  ">` & 0xff)
   \   0000D8   7B..         MOV     R3,#((`?<Constant "Z:  ">` >> 8) & 0xff)
   \                     ??displayXYZ_5:
   \   0000DA   12....       LCALL   ??HalLcdWriteStringValue?relay
   \   0000DD   7401         MOV     A,#0x1
   \   0000DF   12....       LCALL   ?DEALLOC_XSTACK8
    290              }
    291          }
   \   0000E2   7F08         MOV     R7,#0x8
   \   0000E4   02....       LJMP    ?BANKED_LEAVE_XDATA

   \                                 In  segment BANKED_CODE, align 1, keep-with-next
   \                     ?Subroutine10:
   \   000000   A3           INC     DPTR
   \   000001   A3           INC     DPTR
   \                     ??Subroutine10_0:
   \   000002   A3           INC     DPTR
   \   000003   E0           MOVX    A,@DPTR
   \   000004   F9           MOV     R1,A
   \   000005   8E82         MOV     DPL,R6
   \   000007   8F83         MOV     DPH,R7
   \   000009   22           RET

   \                                 In  segment BANKED_CODE, align 1, keep-with-next
   \                     ?Subroutine9:
   \   000000   AC..         MOV     R4,?V0 + 4
   \   000002   AD..         MOV     R5,?V0 + 5
   \   000004   C3           CLR     C
   \   000005   EB           MOV     A,R3
   \   000006   9400         SUBB    A,#0x0
   \   000008   A2D2         MOV     C,0xD0 /* PSW */.2
   \   00000A   65D0         XRL     A,PSW
   \   00000C   33           RLC     A
   \   00000D   22           RET

   \                                 In  segment BANKED_CODE, align 1, keep-with-next
   \                     ?Subroutine0:
   \   000000   A3           INC     DPTR
   \   000001   A3           INC     DPTR
   \                     ??Subroutine0_0:
   \   000002   E0           MOVX    A,@DPTR
   \   000003   2400         ADD     A,#0x0
   \   000005   FA           MOV     R2,A
   \   000006   E4           CLR     A
   \   000007   39           ADDC    A,R1
   \   000008   FB           MOV     R3,A
   \   000009   8A..         MOV     ?V0 + 4,R2
   \   00000B   F5..         MOV     ?V0 + 5,A
   \   00000D   33           RLC     A
   \   00000E   95E0         SUBB    A,0xE0 /* A   */
   \   000010   F5..         MOV     ?V0 + 6,A
   \   000012   F5..         MOV     ?V0 + 7,A
   \   000014   78..         MOV     R0,#?V0 + 4
   \   000016   22           RET

   \                                 In  segment XDATA_ID, align 1, keep-with-next
   \                     `?<Initializer for <Constant "X: -">>`:
   \   000000   583A202D     DB "X: -"
   \            00      

   \                                 In  segment XDATA_ID, align 1, keep-with-next
   \                     `?<Initializer for <Constant "X:  ">>`:
   \   000000   583A2020     DB "X:  "
   \            00      

   \                                 In  segment XDATA_ID, align 1, keep-with-next
   \                     `?<Initializer for <Constant "Y: -">>`:
   \   000000   593A202D     DB "Y: -"
   \            00      

   \                                 In  segment XDATA_ID, align 1, keep-with-next
   \                     `?<Initializer for <Constant "Y:  ">>`:
   \   000000   593A2020     DB "Y:  "
   \            00      

   \                                 In  segment XDATA_ID, align 1, keep-with-next
   \                     `?<Initializer for <Constant "Z: -">>`:
   \   000000   5A3A202D     DB "Z: -"
   \            00      

   \                                 In  segment XDATA_ID, align 1, keep-with-next
   \                     `?<Initializer for <Constant "Z:  ">>`:
   \   000000   5A3A2020     DB "Z:  "
   \            00      

   \                                 In  segment XDATA_ID, align 1, keep-with-next
   \                     `?<Initializer for __Constant_4079999a>`:
   \   000000   9A997940     DD 4079999AH

   \                                 In  segment BANK_RELAYS, align 1
   \                     ??Delay?relay:
   \   000000   12....       LCALL   ?BDISPATCH
   \   000003   ......       DC24    Delay

   \                                 In  segment BANK_RELAYS, align 1
   \                     ??Delay_1u?relay:
   \   000000   12....       LCALL   ?BDISPATCH
   \   000003   ......       DC24    Delay_1u

   \                                 In  segment BANK_RELAYS, align 1
   \                     ??conversion?relay:
   \   000000   12....       LCALL   ?BDISPATCH
   \   000003   ......       DC24    conversion

   \                                 In  segment BANK_RELAYS, align 1
   \                     ??I2C_Start_1?relay:
   \   000000   12....       LCALL   ?BDISPATCH
   \   000003   ......       DC24    I2C_Start_1

   \                                 In  segment BANK_RELAYS, align 1
   \                     ??I2C_Stop_1?relay:
   \   000000   12....       LCALL   ?BDISPATCH
   \   000003   ......       DC24    I2C_Stop_1

   \                                 In  segment BANK_RELAYS, align 1
   \                     ??Sendack?relay:
   \   000000   12....       LCALL   ?BDISPATCH
   \   000003   ......       DC24    Sendack

   \                                 In  segment BANK_RELAYS, align 1
   \                     ??I2C_Check_ack?relay:
   \   000000   12....       LCALL   ?BDISPATCH
   \   000003   ......       DC24    I2C_Check_ack

   \                                 In  segment BANK_RELAYS, align 1
   \                     ??WriteI2CByte_1?relay:
   \   000000   12....       LCALL   ?BDISPATCH
   \   000003   ......       DC24    WriteI2CByte_1

   \                                 In  segment BANK_RELAYS, align 1
   \                     ??ReadI2CByte_1?relay:
   \   000000   12....       LCALL   ?BDISPATCH
   \   000003   ......       DC24    ReadI2CByte_1

   \                                 In  segment BANK_RELAYS, align 1
   \                     ??Single_Write_ADXL345?relay:
   \   000000   12....       LCALL   ?BDISPATCH
   \   000003   ......       DC24    Single_Write_ADXL345

   \                                 In  segment BANK_RELAYS, align 1
   \                     ??Single_Read_ADXL345?relay:
   \   000000   12....       LCALL   ?BDISPATCH
   \   000003   ......       DC24    Single_Read_ADXL345

   \                                 In  segment BANK_RELAYS, align 1
   \                     ??Init_ADXL345?relay:
   \   000000   12....       LCALL   ?BDISPATCH
   \   000003   ......       DC24    Init_ADXL345

   \                                 In  segment BANK_RELAYS, align 1
   \                     ??Multiple_Read_ADXL345?relay:
   \   000000   12....       LCALL   ?BDISPATCH
   \   000003   ......       DC24    Multiple_Read_ADXL345

   \                                 In  segment BANK_RELAYS, align 1
   \                     ??displayXYZ?relay:
   \   000000   12....       LCALL   ?BDISPATCH
   \   000003   ......       DC24    displayXYZ

   \                                 In  segment XDATA_I, align 1, keep-with-next
   \                     `?<Constant "X: -">`:
   \   000000                DS 5
   \   000005                REQUIRE `?<Initializer for <Constant "X: -">>`
   \   000005                REQUIRE __INIT_XDATA_I

   \                                 In  segment XDATA_I, align 1, keep-with-next
   \                     `?<Constant "X:  ">`:
   \   000000                DS 5
   \   000005                REQUIRE `?<Initializer for <Constant "X:  ">>`
   \   000005                REQUIRE __INIT_XDATA_I

   \                                 In  segment XDATA_I, align 1, keep-with-next
   \                     `?<Constant "Y: -">`:
   \   000000                DS 5
   \   000005                REQUIRE `?<Initializer for <Constant "Y: -">>`
   \   000005                REQUIRE __INIT_XDATA_I

   \                                 In  segment XDATA_I, align 1, keep-with-next
   \                     `?<Constant "Y:  ">`:
   \   000000                DS 5
   \   000005                REQUIRE `?<Initializer for <Constant "Y:  ">>`
   \   000005                REQUIRE __INIT_XDATA_I

   \                                 In  segment XDATA_I, align 1, keep-with-next
   \                     `?<Constant "Z: -">`:
   \   000000                DS 5
   \   000005                REQUIRE `?<Initializer for <Constant "Z: -">>`
   \   000005                REQUIRE __INIT_XDATA_I

   \                                 In  segment XDATA_I, align 1, keep-with-next
   \                     `?<Constant "Z:  ">`:
   \   000000                DS 5
   \   000005                REQUIRE `?<Initializer for <Constant "Z:  ">>`
   \   000005                REQUIRE __INIT_XDATA_I

   \                                 In  segment XDATA_I, align 1, keep-with-next
   \                     __Constant_4079999a:
   \   000000                DS 4
   \   000004                REQUIRE `?<Initializer for __Constant_4079999a>`
   \   000004                REQUIRE __INIT_XDATA_I

   Maximum stack usage in bytes:

     Function                    ISTACK PSTACK XSTACK
     --------                    ------ ------ ------
     Delay                           0      0     10
     Delay_1u                        0      0      9
     I2C_Check_ack                   2      0      9
       -> Delay_1u                   4      0      0
       -> Delay_1u                   4      0      0
       -> Delay_1u                   4      0      0
     I2C_Start_1                     2      0     10
       -> Delay_1u                   4      0      0
       -> Delay_1u                   4      0      0
       -> Delay_1u                   4      0      0
       -> Delay_1u                   4      0      0
     I2C_Stop_1                      2      0     10
       -> Delay_1u                   4      0      0
       -> Delay_1u                   4      0      0
       -> Delay_1u                   4      0      0
       -> Delay_1u                   4      0      0
       -> Delay_1u                   4      0      0
     Init_ADXL345                    2      0      0
       -> Single_Write_ADXL345       4      0      0
       -> Single_Write_ADXL345       4      0      0
       -> Single_Write_ADXL345       4      0      0
       -> Single_Write_ADXL345       4      0      0
       -> Single_Write_ADXL345       4      0      0
       -> Single_Write_ADXL345       4      0      0
       -> Single_Write_ADXL345       4      0      0
     Multiple_Read_ADXL345           1      0     10
       -> I2C_Start_1                0      0     20
       -> WriteI2CByte_1             0      0     20
       -> WriteI2CByte_1             0      0     20
       -> I2C_Start_1                0      0     20
       -> WriteI2CByte_1             0      0     20
       -> ReadI2CByte_1              0      0     20
       -> Sendack                    0      0     20
       -> Sendack                    0      0     20
       -> I2C_Stop_1                 0      0     20
       -> Delay                      0      0     20
       -> Delay                      0      0     20
       -> Delay                      0      0     20
       -> Delay                      0      0     20
     ReadI2CByte_1                   0      0     19
       -> Delay_1u                   0      0     18
       -> Delay_1u                   0      0     18
       -> Delay_1u                   0      0     18
     Sendack                         0      0     19
       -> Delay_1u                   0      0     18
       -> Delay                      0      0     18
       -> Delay_1u                   0      0     18
       -> Delay_1u                   0      0     18
       -> Delay_1u                   0      0     18
     Single_Read_ADXL345             0      0      9
       -> I2C_Start_1                0      0     18
       -> WriteI2CByte_1             0      0     18
       -> WriteI2CByte_1             0      0     18
       -> I2C_Start_1                0      0     18
       -> WriteI2CByte_1             0      0     18
       -> ReadI2CByte_1              0      0     18
       -> Sendack                    0      0     18
       -> I2C_Stop_1                 0      0     18
     Single_Write_ADXL345            0      0      9
       -> I2C_Start_1                0      0     18
       -> WriteI2CByte_1             0      0     18
       -> WriteI2CByte_1             0      0     18
       -> WriteI2CByte_1             0      0     18
       -> I2C_Stop_1                 0      0     18
     WriteI2CByte_1                  0      0     19
       -> Delay_1u                   0      0     18
       -> Delay_1u                   0      0     18
       -> Delay_1u                   0      0     18
       -> I2C_Check_ack              0      0     18
     conversion                      0      0     10
     displayXYZ                      0      0     17
       -> HalLcdWriteStringValue     0      0     34
       -> HalLcdWriteStringValue     0      0     34
       -> HalLcdWriteStringValue     0      0     34
       -> HalLcdWriteStringValue     0      0     34
       -> HalLcdWriteStringValue     0      0     34
       -> HalLcdWriteStringValue     0      0     34


   Segment part sizes:

     Function/Label                 Bytes
     --------------                 -----
     _A_P1                             1
     P1DIR                             1
     BUFFER                            8
     dis_data                          2
     wan                               1
     qian                              1
     bai                               1
     shi                               1
     ge                                1
     Delay                            83
     ?Subroutine1                      9
     Delay_1u                         55
     conversion                      138
     ?Subroutine15                     5
     ?Subroutine7                      6
     I2C_Start_1                      32
     ?Subroutine5                      5
     ?Subroutine14                     6
     ?Subroutine13                    14
     I2C_Stop_1                       25
     ?Subroutine3                      6
     ?Subroutine11                    11
     Sendack                          45
     ?Subroutine16                     6
     I2C_Check_ack                    36
     ?Subroutine2                      8
     WriteI2CByte_1                   51
     ReadI2CByte_1                    60
     Single_Write_ADXL345             23
     ?Subroutine4                      9
     ?Subroutine12                     9
     Single_Read_ADXL345              30
     ?Subroutine8                      9
     Init_ADXL345                     59
     Multiple_Read_ADXL345            69
     ?Subroutine6                     15
     displayXYZ                      231
     ?Subroutine10                    10
     ?Subroutine9                     14
     ?Subroutine0                     23
     ?<Initializer for <Constant "X: -">>
                                       5
     ?<Initializer for <Constant "X:  ">>
                                       5
     ?<Initializer for <Constant "Y: -">>
                                       5
     ?<Initializer for <Constant "Y:  ">>
                                       5
     ?<Initializer for <Constant "Z: -">>
                                       5
     ?<Initializer for <Constant "Z:  ">>
                                       5
     ?<Initializer for __Constant_4079999a>
                                       4
     ??Delay?relay                     6
     ??Delay_1u?relay                  6
     ??conversion?relay                6
     ??I2C_Start_1?relay               6
     ??I2C_Stop_1?relay                6
     ??Sendack?relay                   6
     ??I2C_Check_ack?relay             6
     ??WriteI2CByte_1?relay            6
     ??ReadI2CByte_1?relay             6
     ??Single_Write_ADXL345?relay      6
     ??Single_Read_ADXL345?relay       6
     ??Init_ADXL345?relay              6
     ??Multiple_Read_ADXL345?relay     6
     ??displayXYZ?relay                6
     ?<Constant "X: -">                5
     ?<Constant "X:  ">                5
     ?<Constant "Y: -">                5
     ?<Constant "Y:  ">                5
     ?<Constant "Z: -">                5
     ?<Constant "Z:  ">                5
     __Constant_4079999a               4

 
 1 102 bytes in segment BANKED_CODE
    84 bytes in segment BANK_RELAYS
     2 bytes in segment SFR_AN
    34 bytes in segment XDATA_I
    34 bytes in segment XDATA_ID
    15 bytes in segment XDATA_Z
 
 1 216 bytes of CODE  memory (+ 4 bytes shared)
     0 bytes of DATA  memory (+ 2 bytes shared)
    45 bytes of XDATA memory (+ 4 bytes shared)

Errors: none
Warnings: none
