###############################################################################
#                                                                             #
# IAR 8051 C/C++ Compiler V7.30B/W32                    06/Jan/2013  20:30:32 #
# Copyright 2004-2007 IAR Systems. All rights reserved.                       #
#                                                                             #
#    Core               =  plain                                              #
#    Code model         =  banked                                             #
#    Data model         =  large                                              #
#    Calling convention =  xdata reentrant                                    #
#    Constant location  =  data                                               #
#    Dptr setup         =  1,16                                               #
#    Source file        =  C:\Texas Instruments\ZStack-1.4.3-1.2.1\Projects\z #
#                          stack\Samples\AXDApp\Source\AXD.c                  #
#    Command line       =  -f "C:\Texas Instruments\ZStack-1.4.3-1.2.1\Projec #
#                          ts\zstack\Samples\AXDApp\CC2430DB\..\..\..\Tools\C #
#                          C2430DB\f8wRouter.cfg" (-DCPU32MHZ                 #
#                          -DFORCE_MAC_NEAR -DROOT=__near_func                #
#                          -DMAC_CFG_APP_PENDING_QUEUE=TRUE -DRTR_NWK         #
#                          -DBLINK_LEDS "-DCONST=const __code"                #
#                          -DGENERIC=__generic) -f "C:\Texas                  #
#                          Instruments\ZStack-1.4.3-1.2.1\Projects\zstack\Sam #
#                          ples\AXDApp\CC2430DB\..\..\..\Tools\CC2430DB\f8wCo #
#                          nfig.cfg" (-DSECURE=0 -DDEFAULT_CHANLIST=0x0000080 #
#                          0 -DZDAPP_CONFIG_PAN_ID=0xFFFF                     #
#                          -DNWK_START_DELAY=100 -DEXTENDED_JOINING_RANDOM_MA #
#                          SK=0x007F -DBEACON_REQUEST_DELAY=100               #
#                          -DBEACON_REQ_DELAY_MASK=0x00FF                     #
#                          -DROUTE_EXPIRY_TIME=30 -DAPSC_ACK_WAIT_DURATION_PO #
#                          LLED=3000 -DNWK_INDIRECT_MSG_TIMEOUT=7             #
#                          -DMAX_RREQ_ENTRIES=10 -DAPSC_MAX_FRAME_RETRIES=3   #
#                          -DNWK_MAX_DATA_RETRIES=2                           #
#                          -DMAX_POLL_FAILURE_RETRIES=2 -DMAX_BCAST=9         #
#                          -DAPS_MAX_GROUPS=16 -DMAX_RTG_ENTRIES=20           #
#                          -DNWK_MAX_BINDING_ENTRIES=10                       #
#                          -DMAX_BINDING_CLUSTER_IDS=5 "-DDEFAULT_KEY={0x01,  #
#                          0x03, 0x05, 0x07, 0x09, 0x0B, 0x0D, 0x0F, 0x00,    #
#                          0x02, 0x04, 0x06, 0x08, 0x0A, 0x0C, 0x0D}"         #
#                          -DRFD_RCVC_ALWAYS_ON=FALSE -DPOLL_RATE=1000        #
#                          -DQUEUED_POLL_RATE=100 -DRESPONSE_POLL_RATE=100)   #
#                          -DREJOIN_POLL_RATE=440 "C:\Texas                   #
#                          Instruments\ZStack-1.4.3-1.2.1\Projects\zstack\Sam #
#                          ples\AXDApp\Source\AXD.c" -D CC2430EB -D           #
#                          AXD_ROUTER -D REFLECTOR -D ZTOOL_P1 -D MT_TASK -D  #
#                          xMT_ZDO_FUNC -D xLCD_SUPPORTED=DEBUG -lC           #
#                          "C:\Texas Instruments\ZStack-1.4.3-1.2.1\Projects\ #
#                          zstack\Samples\AXDApp\CC2430DB\RouterEB\List\"     #
#                          -lA "C:\Texas Instruments\ZStack-1.4.3-1.2.1\Proje #
#                          cts\zstack\Samples\AXDApp\CC2430DB\RouterEB\List\" #
#                           --diag_suppress Pe001,Pa010 --diag_remark pe550   #
#                          -o "C:\Texas Instruments\ZStack-1.4.3-1.2.1\Projec #
#                          ts\zstack\Samples\AXDApp\CC2430DB\RouterEB\Obj\"   #
#                          -e --require_prototypes -z9 --no_code_motion       #
#                          --debug --core=plain --dptr=16,1                   #
#                          --data_model=large --code_model=banked             #
#                          --calling_convention=xdata_reentrant               #
#                          --place_constants=data --nr_virtual_regs 8 -I      #
#                          "C:\Texas Instruments\ZStack-1.4.3-1.2.1\Projects\ #
#                          zstack\Samples\AXDApp\CC2430DB\" -I "C:\Texas      #
#                          Instruments\ZStack-1.4.3-1.2.1\Projects\zstack\Sam #
#                          ples\AXDApp\CC2430DB\..\SOURCE\" -I "C:\Texas      #
#                          Instruments\ZStack-1.4.3-1.2.1\Projects\zstack\Sam #
#                          ples\AXDApp\CC2430DB\..\Drivers\" -I "C:\Texas     #
#                          Instruments\ZStack-1.4.3-1.2.1\Projects\zstack\Sam #
#                          ples\AXDApp\CC2430DB\..\..\..\ZMAIN\TI2430DB\" -I  #
#                          "C:\Texas Instruments\ZStack-1.4.3-1.2.1\Projects\ #
#                          zstack\Samples\AXDApp\CC2430DB\..\..\..\..\..\COMP #
#                          ONENTS\MT\" -I "C:\Texas                           #
#                          Instruments\ZStack-1.4.3-1.2.1\Projects\zstack\Sam #
#                          ples\AXDApp\CC2430DB\..\..\..\..\..\COMPONENTS\HAL #
#                          \INCLUDE\" -I "C:\Texas Instruments\ZStack-1.4.3-1 #
#                          .2.1\Projects\zstack\Samples\AXDApp\CC2430DB\..\.. #
#                          \..\..\..\COMPONENTS\HAL\TARGET\CC2430EB\" -I      #
#                          "C:\Texas Instruments\ZStack-1.4.3-1.2.1\Projects\ #
#                          zstack\Samples\AXDApp\CC2430DB\..\..\..\..\..\COMP #
#                          ONENTS\OSAL\MCU\CCSOC\" -I "C:\Texas               #
#                          Instruments\ZStack-1.4.3-1.2.1\Projects\zstack\Sam #
#                          ples\AXDApp\CC2430DB\..\..\..\..\..\COMPONENTS\OSA #
#                          L\INCLUDE\" -I "C:\Texas                           #
#                          Instruments\ZStack-1.4.3-1.2.1\Projects\zstack\Sam #
#                          ples\AXDApp\CC2430DB\..\..\..\..\..\COMPONENTS\STA #
#                          CK\AF\" -I "C:\Texas Instruments\ZStack-1.4.3-1.2. #
#                          1\Projects\zstack\Samples\AXDApp\CC2430DB\..\..\.. #
#                          \..\..\COMPONENTS\STACK\NWK\" -I "C:\Texas         #
#                          Instruments\ZStack-1.4.3-1.2.1\Projects\zstack\Sam #
#                          ples\AXDApp\CC2430DB\..\..\..\..\..\COMPONENTS\STA #
#                          CK\SEC\" -I "C:\Texas Instruments\ZStack-1.4.3-1.2 #
#                          .1\Projects\zstack\Samples\AXDApp\CC2430DB\..\..\. #
#                          .\..\..\COMPONENTS\STACK\SYS\" -I "C:\Texas        #
#                          Instruments\ZStack-1.4.3-1.2.1\Projects\zstack\Sam #
#                          ples\AXDApp\CC2430DB\..\..\..\..\..\COMPONENTS\STA #
#                          CK\ZDO\" -I "C:\Texas Instruments\ZStack-1.4.3-1.2 #
#                          .1\Projects\zstack\Samples\AXDApp\CC2430DB\..\..\. #
#                          .\..\..\COMPONENTS\ZMAC\F8W\" -I "C:\Texas         #
#                          Instruments\ZStack-1.4.3-1.2.1\Projects\zstack\Sam #
#                          ples\AXDApp\CC2430DB\..\..\..\..\..\COMPONENTS\ZMA #
#                          C\" -I "C:\Texas Instruments\ZStack-1.4.3-1.2.1\Pr #
#                          ojects\zstack\Samples\AXDApp\CC2430DB\..\..\..\..\ #
#                          ..\COMPONENTS\SERVICES\SADDR\" -I "C:\Texas        #
#                          Instruments\ZStack-1.4.3-1.2.1\Projects\zstack\Sam #
#                          ples\AXDApp\CC2430DB\..\..\..\..\..\COMPONENTS\SER #
#                          VICES\SDATA\" -I "C:\Texas                         #
#                          Instruments\ZStack-1.4.3-1.2.1\Projects\zstack\Sam #
#                          ples\AXDApp\CC2430DB\..\..\..\..\..\COMPONENTS\MAC #
#                          \INCLUDE\" -I "C:\Texas Instruments\ZStack-1.4.3-1 #
#                          .2.1\Projects\zstack\Samples\AXDApp\CC2430DB\..\.. #
#                          \..\..\..\COMPONENTS\MAC\HIGH_LEVEL\" -I           #
#                          "C:\Texas Instruments\ZStack-1.4.3-1.2.1\Projects\ #
#                          zstack\Samples\AXDApp\CC2430DB\..\..\..\..\..\COMP #
#                          ONENTS\MAC\LOW_LEVEL\SRF03\" -I "C:\Texas          #
#                          Instruments\ZStack-1.4.3-1.2.1\Projects\zstack\Sam #
#                          ples\AXDApp\CC2430DB\..\..\..\..\..\COMPONENTS\MAC #
#                          \LOW_LEVEL\SRF03\SINGLE_CHIP\" -I "C:\Program      #
#                          Files\IAR Systems\Embedded Workbench 4.0           #
#                          Evaluation version\8051\INC\" -I "C:\Program       #
#                          Files\IAR Systems\Embedded Workbench 4.0           #
#                          Evaluation version\8051\INC\CLIB\"                 #
#    List file          =  C:\Texas Instruments\ZStack-1.4.3-1.2.1\Projects\z #
#                          stack\Samples\AXDApp\CC2430DB\RouterEB\List\AXD.ls #
#                          t                                                  #
#    Object file        =  C:\Texas Instruments\ZStack-1.4.3-1.2.1\Projects\z #
#                          stack\Samples\AXDApp\CC2430DB\RouterEB\Obj\AXD.r51 #
#                                                                             #
#                                                                             #
###############################################################################

C:\Texas Instruments\ZStack-1.4.3-1.2.1\Projects\zstack\Samples\AXDApp\Source\AXD.c
      1          /**************************************************************************************************
      2            Filename:       AXD.c
      3            Revised:        $Date: 2007-10-27 17:16:54 -0700 (Sat, 27 Oct 2007) $
      4            Revision:       $Revision: 15793 $
      5          
      6            Description:    Generic Application (no Profile).
      7          
      8          
      9            Copyright 2004-2007 Texas Instruments Incorporated. All rights reserved.
     10          
     11            IMPORTANT: Your use of this Software is limited to those specific rights
     12            granted under the terms of a software license agreement between the user
     13            who downloaded the software, his/her employer (which must be your employer)
     14            and Texas Instruments Incorporated (the "License").  You may not use this
     15            Software unless you agree to abide by the terms of the License. The License
     16            limits your use, and you acknowledge, that the Software may not be modified,
     17            copied or distributed unless embedded on a Texas Instruments microcontroller
     18            or used solely and exclusively in conjunction with a Texas Instruments radio
     19            frequency transceiver, which is integrated into your product.  Other than for
     20            the foregoing purpose, you may not use, reproduce, copy, prepare derivative
     21            works of, modify, distribute, perform, display or sell this Software and/or
     22            its documentation for any purpose.
     23          
     24            YOU FURTHER ACKNOWLEDGE AND AGREE THAT THE SOFTWARE AND DOCUMENTATION ARE
     25            PROVIDED AS IS?WITHOUT WARRANTY OF ANY KIND, EITHER EXPRESS OR IMPLIED, 
     26            INCLUDING WITHOUT LIMITATION, ANY WARRANTY OF MERCHANTABILITY, TITLE, 
     27            NON-INFRINGEMENT AND FITNESS FOR A PARTICULAR PURPOSE. IN NO EVENT SHALL
     28            TEXAS INSTRUMENTS OR ITS LICENSORS BE LIABLE OR OBLIGATED UNDER CONTRACT,
     29            NEGLIGENCE, STRICT LIABILITY, CONTRIBUTION, BREACH OF WARRANTY, OR OTHER
     30            LEGAL EQUITABLE THEORY ANY DIRECT OR INDIRECT DAMAGES OR EXPENSES
     31            INCLUDING BUT NOT LIMITED TO ANY INCIDENTAL, SPECIAL, INDIRECT, PUNITIVE
     32            OR CONSEQUENTIAL DAMAGES, LOST PROFITS OR LOST DATA, COST OF PROCUREMENT
     33            OF SUBSTITUTE GOODS, TECHNOLOGY, SERVICES, OR ANY CLAIMS BY THIRD PARTIES
     34            (INCLUDING BUT NOT LIMITED TO ANY DEFENSE THEREOF), OR OTHER SIMILAR COSTS.
     35          
     36            Should you have any questions regarding your right to use this Software,
     37            contact Texas Instruments Incorporated at www.TI.com. 
     38          **************************************************************************************************/
     39          
     40          /*********************************************************************
     41            This application isn't intended to do anything useful, it is
     42            intended to be a simple example of an application's structure.
     43          
     44            This application sends "Hello World" to another "Generic"
     45            application every 15 seconds.  The application will also
     46            receive "Hello World" packets.
     47          
     48            The "Hello World" messages are sent/received as MSG type message.
     49          
     50            This applications doesn't have a profile, so it handles everything
     51            directly - itself.
     52          
     53            Key control:
     54              SW1:
     55              SW2:  initiates end device binding
     56              SW3:
     57              SW4:  initiates a match description request
     58          *********************************************************************/
     59          
     60          /*********************************************************************
     61           * INCLUDES
     62           */
     63          #include "OSAL.h"
     64          #include "AF.h"
     65          #include "ZDApp.h"
     66          #include "ZDObject.h"
     67          #include "ZDProfile.h"
     68          #include "aps_groups.h"
     69          
     70          #include "AXD.h"
     71          #include "DebugTrace.h"
     72          
     73          #if !defined( WIN32 )
     74            #include "OnBoard.h"
     75          #endif
     76          
     77          /* HAL */
     78          #include "hal_lcd.h"
     79          #include "hal_led.h"
     80          #include "hal_key.h"
     81          #include "hal_uart.h"
     82          
     83          /*用户自己的头文件*/
     84          #include "adxl345.h"
     85          #include "readaxd.h"
     86          
     87          /*********************************************************************
     88           * MACROS
     89           */

   \                                 In  segment XDATA_Z, align 1, keep-with-next
     90          uint16 test2 = 0;
   \                     test2:
   \   000000                DS 2
   \   000002                REQUIRE __INIT_XDATA_Z
     91          
     92          /*********************************************************************
     93           * CONSTANTS
     94           */
     95          #define ZB_USER_EVENTS                    0x00FF
     96          
     97          /*********************************************************************
     98           * TYPEDEFS
     99           */
    100          
    101          /*********************************************************************
    102           * GLOBAL VARIABLES
    103           */

   \                                 In  segment XDATA_Z, align 1, keep-with-next
    104          aps_Group_t AXD_Group;
   \                     AXD_Group:
   \   000000                DS 18
   \   000012                REQUIRE __INIT_XDATA_Z
    105          
    106          // This list should be filled with Application specific Cluster IDs.

   \                                 In  segment XDATA_I, align 1, keep-with-next
    107          const cId_t AXD_ClusterList[AXD_MAX_CLUSTERS] =
   \                     AXD_ClusterList:
   \   000000                DS 6
   \   000006                REQUIRE `?<Initializer for AXD_ClusterList>`
   \   000006                REQUIRE __INIT_XDATA_I
    108          {
    109            AXD_CLUSTERID,
    110            AXD_TEST_CLUSTERID
    111          };
    112          

   \                                 In  segment XDATA_I, align 1, keep-with-next
    113          const SimpleDescriptionFormat_t AXD_SimpleDesc =
   \                     AXD_SimpleDesc:
   \   000000                DS 12
   \   00000C                REQUIRE `?<Initializer for AXD_SimpleDesc>`
   \   00000C                REQUIRE __INIT_XDATA_I
    114          {
    115            AXD_ENDPOINT,              //  int Endpoint;
    116            AXD_PROFID,                //  uint16 AppProfId[2];
    117            AXD_DEVICEID,              //  uint16 AppDeviceId[2];
    118            AXD_DEVICE_VERSION,        //  int   AppDevVer:4;
    119            AXD_FLAGS,                 //  int   AppFlags:4;
    120            AXD_MAX_CLUSTERS,          //  byte  AppNumInClusters;
    121            (cId_t *)AXD_ClusterList,  //  byte *pAppInClusterList;
    122            AXD_MAX_CLUSTERS,          //  byte  AppNumInClusters;
    123            (cId_t *)AXD_ClusterList   //  byte *pAppInClusterList;
    124          };
    125          
    126          // This is the Endpoint/Interface description.  It is defined here, but
    127          // filled-in in AXD_Init().  Another way to go would be to fill
    128          // in the structure here and make it a "const" (in code space).  The
    129          // way it's defined in this sample app it is define in RAM.

   \                                 In  segment XDATA_Z, align 1, keep-with-next
    130          endPointDesc_t AXD_epDesc;
   \                     AXD_epDesc:
   \   000000                DS 6
   \   000006                REQUIRE __INIT_XDATA_Z
    131          
    132          /*********************************************************************
    133           * EXTERNAL VARIABLES
    134           */
    135          //char TEMP[8] = {0,0,0,0,0,0,0,0};
    136          /*********************************************************************
    137           * EXTERNAL FUNCTIONS
    138           */
    139          
    140          /*********************************************************************
    141           * LOCAL VARIABLES
    142           */

   \                                 In  segment XDATA_Z, align 1, keep-with-next
    143          byte AXD_TaskID;   // Task ID for internal task/event processing
   \                     AXD_TaskID:
   \   000000                DS 1
   \   000001                REQUIRE __INIT_XDATA_Z
    144                                    // This variable will be received when
    145                                    // AXD_Init() is called.

   \                                 In  segment XDATA_Z, align 1, keep-with-next
    146          devStates_t AXD_NwkState;
   \                     AXD_NwkState:
   \   000000                DS 1
   \   000001                REQUIRE __INIT_XDATA_Z
    147          
    148          

   \                                 In  segment XDATA_Z, align 1, keep-with-next
    149          byte AXD_TransID;  // This is the unique message ID (counter)
   \                     AXD_TransID:
   \   000000                DS 1
   \   000001                REQUIRE __INIT_XDATA_Z
    150          //byte AXD_TransID2;
    151          

   \                                 In  segment XDATA_Z, align 1, keep-with-next
    152          afAddrType_t AXD_DstAddr;
   \                     AXD_DstAddr:
   \   000000                DS 4
   \   000004                REQUIRE __INIT_XDATA_Z
    153          
    154          /*********************************************************************
    155           * LOCAL FUNCTIONS
    156           */
    157          void AXD_ProcessZDOMsgs( zdoIncomingMsg_t *inMsg );
    158          void AXD_HandleKeys( byte shift, byte keys );
    159          void AXD_MessageMSGCB( afIncomingMSGPacket_t *pckt );
    160          void AXD_SendTheMessage( void );
    161          
    162          /*********************************************************************
    163           * NETWORK LAYER CALLBACKS
    164           */
    165          
    166          /*********************************************************************
    167           * PUBLIC FUNCTIONS
    168           */
    169          
    170          /*********************************************************************
    171           * @fn      AXD_Init
    172           *
    173           * @brief   Initialization function for the Generic App Task.
    174           *          This is called during initialization and should contain
    175           *          any application specific initialization (ie. hardware
    176           *          initialization/setup, table initialization, power up
    177           *          notificaiton ... ).
    178           *
    179           * @param   task_id - the ID assigned by OSAL.  This ID should be
    180           *                    used to send messages and set timers.
    181           *
    182           * @return  none
    183           */

   \                                 In  segment BANKED_CODE, align 1, keep-with-next
    184          void AXD_Init( byte task_id )
   \                     AXD_Init:
    185          {
   \   000000   C082         PUSH    DPL
   \   000002   C083         PUSH    DPH
   \   000004                ; Saved register size: 2
   \   000004                ; Auto size: 0
    186            AXD_TaskID = task_id;
   \   000004   E9           MOV     A,R1
   \   000005   90....       MOV     DPTR,#AXD_TaskID
   \   000008   F0           MOVX    @DPTR,A
    187            AXD_NwkState = DEV_INIT;
   \   000009   7401         MOV     A,#0x1
   \   00000B   90....       MOV     DPTR,#AXD_NwkState
   \   00000E   F0           MOVX    @DPTR,A
    188            AXD_TransID = 0;
   \   00000F   E4           CLR     A
   \   000010   90....       MOV     DPTR,#AXD_TransID
   \   000013   F0           MOVX    @DPTR,A
    189          //  AXD_TransID2 = 1;
    190          
    191            // Device hardware initialization can be added here or in main() (Zmain.c).
    192            // If the hardware is application specific - add it here.
    193            // If the hardware is other parts of the device add it in main().
    194          
    195            AXD_DstAddr.addrMode = (afAddrMode_t)AddrNotPresent;
   \   000014   90....       MOV     DPTR,#(AXD_DstAddr + 2)
   \   000017   F0           MOVX    @DPTR,A
    196            AXD_DstAddr.endPoint = 0;
   \   000018   90....       MOV     DPTR,#(AXD_DstAddr + 3)
   \   00001B   F0           MOVX    @DPTR,A
    197            AXD_DstAddr.addr.shortAddr = 0;
   \   00001C   90....       MOV     DPTR,#AXD_DstAddr
   \   00001F   F0           MOVX    @DPTR,A
   \   000020   A3           INC     DPTR
   \   000021   F0           MOVX    @DPTR,A
    198          
    199            // Fill out the endpoint description.
    200            AXD_epDesc.endPoint = AXD_ENDPOINT;
   \   000022   740A         MOV     A,#0xa
   \   000024   90....       MOV     DPTR,#AXD_epDesc
   \   000027   F0           MOVX    @DPTR,A
    201            AXD_epDesc.task_id = &AXD_TaskID;
   \   000028   90....       MOV     DPTR,#(AXD_epDesc + 1)
   \   00002B   74..         MOV     A,#(AXD_TaskID & 0xff)
   \   00002D   F0           MOVX    @DPTR,A
   \   00002E   A3           INC     DPTR
   \   00002F   74..         MOV     A,#((AXD_TaskID >> 8) & 0xff)
   \   000031   F0           MOVX    @DPTR,A
    202            AXD_epDesc.simpleDesc
    203                      = (SimpleDescriptionFormat_t *)&AXD_SimpleDesc;
   \   000032   90....       MOV     DPTR,#(AXD_epDesc + 3)
   \   000035   74..         MOV     A,#(AXD_SimpleDesc & 0xff)
   \   000037   F0           MOVX    @DPTR,A
   \   000038   A3           INC     DPTR
   \   000039   74..         MOV     A,#((AXD_SimpleDesc >> 8) & 0xff)
   \   00003B   F0           MOVX    @DPTR,A
    204            AXD_epDesc.latencyReq = noLatencyReqs;
   \   00003C   E4           CLR     A
   \   00003D   90....       MOV     DPTR,#(AXD_epDesc + 5)
   \   000040   F0           MOVX    @DPTR,A
    205          
    206            // Register the endpoint description with the AF
    207            afRegister( &AXD_epDesc );
   \   000041                ; Setup parameters for call to function afRegister
   \   000041   7A..         MOV     R2,#(AXD_epDesc & 0xff)
   \   000043   7B..         MOV     R3,#((AXD_epDesc >> 8) & 0xff)
   \   000045   12....       LCALL   ??afRegister?relay
    208          
    209            // Register for all key events - This app will handle all key events
    210            RegisterForKeys( AXD_TaskID );
   \   000048                ; Setup parameters for call to function RegisterForKeys
   \   000048   90....       MOV     DPTR,#AXD_TaskID
   \   00004B   E0           MOVX    A,@DPTR
   \   00004C   F9           MOV     R1,A
   \   00004D   12....       LCALL   ??RegisterForKeys?relay
    211          
    212            // Update the display
    213          #if defined ( LCD_SUPPORTED )
    214              HalLcdWriteString( "AXD", HAL_LCD_LINE_1 );
    215          #endif
    216          
    217            ZDO_RegisterForZDOMsg( AXD_TaskID, End_Device_Bind_rsp );
   \   000050                ; Setup parameters for call to function ZDO_RegisterForZDOMsg
   \   000050   7A20         MOV     R2,#0x20
   \   000052   7B80         MOV     R3,#-0x80
   \   000054   90....       MOV     DPTR,#AXD_TaskID
   \   000057   E0           MOVX    A,@DPTR
   \   000058   F9           MOV     R1,A
   \   000059   12....       LCALL   ??ZDO_RegisterForZDOMsg?relay
    218            ZDO_RegisterForZDOMsg( AXD_TaskID, Match_Desc_rsp );
   \   00005C                ; Setup parameters for call to function ZDO_RegisterForZDOMsg
   \   00005C   7A06         MOV     R2,#0x6
   \   00005E   7B80         MOV     R3,#-0x80
   \   000060   90....       MOV     DPTR,#AXD_TaskID
   \   000063   E0           MOVX    A,@DPTR
   \   000064   F9           MOV     R1,A
   \   000065   12....       LCALL   ??ZDO_RegisterForZDOMsg?relay
    219            
    220            AXD_Group.ID = AXD_GROUP;
   \   000068   90....       MOV     DPTR,#AXD_Group
   \   00006B   7401         MOV     A,#0x1
   \   00006D   F0           MOVX    @DPTR,A
   \   00006E   A3           INC     DPTR
   \   00006F   E4           CLR     A
   \   000070   F0           MOVX    @DPTR,A
    221            aps_AddGroup(AXD_ENDPOINT,&AXD_Group);
   \   000071                ; Setup parameters for call to function aps_AddGroup
   \   000071   7A..         MOV     R2,#(AXD_Group & 0xff)
   \   000073   7B..         MOV     R3,#((AXD_Group >> 8) & 0xff)
   \   000075   790A         MOV     R1,#0xa
   \   000077   12....       LCALL   ??aps_AddGroup?relay
    222            //下面是用户自定义的初始化
    223          #ifdef AXD_END
    224            Init_ADXL345();
    225          #endif
    226          }
   \   00007A   D083         POP     DPH
   \   00007C   D082         POP     DPL
   \   00007E   02....       LJMP    ?BRET
    227          
    228          /*********************************************************************
    229           * @fn      AXD_ProcessEvent
    230           *
    231           * @brief   Generic Application Task event processor.  This function
    232           *          is called to process all events for the task.  Events
    233           *          include timers, messages and any other user defined events.
    234           *
    235           * @param   task_id  - The OSAL assigned task ID.
    236           * @param   events - events to process.  This is a bit map and can
    237           *                   contain more than one event.
    238           *
    239           * @return  none
    240           */

   \                                 In  segment BANKED_CODE, align 1, keep-with-next
    241          UINT16 AXD_ProcessEvent( byte task_id, UINT16 events )
   \                     AXD_ProcessEvent:
    242          {
   \   000000   74F4         MOV     A,#-0xc
   \   000002   12....       LCALL   ?BANKED_ENTER_XDATA
   \   000005                ; Saved register size: 12
   \   000005                ; Auto size: 0
   \   000005   EA           MOV     A,R2
   \   000006   FE           MOV     R6,A
   \   000007   EB           MOV     A,R3
   \   000008   FF           MOV     R7,A
    243            afIncomingMSGPacket_t *MSGpkt;
    244          //  osal_event_hdr_t *pMsg;
    245            afDataConfirm_t *afDataConfirm;
    246          
    247            // Data Confirmation message fields
    248            byte sentEP;
    249            ZStatus_t sentStatus;
    250            byte sentTransID;       // This should match the value sent
    251          
    252            if ( events & SYS_EVENT_MSG )
   \   000009   7480         MOV     A,#-0x80
   \   00000B   5F           ANL     A,R7
   \   00000C   F9           MOV     R1,A
   \   00000D   E4           CLR     A
   \   00000E   7001         JNZ     ??AXD_ProcessEvent_0
   \   000010   E9           MOV     A,R1
   \                     ??AXD_ProcessEvent_0:
   \   000011   7003         JNZ     $+5
   \   000013   02....       LJMP    ??AXD_ProcessEvent_1 & 0xFFFF
    253            {
    254              MSGpkt = (afIncomingMSGPacket_t *)osal_msg_receive( AXD_TaskID );
   \   000016                ; Setup parameters for call to function osal_msg_receive
   \   000016   8031         SJMP    ??AXD_ProcessEvent_2
    255              while ( MSGpkt )
    256              {
    257                switch ( MSGpkt->hdr.event )
    258                {
    259                  case ZDO_CB_MSG:
    260                    AXD_ProcessZDOMsgs( (zdoIncomingMsg_t *)MSGpkt );
    261                    break;
    262          
    263                  case KEY_CHANGE:
    264                    AXD_HandleKeys( ((keyChange_t *)MSGpkt)->state, ((keyChange_t *)MSGpkt)->keys );
    265                    break;
    266          
    267                  case AF_DATA_CONFIRM_CMD:
    268                    // This message is received as a confirmation of a data packet sent.
    269                    // The status is of ZStatus_t type [defined in ZComDef.h]
    270                    // The message fields are defined in AF.h
    271                    afDataConfirm = (afDataConfirm_t *)MSGpkt;
    272                    sentEP = afDataConfirm->endpoint;
    273                    sentStatus = afDataConfirm->hdr.status;
    274                    sentTransID = afDataConfirm->transID;
    275                    (void)sentEP;
    276                    (void)sentTransID;
    277          
    278                    // Action taken when confirmation is received.
    279                    if ( sentStatus != ZSuccess )
    280                    {
    281                      // The data wasn't delivered -- Do something
    282                    }
    283                    break;
    284          
    285                  case AF_INCOMING_MSG_CMD:
    286              //      MSGpkt = (afIncomingMSGPacket_t *) pMsg;
    287          #ifdef AXD_COR
    288                    //AXD_ReceiveDataIndication( MSGpkt->srcAddr.addr.shortAddr, MSGpkt->clusterId,
    289                    //                          MSGpkt->cmd.DataLength, MSGpkt->cmd.Data);
    290                    AXD_MessageMSGCB( MSGpkt );
    291          #endif
    292                    break;
    293          
    294                  case ZDO_STATE_CHANGE:
    295                    AXD_NwkState = (devStates_t)(MSGpkt->hdr.status);
   \                     ??AXD_ProcessEvent_3:
   \   000018   85..82       MOV     DPL,?V0 + 0
   \   00001B   85..83       MOV     DPH,?V0 + 1
   \   00001E   A3           INC     DPTR
   \   00001F   E0           MOVX    A,@DPTR
   \   000020   90....       MOV     DPTR,#AXD_NwkState
   \   000023   F0           MOVX    @DPTR,A
    296                    if ( (AXD_NwkState == DEV_ZB_COORD)
    297                        || (AXD_NwkState == DEV_ROUTER)
    298                        || (AXD_NwkState == DEV_END_DEVICE) )
   \   000024   6409         XRL     A,#0x9
   \   000026   600A         JZ      ??AXD_ProcessEvent_4
   \   000028   E0           MOVX    A,@DPTR
   \   000029   6407         XRL     A,#0x7
   \   00002B   6005         JZ      ??AXD_ProcessEvent_4
   \   00002D   E0           MOVX    A,@DPTR
   \   00002E   6406         XRL     A,#0x6
   \   000030   7010         JNZ     ??AXD_ProcessEvent_5
    299                    {
    300                      // Start sending "the" message in a regular interval.
    301                      osal_start_timerEx( AXD_TaskID,
    302                                          AXD_SEND_MSG_EVT,
    303                                          AXD_SEND_MSG_TIMEOUT );
   \                     ??AXD_ProcessEvent_4:
   \   000032                ; Setup parameters for call to function osal_start_timerEx
   \   000032   7C88         MOV     R4,#-0x78
   \   000034   7D13         MOV     R5,#0x13
   \   000036   7A01         MOV     R2,#0x1
   \   000038   7B00         MOV     R3,#0x0
   \   00003A   90....       MOV     DPTR,#AXD_TaskID
   \   00003D   E0           MOVX    A,@DPTR
   \   00003E   F9           MOV     R1,A
   \   00003F   12....       LCALL   ??osal_start_timerEx?relay
    304                    }
    305                    break;
    306          
    307                  default:
    308                    break;
    309                }
    310          
    311                // Release the memory
    312                osal_msg_deallocate( (uint8 *)MSGpkt );
   \                     ??AXD_ProcessEvent_5:
   \   000042                ; Setup parameters for call to function osal_msg_deallocate
   \   000042   AA..         MOV     R2,?V0 + 0
   \   000044   AB..         MOV     R3,?V0 + 1
   \   000046   12....       LCALL   ??osal_msg_deallocate?relay
    313          
    314                // Next
    315                MSGpkt = (afIncomingMSGPacket_t *)osal_msg_receive( AXD_TaskID );
   \   000049                ; Setup parameters for call to function osal_msg_receive
   \                     ??AXD_ProcessEvent_2:
   \   000049   90....       MOV     DPTR,#AXD_TaskID
   \   00004C   E0           MOVX    A,@DPTR
   \   00004D   F9           MOV     R1,A
   \   00004E   12....       LCALL   ??osal_msg_receive?relay
   \   000051   8A..         MOV     ?V0 + 0,R2
   \   000053   8B..         MOV     ?V0 + 1,R3
   \   000055   E5..         MOV     A,?V0 + 0
   \   000057   7002         JNZ     ??AXD_ProcessEvent_6
   \   000059   E5..         MOV     A,?V0 + 1
   \                     ??AXD_ProcessEvent_6:
   \   00005B   603A         JZ      ??AXD_ProcessEvent_7
   \   00005D   85..82       MOV     DPL,?V0 + 0
   \   000060   85..83       MOV     DPH,?V0 + 1
   \   000063   E0           MOVX    A,@DPTR
   \   000064   12....       LCALL   ?UC_SWITCH_SPARSE
   \                     `?<Jumptable for AXD_ProcessEvent>_0`:
   \   000067   00           DB        0
   \   000068   03           DB        3
   \   000069   C0           DB        192
   \   00006A   ....         DW        ??AXD_ProcessEvent_8
   \   00006C   D1           DB        209
   \   00006D   ....         DW        ??AXD_ProcessEvent_3
   \   00006F   D3           DB        211
   \   000070   ....         DW        ??AXD_ProcessEvent_9
   \   000072   ....         DW        ??AXD_ProcessEvent_5
   \                     ??AXD_ProcessEvent_9:
   \   000074                ; Setup parameters for call to function AXD_ProcessZDOMsgs
   \   000074   AA..         MOV     R2,?V0 + 0
   \   000076   AB..         MOV     R3,?V0 + 1
   \   000078   12....       LCALL   ??AXD_ProcessZDOMsgs?relay
   \   00007B   80C5         SJMP    ??AXD_ProcessEvent_5
   \                     ??AXD_ProcessEvent_8:
   \   00007D                ; Setup parameters for call to function AXD_HandleKeys
   \   00007D   85..82       MOV     DPL,?V0 + 0
   \   000080   85..83       MOV     DPH,?V0 + 1
   \   000083   A3           INC     DPTR
   \   000084   A3           INC     DPTR
   \   000085   A3           INC     DPTR
   \   000086   E0           MOVX    A,@DPTR
   \   000087   FA           MOV     R2,A
   \   000088   85..82       MOV     DPL,?V0 + 0
   \   00008B   85..83       MOV     DPH,?V0 + 1
   \   00008E   A3           INC     DPTR
   \   00008F   A3           INC     DPTR
   \   000090   E0           MOVX    A,@DPTR
   \   000091   F9           MOV     R1,A
   \   000092   12....       LCALL   ??AXD_HandleKeys?relay
   \   000095   80AB         SJMP    ??AXD_ProcessEvent_5
    316              }
    317          
    318              // return unprocessed events
    319              return (events ^ SYS_EVENT_MSG);
   \                     ??AXD_ProcessEvent_7:
   \   000097   EE           MOV     A,R6
   \   000098   FA           MOV     R2,A
   \   000099   7480         MOV     A,#-0x80
   \   00009B   6F           XRL     A,R7
   \                     ??AXD_ProcessEvent_10:
   \   00009C   FB           MOV     R3,A
   \   00009D   8034         SJMP    ??AXD_ProcessEvent_11
    320            }
    321          
    322            // Send a message out - This event is generated by a timer
    323            //  (setup in AXD_Init()).
    324            if ( events & AXD_SEND_MSG_EVT )
   \                     ??AXD_ProcessEvent_1:
   \   00009F   EE           MOV     A,R6
   \   0000A0   A2E0         MOV     C,0xE0 /* A   */.0
   \   0000A2   5026         JNC     ??AXD_ProcessEvent_12
    325            {
    326              //zb_HandleOsalEvent(events);
    327              AXD_SendTheMessage();
   \   0000A4                ; Setup parameters for call to function AXD_SendTheMessage
   \   0000A4   12....       LCALL   ??AXD_SendTheMessage?relay
    328              // Setup to send message again
    329          #ifdef AXD_ROUTER
    330              test2++;
   \   0000A7   90....       MOV     DPTR,#test2
   \   0000AA   E0           MOVX    A,@DPTR
   \   0000AB   2401         ADD     A,#0x1
   \   0000AD   F0           MOVX    @DPTR,A
   \   0000AE   A3           INC     DPTR
   \   0000AF   E0           MOVX    A,@DPTR
   \   0000B0   3400         ADDC    A,#0x0
   \   0000B2   F0           MOVX    @DPTR,A
    331          #endif
    332          #ifdef AXD_END2
    333              test2--;
    334          #endif
    335              osal_start_timerEx( AXD_TaskID,
    336                                  AXD_SEND_MSG_EVT,
    337                                  (AXD_SEND_MSG_TIMEOUT/5) );
   \   0000B3                ; Setup parameters for call to function osal_start_timerEx
   \   0000B3   7CE8         MOV     R4,#-0x18
   \   0000B5   7D03         MOV     R5,#0x3
   \   0000B7   7A01         MOV     R2,#0x1
   \   0000B9   7B00         MOV     R3,#0x0
   \   0000BB   90....       MOV     DPTR,#AXD_TaskID
   \   0000BE   E0           MOVX    A,@DPTR
   \   0000BF   F9           MOV     R1,A
   \   0000C0   12....       LCALL   ??osal_start_timerEx?relay
    338          
    339              // return unprocessed events
    340              return (events ^ AXD_SEND_MSG_EVT);
   \   0000C3   7401         MOV     A,#0x1
   \   0000C5   6E           XRL     A,R6
   \   0000C6   FA           MOV     R2,A
   \   0000C7   EF           MOV     A,R7
   \   0000C8   80D2         SJMP    ??AXD_ProcessEvent_10
    341            }
    342              if ( events & ( ZB_USER_EVENTS ) )
   \                     ??AXD_ProcessEvent_12:
   \   0000CA   6003         JZ      ??AXD_ProcessEvent_13
    343            {
    344              // User events are passed to the application
    345              zb_HandleOsalEvent( events );
   \   0000CC                ; Setup parameters for call to function zb_HandleOsalEvent
   \   0000CC   12....       LCALL   ??zb_HandleOsalEvent?relay
    346          
    347              // Do not return here, return 0 later
    348            }
    349          
    350            // Discard unknown events
    351            return 0;
   \                     ??AXD_ProcessEvent_13:
   \   0000CF   7A00         MOV     R2,#0x0
   \   0000D1   7B00         MOV     R3,#0x0
   \                     ??AXD_ProcessEvent_11:
   \   0000D3                REQUIRE ?Subroutine4
   \   0000D3                ; // Fall through to label ?Subroutine4
    352          }

   \                                 In  segment BANKED_CODE, align 1, keep-with-next
   \                     ?Subroutine4:
   \   000000   7F04         MOV     R7,#0x4
   \   000002   02....       LJMP    ?BANKED_LEAVE_XDATA
    353          
    354          /*********************************************************************
    355           * Event Generation Functions
    356           */
    357          /*********************************************************************
    358           * @fn      AXD_ProcessZDOMsgs()
    359           *
    360           * @brief   Process response messages
    361           *
    362           * @param   none
    363           *
    364           * @return  none
    365           */

   \                                 In  segment BANKED_CODE, align 1, keep-with-next
    366          void AXD_ProcessZDOMsgs( zdoIncomingMsg_t *inMsg )
   \                     AXD_ProcessZDOMsgs:
    367          {
   \   000000   74F6         MOV     A,#-0xa
   \   000002   12....       LCALL   ?BANKED_ENTER_XDATA
   \   000005                ; Saved register size: 10
   \   000005                ; Auto size: 0
    368            switch ( inMsg->clusterID )
   \   000005   EA           MOV     A,R2
   \   000006   240C         ADD     A,#0xc
   \   000008   F582         MOV     DPL,A
   \   00000A   EB           MOV     A,R3
   \   00000B   3400         ADDC    A,#0x0
   \   00000D   F583         MOV     DPH,A
   \   00000F   12....       LCALL   ?Subroutine2 & 0xFFFF
   \                     ??CrossCallReturnLabel_4:
   \   000012   12....       LCALL   ?US_SWITCH_SPARSE
   \                     `?<Jumptable for AXD_ProcessZDOMsgs>_0`:
   \   000015   0000         DW        0
   \   000017   0200         DW        2
   \   000019   0680         DW        32774
   \   00001B   ....         DW        ??AXD_ProcessZDOMsgs_0
   \   00001D   2080         DW        32800
   \   00001F   ....         DW        ??AXD_ProcessZDOMsgs_1
   \   000021   ....         DW        ??AXD_ProcessZDOMsgs_2
    369            {
    370              case End_Device_Bind_rsp:
    371                if ( ZDO_ParseBindRsp( inMsg ) == ZSuccess )
   \                     ??AXD_ProcessZDOMsgs_1:
   \   000023   EA           MOV     A,R2
   \   000024   2411         ADD     A,#0x11
   \   000026   12....       LCALL   ?Subroutine3 & 0xFFFF
   \                     ??CrossCallReturnLabel_6:
   \   000029   7009         JNZ     ??AXD_ProcessZDOMsgs_3
    372                {
    373                  // Light LED
    374                  HalLedSet( HAL_LED_4, HAL_LED_MODE_ON );
   \   00002B                ; Setup parameters for call to function HalLedSet
   \   00002B   7A01         MOV     R2,#0x1
   \                     ??AXD_ProcessZDOMsgs_4:
   \   00002D   7908         MOV     R1,#0x8
   \   00002F   12....       LCALL   ??HalLedSet?relay
   \   000032   8055         SJMP    ??AXD_ProcessZDOMsgs_2
    375                }
    376          #if defined(BLINK_LEDS)
    377                else
    378                {
    379                  // Flash LED to show failure
    380                  HalLedSet ( HAL_LED_4, HAL_LED_MODE_FLASH );
   \                     ??AXD_ProcessZDOMsgs_3:
   \   000034                ; Setup parameters for call to function HalLedSet
   \   000034   7A04         MOV     R2,#0x4
   \   000036   80F5         SJMP    ??AXD_ProcessZDOMsgs_4
    381                }
    382          #endif
    383                break;
    384          
    385              case Match_Desc_rsp:
    386                {
    387                  ZDO_ActiveEndpointRsp_t *pRsp = ZDO_ParseEPListRsp( inMsg );
   \                     ??AXD_ProcessZDOMsgs_0:
   \   000038                ; Setup parameters for call to function ZDO_ParseEPListRsp
   \   000038   12....       LCALL   ??ZDO_ParseEPListRsp?relay
   \   00003B   8A..         MOV     ?V0 + 0,R2
   \   00003D   8B..         MOV     ?V0 + 1,R3
   \   00003F   AE..         MOV     R6,?V0 + 0
   \   000041   AF..         MOV     R7,?V0 + 1
    388                  if ( pRsp )
   \   000043   EE           MOV     A,R6
   \   000044   7001         JNZ     ??AXD_ProcessZDOMsgs_5
   \   000046   EF           MOV     A,R7
   \                     ??AXD_ProcessZDOMsgs_5:
   \   000047   6040         JZ      ??AXD_ProcessZDOMsgs_2
    389                  {
    390                    if ( pRsp->status == ZSuccess && pRsp->cnt )
   \   000049   8E82         MOV     DPL,R6
   \   00004B   8F83         MOV     DPH,R7
   \   00004D   E0           MOVX    A,@DPTR
   \   00004E   7032         JNZ     ??AXD_ProcessZDOMsgs_6
   \   000050   A3           INC     DPTR
   \   000051   A3           INC     DPTR
   \   000052   A3           INC     DPTR
   \   000053   E0           MOVX    A,@DPTR
   \   000054   602C         JZ      ??AXD_ProcessZDOMsgs_6
    391                    {
    392                      AXD_DstAddr.addrMode = (afAddrMode_t)Addr16Bit;
   \   000056   7402         MOV     A,#0x2
   \   000058   90....       MOV     DPTR,#(AXD_DstAddr + 2)
   \   00005B   F0           MOVX    @DPTR,A
    393                      AXD_DstAddr.addr.shortAddr = pRsp->nwkAddr;
   \   00005C   8E82         MOV     DPL,R6
   \   00005E   8F83         MOV     DPH,R7
   \   000060   A3           INC     DPTR
   \   000061   E0           MOVX    A,@DPTR
   \   000062   F8           MOV     R0,A
   \   000063   A3           INC     DPTR
   \   000064   E0           MOVX    A,@DPTR
   \   000065   F9           MOV     R1,A
   \   000066   90....       MOV     DPTR,#AXD_DstAddr
   \   000069   E8           MOV     A,R0
   \   00006A   F0           MOVX    @DPTR,A
   \   00006B   A3           INC     DPTR
   \   00006C   E9           MOV     A,R1
   \   00006D   F0           MOVX    @DPTR,A
    394                      // Take the first endpoint, Can be changed to search through endpoints
    395                      AXD_DstAddr.endPoint = pRsp->epList[0];
   \   00006E   8E82         MOV     DPL,R6
   \   000070   8F83         MOV     DPH,R7
   \   000072   A3           INC     DPTR
   \   000073   A3           INC     DPTR
   \   000074   A3           INC     DPTR
   \   000075   A3           INC     DPTR
   \   000076   E0           MOVX    A,@DPTR
   \   000077   90....       MOV     DPTR,#(AXD_DstAddr + 3)
   \   00007A   F0           MOVX    @DPTR,A
    396          
    397                      // Light LED
    398                      HalLedSet( HAL_LED_4, HAL_LED_MODE_ON );
   \   00007B                ; Setup parameters for call to function HalLedSet
   \   00007B   7A01         MOV     R2,#0x1
   \   00007D   7908         MOV     R1,#0x8
   \   00007F   12....       LCALL   ??HalLedSet?relay
    399                    }
    400                    osal_mem_free( pRsp );
   \                     ??AXD_ProcessZDOMsgs_6:
   \   000082                ; Setup parameters for call to function osal_mem_free
   \   000082   EE           MOV     A,R6
   \   000083   FA           MOV     R2,A
   \   000084   EF           MOV     A,R7
   \   000085   FB           MOV     R3,A
   \   000086   12....       LCALL   ??osal_mem_free?relay
    401                  }
    402                }
    403                break;
    404            }
    405          }
   \                     ??AXD_ProcessZDOMsgs_2:
   \   000089   80..         SJMP    ??Subroutine5_0

   \                                 In  segment BANKED_CODE, align 1, keep-with-next
   \                     ?Subroutine5:
   \   000000   7409         MOV     A,#0x9
   \   000002   12....       LCALL   ?DEALLOC_XSTACK8
   \                     ??Subroutine5_0:
   \   000005   7F02         MOV     R7,#0x2
   \   000007   02....       LJMP    ?BANKED_LEAVE_XDATA

   \                                 In  segment BANKED_CODE, align 1, keep-with-next
   \                     ?Subroutine2:
   \   000000   E0           MOVX    A,@DPTR
   \   000001   F5..         MOV     ?V0 + 0,A
   \   000003   A3           INC     DPTR
   \   000004   E0           MOVX    A,@DPTR
   \   000005   F5..         MOV     ?V0 + 1,A
   \   000007   78..         MOV     R0,#?V0 + 0
   \   000009   22           RET

   \                                 In  segment BANKED_CODE, align 1, keep-with-next
   \                     ?Subroutine3:
   \   000000   F582         MOV     DPL,A
   \   000002   EB           MOV     A,R3
   \   000003   3400         ADDC    A,#0x0
   \   000005   F583         MOV     DPH,A
   \   000007   E0           MOVX    A,@DPTR
   \   000008   F8           MOV     R0,A
   \   000009   A3           INC     DPTR
   \   00000A   E0           MOVX    A,@DPTR
   \   00000B   F583         MOV     DPH,A
   \   00000D   8882         MOV     DPL,R0
   \   00000F   E0           MOVX    A,@DPTR
   \   000010   22           RET
    406          
    407          /*********************************************************************
    408           * @fn      AXD_HandleKeys
    409           *
    410           * @brief   Handles all key events for this device.
    411           *
    412           * @param   shift - true if in shift/alt.
    413           * @param   keys - bit field for key events. Valid entries:
    414           *                 HAL_KEY_SW_4
    415           *                 HAL_KEY_SW_3
    416           *                 HAL_KEY_SW_2
    417           *                 HAL_KEY_SW_1
    418           *
    419           * @return  none
    420           */

   \                                 In  segment BANKED_CODE, align 1, keep-with-next
    421          void AXD_HandleKeys( byte shift, byte keys )
   \                     AXD_HandleKeys:
    422          {
   \   000000   74F6         MOV     A,#-0xa
   \   000002   12....       LCALL   ?BANKED_ENTER_XDATA
   \   000005                ; Saved register size: 10
   \   000005                ; Auto size: 9
   \   000005   74F7         MOV     A,#-0x9
   \   000007   12....       LCALL   ?ALLOC_XSTACK8
   \   00000A   EA           MOV     A,R2
   \   00000B   FE           MOV     R6,A
    423            zAddrType_t dstAddr;
    424          
    425            // Shift is used to make each button/switch dual purpose.
    426            if ( shift )
   \   00000C   E9           MOV     A,R1
   \   00000D   6003         JZ      $+5
   \   00000F   02....       LJMP    ??AXD_HandleKeys_0 & 0xFFFF
    427            {
    428              if ( keys & HAL_KEY_SW_1 )
    429              {
    430              }
    431              if ( keys & HAL_KEY_SW_2 )
    432              {
    433              }
    434              if ( keys & HAL_KEY_SW_3 )
    435              {
    436              }
    437              if ( keys & HAL_KEY_SW_4 )
    438              {
    439              }
    440            }
    441            else
    442            {
    443              if ( keys & HAL_KEY_SW_1 )
    444              {
    445              }
    446          
    447              if ( keys & HAL_KEY_SW_2 )
   \   000012   EE           MOV     A,R6
   \   000013   A2E1         MOV     C,0xE0 /* A   */.1
   \   000015   5066         JNC     ??AXD_HandleKeys_1
    448              {
    449                HalLedSet ( HAL_LED_4, HAL_LED_MODE_OFF );
   \   000017                ; Setup parameters for call to function HalLedSet
   \   000017   7A00         MOV     R2,#0x0
   \   000019   7908         MOV     R1,#0x8
   \   00001B   12....       LCALL   ??HalLedSet?relay
    450          
    451                // Initiate an End Device Bind Request for the mandatory endpoint
    452                dstAddr.addrMode = Addr16Bit;
   \   00001E   7408         MOV     A,#0x8
   \   000020   12....       LCALL   ?XSTACK_DISP0_8
   \   000023   12....       LCALL   ?Subroutine1 & 0xFFFF
    453                dstAddr.addr.shortAddr = 0x0000; // Coordinator
    454                ZDP_EndDeviceBindReq( &dstAddr, NLME_GetShortAddr(),
    455                                      AXD_epDesc.endPoint,
    456                                      AXD_PROFID,
    457                                      AXD_MAX_CLUSTERS, (cId_t *)AXD_ClusterList,
    458                                      AXD_MAX_CLUSTERS, (cId_t *)AXD_ClusterList,
    459                                      FALSE );
   \                     ??CrossCallReturnLabel_2:
   \   000026                ; Setup parameters for call to function NLME_GetShortAddr
   \   000026   12....       LCALL   ??NLME_GetShortAddr?relay
   \   000029   8A..         MOV     ?V0 + 0,R2
   \   00002B   8B..         MOV     ?V0 + 1,R3
   \   00002D   AC..         MOV     R4,?V0 + 0
   \   00002F   AD..         MOV     R5,?V0 + 1
   \   000031                ; Setup parameters for call to function ZDP_EndDeviceBindReq
   \   000031   75..00       MOV     ?V0 + 0,#0x0
   \   000034   78..         MOV     R0,#?V0 + 0
   \   000036   12....       LCALL   ?PUSH_XSTACK_I_ONE
   \   000039   75....       MOV     ?V0 + 0,#(AXD_ClusterList & 0xff)
   \   00003C   75....       MOV     ?V0 + 1,#((AXD_ClusterList >> 8) & 0xff)
   \   00003F   78..         MOV     R0,#?V0 + 0
   \   000041   12....       LCALL   ?PUSH_XSTACK_I_TWO
   \   000044   75..03       MOV     ?V0 + 0,#0x3
   \   000047   78..         MOV     R0,#?V0 + 0
   \   000049   12....       LCALL   ?PUSH_XSTACK_I_ONE
   \   00004C   75....       MOV     ?V0 + 0,#(AXD_ClusterList & 0xff)
   \   00004F   78..         MOV     R0,#?V0 + 0
   \   000051   12....       LCALL   ?PUSH_XSTACK_I_TWO
   \   000054   75..03       MOV     ?V0 + 0,#0x3
   \   000057   78..         MOV     R0,#?V0 + 0
   \   000059   12....       LCALL   ?PUSH_XSTACK_I_ONE
   \   00005C   75..04       MOV     ?V0 + 0,#0x4
   \   00005F   75..0F       MOV     ?V0 + 1,#0xf
   \   000062   78..         MOV     R0,#?V0 + 0
   \   000064   12....       LCALL   ?PUSH_XSTACK_I_TWO
   \   000067   90....       MOV     DPTR,#AXD_epDesc
   \   00006A   E0           MOVX    A,@DPTR
   \   00006B   F9           MOV     R1,A
   \   00006C   7409         MOV     A,#0x9
   \   00006E   12....       LCALL   ?XSTACK_DISP0_8
   \   000071   AA82         MOV     R2,DPL
   \   000073   AB83         MOV     R3,DPH
   \   000075   12....       LCALL   ??ZDP_EndDeviceBindReq?relay
   \   000078   7409         MOV     A,#0x9
   \   00007A   12....       LCALL   ?DEALLOC_XSTACK8
    460              }
    461          
    462              if ( keys & HAL_KEY_SW_3 )
    463              {
    464              }
    465          
    466              if ( keys & HAL_KEY_SW_4 )
   \                     ??AXD_HandleKeys_1:
   \   00007D   EE           MOV     A,R6
   \   00007E   A2E3         MOV     C,0xE0 /* A   */.3
   \   000080   5053         JNC     ??AXD_HandleKeys_0
    467              {
    468                HalLedSet ( HAL_LED_4, HAL_LED_MODE_OFF );
   \   000082                ; Setup parameters for call to function HalLedSet
   \   000082   7A00         MOV     R2,#0x0
   \   000084   7908         MOV     R1,#0x8
   \   000086   12....       LCALL   ??HalLedSet?relay
    469          
    470                // Initiate a Match Description Request (Service Discovery)
    471          #ifdef AXD_COR
    472                dstAddr.addrMode = AddrBroadcast;
    473                dstAddr.addr.shortAddr = NWK_BROADCAST_SHORTADDR;
    474                ZDP_MatchDescReq( &dstAddr, NWK_BROADCAST_SHORTADDR,
    475                                  AXD_PROFID,
    476                                  AXD_MAX_CLUSTERS, (cId_t *)AXD_ClusterList,
    477                                  AXD_MAX_CLUSTERS, (cId_t *)AXD_ClusterList,
    478                                  FALSE );
    479          #else
    480                dstAddr.addrMode = Addr16Bit;
   \   000089   7408         MOV     A,#0x8
   \   00008B   12....       LCALL   ?XSTACK_DISP0_8
   \   00008E   12....       LCALL   ?Subroutine1 & 0xFFFF
    481                dstAddr.addr.shortAddr = 0x0000;
    482                ZDP_MatchDescReq( &dstAddr, NWK_BROADCAST_SHORTADDR,
    483                                  AXD_PROFID,
    484                                  AXD_MAX_CLUSTERS, (cId_t *)AXD_ClusterList,
    485                                  AXD_MAX_CLUSTERS, (cId_t *)AXD_ClusterList,
    486                                  FALSE );
   \                     ??CrossCallReturnLabel_3:
   \   000091                ; Setup parameters for call to function ZDP_MatchDescReq
   \   000091   F5..         MOV     ?V0 + 0,A
   \   000093   78..         MOV     R0,#?V0 + 0
   \   000095   12....       LCALL   ?PUSH_XSTACK_I_ONE
   \   000098   75....       MOV     ?V0 + 0,#(AXD_ClusterList & 0xff)
   \   00009B   75....       MOV     ?V0 + 1,#((AXD_ClusterList >> 8) & 0xff)
   \   00009E   78..         MOV     R0,#?V0 + 0
   \   0000A0   12....       LCALL   ?PUSH_XSTACK_I_TWO
   \   0000A3   75..03       MOV     ?V0 + 0,#0x3
   \   0000A6   78..         MOV     R0,#?V0 + 0
   \   0000A8   12....       LCALL   ?PUSH_XSTACK_I_ONE
   \   0000AB   75....       MOV     ?V0 + 0,#(AXD_ClusterList & 0xff)
   \   0000AE   78..         MOV     R0,#?V0 + 0
   \   0000B0   12....       LCALL   ?PUSH_XSTACK_I_TWO
   \   0000B3   75..04       MOV     ?V0 + 0,#0x4
   \   0000B6   75..0F       MOV     ?V0 + 1,#0xf
   \   0000B9   78..         MOV     R0,#?V0 + 0
   \   0000BB   12....       LCALL   ?PUSH_XSTACK_I_TWO
   \   0000BE   7903         MOV     R1,#0x3
   \   0000C0   7CFF         MOV     R4,#-0x1
   \   0000C2   7DFF         MOV     R5,#-0x1
   \   0000C4   7408         MOV     A,#0x8
   \   0000C6   12....       LCALL   ?XSTACK_DISP0_8
   \   0000C9   AA82         MOV     R2,DPL
   \   0000CB   AB83         MOV     R3,DPH
   \   0000CD   12....       LCALL   ??ZDP_MatchDescReq?relay
   \   0000D0   7408         MOV     A,#0x8
   \   0000D2   12....       LCALL   ?DEALLOC_XSTACK8
    487          #endif
    488              }
    489            }
    490          }
   \                     ??AXD_HandleKeys_0:
   \   0000D5   02....       LJMP    ?Subroutine5 & 0xFFFF

   \                                 In  segment BANKED_CODE, align 1, keep-with-next
   \                     ?Subroutine1:
   \   000000   7402         MOV     A,#0x2
   \   000002   F0           MOVX    @DPTR,A
   \   000003   85..82       MOV     DPL,?XSP + 0
   \   000006   85..83       MOV     DPH,?XSP + 1
   \   000009   E4           CLR     A
   \   00000A   F0           MOVX    @DPTR,A
   \   00000B   A3           INC     DPTR
   \   00000C   F0           MOVX    @DPTR,A
   \   00000D   22           RET
    491          
    492          /*********************************************************************
    493           * LOCAL FUNCTIONS
    494           */
    495          
    496          /*********************************************************************
    497           * @fn      AXD_MessageMSGCB
    498           *
    499           * @brief   Data message processor callback.  This function processes
    500           *          any incoming data - probably from other devices.  So, based
    501           *          on cluster ID, perform the intended action.
    502           *
    503           * @param   none
    504           *
    505           * @return  none
    506           */

   \                                 In  segment BANKED_CODE, align 1, keep-with-next
    507          void AXD_MessageMSGCB( afIncomingMSGPacket_t *pkt )
   \                     AXD_MessageMSGCB:
    508          {
   \   000000   74F6         MOV     A,#-0xa
   \   000002   12....       LCALL   ?BANKED_ENTER_XDATA
   \   000005                ; Saved register size: 10
   \   000005                ; Auto size: 0
    509            switch ( pkt->clusterId )
   \   000005   8A82         MOV     DPL,R2
   \   000007   8B83         MOV     DPH,R3
   \   000009   A3           INC     DPTR
   \   00000A   A3           INC     DPTR
   \   00000B   A3           INC     DPTR
   \   00000C   A3           INC     DPTR
   \   00000D   12....       LCALL   ?Subroutine2 & 0xFFFF
   \                     ??CrossCallReturnLabel_5:
   \   000010   12....       LCALL   ?US_SWITCH_DENSE
   \                     `?<Jumptable for AXD_MessageMSGCB>_0`:
   \   000013   0100         DW        1
   \   000015   02           DB        2
   \   000016   ....         DW        ??AXD_MessageMSGCB_0
   \   000018   ....         DW        ??AXD_MessageMSGCB_1
   \   00001A   ....         DW        ??AXD_MessageMSGCB_2
   \   00001C   ....         DW        ??AXD_MessageMSGCB_3
    510            {
    511              case AXD_CMD_ID:
    512                displayXYZ(pkt->cmd.Data);
   \                     ??AXD_MessageMSGCB_1:
   \   00001E                ; Setup parameters for call to function displayXYZ
   \   00001E   EA           MOV     A,R2
   \   00001F   2415         ADD     A,#0x15
   \   000021   F582         MOV     DPL,A
   \   000023   EB           MOV     A,R3
   \   000024   3400         ADDC    A,#0x0
   \   000026   F583         MOV     DPH,A
   \   000028   E0           MOVX    A,@DPTR
   \   000029   FA           MOV     R2,A
   \   00002A   A3           INC     DPTR
   \   00002B   E0           MOVX    A,@DPTR
   \   00002C   FB           MOV     R3,A
   \   00002D   12....       LCALL   ??displayXYZ?relay
   \   000030   8028         SJMP    ??AXD_MessageMSGCB_0
    513          //      HalLcdWriteStringValue("R: ",source,10,3);
    514              break;
    515            case AXD_TEST_CMD_ID:
    516              HalLcdWriteStringValue("R: ",*(pkt->cmd.Data),10,4);
   \                     ??AXD_MessageMSGCB_2:
   \   000032                ; Setup parameters for call to function HalLcdWriteStringValue
   \   000032   75..04       MOV     ?V0 + 0,#0x4
   \   000035   78..         MOV     R0,#?V0 + 0
   \   000037   12....       LCALL   ?PUSH_XSTACK_I_ONE
   \   00003A   12....       LCALL   ?Subroutine0 & 0xFFFF
   \                     ??CrossCallReturnLabel_0:
   \   00003D   7A..         MOV     R2,#(`?<Constant "R: ">` & 0xff)
   \   00003F   7B..         MOV     R3,#((`?<Constant "R: ">` >> 8) & 0xff)
   \   000041   800F         SJMP    ??AXD_MessageMSGCB_4
    517              break;
    518            case AXD_TEST2_CMD_ID:
    519              HalLcdWriteStringValue("Q: ",*(pkt->cmd.Data),10,3);
   \                     ??AXD_MessageMSGCB_3:
   \   000043                ; Setup parameters for call to function HalLcdWriteStringValue
   \   000043   75..03       MOV     ?V0 + 0,#0x3
   \   000046   78..         MOV     R0,#?V0 + 0
   \   000048   12....       LCALL   ?PUSH_XSTACK_I_ONE
   \   00004B   12....       LCALL   ?Subroutine0 & 0xFFFF
   \                     ??CrossCallReturnLabel_1:
   \   00004E   7A..         MOV     R2,#(`?<Constant "Q: ">` & 0xff)
   \   000050   7B..         MOV     R3,#((`?<Constant "Q: ">` >> 8) & 0xff)
   \                     ??AXD_MessageMSGCB_4:
   \   000052   12....       LCALL   ??HalLcdWriteStringValue?relay
   \   000055   7401         MOV     A,#0x1
   \   000057   12....       LCALL   ?DEALLOC_XSTACK8
    520              break;
    521            default: break;
    522            }
    523          }
   \                     ??AXD_MessageMSGCB_0:
   \   00005A   02....       LJMP    ??Subroutine5_0 & 0xFFFF

   \                                 In  segment BANKED_CODE, align 1, keep-with-next
   \                     ?Subroutine0:
   \   000000   790A         MOV     R1,#0xa
   \   000002   EA           MOV     A,R2
   \   000003   2415         ADD     A,#0x15
   \   000005   12....       LCALL   ?Subroutine3 & 0xFFFF
   \                     ??CrossCallReturnLabel_7:
   \   000008   FC           MOV     R4,A
   \   000009   7D00         MOV     R5,#0x0
   \   00000B   22           RET
    524          
    525          /*********************************************************************
    526           * @fn      AXD_SendTheMessage
    527           *
    528           * @brief   Send "the" message.
    529           *
    530           * @param   none
    531           *
    532           * @return  none
    533           */

   \                                 In  segment BANKED_CODE, align 1, keep-with-next
    534          void AXD_SendTheMessage( void )
   \                     AXD_SendTheMessage:
    535          {
   \   000000   74F6         MOV     A,#-0xa
   \   000002   12....       LCALL   ?BANKED_ENTER_XDATA
   \   000005                ; Saved register size: 10
   \   000005                ; Auto size: 0
    536            //zAddrType_t dstAddr;
    537          #ifdef AXD_END
    538          
    539            Multiple_Read_ADXL345();
    540            displayXYZ((uint8 *)BUFFER);
    541            
    542            if ( AF_DataRequest( &AXD_DstAddr, &AXD_epDesc,
    543                                 AXD_CMD_ID,
    544                                 (byte)(sizeof(BUFFER)),
    545                                 (byte *)(BUFFER),
    546                                 &AXD_TransID,
    547                                 AF_DISCV_ROUTE, AF_DEFAULT_RADIUS ) == afStatus_SUCCESS )
    548            {
    549              aps_RemoveGroup(AXD_ENDPOINT,AXD_GROUP);
    550              // Successfully requested to be sent.
    551              
    552            }
    553            else
    554            {
    555              // Error occurred in request to send.
    556            }
    557          #endif
    558          #ifdef AXD_ROUTER
    559            if ( AF_DataRequest( &AXD_DstAddr, &AXD_epDesc,
    560                                 AXD_TEST_CMD_ID,
    561                                 (byte)(sizeof(test2)),
    562                                 (byte *)(&test2),
    563                                 &AXD_TransID,
    564                                 AF_SKIP_ROUTING, AF_DEFAULT_RADIUS ) == afStatus_SUCCESS )
   \   000005                ; Setup parameters for call to function AF_DataRequest
   \   000005   75..0A       MOV     ?V0 + 0,#0xa
   \   000008   78..         MOV     R0,#?V0 + 0
   \   00000A   12....       LCALL   ?PUSH_XSTACK_I_ONE
   \   00000D   75....       MOV     ?V0 + 0,#(AXD_TransID & 0xff)
   \   000010   75....       MOV     ?V0 + 1,#((AXD_TransID >> 8) & 0xff)
   \   000013   78..         MOV     R0,#?V0 + 0
   \   000015   12....       LCALL   ?PUSH_XSTACK_I_TWO
   \   000018   75....       MOV     ?V0 + 0,#(test2 & 0xff)
   \   00001B   75....       MOV     ?V0 + 1,#((test2 >> 8) & 0xff)
   \   00001E   78..         MOV     R0,#?V0 + 0
   \   000020   12....       LCALL   ?PUSH_XSTACK_I_TWO
   \   000023   75..02       MOV     ?V0 + 0,#0x2
   \   000026   75..00       MOV     ?V0 + 1,#0x0
   \   000029   78..         MOV     R0,#?V0 + 0
   \   00002B   12....       LCALL   ?PUSH_XSTACK_I_TWO
   \   00002E   78..         MOV     R0,#?V0 + 0
   \   000030   12....       LCALL   ?PUSH_XSTACK_I_TWO
   \   000033   7980         MOV     R1,#-0x80
   \   000035   7C..         MOV     R4,#(AXD_epDesc & 0xff)
   \   000037   7D..         MOV     R5,#((AXD_epDesc >> 8) & 0xff)
   \   000039   7A..         MOV     R2,#(AXD_DstAddr & 0xff)
   \   00003B   7B..         MOV     R3,#((AXD_DstAddr >> 8) & 0xff)
   \   00003D   12....       LCALL   ??AF_DataRequest?relay
   \   000040   02....       LJMP    ?Subroutine5 & 0xFFFF
    565            {
    566              // Successfully requested to be sent.
    567          
    568            }
    569            else
    570            {
    571              // Error occurred in request to send.
    572            }
    573            
    574          #endif
    575          #ifdef AXD_END2
    576            if ( AF_DataRequest( &AXD_DstAddr, &AXD_epDesc,
    577                                 AXD_TEST2_CMD_ID,
    578                                 (byte)(sizeof(test2)),
    579                                 (byte *)(&test2),
    580                                 &AXD_TransID,
    581                                 AF_SKIP_ROUTING, AF_DEFAULT_RADIUS ) == afStatus_SUCCESS )
    582            {
    583              // Successfully requested to be sent.
    584          
    585            }
    586            else
    587            {
    588              // Error occurred in request to send.
    589            }
    590            
    591          #endif
    592          }
    593          
    594          /*********************************************************************
    595          *********************************************************************/

   \                                 In  segment BANKED_CODE, align 1, keep-with-next
    596          void AXD_ReceiveDataIndication( uint16 source, uint16 command, uint16 len, uint8 *pData  )
   \                     AXD_ReceiveDataIndication:
    597          {
   \   000000   74F4         MOV     A,#-0xc
   \   000002   12....       LCALL   ?BANKED_ENTER_XDATA
   \   000005                ; Saved register size: 12
   \   000005                ; Auto size: 0
   \   000005   740C         MOV     A,#0xc
   \   000007   12....       LCALL   ?XSTACK_DISP0_8
   \   00000A   E0           MOVX    A,@DPTR
   \   00000B   F5..         MOV     ?V0 + 0,A
   \   00000D   A3           INC     DPTR
   \   00000E   E0           MOVX    A,@DPTR
   \   00000F   F5..         MOV     ?V0 + 1,A
   \   000011   740E         MOV     A,#0xe
   \   000013   12....       LCALL   ?XSTACK_DISP0_8
   \   000016   E0           MOVX    A,@DPTR
   \   000017   F5..         MOV     ?V0 + 2,A
   \   000019   A3           INC     DPTR
   \   00001A   E0           MOVX    A,@DPTR
   \   00001B   F5..         MOV     ?V0 + 3,A
    598          #if defined ( MT_SAPI_CB_FUNC )
    599            /* First check if MT has subscribed for this callback. If so , pass it as
    600            a event to MonitorTest and return control to calling function after that */
    601            if ( SAPICB_CHECK( SPI_CB_SAPI_RCV_DATA_IND ) )
    602            {
    603              zb_MTCallbackReceiveDataIndication( source, command, len, pData  );
    604            }
    605            else
    606          #endif  //MT_SAPI_CB_FUNC
    607            {
    608              zb_ReceiveDataIndication( source, command, len, pData  );
   \   00001D                ; Setup parameters for call to function zb_ReceiveDataIndication
   \   00001D   78..         MOV     R0,#?V0 + 2
   \   00001F   12....       LCALL   ?PUSH_XSTACK_I_TWO
   \   000022   78..         MOV     R0,#?V0 + 0
   \   000024   12....       LCALL   ?PUSH_XSTACK_I_TWO
   \   000027   12....       LCALL   ??zb_ReceiveDataIndication?relay
   \   00002A   7404         MOV     A,#0x4
   \   00002C   12....       LCALL   ?DEALLOC_XSTACK8
    609            }
    610          }
   \   00002F   02....       LJMP    ?Subroutine4 & 0xFFFF

   \                                 In  segment XDATA_ID, align 1, keep-with-next
   \                     `?<Initializer for <Constant "R: ">>`:
   \   000000   523A2000     DB "R: "

   \                                 In  segment XDATA_ID, align 1, keep-with-next
   \                     `?<Initializer for <Constant "Q: ">>`:
   \   000000   513A2000     DB "Q: "

   \                                 In  segment XDATA_ID, align 1, keep-with-next
   \                     `?<Initializer for AXD_ClusterList>`:
   \   000000   01000200     DW 1, 2
   \   000004   0000         DB 0, 0

   \                                 In  segment XDATA_ID, align 1, keep-with-next
   \                     `?<Initializer for AXD_SimpleDesc>`:
   \   000000   0A           DB 10
   \   000001   040F0100     DW 3844, 1
   \   000005   0003         DB 0, 3
   \   000007   ....         DW AXD_ClusterList
   \   000009   03           DB 3
   \   00000A   ....         DW AXD_ClusterList

   \                                 In  segment BANK_RELAYS, align 1
   \                     ??AXD_Init?relay:
   \   000000   12....       LCALL   ?BDISPATCH
   \   000003   ......       DC24    AXD_Init

   \                                 In  segment BANK_RELAYS, align 1
   \                     ??AXD_ProcessEvent?relay:
   \   000000   12....       LCALL   ?BDISPATCH
   \   000003   ......       DC24    AXD_ProcessEvent

   \                                 In  segment BANK_RELAYS, align 1
   \                     ??AXD_ProcessZDOMsgs?relay:
   \   000000   12....       LCALL   ?BDISPATCH
   \   000003   ......       DC24    AXD_ProcessZDOMsgs

   \                                 In  segment BANK_RELAYS, align 1
   \                     ??AXD_HandleKeys?relay:
   \   000000   12....       LCALL   ?BDISPATCH
   \   000003   ......       DC24    AXD_HandleKeys

   \                                 In  segment BANK_RELAYS, align 1
   \                     ??AXD_MessageMSGCB?relay:
   \   000000   12....       LCALL   ?BDISPATCH
   \   000003   ......       DC24    AXD_MessageMSGCB

   \                                 In  segment BANK_RELAYS, align 1
   \                     ??AXD_SendTheMessage?relay:
   \   000000   12....       LCALL   ?BDISPATCH
   \   000003   ......       DC24    AXD_SendTheMessage

   \                                 In  segment BANK_RELAYS, align 1
   \                     ??AXD_ReceiveDataIndication?relay:
   \   000000   12....       LCALL   ?BDISPATCH
   \   000003   ......       DC24    AXD_ReceiveDataIndication

   \                                 In  segment XDATA_I, align 1, keep-with-next
   \                     `?<Constant "R: ">`:
   \   000000                DS 4
   \   000004                REQUIRE `?<Initializer for <Constant "R: ">>`
   \   000004                REQUIRE __INIT_XDATA_I

   \                                 In  segment XDATA_I, align 1, keep-with-next
   \                     `?<Constant "Q: ">`:
   \   000000                DS 4
   \   000004                REQUIRE `?<Initializer for <Constant "Q: ">>`
   \   000004                REQUIRE __INIT_XDATA_I

   Maximum stack usage in bytes:

     Function                      ISTACK PSTACK XSTACK
     --------                      ------ ------ ------
     AXD_HandleKeys                    1      0     40
       -> HalLedSet                    0      0     38
       -> NLME_GetShortAddr            0      0     38
       -> ZDP_EndDeviceBindReq         0      0     56
       -> HalLedSet                    0      0     38
       -> ZDP_MatchDescReq             0      0     54
     AXD_Init                          2      0      0
       -> afRegister                   4      0      0
       -> RegisterForKeys              4      0      0
       -> ZDO_RegisterForZDOMsg        4      0      0
       -> ZDO_RegisterForZDOMsg        4      0      0
       -> aps_AddGroup                 4      0      0
     AXD_MessageMSGCB                  0      0     11
       -> displayXYZ                   0      0     20
       -> HalLcdWriteStringValue       0      0     22
       -> HalLcdWriteStringValue       0      0     22
     AXD_ProcessEvent                  0      0     12
       -> osal_msg_receive             0      0     24
       -> osal_start_timerEx           0      0     24
       -> osal_msg_deallocate          0      0     24
       -> osal_msg_receive             0      0     24
       -> AXD_ProcessZDOMsgs           0      0     24
       -> AXD_HandleKeys               0      0     24
       -> AXD_SendTheMessage           0      0     24
       -> osal_start_timerEx           0      0     24
       -> zb_HandleOsalEvent           0      0     24
     AXD_ProcessZDOMsgs                0      0     22
       -> HalLedSet                    0      0     20
       -> HalLedSet                    0      0     20
       -> ZDO_ParseEPListRsp           0      0     20
       -> HalLedSet                    0      0     20
       -> osal_mem_free                0      0     20
     AXD_ReceiveDataIndication         0      0     20
       -> zb_ReceiveDataIndication     0      0     32
     AXD_SendTheMessage                0      0     31
       -> AF_DataRequest               0      0     38


   Segment part sizes:

     Function/Label                 Bytes
     --------------                 -----
     test2                             2
     AXD_Group                        18
     AXD_ClusterList                   6
     AXD_SimpleDesc                   12
     AXD_epDesc                        6
     AXD_TaskID                        1
     AXD_NwkState                      1
     AXD_TransID                       1
     AXD_DstAddr                       4
     AXD_Init                        129
     AXD_ProcessEvent                211
     ?Subroutine4                      5
     AXD_ProcessZDOMsgs              139
     ?Subroutine5                     10
     ?Subroutine2                     10
     ?Subroutine3                     17
     AXD_HandleKeys                  216
     ?Subroutine1                     14
     AXD_MessageMSGCB                 93
     ?Subroutine0                     12
     AXD_SendTheMessage               67
     AXD_ReceiveDataIndication        50
     ?<Initializer for <Constant "R: ">>
                                       4
     ?<Initializer for <Constant "Q: ">>
                                       4
     ?<Initializer for AXD_ClusterList>
                                       6
     ?<Initializer for AXD_SimpleDesc>
                                      12
     ??AXD_Init?relay                  6
     ??AXD_ProcessEvent?relay          6
     ??AXD_ProcessZDOMsgs?relay        6
     ??AXD_HandleKeys?relay            6
     ??AXD_MessageMSGCB?relay          6
     ??AXD_SendTheMessage?relay        6
     ??AXD_ReceiveDataIndication?relay
                                       6
     ?<Constant "R: ">                 4
     ?<Constant "Q: ">                 4

 
 973 bytes in segment BANKED_CODE
  42 bytes in segment BANK_RELAYS
  26 bytes in segment XDATA_I
  26 bytes in segment XDATA_ID
  33 bytes in segment XDATA_Z
 
 1 041 bytes of CODE  memory
    59 bytes of XDATA memory

Errors: none
Warnings: none
