///////////////////////////////////////////////////////////////////////////////
//                                                                            /
// IAR 8051 C/C++ Compiler V7.30B/W32                   03/Jan/2013  17:10:52 /
// Copyright 2004-2007 IAR Systems. All rights reserved.                      /
//                                                                            /
//    Core               =  plain                                             /
//    Code model         =  banked                                            /
//    Data model         =  large                                             /
//    Calling convention =  xdata reentrant                                   /
//    Constant location  =  data                                              /
//    Dptr setup         =  1,16                                              /
//    Source file        =  C:\Texas Instruments\ZStack-1.4.3-1.2.1\Component /
//                          s\hal\target\CC2430EB\hal_uart.c                  /
//    Command line       =  -f "C:\Texas Instruments\ZStack-1.4.3-1.2.1\Proje /
//                          cts\zstack\Samples\AXDApp\CC2430DB\..\..\..\Tools /
//                          \CC2430DB\f8wRouter.cfg" (-DCPU32MHZ              /
//                          -DFORCE_MAC_NEAR -DROOT=__near_func               /
//                          -DMAC_CFG_APP_PENDING_QUEUE=TRUE -DRTR_NWK        /
//                          -DBLINK_LEDS "-DCONST=const __code"               /
//                          -DGENERIC=__generic) -f "C:\Texas                 /
//                          Instruments\ZStack-1.4.3-1.2.1\Projects\zstack\Sa /
//                          mples\AXDApp\CC2430DB\..\..\..\Tools\CC2430DB\f8w /
//                          Config.cfg" (-DSECURE=0                           /
//                          -DDEFAULT_CHANLIST=0x00000800                     /
//                          -DZDAPP_CONFIG_PAN_ID=0xFFFF                      /
//                          -DNWK_START_DELAY=100 -DEXTENDED_JOINING_RANDOM_M /
//                          ASK=0x007F -DBEACON_REQUEST_DELAY=100             /
//                          -DBEACON_REQ_DELAY_MASK=0x00FF                    /
//                          -DROUTE_EXPIRY_TIME=30 -DAPSC_ACK_WAIT_DURATION_P /
//                          OLLED=3000 -DNWK_INDIRECT_MSG_TIMEOUT=7           /
//                          -DMAX_RREQ_ENTRIES=10 -DAPSC_MAX_FRAME_RETRIES=3  /
//                          -DNWK_MAX_DATA_RETRIES=2                          /
//                          -DMAX_POLL_FAILURE_RETRIES=2 -DMAX_BCAST=9        /
//                          -DAPS_MAX_GROUPS=16 -DMAX_RTG_ENTRIES=20          /
//                          -DNWK_MAX_BINDING_ENTRIES=10                      /
//                          -DMAX_BINDING_CLUSTER_IDS=5                       /
//                          "-DDEFAULT_KEY={0x01, 0x03, 0x05, 0x07, 0x09,     /
//                          0x0B, 0x0D, 0x0F, 0x00, 0x02, 0x04, 0x06, 0x08,   /
//                          0x0A, 0x0C, 0x0D}" -DRFD_RCVC_ALWAYS_ON=FALSE     /
//                          -DPOLL_RATE=1000 -DQUEUED_POLL_RATE=100           /
//                          -DRESPONSE_POLL_RATE=100) -DREJOIN_POLL_RATE=440  /
//                          "C:\Texas Instruments\ZStack-1.4.3-1.2.1\Componen /
//                          ts\hal\target\CC2430EB\hal_uart.c" -D CC2430EB    /
//                          -D AXD_ROUTER -D REFLECTOR -D ZTOOL_P1 -D         /
//                          MT_TASK -D xMT_ZDO_FUNC -D xLCD_SUPPORTED=DEBUG   /
//                          -lC "C:\Texas Instruments\ZStack-1.4.3-1.2.1\Proj /
//                          ects\zstack\Samples\AXDApp\CC2430DB\RouterEB\List /
//                          \" -lA "C:\Texas Instruments\ZStack-1.4.3-1.2.1\P /
//                          rojects\zstack\Samples\AXDApp\CC2430DB\RouterEB\L /
//                          ist\" --diag_suppress Pe001,Pa010 --diag_remark   /
//                          pe550 -o "C:\Texas Instruments\ZStack-1.4.3-1.2.1 /
//                          \Projects\zstack\Samples\AXDApp\CC2430DB\RouterEB /
//                          \Obj\" -e --require_prototypes -z9                /
//                          --no_code_motion --debug --core=plain             /
//                          --dptr=16,1 --data_model=large                    /
//                          --code_model=banked --calling_convention=xdata_re /
//                          entrant --place_constants=data --nr_virtual_regs  /
//                          8 -I "C:\Texas Instruments\ZStack-1.4.3-1.2.1\Pro /
//                          jects\zstack\Samples\AXDApp\CC2430DB\" -I         /
//                          "C:\Texas Instruments\ZStack-1.4.3-1.2.1\Projects /
//                          \zstack\Samples\AXDApp\CC2430DB\..\SOURCE\" -I    /
//                          "C:\Texas Instruments\ZStack-1.4.3-1.2.1\Projects /
//                          \zstack\Samples\AXDApp\CC2430DB\..\Drivers\" -I   /
//                          "C:\Texas Instruments\ZStack-1.4.3-1.2.1\Projects /
//                          \zstack\Samples\AXDApp\CC2430DB\..\..\..\ZMAIN\TI /
//                          2430DB\" -I "C:\Texas Instruments\ZStack-1.4.3-1. /
//                          2.1\Projects\zstack\Samples\AXDApp\CC2430DB\..\.. /
//                          \..\..\..\COMPONENTS\MT\" -I "C:\Texas            /
//                          Instruments\ZStack-1.4.3-1.2.1\Projects\zstack\Sa /
//                          mples\AXDApp\CC2430DB\..\..\..\..\..\COMPONENTS\H /
//                          AL\INCLUDE\" -I "C:\Texas                         /
//                          Instruments\ZStack-1.4.3-1.2.1\Projects\zstack\Sa /
//                          mples\AXDApp\CC2430DB\..\..\..\..\..\COMPONENTS\H /
//                          AL\TARGET\CC2430EB\" -I "C:\Texas                 /
//                          Instruments\ZStack-1.4.3-1.2.1\Projects\zstack\Sa /
//                          mples\AXDApp\CC2430DB\..\..\..\..\..\COMPONENTS\O /
//                          SAL\MCU\CCSOC\" -I "C:\Texas                      /
//                          Instruments\ZStack-1.4.3-1.2.1\Projects\zstack\Sa /
//                          mples\AXDApp\CC2430DB\..\..\..\..\..\COMPONENTS\O /
//                          SAL\INCLUDE\" -I "C:\Texas                        /
//                          Instruments\ZStack-1.4.3-1.2.1\Projects\zstack\Sa /
//                          mples\AXDApp\CC2430DB\..\..\..\..\..\COMPONENTS\S /
//                          TACK\AF\" -I "C:\Texas Instruments\ZStack-1.4.3-1 /
//                          .2.1\Projects\zstack\Samples\AXDApp\CC2430DB\..\. /
//                          .\..\..\..\COMPONENTS\STACK\NWK\" -I "C:\Texas    /
//                          Instruments\ZStack-1.4.3-1.2.1\Projects\zstack\Sa /
//                          mples\AXDApp\CC2430DB\..\..\..\..\..\COMPONENTS\S /
//                          TACK\SEC\" -I "C:\Texas                           /
//                          Instruments\ZStack-1.4.3-1.2.1\Projects\zstack\Sa /
//                          mples\AXDApp\CC2430DB\..\..\..\..\..\COMPONENTS\S /
//                          TACK\SYS\" -I "C:\Texas                           /
//                          Instruments\ZStack-1.4.3-1.2.1\Projects\zstack\Sa /
//                          mples\AXDApp\CC2430DB\..\..\..\..\..\COMPONENTS\S /
//                          TACK\ZDO\" -I "C:\Texas                           /
//                          Instruments\ZStack-1.4.3-1.2.1\Projects\zstack\Sa /
//                          mples\AXDApp\CC2430DB\..\..\..\..\..\COMPONENTS\Z /
//                          MAC\F8W\" -I "C:\Texas Instruments\ZStack-1.4.3-1 /
//                          .2.1\Projects\zstack\Samples\AXDApp\CC2430DB\..\. /
//                          .\..\..\..\COMPONENTS\ZMAC\" -I "C:\Texas         /
//                          Instruments\ZStack-1.4.3-1.2.1\Projects\zstack\Sa /
//                          mples\AXDApp\CC2430DB\..\..\..\..\..\COMPONENTS\S /
//                          ERVICES\SADDR\" -I "C:\Texas                      /
//                          Instruments\ZStack-1.4.3-1.2.1\Projects\zstack\Sa /
//                          mples\AXDApp\CC2430DB\..\..\..\..\..\COMPONENTS\S /
//                          ERVICES\SDATA\" -I "C:\Texas                      /
//                          Instruments\ZStack-1.4.3-1.2.1\Projects\zstack\Sa /
//                          mples\AXDApp\CC2430DB\..\..\..\..\..\COMPONENTS\M /
//                          AC\INCLUDE\" -I "C:\Texas                         /
//                          Instruments\ZStack-1.4.3-1.2.1\Projects\zstack\Sa /
//                          mples\AXDApp\CC2430DB\..\..\..\..\..\COMPONENTS\M /
//                          AC\HIGH_LEVEL\" -I "C:\Texas                      /
//                          Instruments\ZStack-1.4.3-1.2.1\Projects\zstack\Sa /
//                          mples\AXDApp\CC2430DB\..\..\..\..\..\COMPONENTS\M /
//                          AC\LOW_LEVEL\SRF03\" -I "C:\Texas                 /
//                          Instruments\ZStack-1.4.3-1.2.1\Projects\zstack\Sa /
//                          mples\AXDApp\CC2430DB\..\..\..\..\..\COMPONENTS\M /
//                          AC\LOW_LEVEL\SRF03\SINGLE_CHIP\" -I "C:\Program   /
//                          Files\IAR Systems\Embedded Workbench 4.0          /
//                          Evaluation version\8051\INC\" -I "C:\Program      /
//                          Files\IAR Systems\Embedded Workbench 4.0          /
//                          Evaluation version\8051\INC\CLIB\"                /
//    List file          =  C:\Texas Instruments\ZStack-1.4.3-1.2.1\Projects\ /
//                          zstack\Samples\AXDApp\CC2430DB\RouterEB\List\hal_ /
//                          uart.s51                                          /
//                                                                            /
//                                                                            /
///////////////////////////////////////////////////////////////////////////////

        NAME hal_uart

        RTMODEL "__calling_convention", "xdata_reentrant"
        RTMODEL "__code_model", "banked"
        RTMODEL "__core", "plain"
        RTMODEL "__data_model", "large"
        RTMODEL "__dptr_size", "16"
        RTMODEL "__extended_stack", "disabled"
        RTMODEL "__location_for_constants", "data"
        RTMODEL "__number_of_dptrs", "1"
        RTMODEL "__rt_version", "1"

        RSEG DOVERLAY:DATA:NOROOT(0)
        RSEG IOVERLAY:IDATA:NOROOT(0)
        RSEG ISTACK:IDATA:NOROOT(0)
        RSEG PSTACK:XDATA:NOROOT(0)
        RSEG XSTACK:XDATA:NOROOT(0)

        EXTERN ??pollDMA?relay
        EXTERN ?ALLOC_XSTACK8
        EXTERN ?BANKED_ENTER_XDATA
        EXTERN ?BANKED_LEAVE_XDATA
        EXTERN ?BDISPATCH
        EXTERN ?BRET
        EXTERN ?CALL_IND
        EXTERN ?DEALLOC_XSTACK8
        EXTERN ?V0
        EXTERN ?XSP
        EXTERN __INIT_XDATA_Z

        PUBLIC ??HalUARTClose?relay
        FUNCTION ??HalUARTClose?relay,0203H
        PUBLIC ??HalUARTInit?relay
        FUNCTION ??HalUARTInit?relay,0203H
        PUBLIC ??HalUARTOpen?relay
        FUNCTION ??HalUARTOpen?relay,0203H
        PUBLIC ??HalUARTPoll?relay
        FUNCTION ??HalUARTPoll?relay,0203H
        PUBLIC ??HalUARTRead?relay
        FUNCTION ??HalUARTRead?relay,0203H
        PUBLIC ??HalUARTWrite?relay
        FUNCTION ??HalUARTWrite?relay,0203H
        PUBLIC ??Hal_UART_RxBufLen?relay
        FUNCTION ??Hal_UART_RxBufLen?relay,0203H
        FUNCTION ??pollDMA?relay,0203H
        PUBWEAK ADCCFG
        PUBWEAK DMAARM
        PUBWEAK DMAIRQ
        PUBWEAK DMAREQ
        PUBLIC HalUARTClose
        FUNCTION HalUARTClose,0203H
        ARGFRAME XSTACK, 0, STACK
        PUBLIC HalUARTInit
        FUNCTION HalUARTInit,0203H
        ARGFRAME XSTACK, 0, STACK
        LOCFRAME ISTACK, 2, STACK
        PUBLIC HalUARTOpen
        FUNCTION HalUARTOpen,021203H
        ARGFRAME XSTACK, 0, STACK
        LOCFRAME ISTACK, 1, STACK
        LOCFRAME XSTACK, 15, STACK
        PUBLIC HalUARTPoll
        FUNCTION HalUARTPoll,021203H
        ARGFRAME XSTACK, 0, STACK
        LOCFRAME ISTACK, 1, STACK
        LOCFRAME XSTACK, 9, STACK
        PUBLIC HalUARTRead
        FUNCTION HalUARTRead,0203H
        ARGFRAME XSTACK, 0, STACK
        LOCFRAME ISTACK, 1, STACK
        LOCFRAME XSTACK, 12, STACK
        PUBLIC HalUARTWrite
        FUNCTION HalUARTWrite,0203H
        ARGFRAME XSTACK, 0, STACK
        LOCFRAME ISTACK, 1, STACK
        LOCFRAME XSTACK, 12, STACK
        PUBLIC Hal_UART_RxBufLen
        FUNCTION Hal_UART_RxBufLen,0203H
        ARGFRAME XSTACK, 0, STACK
        LOCFRAME ISTACK, 3, STACK
        PUBWEAK P0DIR
        PUBWEAK P0SEL
        PUBWEAK P2DIR
        PUBWEAK PERCFG
        PUBWEAK ST0
        PUBWEAK U0BAUD
        PUBWEAK U0CSR
        PUBWEAK U0DBUF
        PUBWEAK U0GCR
        PUBWEAK U0UCR
        PUBWEAK _A_P0
        PUBWEAK _A_P1
        FUNCTION pollDMA,021203H
        ARGFRAME XSTACK, 9, STACK
        ARGFRAME IOVERLAY, 0, STATIC
        ARGFRAME DOVERLAY, 0, STATIC
        LOCFRAME ISTACK, 1, STACK
        LOCFRAME XSTACK, 11, STACK
        
        CFI Names cfiNames0
        CFI StackFrame CFA_SP SP DATA
        CFI StackFrame CFA_PSP16 PSP16 XDATA
        CFI StackFrame CFA_XSP16 XSP16 XDATA
        CFI StaticOverlayFrame CFA_IOVERLAY IOVERLAY
        CFI StaticOverlayFrame CFA_DOVERLAY DOVERLAY
        CFI Resource `PSW.CY`:1, `B.BR0`:1, `B.BR1`:1, `B.BR2`:1, `B.BR3`:1
        CFI Resource `B.BR4`:1, `B.BR5`:1, `B.BR6`:1, `B.BR7`:1, `VB.BR8`:1
        CFI Resource `VB.BR9`:1, `VB.BR10`:1, `VB.BR11`:1, `VB.BR12`:1
        CFI Resource `VB.BR13`:1, `VB.BR14`:1, `VB.BR15`:1, VB:8, B:8, A:8
        CFI Resource PSW:8, DPL0:8, DPH0:8, R0:8, R1:8, R2:8, R3:8, R4:8, R5:8
        CFI Resource R6:8, R7:8, V0:8, V1:8, V2:8, V3:8, V4:8, V5:8, V6:8, V7:8
        CFI Resource SP:8, PSPH:8, PSPL:8, PSP16:16, XSPH:8, XSPL:8, XSP16:16
        CFI VirtualResource ?RET:24
        CFI Resource ?BRET_EXT:8
        CFI VirtualResource ?RET_HIGH:8, ?RET_LOW:8
        CFI ResourceParts PSP16 PSPH, PSPL
        CFI ResourceParts XSP16 XSPH, XSPL
        CFI ResourceParts ?RET ?BRET_EXT, ?RET_HIGH, ?RET_LOW
        CFI EndNames cfiNames0
        
        CFI Common cfiCommon0 Using cfiNames0
        CFI CodeAlign 1
        CFI DataAlign -1
        CFI ReturnAddress ?RET CODE
        CFI CFA_DOVERLAY Used
        CFI CFA_IOVERLAY Used
        CFI CFA_SP SP+-3
        CFI CFA_PSP16 PSP16+0
        CFI CFA_XSP16 XSP16+0
        CFI `PSW.CY` SameValue
        CFI `B.BR0` SameValue
        CFI `B.BR1` SameValue
        CFI `B.BR2` SameValue
        CFI `B.BR3` SameValue
        CFI `B.BR4` SameValue
        CFI `B.BR5` SameValue
        CFI `B.BR6` SameValue
        CFI `B.BR7` SameValue
        CFI `VB.BR8` SameValue
        CFI `VB.BR9` SameValue
        CFI `VB.BR10` SameValue
        CFI `VB.BR11` SameValue
        CFI `VB.BR12` SameValue
        CFI `VB.BR13` SameValue
        CFI `VB.BR14` SameValue
        CFI `VB.BR15` SameValue
        CFI VB SameValue
        CFI B Undefined
        CFI A Undefined
        CFI PSW SameValue
        CFI DPL0 SameValue
        CFI DPH0 SameValue
        CFI R0 Undefined
        CFI R1 Undefined
        CFI R2 Undefined
        CFI R3 Undefined
        CFI R4 Undefined
        CFI R5 Undefined
        CFI R6 SameValue
        CFI R7 SameValue
        CFI V0 SameValue
        CFI V1 SameValue
        CFI V2 SameValue
        CFI V3 SameValue
        CFI V4 SameValue
        CFI V5 SameValue
        CFI V6 SameValue
        CFI V7 SameValue
        CFI PSPH Undefined
        CFI PSPL Undefined
        CFI XSPH Undefined
        CFI XSPL Undefined
        CFI ?RET Concat
        CFI ?BRET_EXT Frame(CFA_SP, 3)
        CFI ?RET_HIGH Frame(CFA_SP, 2)
        CFI ?RET_LOW Frame(CFA_SP, 1)
        CFI EndCommon cfiCommon0
        
        
        CFI Common cfiCommon1 Using cfiNames0
        CFI CodeAlign 1
        CFI DataAlign -1
        CFI ReturnAddress ?RET CODE
        CFI CFA_DOVERLAY Used
        CFI CFA_IOVERLAY Used
        CFI CFA_SP SP+-2
        CFI CFA_PSP16 PSP16+0
        CFI CFA_XSP16 XSP16+0
        CFI `PSW.CY` SameValue
        CFI `B.BR0` SameValue
        CFI `B.BR1` SameValue
        CFI `B.BR2` SameValue
        CFI `B.BR3` SameValue
        CFI `B.BR4` SameValue
        CFI `B.BR5` SameValue
        CFI `B.BR6` SameValue
        CFI `B.BR7` SameValue
        CFI `VB.BR8` SameValue
        CFI `VB.BR9` SameValue
        CFI `VB.BR10` SameValue
        CFI `VB.BR11` SameValue
        CFI `VB.BR12` SameValue
        CFI `VB.BR13` SameValue
        CFI `VB.BR14` SameValue
        CFI `VB.BR15` SameValue
        CFI VB SameValue
        CFI B SameValue
        CFI A SameValue
        CFI PSW SameValue
        CFI DPL0 SameValue
        CFI DPH0 SameValue
        CFI R0 SameValue
        CFI R1 SameValue
        CFI R2 SameValue
        CFI R3 SameValue
        CFI R4 SameValue
        CFI R5 SameValue
        CFI R6 SameValue
        CFI R7 SameValue
        CFI V0 SameValue
        CFI V1 SameValue
        CFI V2 SameValue
        CFI V3 SameValue
        CFI V4 SameValue
        CFI V5 SameValue
        CFI V6 SameValue
        CFI V7 SameValue
        CFI PSPH Undefined
        CFI PSPL Undefined
        CFI XSPH Undefined
        CFI XSPL Undefined
        CFI ?RET Concat
        CFI ?BRET_EXT SameValue
        CFI ?RET_HIGH Frame(CFA_SP, 2)
        CFI ?RET_LOW Frame(CFA_SP, 1)
        CFI EndCommon cfiCommon1
        
osal_memset         SYMBOL "osal_memset"
osal_mem_alloc      SYMBOL "osal_mem_alloc"
??osal_mem_alloc?relay SYMBOL "?relay", osal_mem_alloc
??osal_memset?relay SYMBOL "?relay", osal_memset
HalUARTClose        SYMBOL "HalUARTClose"
??HalUARTClose?relay SYMBOL "?relay", HalUARTClose
HalUARTInit         SYMBOL "HalUARTInit"
??HalUARTInit?relay SYMBOL "?relay", HalUARTInit
HalUARTOpen         SYMBOL "HalUARTOpen"
??HalUARTOpen?relay SYMBOL "?relay", HalUARTOpen
HalUARTPoll         SYMBOL "HalUARTPoll"
??HalUARTPoll?relay SYMBOL "?relay", HalUARTPoll
HalUARTRead         SYMBOL "HalUARTRead"
??HalUARTRead?relay SYMBOL "?relay", HalUARTRead
HalUARTWrite        SYMBOL "HalUARTWrite"
??HalUARTWrite?relay SYMBOL "?relay", HalUARTWrite
Hal_UART_RxBufLen   SYMBOL "Hal_UART_RxBufLen"
??Hal_UART_RxBufLen?relay SYMBOL "?relay", Hal_UART_RxBufLen

        EXTERN osal_memset
        FUNCTION osal_memset,0202H
        ARGFRAME ISTACK, 0, STACK
        ARGFRAME PSTACK, 0, STACK
        ARGFRAME XSTACK, 15, STACK
        ARGFRAME IOVERLAY, 0, STATIC
        ARGFRAME DOVERLAY, 0, STATIC
        EXTERN osal_mem_alloc
        FUNCTION osal_mem_alloc,0202H
        ARGFRAME ISTACK, 0, STACK
        ARGFRAME PSTACK, 0, STACK
        ARGFRAME XSTACK, 15, STACK
        ARGFRAME IOVERLAY, 0, STATIC
        ARGFRAME DOVERLAY, 0, STATIC
        EXTERN ??osal_mem_alloc?relay
        FUNCTION ??osal_mem_alloc?relay,00H
        EXTERN ??osal_memset?relay
        FUNCTION ??osal_memset?relay,00H
        EXTERN dmaCh1234

// C:\Texas Instruments\ZStack-1.4.3-1.2.1\Components\hal\target\CC2430EB\hal_uart.c
//    1 /**************************************************************************************************
//    2   Filename:       _hal_uart.c
//    3   Revised:        $Date: 2007-11-01 08:44:53 -0700 (Thu, 01 Nov 2007) $
//    4   Revision:       $Revision: 15821 $
//    5 
//    6   Description: This file contains the interface to the H/W UART driver.
//    7 
//    8 
//    9   Copyright 2006-2007 Texas Instruments Incorporated. All rights reserved.
//   10 
//   11   IMPORTANT: Your use of this Software is limited to those specific rights
//   12   granted under the terms of a software license agreement between the user
//   13   who downloaded the software, his/her employer (which must be your employer)
//   14   and Texas Instruments Incorporated (the "License").  You may not use this
//   15   Software unless you agree to abide by the terms of the License. The License
//   16   limits your use, and you acknowledge, that the Software may not be modified,
//   17   copied or distributed unless embedded on a Texas Instruments microcontroller
//   18   or used solely and exclusively in conjunction with a Texas Instruments radio
//   19   frequency transceiver, which is integrated into your product.  Other than for
//   20   the foregoing purpose, you may not use, reproduce, copy, prepare derivative
//   21   works of, modify, distribute, perform, display or sell this Software and/or
//   22   its documentation for any purpose.
//   23 
//   24   YOU FURTHER ACKNOWLEDGE AND AGREE THAT THE SOFTWARE AND DOCUMENTATION ARE
//   25   PROVIDED “AS IS” WITHOUT WARRANTY OF ANY KIND, EITHER EXPRESS OR IMPLIED, 
//   26   INCLUDING WITHOUT LIMITATION, ANY WARRANTY OF MERCHANTABILITY, TITLE, 
//   27   NON-INFRINGEMENT AND FITNESS FOR A PARTICULAR PURPOSE. IN NO EVENT SHALL
//   28   TEXAS INSTRUMENTS OR ITS LICENSORS BE LIABLE OR OBLIGATED UNDER CONTRACT,
//   29   NEGLIGENCE, STRICT LIABILITY, CONTRIBUTION, BREACH OF WARRANTY, OR OTHER
//   30   LEGAL EQUITABLE THEORY ANY DIRECT OR INDIRECT DAMAGES OR EXPENSES
//   31   INCLUDING BUT NOT LIMITED TO ANY INCIDENTAL, SPECIAL, INDIRECT, PUNITIVE
//   32   OR CONSEQUENTIAL DAMAGES, LOST PROFITS OR LOST DATA, COST OF PROCUREMENT
//   33   OF SUBSTITUTE GOODS, TECHNOLOGY, SERVICES, OR ANY CLAIMS BY THIRD PARTIES
//   34   (INCLUDING BUT NOT LIMITED TO ANY DEFENSE THEREOF), OR OTHER SIMILAR COSTS.
//   35 
//   36   Should you have any questions regarding your right to use this Software,
//   37   contact Texas Instruments Incorporated at www.TI.com. 
//   38 **************************************************************************************************/
//   39 
//   40 /*********************************************************************
//   41  * INCLUDES
//   42  */
//   43 
//   44 #include "hal_types.h"
//   45 #include "hal_assert.h"
//   46 #include "hal_board.h"

        ASEGN SFR_AN:DATA:NOROOT,080H
// union <unnamed> volatile __sfr _A_P0
_A_P0:
        DS 1

        ASEGN SFR_AN:DATA:NOROOT,086H
// unsigned char volatile __sfr U0CSR
U0CSR:
        DS 1

        ASEGN SFR_AN:DATA:NOROOT,090H
// union <unnamed> volatile __sfr _A_P1
_A_P1:
        DS 1

        ASEGN SFR_AN:DATA:NOROOT,095H
// unsigned char volatile __sfr ST0
ST0:
        DS 1

        ASEGN SFR_AN:DATA:NOROOT,0c1H
// unsigned char volatile __sfr U0DBUF
U0DBUF:
        DS 1

        ASEGN SFR_AN:DATA:NOROOT,0c2H
// unsigned char volatile __sfr U0BAUD
U0BAUD:
        DS 1

        ASEGN SFR_AN:DATA:NOROOT,0c4H
// unsigned char volatile __sfr U0UCR
U0UCR:
        DS 1

        ASEGN SFR_AN:DATA:NOROOT,0c5H
// unsigned char volatile __sfr U0GCR
U0GCR:
        DS 1

        ASEGN SFR_AN:DATA:NOROOT,0d1H
// unsigned char volatile __sfr DMAIRQ
DMAIRQ:
        DS 1

        ASEGN SFR_AN:DATA:NOROOT,0d6H
// unsigned char volatile __sfr DMAARM
DMAARM:
        DS 1

        ASEGN SFR_AN:DATA:NOROOT,0d7H
// unsigned char volatile __sfr DMAREQ
DMAREQ:
        DS 1

        ASEGN SFR_AN:DATA:NOROOT,0f1H
// unsigned char volatile __sfr PERCFG
PERCFG:
        DS 1

        ASEGN SFR_AN:DATA:NOROOT,0f2H
// unsigned char volatile __sfr ADCCFG
ADCCFG:
        DS 1

        ASEGN SFR_AN:DATA:NOROOT,0f3H
// unsigned char volatile __sfr P0SEL
P0SEL:
        DS 1

        ASEGN SFR_AN:DATA:NOROOT,0fdH
// unsigned char volatile __sfr P0DIR
P0DIR:
        DS 1

        ASEGN SFR_AN:DATA:NOROOT,0ffH
// unsigned char volatile __sfr P2DIR
P2DIR:
        DS 1
//   47 #include "hal_defs.h"
//   48 #if defined( HAL_UART_DMA ) && HAL_UART_DMA
//   49   #include "hal_dma.h"
//   50 #endif
//   51 #include "hal_mcu.h"
//   52 #include "hal_uart.h"
//   53 #include "osal.h"
//   54 
//   55 /*********************************************************************
//   56  * MACROS
//   57  */
//   58 
//   59 #if !defined ( HAL_UART_DEBUG )
//   60   #define HAL_UART_DEBUG  FALSE
//   61 #endif
//   62 
//   63 #if !defined ( HAL_UART_CLOSE )
//   64   #define HAL_UART_CLOSE  FALSE
//   65 #endif
//   66 
//   67 #if !defined ( HAL_UART_BIG_TX_BUF )
//   68   #define HAL_UART_BIG_TX_BUF  FALSE
//   69 #endif
//   70 
//   71 /*
//   72  *  The MAC_ASSERT macro is for use during debugging.
//   73  *  The given expression must evaluate as "true" or else fatal error occurs.
//   74  *  At that point, the call stack feature of the debugger can pinpoint where
//   75  *  the problem occurred.
//   76  *
//   77  *  To disable this feature and save code size, the project should define
//   78  *  HAL_UART_DEBUG to FALSE.
//   79  */
//   80 #if ( HAL_UART_DEBUG )
//   81   #define HAL_UART_ASSERT( expr)        HAL_ASSERT( expr )
//   82 #else
//   83   #define HAL_UART_ASSERT( expr )
//   84 #endif
//   85 
//   86 #define P2DIR_PRIPO               0xC0
//   87 #if HAL_UART_0_ENABLE
//   88   #define HAL_UART_PRIPO          0x00
//   89 #else
//   90   #define HAL_UART_PRIPO          0x40
//   91 #endif
//   92 
//   93 #define HAL_UART_0_PERCFG_BIT     0x01  // USART0 on P0, so clear this bit.
//   94 #define HAL_UART_0_P0_RX_TX       0x0c  // Peripheral I/O Select for Rx/Tx.
//   95 #define HAL_UART_0_P0_RTS         0x10  // Peripheral I/O Select for RTS.
//   96 #define HAL_UART_0_P0_CTS         0x20  // Peripheral I/O Select for CTS.
//   97 
//   98 #define HAL_UART_1_PERCFG_BIT     0x02  // USART1 on P1, so set this bit.
//   99 #define HAL_UART_1_P1_RTS         0x10  // Peripheral I/O Select for RTS.
//  100 #define HAL_UART_1_P1_CTS         0x20  // Peripheral I/O Select for CTS.
//  101 #define HAL_UART_1_P1_RX_TX       0xC0  // Peripheral I/O Select for Rx/Tx.
//  102 
//  103 #define TX_AVAIL( cfg ) \ 
//  104   ((cfg->txTail == cfg->txHead) ? (cfg->txMax-1) : \ 
//  105   ((cfg->txTail >  cfg->txHead) ? (cfg->txTail - cfg->txHead - 1) : \ 
//  106                      (cfg->txMax - cfg->txHead + cfg->txTail)))
//  107 
//  108 #define RX0_FLOW_ON  ( P0 &= ~HAL_UART_0_P0_CTS )
//  109 #define RX0_FLOW_OFF ( P0 |= HAL_UART_0_P0_CTS )
//  110 #define RX1_FLOW_ON  ( P1 &= ~HAL_UART_1_P1_CTS)
//  111 #define RX1_FLOW_OFF ( P1 |= HAL_UART_1_P1_CTS )
//  112 
//  113 #define RX_STOP_FLOW( cfg ) { \ 
//  114   if ( !(cfg->flag & UART_CFG_U1F) ) \ 
//  115   { \ 
//  116     RX0_FLOW_OFF; \ 
//  117   } \ 
//  118   else \ 
//  119   { \ 
//  120     RX1_FLOW_OFF; \ 
//  121   } \ 
//  122   if ( cfg->flag & UART_CFG_DMA ) \ 
//  123   { \ 
//  124     cfg->rxTick = DMA_RX_DLY; \ 
//  125   } \ 
//  126   cfg->flag |= UART_CFG_RXF; \ 
//  127 }
//  128 
//  129 #define RX_STRT_FLOW( cfg ) { \ 
//  130   if ( !(cfg->flag & UART_CFG_U1F) ) \ 
//  131   { \ 
//  132     RX0_FLOW_ON; \ 
//  133   } \ 
//  134   else \ 
//  135   { \ 
//  136     RX1_FLOW_ON; \ 
//  137   } \ 
//  138   cfg->flag &= ~UART_CFG_RXF; \ 
//  139 }
//  140 
//  141 #define UART_RX_AVAIL( cfg ) \ 
//  142   ( (cfg->rxHead >= cfg->rxTail) ? (cfg->rxHead - cfg->rxTail) : \ 
//  143                                    (cfg->rxMax - cfg->rxTail + cfg->rxHead +1 ) )
//  144 
//  145 /* Need to leave enough of the Rx buffer free to handle the incoming bytes
//  146  * after asserting flow control, but before the transmitter has obeyed it.
//  147  * At the max expected baud rate of 115.2k, 16 bytes will only take ~1.3 msecs,
//  148  * but at the min expected baud rate of 38.4k, they could take ~4.2 msecs.
//  149  * SAFE_RX_MIN and DMA_RX_DLY must both be consistent according to
//  150  * the min & max expected baud rate.
//  151  */
//  152 #if !defined( SAFE_RX_MIN )
//  153   #define SAFE_RX_MIN  48  // bytes - max expected per poll @ 115.2k
//  154   // 16 bytes @ 38.4 kBaud -> 4.16 msecs -> 138 32-kHz ticks.
//  155   #define DMA_RX_DLY  140
//  156   //  2 bytes @ 38.4 kBaud -> 0.52 msecs ->  17 32-kHz ticks.
//  157   #define DMA_TX_DLY   20
//  158 #endif
//  159 
//  160 // The timeout tick is at 32-kHz, so multiply msecs by 33.
//  161 #define RX_MSECS_TO_TICKS  33
//  162 
//  163 // The timeout only supports 1 byte.
//  164 #if !defined( HAL_UART_RX_IDLE )
//  165   #define HAL_UART_RX_IDLE  (6 * RX_MSECS_TO_TICKS)
//  166 #endif
//  167 
//  168 // Only supporting 1 of the 2 USART modules to be driven by DMA at a time.
//  169 #if HAL_UART_DMA == 1
//  170   #define DMATRIG_RX  HAL_DMA_TRIG_URX0
//  171   #define DMATRIG_TX  HAL_DMA_TRIG_UTX0
//  172   #define DMA_UDBUF   HAL_DMA_U0DBUF
//  173   #define DMA_PAD     U0BAUD
//  174 #elif HAL_UART_DMA == 2
//  175   #define DMATRIG_RX  HAL_DMA_TRIG_URX1
//  176   #define DMATRIG_TX  HAL_DMA_TRIG_UTX1
//  177   #define DMA_UDBUF   HAL_DMA_U1DBUF
//  178   #define DMA_PAD     U1BAUD
//  179 #endif
//  180 
//  181 #define DMA_RX( cfg ) { \ 
//  182   volatile uint8 ft2430 = U0DBUF; \ 
//  183   \ 
//  184   halDMADesc_t *ch = HAL_DMA_GET_DESC1234( HAL_DMA_CH_RX ); \ 
//  185   \ 
//  186   HAL_DMA_SET_DEST( ch, cfg->rxBuf ); \ 
//  187   \ 
//  188   HAL_DMA_SET_LEN( ch, cfg->rxMax ); \ 
//  189   \ 
//  190   HAL_DMA_CLEAR_IRQ( HAL_DMA_CH_RX ); \ 
//  191   \ 
//  192   HAL_DMA_ARM_CH( HAL_DMA_CH_RX ); \ 
//  193 }
//  194 
//  195 #define DMA_TX( cfg ) { \ 
//  196   halDMADesc_t *ch = HAL_DMA_GET_DESC1234( HAL_DMA_CH_TX ); \ 
//  197   \ 
//  198   HAL_DMA_SET_SOURCE( ch, (cfg->txBuf + cfg->txTail) ); \ 
//  199   \ 
//  200   HAL_DMA_SET_LEN( ch, cfg->txCnt ); \ 
//  201   \ 
//  202   HAL_DMA_CLEAR_IRQ( HAL_DMA_CH_TX ); \ 
//  203   \ 
//  204   HAL_DMA_ARM_CH( HAL_DMA_CH_TX ); \ 
//  205   \ 
//  206   HAL_DMA_START_CH( HAL_DMA_CH_TX ); \ 
//  207 }
//  208 
//  209 /*********************************************************************
//  210  * TYPEDEFS
//  211  */
//  212 
//  213 typedef struct
//  214 {
//  215   uint8 *rxBuf;
//  216   uint8 rxHead;
//  217   uint8 rxTail;
//  218   uint8 rxMax;
//  219   uint8 rxCnt;
//  220   uint8 rxTick;
//  221   uint8 rxHigh;
//  222 
//  223   uint8 *txBuf;
//  224 #if HAL_UART_BIG_TX_BUF
//  225   uint16 txHead;
//  226   uint16 txTail;
//  227   uint16 txMax;
//  228   uint16 txCnt;
//  229 #else
//  230   uint8 txHead;
//  231   uint8 txTail;
//  232   uint8 txMax;
//  233   uint8 txCnt;
//  234 #endif
//  235   uint8 txTick;
//  236 
//  237   uint8 flag;
//  238 
//  239   halUARTCBack_t rxCB;
//  240 } uartCfg_t;
//  241 
//  242 /*********************************************************************
//  243  * CONSTANTS
//  244  */
//  245 
//  246 // Used by DMA macros to shift 1 to create a mask for DMA registers.
//  247 #define HAL_DMA_CH_TX    3
//  248 #define HAL_DMA_CH_RX    4
//  249 
//  250 #define HAL_DMA_U0DBUF  0xDFC1
//  251 #define HAL_DMA_U1DBUF  0xDFF9
//  252 
//  253 // UxCSR - USART Control and Status Register.
//  254 #define CSR_MODE      0x80
//  255 #define CSR_RE        0x40
//  256 #define CSR_SLAVE     0x20
//  257 #define CSR_FE        0x10
//  258 #define CSR_ERR       0x08
//  259 #define CSR_RX_BYTE   0x04
//  260 #define CSR_TX_BYTE   0x02
//  261 #define CSR_ACTIVE    0x01
//  262 
//  263 // UxUCR - USART UART Control Register.
//  264 #define UCR_FLUSH     0x80
//  265 #define UCR_FLOW      0x40
//  266 #define UCR_D9        0x20
//  267 #define UCR_BIT9      0x10
//  268 #define UCR_PARITY    0x08
//  269 #define UCR_SPB       0x04
//  270 #define UCR_STOP      0x02
//  271 #define UCR_START     0x01
//  272 
//  273 #define UTX0IE        0x04
//  274 #define UTX1IE        0x08
//  275 
//  276 #define UART_CFG_U1F  0x80  // USART1 flag bit.
//  277 #define UART_CFG_DMA  0x40  // Port is using DMA.
//  278 #define UART_CFG_FLW  0x20  // Port is using flow control.
//  279 #define UART_CFG_SP4  0x10
//  280 #define UART_CFG_SP3  0x08
//  281 #define UART_CFG_SP2  0x04
//  282 #define UART_CFG_RXF  0x02  // Rx flow is disabled.
//  283 #define UART_CFG_TXF  0x01  // Tx is in process.
//  284 
//  285 /*********************************************************************
//  286  * GLOBAL VARIABLES
//  287  */
//  288 
//  289 /*********************************************************************
//  290  * GLOBAL FUNCTIONS
//  291  */
//  292 
//  293 /*********************************************************************
//  294  * LOCAL VARIABLES
//  295  */
//  296 
//  297 #if HAL_UART_0_ENABLE

        RSEG XDATA_Z:XDATA:NOROOT(0)
//  298 static uartCfg_t *cfg0;
cfg0:
        DS 2
        REQUIRE __INIT_XDATA_Z
//  299 #endif
//  300 #if HAL_UART_1_ENABLE
//  301 static uartCfg_t *cfg1;
//  302 #endif
//  303 
//  304 /*********************************************************************
//  305  * LOCAL FUNCTIONS
//  306  */
//  307 
//  308 #if HAL_UART_DMA
//  309 static void pollDMA( uartCfg_t *cfg );
//  310 #endif
//  311 #if HAL_UART_ISR
//  312 static void pollISR( uartCfg_t *cfg );
//  313 #endif
//  314 
//  315 #if HAL_UART_DMA
//  316 /******************************************************************************
//  317  * @fn      pollDMA
//  318  *
//  319  * @brief   Poll a USART module implemented by DMA.
//  320  *
//  321  * @param   cfg - USART configuration structure.
//  322  *
//  323  * @return  none
//  324  *****************************************************************************/

        RSEG BANKED_CODE:CODE:NOROOT(0)
//  325 static void pollDMA( uartCfg_t *cfg )
pollDMA:
        CFI Block cfiBlock0 Using cfiCommon0
        CFI Function pollDMA
//  326 {
        FUNCALL pollDMA, osal_memset
        LOCFRAME ISTACK, 0, STACK
        LOCFRAME PSTACK, 0, STACK
        LOCFRAME XSTACK, 11, STACK
        LOCFRAME IOVERLAY, 0, STATIC
        LOCFRAME DOVERLAY, 0, STATIC
        ARGFRAME ISTACK, 0, STACK
        ARGFRAME PSTACK, 0, STACK
        ARGFRAME XSTACK, 11, STACK
        ARGFRAME IOVERLAY, 0, STATIC
        ARGFRAME DOVERLAY, 0, STATIC
        MOV     A,#-0xa
        LCALL   ?BANKED_ENTER_XDATA
        CFI DPH0 load(1, XDATA, add(CFA_XSP16, literal(-1)))
        CFI DPL0 load(1, XDATA, add(CFA_XSP16, literal(-2)))
        CFI ?BRET_EXT load(1, XDATA, add(CFA_XSP16, literal(-3)))
        CFI ?RET_HIGH load(1, XDATA, add(CFA_XSP16, literal(-4)))
        CFI ?RET_LOW load(1, XDATA, add(CFA_XSP16, literal(-5)))
        CFI R7 load(1, XDATA, add(CFA_XSP16, literal(-6)))
        CFI V1 load(1, XDATA, add(CFA_XSP16, literal(-7)))
        CFI V0 load(1, XDATA, add(CFA_XSP16, literal(-8)))
        CFI VB load(1, XDATA, add(CFA_XSP16, literal(-9)))
        CFI R6 load(1, XDATA, add(CFA_XSP16, literal(-10)))
        CFI CFA_SP SP+0
        CFI CFA_XSP16 add(XSP16, 10)
        ; Saved register size: 10
        ; Auto size: 1
        MOV     A,#-0x1
        LCALL   ?ALLOC_XSTACK8
        CFI CFA_XSP16 add(XSP16, 11)
        MOV     A,R2
        MOV     R6,A
        MOV     A,R3
        MOV     R7,A
//  327   const uint8 cnt = cfg->rxHead;
        MOV     A,R6
        ADD     A,#0x2
        INC     R2
        INC     R2
        LCALL   ?Subroutine4 & 0xFFFF
//  328   uint8 *pad = cfg->rxBuf+(cfg->rxHead*2);
??CrossCallReturnLabel_9:
        CLR     C
        RLC     A
        MOV     R0,A
        CLR     A
        RLC     A
        MOV     R1,A
        MOV     DPL,R6
        MOV     DPH,R7
        MOVX    A,@DPTR
        ADD     A,R0
        MOV     R0,A
        INC     DPTR
        MOVX    A,@DPTR
        ADDC    A,R1
        SJMP    ??pollDMA_0
//  329 
//  330   // Pack the received bytes to the front of the queue.
//  331   while ( (*pad == DMA_PAD) && (cfg->rxHead < cfg->rxMax) )
//  332   {
//  333     cfg->rxBuf[cfg->rxHead++] = *(pad+1);
??pollDMA_1:
        MOV     A,R6
        ADD     A,#0x2
        MOV     R2,A
        MOV     DPL,R0
        MOV     DPH,R1
        INC     DPTR
        MOVX    A,@DPTR
        PUSH    A
        CFI CFA_SP SP+-1
        MOV     DPL,R2
        MOV     DPH,R3
        MOVX    A,@DPTR
        MOV     ?V0 + 0,A
        MOV     DPL,R6
        MOV     DPH,R7
        MOVX    A,@DPTR
        ADD     A,?V0 + 0
        MOV     R5,A
        INC     DPTR
        MOVX    A,@DPTR
        ADDC    A,#0x0
        MOV     DPL,R5
        MOV     DPH,A
        POP     A
        CFI CFA_SP SP+0
        MOVX    @DPTR,A
        MOV     DPL,R2
        MOV     DPH,R3
        MOVX    A,@DPTR
        INC     A
        MOVX    @DPTR,A
//  334     pad += 2;
        MOV     A,R0
        ADD     A,#0x2
        INC     R0
        INC     R0
        MOV     A,R1
        ADDC    A,#0x0
??pollDMA_0:
        MOV     R1,A
//  335   }
        MOV     DPL,R0
        MOV     DPH,R1
        MOVX    A,@DPTR
        XRL     A,0xc2
        JNZ     ??pollDMA_2
        MOV     DPL,R6
        MOV     DPH,R7
        INC     DPTR
        INC     DPTR
        MOVX    A,@DPTR
        PUSH    A
        CFI CFA_SP SP+-1
        MOV     DPL,R6
        MOV     DPH,R7
        INC     DPTR
        INC     DPTR
        INC     DPTR
        INC     DPTR
        MOVX    A,@DPTR
        MOV     R2,A
        POP     A
        CFI CFA_SP SP+0
        CLR     C
        SUBB    A,R2
        JC      ??pollDMA_1
//  336 
//  337   if ( !(cfg->flag & UART_CFG_RXF) )
??pollDMA_2:
        LCALL   ?Subroutine7 & 0xFFFF
??CrossCallReturnLabel_16:
        MOV     C,0xE0 /* A   */.1
        MOV     DPL,R6
        MOV     DPH,R7
        INC     DPTR
        INC     DPTR
        JC      ??pollDMA_3
//  338   {
//  339     /* It is necessary to stop Rx flow and wait for H/W-enqueued bytes still
//  340      * incoming to stop before resetting the DMA Rx engine. If DMA Rx is
//  341      * aborted during incoming data, a byte may be lost inside the engine
//  342      * during the 2-step transfer process of read/write.
//  343      */
//  344     if ( cfg->rxHead >= (cfg->rxMax - SAFE_RX_MIN) )
        MOVX    A,@DPTR
        MOV     R2,A
        LCALL   ?Subroutine1 & 0xFFFF
??CrossCallReturnLabel_0:
        JC      ??pollDMA_4
//  345     {
//  346       RX_STOP_FLOW( cfg );
        LCALL   ?Subroutine3 & 0xFFFF
??CrossCallReturnLabel_6:
        JC      ??pollDMA_5
        SETB    0x80.5
        SJMP    ??pollDMA_6
??pollDMA_5:
        SETB    0x90.5
??pollDMA_6:
        MOV     C,0xE0 /* A   */.6
        JNC     ??pollDMA_7
        MOV     A,#-0x74
        MOV     DPL,R6
        MOV     DPH,R7
        INC     DPTR
        INC     DPTR
        INC     DPTR
        INC     DPTR
        INC     DPTR
        INC     DPTR
        MOVX    @DPTR,A
??pollDMA_7:
        LCALL   ?Subroutine7 & 0xFFFF
??CrossCallReturnLabel_17:
        SETB    0xE0 /* A   */.1
        SJMP    ??pollDMA_8
//  347     }
//  348     // If anything received, reset the Rx idle timer.
//  349     else if ( cfg->rxHead != cnt )
??pollDMA_4:
        MOV     DPL,R6
        MOV     DPH,R7
        INC     DPTR
        INC     DPTR
        MOVX    A,@DPTR
        XRL     A,R4
        JZ      ??pollDMA_9
//  350     {
//  351       cfg->rxTick = HAL_UART_RX_IDLE;
        MOV     A,#-0x3a
        MOV     DPL,R6
        MOV     DPH,R7
        INC     DPTR
        INC     DPTR
        INC     DPTR
        INC     DPTR
        INC     DPTR
        INC     DPTR
        SJMP    ??pollDMA_8
//  352     }
//  353   }
//  354   else if ( !cfg->rxTick && (cfg->rxHead == cfg->rxTail) )
??pollDMA_3:
        INC     DPTR
        INC     DPTR
        INC     DPTR
        INC     DPTR
        MOVX    A,@DPTR
        JNZ     ??pollDMA_9
        LCALL   ?Subroutine12 & 0xFFFF
??CrossCallReturnLabel_43:
        JNZ     ??pollDMA_9
//  355   {
//  356     HAL_DMA_ABORT_CH( HAL_DMA_CH_RX );
        MOV     0xd6,#-0x70
//  357     cfg->rxHead = cfg->rxTail = 0;
        LCALL   ?Subroutine16 & 0xFFFF
//  358     osal_memset( cfg->rxBuf, ~DMA_PAD, cfg->rxMax*2 );
??CrossCallReturnLabel_49:
        ADD     A,#0x4
        MOV     ?V0 + 0,A
        MOV     A,R7
        ADDC    A,#0x0
        MOV     ?V0 + 1,A
        ; Setup parameters for call to function osal_memset
        MOV     DPL,?V0 + 0
        MOV     DPH,A
        LCALL   ?Subroutine9 & 0xFFFF
??CrossCallReturnLabel_37:
        INC     DPTR
        MOVX    A,@DPTR
        MOV     R3,A
        LCALL   ?Subroutine10 & 0xFFFF
//  359     DMA_RX( cfg );
??CrossCallReturnLabel_39:
        MOV     DPL,?V0 + 0
        MOV     DPH,?V0 + 1
        LCALL   ?Subroutine8 & 0xFFFF
//  360     RX_STRT_FLOW( cfg );
??CrossCallReturnLabel_35:
        LCALL   ?Subroutine3 & 0xFFFF
??CrossCallReturnLabel_7:
        JC      ??pollDMA_10
        CLR     0x80.5
        SJMP    ??pollDMA_11
??pollDMA_10:
        CLR     0x90.5
??pollDMA_11:
        CLR     0xE0 /* A   */.1
??pollDMA_8:
        MOVX    @DPTR,A
//  361   }
//  362 
//  363   if ( HAL_DMA_CHECK_IRQ( HAL_DMA_CH_TX ) )
??pollDMA_9:
        MOV     A,0xd1
        MOV     C,0xE0 /* A   */.3
        JNC     ??pollDMA_12
//  364   {
//  365     HAL_DMA_CLEAR_IRQ( HAL_DMA_CH_TX );
        ANL     0xd1,#0xf7
//  366     cfg->flag &= ~UART_CFG_TXF;
        LCALL   ?Subroutine7 & 0xFFFF
??CrossCallReturnLabel_18:
        CLR     0xE0 /* A   */.0
        MOVX    @DPTR,A
//  367     cfg->txTick = DMA_TX_DLY;
        MOV     A,R6
        ADD     A,#0xe
        LCALL   ??Subroutine21_0 & 0xFFFF
??CrossCallReturnLabel_64:
        MOV     A,#0x14
        MOVX    @DPTR,A
//  368 
//  369     if ( (cfg->txMax - cfg->txCnt) < cfg->txTail )
        MOV     A,R6
        ADD     A,#0xc
        LCALL   ??Subroutine7_0 & 0xFFFF
??CrossCallReturnLabel_19:
        MOV     R0,A
        LCALL   ?Subroutine2 & 0xFFFF
??CrossCallReturnLabel_2:
        MOV     A,R0
        CLR     C
        SUBB    A,R2
        MOV     R0,A
        CLR     A
        SUBB    A,#0x0
        MOV     R1,A
        MOV     A,R6
        ADD     A,#0xb
        LCALL   ??Subroutine2_0 & 0xFFFF
??CrossCallReturnLabel_3:
        CLR     C
        MOV     A,R0
        SUBB    A,R2
        MOV     A,R1
        SUBB    A,#0x0
        MOV     C,0xD0 /* PSW */.2
        XRL     A,PSW
        RLC     A
        JNC     ??pollDMA_13
//  370     {
//  371       cfg->txTail = 0;  // DMA can only run to the end of the Tx buffer.
        CLR     A
??pollDMA_14:
        MOVX    @DPTR,A
        LJMP    ??pollDMA_15 & 0xFFFF
//  372     }
//  373     else
//  374     {
//  375       cfg->txTail += cfg->txCnt;
??pollDMA_13:
        LCALL   ?Subroutine2 & 0xFFFF
??CrossCallReturnLabel_4:
        MOV     A,R6
        ADD     A,#0xb
        LCALL   ??Subroutine7_0 & 0xFFFF
??CrossCallReturnLabel_20:
        ADD     A,R2
        SJMP    ??pollDMA_14
//  376     }
//  377   }
//  378   else if ( !(cfg->flag & UART_CFG_TXF) && !cfg->txTick )
??pollDMA_12:
        LCALL   ?Subroutine7 & 0xFFFF
??CrossCallReturnLabel_21:
        MOV     C,0xE0 /* A   */.0
        JNC     $+5
        LJMP    ??pollDMA_15 & 0xFFFF
        MOV     A,R6
        ADD     A,#0xe
        LCALL   ??Subroutine7_0 & 0xFFFF
??CrossCallReturnLabel_22:
        JZ      $+5
        LJMP    ??pollDMA_15 & 0xFFFF
//  379   {
//  380     if ( cfg->txTail != cfg->txHead )
        MOV     A,R6
        LCALL   ?Subroutine0 & 0xFFFF
??CrossCallReturnLabel_70:
        XRL     A,R2
        JNZ     $+5
        LJMP    ??pollDMA_15 & 0xFFFF
//  381     {
//  382       if ( cfg->txTail < cfg->txHead )
        MOV     A,R6
        ADD     A,#0xb
        LCALL   ??Subroutine7_0 & 0xFFFF
??CrossCallReturnLabel_23:
        PUSH    A
        CFI CFA_SP SP+-1
        MOV     DPL,R6
        MOV     DPH,R7
        INC     DPTR
        INC     DPTR
        INC     DPTR
        INC     DPTR
        INC     DPTR
        INC     DPTR
        INC     DPTR
        INC     DPTR
        INC     DPTR
        INC     DPTR
        MOVX    A,@DPTR
        MOV     R2,A
        POP     A
        CFI CFA_SP SP+0
        CLR     C
        SUBB    A,R2
        MOV     A,R6
        JNC     ??pollDMA_16
//  383       {
//  384         cfg->txCnt = cfg->txHead - cfg->txTail;
        LCALL   ?Subroutine0 & 0xFFFF
??CrossCallReturnLabel_71:
        CLR     C
        SUBB    A,R2
        SJMP    ??pollDMA_17
//  385       }
//  386       else  // Can only run DMA engine up to max, then restart at zero.
//  387       {
//  388         cfg->txCnt = cfg->txMax - cfg->txTail + 1;
??pollDMA_16:
        ADD     A,#0xb
        LCALL   ??Subroutine2_0 & 0xFFFF
??CrossCallReturnLabel_5:
        MOV     A,R6
        ADD     A,#0xc
        LCALL   ??Subroutine7_0 & 0xFFFF
??CrossCallReturnLabel_24:
        CLR     C
        SUBB    A,R2
        INC     A
??pollDMA_17:
        PUSH    A
        CFI CFA_SP SP+-1
        MOV     A,R6
        ADD     A,#0xd
        LCALL   ??Subroutine21_0 & 0xFFFF
??CrossCallReturnLabel_65:
        POP     A
        CFI CFA_SP SP+0
        MOVX    @DPTR,A
//  389       }
//  390 
//  391       cfg->flag |= UART_CFG_TXF;
        LCALL   ?Subroutine7 & 0xFFFF
??CrossCallReturnLabel_25:
        SETB    0xE0 /* A   */.0
        MOVX    @DPTR,A
//  392       DMA_TX( cfg );
        MOV     A,R6
        ADD     A,#0x8
        MOV     R0,A
        MOV     A,R7
        ADDC    A,#0x0
        MOV     R1,A
        MOV     A,R6
        ADD     A,#0xb
        MOV     R2,A
        LCALL   ?Subroutine4 & 0xFFFF
??CrossCallReturnLabel_10:
        MOV     DPL,R0
        MOV     DPH,R1
        MOVX    A,@DPTR
        ADD     A,R4
        INC     DPTR
        MOVX    A,@DPTR
        ADDC    A,#0x0
        MOV     DPTR,#(dmaCh1234 + 16)
        MOVX    @DPTR,A
        MOV     DPL,R2
        MOV     DPH,R3
        MOVX    A,@DPTR
        MOV     R2,A
        MOV     DPL,R0
        MOV     DPH,R1
        MOVX    A,@DPTR
        ADD     A,R2
        MOV     DPTR,#(dmaCh1234 + 17)
        MOVX    @DPTR,A
        MOV     A,R6
        ADD     A,#0xd
        LCALL   ??Subroutine7_0 & 0xFFFF
??CrossCallReturnLabel_26:
        MOV     DPTR,#(dmaCh1234 + 21)
        MOVX    @DPTR,A
        MOV     DPTR,#(dmaCh1234 + 20)
        MOVX    A,@DPTR
        ANL     A,#0xe0
        MOVX    @DPTR,A
        ANL     0xd1,#0xf7
        MOV     0xd6,#0x8
        MOV     0xd7,#0x8
//  393     }
//  394   }
//  395 }
??pollDMA_15:
        MOV     A,#0x1
        LCALL   ?DEALLOC_XSTACK8
        CFI CFA_XSP16 add(XSP16, 10)
        MOV     R7,#0x2
        LJMP    ?BANKED_LEAVE_XDATA
        CFI EndBlock cfiBlock0
        REQUIRE _A_P0
        REQUIRE _A_P1
        REQUIRE U0DBUF
        REQUIRE U0BAUD
        REQUIRE DMAIRQ
        REQUIRE DMAARM
        REQUIRE DMAREQ

        RSEG BANKED_CODE:CODE:NOROOT(0)
?Subroutine4:
        CFI Block cfiCond1 Using cfiCommon0
        CFI NoFunction
        CFI Conditional ??CrossCallReturnLabel_9
        CFI R6 load(1, XDATA, add(CFA_XSP16, literal(-10)))
        CFI VB load(1, XDATA, add(CFA_XSP16, literal(-9)))
        CFI V0 load(1, XDATA, add(CFA_XSP16, literal(-8)))
        CFI V1 load(1, XDATA, add(CFA_XSP16, literal(-7)))
        CFI R7 load(1, XDATA, add(CFA_XSP16, literal(-6)))
        CFI ?RET_LOW load(1, XDATA, add(CFA_XSP16, literal(-5)))
        CFI ?RET_HIGH load(1, XDATA, add(CFA_XSP16, literal(-4)))
        CFI ?BRET_EXT load(1, XDATA, add(CFA_XSP16, literal(-3)))
        CFI DPL0 load(1, XDATA, add(CFA_XSP16, literal(-2)))
        CFI DPH0 load(1, XDATA, add(CFA_XSP16, literal(-1)))
        CFI CFA_SP SP+0
        CFI CFA_XSP16 add(XSP16, 11)
        CFI Block cfiCond2 Using cfiCommon0
        CFI (cfiCond2) NoFunction
        CFI (cfiCond2) Conditional ??CrossCallReturnLabel_10
        CFI (cfiCond2) R6 load(1, XDATA, add(CFA_XSP16, literal(-10)))
        CFI (cfiCond2) VB load(1, XDATA, add(CFA_XSP16, literal(-9)))
        CFI (cfiCond2) V0 load(1, XDATA, add(CFA_XSP16, literal(-8)))
        CFI (cfiCond2) V1 load(1, XDATA, add(CFA_XSP16, literal(-7)))
        CFI (cfiCond2) R7 load(1, XDATA, add(CFA_XSP16, literal(-6)))
        CFI (cfiCond2) ?RET_LOW load(1, XDATA, add(CFA_XSP16, literal(-5)))
        CFI (cfiCond2) ?RET_HIGH load(1, XDATA, add(CFA_XSP16, literal(-4)))
        CFI (cfiCond2) ?BRET_EXT load(1, XDATA, add(CFA_XSP16, literal(-3)))
        CFI (cfiCond2) DPL0 load(1, XDATA, add(CFA_XSP16, literal(-2)))
        CFI (cfiCond2) DPH0 load(1, XDATA, add(CFA_XSP16, literal(-1)))
        CFI (cfiCond2) CFA_SP SP+0
        CFI (cfiCond2) CFA_XSP16 add(XSP16, 11)
        CFI Block cfiPicker3 Using cfiCommon1
        CFI (cfiPicker3) NoFunction
        CFI (cfiPicker3) Picker
        MOV     A,R7
        ADDC    A,#0x0
        MOV     R3,A
        MOV     DPL,R2
        MOV     DPH,R3
        MOVX    A,@DPTR
        MOV     R4,A
        RET
        CFI EndBlock cfiCond1
        CFI EndBlock cfiCond2
        CFI EndBlock cfiPicker3

        RSEG BANKED_CODE:CODE:NOROOT(0)
?Subroutine2:
        CFI Block cfiCond4 Using cfiCommon0
        CFI NoFunction
        CFI Conditional ??CrossCallReturnLabel_2
        CFI R6 load(1, XDATA, add(CFA_XSP16, literal(-10)))
        CFI VB load(1, XDATA, add(CFA_XSP16, literal(-9)))
        CFI V0 load(1, XDATA, add(CFA_XSP16, literal(-8)))
        CFI V1 load(1, XDATA, add(CFA_XSP16, literal(-7)))
        CFI R7 load(1, XDATA, add(CFA_XSP16, literal(-6)))
        CFI ?RET_LOW load(1, XDATA, add(CFA_XSP16, literal(-5)))
        CFI ?RET_HIGH load(1, XDATA, add(CFA_XSP16, literal(-4)))
        CFI ?BRET_EXT load(1, XDATA, add(CFA_XSP16, literal(-3)))
        CFI DPL0 load(1, XDATA, add(CFA_XSP16, literal(-2)))
        CFI DPH0 load(1, XDATA, add(CFA_XSP16, literal(-1)))
        CFI CFA_SP SP+0
        CFI CFA_XSP16 add(XSP16, 11)
        CFI Block cfiCond5 Using cfiCommon0
        CFI (cfiCond5) NoFunction
        CFI (cfiCond5) Conditional ??CrossCallReturnLabel_4
        CFI (cfiCond5) R6 load(1, XDATA, add(CFA_XSP16, literal(-10)))
        CFI (cfiCond5) VB load(1, XDATA, add(CFA_XSP16, literal(-9)))
        CFI (cfiCond5) V0 load(1, XDATA, add(CFA_XSP16, literal(-8)))
        CFI (cfiCond5) V1 load(1, XDATA, add(CFA_XSP16, literal(-7)))
        CFI (cfiCond5) R7 load(1, XDATA, add(CFA_XSP16, literal(-6)))
        CFI (cfiCond5) ?RET_LOW load(1, XDATA, add(CFA_XSP16, literal(-5)))
        CFI (cfiCond5) ?RET_HIGH load(1, XDATA, add(CFA_XSP16, literal(-4)))
        CFI (cfiCond5) ?BRET_EXT load(1, XDATA, add(CFA_XSP16, literal(-3)))
        CFI (cfiCond5) DPL0 load(1, XDATA, add(CFA_XSP16, literal(-2)))
        CFI (cfiCond5) DPH0 load(1, XDATA, add(CFA_XSP16, literal(-1)))
        CFI (cfiCond5) CFA_SP SP+0
        CFI (cfiCond5) CFA_XSP16 add(XSP16, 11)
        CFI Block cfiPicker6 Using cfiCommon1
        CFI (cfiPicker6) NoFunction
        CFI (cfiPicker6) Picker
        MOV     A,R6
        ADD     A,#0xd
        CFI Block cfiCond7 Using cfiCommon0
        CFI (cfiCond7) NoFunction
        CFI (cfiCond7) Conditional ??CrossCallReturnLabel_3
        CFI (cfiCond7) R6 load(1, XDATA, add(CFA_XSP16, literal(-10)))
        CFI (cfiCond7) VB load(1, XDATA, add(CFA_XSP16, literal(-9)))
        CFI (cfiCond7) V0 load(1, XDATA, add(CFA_XSP16, literal(-8)))
        CFI (cfiCond7) V1 load(1, XDATA, add(CFA_XSP16, literal(-7)))
        CFI (cfiCond7) R7 load(1, XDATA, add(CFA_XSP16, literal(-6)))
        CFI (cfiCond7) ?RET_LOW load(1, XDATA, add(CFA_XSP16, literal(-5)))
        CFI (cfiCond7) ?RET_HIGH load(1, XDATA, add(CFA_XSP16, literal(-4)))
        CFI (cfiCond7) ?BRET_EXT load(1, XDATA, add(CFA_XSP16, literal(-3)))
        CFI (cfiCond7) DPL0 load(1, XDATA, add(CFA_XSP16, literal(-2)))
        CFI (cfiCond7) DPH0 load(1, XDATA, add(CFA_XSP16, literal(-1)))
        CFI (cfiCond7) CFA_SP SP+0
        CFI (cfiCond7) CFA_XSP16 add(XSP16, 11)
        CFI Block cfiCond8 Using cfiCommon0
        CFI (cfiCond8) NoFunction
        CFI (cfiCond8) Conditional ??CrossCallReturnLabel_5
        CFI (cfiCond8) R6 load(1, XDATA, add(CFA_XSP16, literal(-10)))
        CFI (cfiCond8) VB load(1, XDATA, add(CFA_XSP16, literal(-9)))
        CFI (cfiCond8) V0 load(1, XDATA, add(CFA_XSP16, literal(-8)))
        CFI (cfiCond8) V1 load(1, XDATA, add(CFA_XSP16, literal(-7)))
        CFI (cfiCond8) R7 load(1, XDATA, add(CFA_XSP16, literal(-6)))
        CFI (cfiCond8) ?RET_LOW load(1, XDATA, add(CFA_XSP16, literal(-5)))
        CFI (cfiCond8) ?RET_HIGH load(1, XDATA, add(CFA_XSP16, literal(-4)))
        CFI (cfiCond8) ?BRET_EXT load(1, XDATA, add(CFA_XSP16, literal(-3)))
        CFI (cfiCond8) DPL0 load(1, XDATA, add(CFA_XSP16, literal(-2)))
        CFI (cfiCond8) DPH0 load(1, XDATA, add(CFA_XSP16, literal(-1)))
        CFI (cfiCond8) CFA_SP SP+0
        CFI (cfiCond8) CFA_XSP16 add(XSP16, 11)
??Subroutine2_0:
        LCALL   ?Subroutine20 & 0xFFFF
??CrossCallReturnLabel_59:
        MOV     R2,A
        RET
        CFI EndBlock cfiCond4
        CFI EndBlock cfiCond5
        CFI EndBlock cfiPicker6
        CFI EndBlock cfiCond7
        CFI EndBlock cfiCond8

        RSEG BANKED_CODE:CODE:NOROOT(0)
?Subroutine0:
        CFI Block cfiCond9 Using cfiCommon0
        CFI NoFunction
        CFI Conditional ??CrossCallReturnLabel_70
        CFI R6 load(1, XDATA, add(CFA_XSP16, literal(-10)))
        CFI VB load(1, XDATA, add(CFA_XSP16, literal(-9)))
        CFI V0 load(1, XDATA, add(CFA_XSP16, literal(-8)))
        CFI V1 load(1, XDATA, add(CFA_XSP16, literal(-7)))
        CFI R7 load(1, XDATA, add(CFA_XSP16, literal(-6)))
        CFI ?RET_LOW load(1, XDATA, add(CFA_XSP16, literal(-5)))
        CFI ?RET_HIGH load(1, XDATA, add(CFA_XSP16, literal(-4)))
        CFI ?BRET_EXT load(1, XDATA, add(CFA_XSP16, literal(-3)))
        CFI DPL0 load(1, XDATA, add(CFA_XSP16, literal(-2)))
        CFI DPH0 load(1, XDATA, add(CFA_XSP16, literal(-1)))
        CFI CFA_SP SP+0
        CFI CFA_XSP16 add(XSP16, 11)
        CFI Block cfiCond10 Using cfiCommon0
        CFI (cfiCond10) NoFunction
        CFI (cfiCond10) Conditional ??CrossCallReturnLabel_71
        CFI (cfiCond10) R6 load(1, XDATA, add(CFA_XSP16, literal(-10)))
        CFI (cfiCond10) VB load(1, XDATA, add(CFA_XSP16, literal(-9)))
        CFI (cfiCond10) V0 load(1, XDATA, add(CFA_XSP16, literal(-8)))
        CFI (cfiCond10) V1 load(1, XDATA, add(CFA_XSP16, literal(-7)))
        CFI (cfiCond10) R7 load(1, XDATA, add(CFA_XSP16, literal(-6)))
        CFI (cfiCond10) ?RET_LOW load(1, XDATA, add(CFA_XSP16, literal(-5)))
        CFI (cfiCond10) ?RET_HIGH load(1, XDATA, add(CFA_XSP16, literal(-4)))
        CFI (cfiCond10) ?BRET_EXT load(1, XDATA, add(CFA_XSP16, literal(-3)))
        CFI (cfiCond10) DPL0 load(1, XDATA, add(CFA_XSP16, literal(-2)))
        CFI (cfiCond10) DPH0 load(1, XDATA, add(CFA_XSP16, literal(-1)))
        CFI (cfiCond10) CFA_SP SP+0
        CFI (cfiCond10) CFA_XSP16 add(XSP16, 11)
        CFI Block cfiPicker11 Using cfiCommon1
        CFI (cfiPicker11) NoFunction
        CFI (cfiPicker11) Picker
        LCALL   ?Subroutine21 & 0xFFFF
??CrossCallReturnLabel_69:
        LCALL   ?Subroutine18 & 0xFFFF
??CrossCallReturnLabel_53:
        INC     DPTR
        INC     DPTR
        INC     DPTR
        INC     DPTR
        CFI EndBlock cfiCond9
        CFI EndBlock cfiCond10
        CFI EndBlock cfiPicker11
        REQUIRE ?Subroutine22
        ; // Fall through to label ?Subroutine22

        RSEG BANKED_CODE:CODE:NOROOT(0)
?Subroutine22:
        CFI Block cfiCond12 Using cfiCommon0
        CFI NoFunction
        CFI Conditional ??CrossCallReturnLabel_70
        CFI R6 load(1, XDATA, add(CFA_XSP16, literal(-10)))
        CFI VB load(1, XDATA, add(CFA_XSP16, literal(-9)))
        CFI V0 load(1, XDATA, add(CFA_XSP16, literal(-8)))
        CFI V1 load(1, XDATA, add(CFA_XSP16, literal(-7)))
        CFI R7 load(1, XDATA, add(CFA_XSP16, literal(-6)))
        CFI ?RET_LOW load(1, XDATA, add(CFA_XSP16, literal(-5)))
        CFI ?RET_HIGH load(1, XDATA, add(CFA_XSP16, literal(-4)))
        CFI ?BRET_EXT load(1, XDATA, add(CFA_XSP16, literal(-3)))
        CFI DPL0 load(1, XDATA, add(CFA_XSP16, literal(-2)))
        CFI DPH0 load(1, XDATA, add(CFA_XSP16, literal(-1)))
        CFI CFA_SP SP+0
        CFI CFA_XSP16 add(XSP16, 11)
        CFI Block cfiCond13 Using cfiCommon0
        CFI (cfiCond13) NoFunction
        CFI (cfiCond13) Conditional ??CrossCallReturnLabel_71
        CFI (cfiCond13) R6 load(1, XDATA, add(CFA_XSP16, literal(-10)))
        CFI (cfiCond13) VB load(1, XDATA, add(CFA_XSP16, literal(-9)))
        CFI (cfiCond13) V0 load(1, XDATA, add(CFA_XSP16, literal(-8)))
        CFI (cfiCond13) V1 load(1, XDATA, add(CFA_XSP16, literal(-7)))
        CFI (cfiCond13) R7 load(1, XDATA, add(CFA_XSP16, literal(-6)))
        CFI (cfiCond13) ?RET_LOW load(1, XDATA, add(CFA_XSP16, literal(-5)))
        CFI (cfiCond13) ?RET_HIGH load(1, XDATA, add(CFA_XSP16, literal(-4)))
        CFI (cfiCond13) ?BRET_EXT load(1, XDATA, add(CFA_XSP16, literal(-3)))
        CFI (cfiCond13) DPL0 load(1, XDATA, add(CFA_XSP16, literal(-2)))
        CFI (cfiCond13) DPH0 load(1, XDATA, add(CFA_XSP16, literal(-1)))
        CFI (cfiCond13) CFA_SP SP+0
        CFI (cfiCond13) CFA_XSP16 add(XSP16, 11)
        CFI Block cfiCond14 Using cfiCommon0
        CFI (cfiCond14) NoFunction
        CFI (cfiCond14) Conditional ??CrossCallReturnLabel_72
        CFI (cfiCond14) DPL0 Frame(CFA_SP, 4)
        CFI (cfiCond14) DPH0 Frame(CFA_SP, 5)
        CFI (cfiCond14) CFA_SP SP+-5
        CFI Block cfiCond15 Using cfiCommon0
        CFI (cfiCond15) NoFunction
        CFI (cfiCond15) Conditional ??CrossCallReturnLabel_73
        CFI (cfiCond15) DPL0 Frame(CFA_SP, 4)
        CFI (cfiCond15) DPH0 Frame(CFA_SP, 5)
        CFI (cfiCond15) CFA_SP SP+-5
        CFI Block cfiPicker16 Using cfiCommon1
        CFI (cfiPicker16) NoFunction
        CFI (cfiPicker16) Picker
        INC     DPTR
        INC     DPTR
        INC     DPTR
        MOVX    A,@DPTR
        RET
        CFI EndBlock cfiCond12
        CFI EndBlock cfiCond13
        CFI EndBlock cfiCond14
        CFI EndBlock cfiCond15
        CFI EndBlock cfiPicker16
//  396 #endif
//  397 
//  398 #if HAL_UART_ISR
//  399 /******************************************************************************
//  400  * @fn      pollISR
//  401  *
//  402  * @brief   Poll a USART module implemented by ISR.
//  403  *
//  404  * @param   cfg - USART configuration structure.
//  405  *
//  406  * @return  none
//  407  *****************************************************************************/
//  408 static void pollISR( uartCfg_t *cfg )
//  409 {
//  410   uint8 cnt = UART_RX_AVAIL( cfg );
//  411 
//  412   if ( !(cfg->flag & UART_CFG_RXF) )
//  413   {
//  414     // If anything received, reset the Rx idle timer.
//  415     if ( cfg->rxCnt != cnt )
//  416     {
//  417       cfg->rxTick = HAL_UART_RX_IDLE;
//  418       cfg->rxCnt = cnt;
//  419     }
//  420 
//  421     /* It is necessary to stop Rx flow in advance of a full Rx buffer because
//  422      * bytes can keep coming while sending H/W fifo flushes.
//  423      */
//  424     if ( cfg->rxCnt >= (cfg->rxMax - SAFE_RX_MIN) )
//  425     {
//  426       RX_STOP_FLOW( cfg );
//  427     }
//  428   }
//  429 }
//  430 #endif
//  431 
//  432 /******************************************************************************
//  433  * @fn      HalUARTInit
//  434  *
//  435  * @brief   Initialize the UART
//  436  *
//  437  * @param   none
//  438  *
//  439  * @return  none
//  440  *****************************************************************************/

        RSEG BANKED_CODE:CODE:NOROOT(0)
//  441 void HalUARTInit( void )
HalUARTInit:
        CFI Block cfiBlock17 Using cfiCommon0
        CFI Function HalUARTInit
//  442 {
        PUSH    DPL
        CFI DPL0 Frame(CFA_SP, 4)
        CFI CFA_SP SP+-4
        PUSH    DPH
        CFI DPH0 Frame(CFA_SP, 5)
        CFI CFA_SP SP+-5
        ; Saved register size: 2
        ; Auto size: 0
//  443 #if HAL_UART_DMA
//  444   halDMADesc_t *ch;
//  445 #endif
//  446 
//  447   // Set P2 priority - USART0 over USART1 if both are defined.
//  448   P2DIR &= ~P2DIR_PRIPO;
        ANL     0xff,#0x3f
        MOV     A,0xff
//  449   P2DIR |= HAL_UART_PRIPO;
        MOV     0xff,0xff
//  450 
//  451 #if HAL_UART_0_ENABLE
//  452   // Set UART0 I/O location to P0.
//  453   PERCFG &= ~HAL_UART_0_PERCFG_BIT;
        ANL     0xf1,#0xfe
//  454 
//  455   /* Enable Tx and Rx on P0 */
//  456   P0SEL |= HAL_UART_0_P0_RX_TX;
        ORL     0xf3,#0xc
        MOV     A,0xf3
//  457 
//  458   /* Make sure ADC doesnt use this */
//  459   ADCCFG &= ~HAL_UART_0_P0_RX_TX;
        ANL     0xf2,#0xf3
        MOV     A,0xf2
//  460 
//  461   /* Mode is UART Mode */
//  462   U0CSR = CSR_MODE;
        MOV     0x86,#-0x80
//  463 
//  464   /* Flush it */
//  465   U0UCR = UCR_FLUSH;
        MOV     0xc4,#-0x80
//  466 #endif
//  467 
//  468 #if HAL_UART_1_ENABLE
//  469   // Set UART1 I/O location to P1.
//  470   PERCFG |= HAL_UART_1_PERCFG_BIT;
//  471 
//  472   /* Enable Tx and Rx on P1 */
//  473   P1SEL  |= HAL_UART_1_P1_RX_TX;
//  474 
//  475   /* Make sure ADC doesnt use this */
//  476   ADCCFG &= ~HAL_UART_1_P1_RX_TX;
//  477 
//  478   /* Mode is UART Mode */
//  479   U1CSR = CSR_MODE;
//  480 
//  481   /* Flush it */
//  482   U1UCR = UCR_FLUSH;
//  483 #endif
//  484 
//  485 #if HAL_UART_DMA
//  486   // Setup Tx by DMA.
//  487   ch = HAL_DMA_GET_DESC1234( HAL_DMA_CH_TX );
//  488 
//  489   // The start address of the destination.
//  490   HAL_DMA_SET_DEST( ch, DMA_UDBUF );
        MOV     A,#-0x21
        MOV     DPTR,#(dmaCh1234 + 18)
        MOVX    @DPTR,A
        MOV     A,#-0x3f
        MOV     DPTR,#(dmaCh1234 + 19)
        MOVX    @DPTR,A
//  491 
//  492   // Using the length field to determine how many bytes to transfer.
//  493   HAL_DMA_SET_VLEN( ch, HAL_DMA_VLEN_USE_LEN );
        MOV     DPTR,#(dmaCh1234 + 20)
        MOVX    A,@DPTR
        ANL     A,#0x1f
        MOVX    @DPTR,A
//  494 
//  495   // One byte is transferred each time.
//  496   HAL_DMA_SET_WORD_SIZE( ch, HAL_DMA_WORDSIZE_BYTE );
//  497 
//  498   // The bytes are transferred 1-by-1 on Tx Complete trigger.
//  499   HAL_DMA_SET_TRIG_MODE( ch, HAL_DMA_TMODE_SINGLE );
//  500   HAL_DMA_SET_TRIG_SRC( ch, DMATRIG_TX );
        MOV     A,#0xf
        MOV     DPTR,#(dmaCh1234 + 22)
        MOVX    @DPTR,A
//  501 
//  502   // The source address is decremented by 1 byte after each transfer.
//  503   HAL_DMA_SET_SRC_INC( ch, HAL_DMA_SRCINC_1 );
//  504 
//  505   // The destination address is constant - the Tx Data Buffer.
//  506   HAL_DMA_SET_DST_INC( ch, HAL_DMA_DSTINC_0 );
//  507 
//  508   // The DMA is to be polled and shall not issue an IRQ upon completion.
//  509   HAL_DMA_SET_IRQ( ch, HAL_DMA_IRQMASK_DISABLE );
//  510 
//  511   // Xfer all 8 bits of a byte xfer.
//  512   HAL_DMA_SET_M8( ch, HAL_DMA_M8_USE_8_BITS );
//  513 
//  514   // DMA Tx has shared priority for memory access - every other one.
//  515   HAL_DMA_SET_PRIORITY( ch, HAL_DMA_PRI_HIGH );
        MOV     A,#0x42
        MOV     DPTR,#(dmaCh1234 + 23)
        MOVX    @DPTR,A
//  516 
//  517   // Setup Rx by DMA.
//  518   ch = HAL_DMA_GET_DESC1234( HAL_DMA_CH_RX );
//  519 
//  520   // The start address of the source.
//  521   HAL_DMA_SET_SOURCE( ch, DMA_UDBUF );
        MOV     A,#-0x21
        MOV     DPTR,#(dmaCh1234 + 24)
        MOVX    @DPTR,A
        MOV     A,#-0x3f
        MOV     DPTR,#(dmaCh1234 + 25)
        MOVX    @DPTR,A
//  522 
//  523   // Using the length field to determine how many bytes to transfer.
//  524   HAL_DMA_SET_VLEN( ch, HAL_DMA_VLEN_USE_LEN );
        MOV     DPTR,#(dmaCh1234 + 28)
        MOVX    A,@DPTR
        ANL     A,#0x1f
        MOVX    @DPTR,A
//  525 
//  526   /* The trick is to cfg DMA to xfer 2 bytes for every 1 byte of Rx.
//  527    * The byte after the Rx Data Buffer is the Baud Cfg Register,
//  528    * which always has a known value. So init Rx buffer to inverse of that
//  529    * known value. DMA word xfer will flip the bytes, so every valid Rx byte
//  530    * in the Rx buffer will be preceded by a DMA_PAD char equal to the
//  531    * Baud Cfg Register value.
//  532    */
//  533   HAL_DMA_SET_WORD_SIZE( ch, HAL_DMA_WORDSIZE_WORD );
//  534 
//  535   // The bytes are transferred 1-by-1 on Rx Complete trigger.
//  536   HAL_DMA_SET_TRIG_MODE( ch, HAL_DMA_TMODE_SINGLE );
//  537   HAL_DMA_SET_TRIG_SRC( ch, DMATRIG_RX );
        MOV     A,#-0x72
        MOV     DPTR,#(dmaCh1234 + 30)
        MOVX    @DPTR,A
//  538 
//  539   // The source address is constant - the Rx Data Buffer.
//  540   HAL_DMA_SET_SRC_INC( ch, HAL_DMA_SRCINC_0 );
//  541 
//  542   // The destination address is incremented by 1 word after each transfer.
//  543   HAL_DMA_SET_DST_INC( ch, HAL_DMA_DSTINC_1 );
//  544 
//  545   // The DMA is to be polled and shall not issue an IRQ upon completion.
//  546   HAL_DMA_SET_IRQ( ch, HAL_DMA_IRQMASK_DISABLE );
//  547 
//  548   // Xfer all 8 bits of a byte xfer.
//  549   HAL_DMA_SET_M8( ch, HAL_DMA_M8_USE_8_BITS );
//  550 
//  551   // DMA has highest priority for memory access.
//  552   HAL_DMA_SET_PRIORITY( ch, HAL_DMA_PRI_HIGH );
        MOV     A,#0x12
        MOV     DPTR,#(dmaCh1234 + 31)
        MOVX    @DPTR,A
        CFI EndBlock cfiBlock17
//  553 #endif
//  554 }
        REQUIRE ?Subroutine23
        REQUIRE U0CSR
        REQUIRE U0UCR
        REQUIRE PERCFG
        REQUIRE ADCCFG
        REQUIRE P0SEL
        REQUIRE P2DIR
        ; // Fall through to label ?Subroutine23

        RSEG BANKED_CODE:CODE:NOROOT(0)
?Subroutine23:
        CFI Block cfiBlock18 Using cfiCommon0
        CFI NoFunction
        CFI CFA_SP SP+-5
        CFI DPL0 Frame(CFA_SP, 4)
        CFI DPH0 Frame(CFA_SP, 5)
        POP     DPH
        CFI CFA_SP SP+-4
        CFI DPH0 SameValue
        POP     DPL
        CFI CFA_SP SP+-3
        CFI DPL0 SameValue
        LJMP    ?BRET
        CFI EndBlock cfiBlock18
//  555 
//  556 /******************************************************************************
//  557  * @fn      HalUARTOpen
//  558  *
//  559  * @brief   Open a port according tp the configuration specified by parameter.
//  560  *
//  561  * @param   port   - UART port
//  562  *          config - contains configuration information
//  563  *
//  564  * @return  Status of the function call
//  565  *****************************************************************************/

        RSEG BANKED_CODE:CODE:NOROOT(0)
//  566 uint8 HalUARTOpen( uint8 port, halUARTCfg_t *config )
HalUARTOpen:
        CFI Block cfiBlock19 Using cfiCommon0
        CFI Function HalUARTOpen
//  567 {
        FUNCALL HalUARTOpen, osal_mem_alloc
        LOCFRAME ISTACK, 0, STACK
        LOCFRAME PSTACK, 0, STACK
        LOCFRAME XSTACK, 15, STACK
        LOCFRAME IOVERLAY, 0, STATIC
        LOCFRAME DOVERLAY, 0, STATIC
        ARGFRAME ISTACK, 0, STACK
        ARGFRAME PSTACK, 0, STACK
        ARGFRAME XSTACK, 15, STACK
        ARGFRAME IOVERLAY, 0, STATIC
        ARGFRAME DOVERLAY, 0, STATIC
        FUNCALL HalUARTOpen, osal_mem_alloc
        LOCFRAME ISTACK, 0, STACK
        LOCFRAME PSTACK, 0, STACK
        LOCFRAME XSTACK, 15, STACK
        LOCFRAME IOVERLAY, 0, STATIC
        LOCFRAME DOVERLAY, 0, STATIC
        ARGFRAME ISTACK, 0, STACK
        ARGFRAME PSTACK, 0, STACK
        ARGFRAME XSTACK, 15, STACK
        ARGFRAME IOVERLAY, 0, STATIC
        ARGFRAME DOVERLAY, 0, STATIC
        FUNCALL HalUARTOpen, osal_mem_alloc
        LOCFRAME ISTACK, 0, STACK
        LOCFRAME PSTACK, 0, STACK
        LOCFRAME XSTACK, 15, STACK
        LOCFRAME IOVERLAY, 0, STATIC
        LOCFRAME DOVERLAY, 0, STATIC
        ARGFRAME ISTACK, 0, STACK
        ARGFRAME PSTACK, 0, STACK
        ARGFRAME XSTACK, 15, STACK
        ARGFRAME IOVERLAY, 0, STATIC
        ARGFRAME DOVERLAY, 0, STATIC
        FUNCALL HalUARTOpen, osal_memset
        LOCFRAME ISTACK, 0, STACK
        LOCFRAME PSTACK, 0, STACK
        LOCFRAME XSTACK, 15, STACK
        LOCFRAME IOVERLAY, 0, STATIC
        LOCFRAME DOVERLAY, 0, STATIC
        ARGFRAME ISTACK, 0, STACK
        ARGFRAME PSTACK, 0, STACK
        ARGFRAME XSTACK, 15, STACK
        ARGFRAME IOVERLAY, 0, STATIC
        ARGFRAME DOVERLAY, 0, STATIC
        MOV     A,#-0xe
        LCALL   ?BANKED_ENTER_XDATA
        CFI DPH0 load(1, XDATA, add(CFA_XSP16, literal(-1)))
        CFI DPL0 load(1, XDATA, add(CFA_XSP16, literal(-2)))
        CFI ?BRET_EXT load(1, XDATA, add(CFA_XSP16, literal(-3)))
        CFI ?RET_HIGH load(1, XDATA, add(CFA_XSP16, literal(-4)))
        CFI ?RET_LOW load(1, XDATA, add(CFA_XSP16, literal(-5)))
        CFI R7 load(1, XDATA, add(CFA_XSP16, literal(-6)))
        CFI V5 load(1, XDATA, add(CFA_XSP16, literal(-7)))
        CFI V4 load(1, XDATA, add(CFA_XSP16, literal(-8)))
        CFI V3 load(1, XDATA, add(CFA_XSP16, literal(-9)))
        CFI V2 load(1, XDATA, add(CFA_XSP16, literal(-10)))
        CFI V1 load(1, XDATA, add(CFA_XSP16, literal(-11)))
        CFI V0 load(1, XDATA, add(CFA_XSP16, literal(-12)))
        CFI VB load(1, XDATA, add(CFA_XSP16, literal(-13)))
        CFI R6 load(1, XDATA, add(CFA_XSP16, literal(-14)))
        CFI CFA_SP SP+0
        CFI CFA_XSP16 add(XSP16, 14)
        ; Saved register size: 14
        ; Auto size: 1
        MOV     A,#-0x1
        LCALL   ?ALLOC_XSTACK8
        CFI CFA_XSP16 add(XSP16, 15)
        MOV     ?V0 + 2,R1
        MOV     ?V0 + 0,R2
        MOV     ?V0 + 1,R3
//  568   uartCfg_t **cfgPP = NULL;
        MOV     R6,#0x0
        MOV     R7,#0x0
//  569   uartCfg_t *cfg;
//  570 
//  571 #if HAL_UART_0_ENABLE
//  572   if ( port == HAL_UART_PORT_0 )
        MOV     A,R1
        JNZ     ??HalUARTOpen_0
//  573   {
//  574     cfgPP = &cfg0;
        MOV     R6,#(cfg0 & 0xff)
        MOV     R7,#((cfg0 >> 8) & 0xff)
//  575   }
//  576 #endif
//  577 
//  578 #if HAL_UART_1_ENABLE
//  579   if ( port == HAL_UART_PORT_1 )
//  580   {
//  581     cfgPP = &cfg1;
//  582   }
//  583 #endif
//  584 
//  585   HAL_UART_ASSERT( cfgPP );
//  586 
//  587 #if HAL_UART_CLOSE
//  588   // Protect against user re-opening port before closing it.
//  589   HalUARTClose( port );
//  590 #else
//  591   HAL_UART_ASSERT( *cfgPP == NULL );
//  592 #endif
//  593 
//  594   HAL_UART_ASSERT( (config->baudRate == HAL_UART_BR_38400) ||
//  595                    (config->baudRate == HAL_UART_BR_115200) );
//  596 
//  597   /* Whereas runtime heap alloc can be expected to fail - one-shot system
//  598    * initialization must succeed, so no check for alloc fail.
//  599    */
//  600   *cfgPP = (uartCfg_t *)osal_mem_alloc( sizeof( uartCfg_t ) );
??HalUARTOpen_0:
        ; Setup parameters for call to function osal_mem_alloc
        MOV     R2,#0x12
        MOV     R3,#0x0
        LCALL   ?Subroutine17 & 0xFFFF
//  601   cfg = *cfgPP;
??CrossCallReturnLabel_51:
        MOV     DPL,R6
        MOV     DPH,R7
        MOVX    A,@DPTR
        MOV     R6,A
        INC     DPTR
        MOVX    A,@DPTR
        MOV     R7,A
//  602   HAL_UART_ASSERT( cfg );
//  603 
//  604   cfg->rxMax = config->rx.maxBufSize;
        MOV     A,?V0 + 0
        ADD     A,#0xa
        MOV     ?V0 + 4,A
        MOV     A,?V0 + 1
        ADDC    A,#0x0
        MOV     ?V0 + 5,A
        MOV     DPL,?V0 + 4
        MOV     DPH,A
        MOVX    A,@DPTR
        MOV     DPL,R6
        MOV     DPH,R7
        INC     DPTR
        INC     DPTR
        INC     DPTR
        INC     DPTR
        MOVX    @DPTR,A
//  605 
//  606 #if !HAL_UART_BIG_TX_BUF
//  607   HAL_UART_ASSERT( (config->tx.maxBufSize < 256) );
//  608 #endif
//  609   cfg->txMax = config->tx.maxBufSize;
        MOV     A,R6
        ADD     A,#0xc
        MOV     R0,A
        MOV     A,R7
        ADDC    A,#0x0
        MOV     R1,A
        MOV     A,?V0 + 0
        ADD     A,#0x12
        MOV     DPL,A
        MOV     A,?V0 + 1
        LCALL   ??Subroutine7_1 & 0xFFFF
??CrossCallReturnLabel_27:
        MOV     DPL,R0
        MOV     DPH,R1
        MOVX    @DPTR,A
//  610   cfg->txBuf = osal_mem_alloc( cfg->txMax+1 );
        ; Setup parameters for call to function osal_mem_alloc
        MOV     R0,A
        MOV     A,#0x1
        ADD     A,R0
        MOV     R2,A
        CLR     A
        ADDC    A,#0x0
        MOV     R3,A
        LCALL   ??osal_mem_alloc?relay
        MOV     DPL,R6
        MOV     DPH,R7
        INC     DPTR
        INC     DPTR
        INC     DPTR
        INC     DPTR
        INC     DPTR
        INC     DPTR
        INC     DPTR
        INC     DPTR
        MOV     A,R2
        MOVX    @DPTR,A
        INC     DPTR
        MOV     A,R3
        MOVX    @DPTR,A
//  611 
//  612   cfg->rxHead = cfg->rxTail = 0;
        LCALL   ?Subroutine16 & 0xFFFF
//  613   cfg->txHead = cfg->txTail = 0;
??CrossCallReturnLabel_50:
        LCALL   ?Subroutine21 & 0xFFFF
??CrossCallReturnLabel_66:
        CLR     A
        LCALL   ?Subroutine15 & 0xFFFF
??CrossCallReturnLabel_48:
        INC     DPTR
        INC     DPTR
        INC     DPTR
        INC     DPTR
        MOVX    @DPTR,A
//  614   cfg->rxHigh = config->rx.maxBufSize - config->flowControlThreshold;
        MOV     DPL,?V0 + 0
        MOV     DPH,?V0 + 1
        INC     DPTR
        INC     DPTR
        INC     DPTR
        MOVX    A,@DPTR
        MOV     R0,A
        MOV     DPL,?V0 + 4
        MOV     DPH,?V0 + 5
        MOVX    A,@DPTR
        CLR     C
        SUBB    A,R0
        MOV     DPL,R6
        MOV     DPH,R7
        INC     DPTR
        INC     DPTR
        INC     DPTR
        INC     DPTR
        INC     DPTR
        INC     DPTR
        INC     DPTR
        MOVX    @DPTR,A
//  615   cfg->rxCB = config->callBackFunc;
        MOV     A,?V0 + 0
        ADD     A,#0x1b
        MOV     DPL,A
        MOV     A,?V0 + 1
        LCALL   ?Subroutine6 & 0xFFFF
??CrossCallReturnLabel_14:
        MOV     R1,A
        MOV     A,R6
        ADD     A,#0x10
        LCALL   ??Subroutine21_0 & 0xFFFF
??CrossCallReturnLabel_67:
        MOV     A,R0
        MOVX    @DPTR,A
        INC     DPTR
        MOV     A,R1
        MOVX    @DPTR,A
//  616 
//  617 #if HAL_UART_0_ENABLE
//  618   if ( port == HAL_UART_PORT_0 )
        MOV     A,?V0 + 2
        JZ      $+5
        LJMP    ??HalUARTOpen_1 & 0xFFFF
//  619   {
//  620     // Only supporting 38400 or 115200 for code size - other is possible.
//  621     U0BAUD = (config->baudRate == HAL_UART_BR_38400) ? 59 : 216;
        MOV     DPL,?V0 + 0
        MOV     DPH,?V0 + 1
        INC     DPTR
        MOVX    A,@DPTR
        XRL     A,#0x6
        JNZ     ??HalUARTOpen_2
        MOV     R2,#0x3b
        SJMP    ??HalUARTOpen_3
??HalUARTOpen_2:
        MOV     R2,#-0x28
??HalUARTOpen_3:
        MOV     0xc2,R2
//  622     U0GCR = (config->baudRate == HAL_UART_BR_38400) ? 10 : 11;
        MOV     DPL,?V0 + 0
        MOV     DPH,?V0 + 1
        INC     DPTR
        MOVX    A,@DPTR
        XRL     A,#0x6
        JNZ     ??HalUARTOpen_4
        MOV     R2,#0xa
        SJMP    ??HalUARTOpen_5
??HalUARTOpen_4:
        MOV     R2,#0xb
??HalUARTOpen_5:
        MOV     0xc5,R2
//  623 
//  624     U0CSR |= CSR_RE;
        ORL     0x86,#0x40
//  625 
//  626 #if HAL_UART_DMA == 1
//  627     cfg->flag = UART_CFG_DMA;
        MOV     A,R6
        ADD     A,#0xf
        LCALL   ??Subroutine21_0 & 0xFFFF
??CrossCallReturnLabel_68:
        MOV     A,#0x40
        MOVX    @DPTR,A
//  628     HAL_UART_ASSERT( (config->rx.maxBufSize <= 128) );
//  629     HAL_UART_ASSERT( (config->rx.maxBufSize > SAFE_RX_MIN) );
//  630     cfg->rxBuf = osal_mem_alloc( cfg->rxMax*2 );
        MOV     A,R6
        ADD     A,#0x4
        MOV     ?V0 + 2,A
        MOV     A,R7
        ADDC    A,#0x0
        MOV     ?V0 + 3,A
        ; Setup parameters for call to function osal_mem_alloc
        MOV     DPL,?V0 + 2
        MOV     DPH,A
        MOVX    A,@DPTR
        CLR     C
        RLC     A
        MOV     R2,A
        CLR     A
        RLC     A
        MOV     R3,A
        LCALL   ?Subroutine17 & 0xFFFF
//  631     osal_memset( cfg->rxBuf, ~DMA_PAD, cfg->rxMax*2 );
??CrossCallReturnLabel_52:
        ; Setup parameters for call to function osal_memset
        MOV     DPL,?V0 + 2
        MOV     DPH,?V0 + 3
        LCALL   ?Subroutine9 & 0xFFFF
??CrossCallReturnLabel_38:
        LCALL   ?Subroutine10 & 0xFFFF
//  632     DMA_RX( cfg );
??CrossCallReturnLabel_40:
        MOV     DPL,?V0 + 2
        MOV     DPH,?V0 + 3
        LCALL   ?Subroutine8 & 0xFFFF
//  633 #else
//  634     cfg->flag = 0;
//  635     HAL_UART_ASSERT( (config->rx.maxBufSize < 256) );
//  636     cfg->rxBuf = osal_mem_alloc( cfg->rxMax+1 );
//  637     URX0IE = 1;
//  638     IEN2 |= UTX0IE;
//  639 #endif
//  640 
//  641     // 8 bits/char; no parity; 1 stop bit; stop bit hi.
//  642     if ( config->flowControl )
??CrossCallReturnLabel_36:
        MOV     DPL,?V0 + 0
        MOV     DPH,?V0 + 1
        INC     DPTR
        INC     DPTR
        MOVX    A,@DPTR
        JZ      ??HalUARTOpen_6
//  643     {
//  644       cfg->flag |= UART_CFG_FLW;
        LCALL   ?Subroutine7 & 0xFFFF
??CrossCallReturnLabel_28:
        SETB    0xE0 /* A   */.5
        MOVX    @DPTR,A
//  645       U0UCR = UCR_FLOW | UCR_STOP;
        MOV     0xc4,#0x42
//  646       // Must rely on H/W for RTS (i.e. Tx stops when receiver negates CTS.)
//  647       P0SEL |= HAL_UART_0_P0_RTS;
        ORL     0xf3,#0x10
//  648       // Cannot use H/W for CTS as DMA does not clear the Rx bytes properly.
//  649       P0DIR |= HAL_UART_0_P0_CTS;
        ORL     0xfd,#0x20
//  650       RX0_FLOW_ON;
        CLR     0x80.5
        SJMP    ??HalUARTOpen_1
//  651     }
//  652     else
//  653     {
//  654       U0UCR = UCR_STOP;
??HalUARTOpen_6:
        MOV     0xc4,#0x2
//  655     }
//  656     }
//  657 #endif
//  658 
//  659 #if HAL_UART_1_ENABLE
//  660   if ( port == HAL_UART_PORT_1 )
//  661   {
//  662     // Only supporting 38400 or 115200 for code size - other is possible.
//  663     U1BAUD = (config->baudRate == HAL_UART_BR_38400) ? 59 : 216;
//  664     U1GCR = (config->baudRate == HAL_UART_BR_38400) ? 10 : 11;
//  665 
//  666     U1CSR |= CSR_RE;
//  667 
//  668 #if HAL_UART_DMA == 2
//  669     cfg->flag = (UART_CFG_U1F | UART_CFG_DMA);
//  670     HAL_UART_ASSERT( (config->rx.maxBufSize <= 128) );
//  671     HAL_UART_ASSERT( (config->rx.maxBufSize > SAFE_RX_MIN) );
//  672     cfg->rxBuf = osal_mem_alloc( cfg->rxMax*2 );
//  673     osal_memset( cfg->rxBuf, ~DMA_PAD, cfg->rxMax*2 );
//  674     DMA_RX( cfg );
//  675 #else
//  676     cfg->flag = UART_CFG_U1F;
//  677     HAL_UART_ASSERT( (config->rx.maxBufSize < 256) );
//  678     cfg->rxBuf = osal_mem_alloc( cfg->rxMax+1 );
//  679     URX1IE = 1;
//  680     IEN2 |= UTX1IE;
//  681 #endif
//  682 
//  683     // 8 bits/char; no parity; 1 stop bit; stop bit hi.
//  684     if ( config->flowControl )
//  685     {
//  686       cfg->flag |= UART_CFG_FLW;
//  687       U1UCR = UCR_FLOW | UCR_STOP;
//  688       // Must rely on H/W for RTS (i.e. Tx stops when receiver negates CTS.)
//  689       P1SEL |= HAL_UART_1_P1_RTS;
//  690       // Cannot use H/W for CTS as DMA does not clear the Rx bytes properly.
//  691       P1DIR |= HAL_UART_1_P1_CTS;
//  692       RX1_FLOW_ON;
//  693     }
//  694     else
//  695     {
//  696       U1UCR = UCR_STOP;
//  697     }
//  698   }
//  699 #endif
//  700 
//  701   return HAL_UART_SUCCESS;
??HalUARTOpen_1:
        MOV     R1,#0x0
        MOV     A,#0x1
        LCALL   ?DEALLOC_XSTACK8
        CFI CFA_XSP16 add(XSP16, 14)
        MOV     R7,#0x6
        LJMP    ?BANKED_LEAVE_XDATA
        CFI EndBlock cfiBlock19
        REQUIRE _A_P0
        REQUIRE U0CSR
        REQUIRE U0DBUF
        REQUIRE U0BAUD
        REQUIRE U0UCR
        REQUIRE U0GCR
        REQUIRE DMAIRQ
        REQUIRE DMAARM
        REQUIRE P0SEL
        REQUIRE P0DIR
//  702 }

        RSEG BANKED_CODE:CODE:NOROOT(0)
?Subroutine21:
        CFI Block cfiCond20 Using cfiCommon0
        CFI NoFunction
        CFI Conditional ??CrossCallReturnLabel_69, ??CrossCallReturnLabel_70
        CFI R6 load(1, XDATA, add(CFA_XSP16, literal(-10)))
        CFI VB load(1, XDATA, add(CFA_XSP16, literal(-9)))
        CFI V0 load(1, XDATA, add(CFA_XSP16, literal(-8)))
        CFI V1 load(1, XDATA, add(CFA_XSP16, literal(-7)))
        CFI R7 load(1, XDATA, add(CFA_XSP16, literal(-6)))
        CFI ?RET_LOW load(1, XDATA, add(CFA_XSP16, literal(-5)))
        CFI ?RET_HIGH load(1, XDATA, add(CFA_XSP16, literal(-4)))
        CFI ?BRET_EXT load(1, XDATA, add(CFA_XSP16, literal(-3)))
        CFI DPL0 load(1, XDATA, add(CFA_XSP16, literal(-2)))
        CFI DPH0 load(1, XDATA, add(CFA_XSP16, literal(-1)))
        CFI CFA_SP SP+0
        CFI CFA_XSP16 add(XSP16, 11)
        CFI Block cfiCond21 Using cfiCommon0
        CFI (cfiCond21) NoFunction
        CFI (cfiCond21) Conditional ??CrossCallReturnLabel_69, ??CrossCallReturnLabel_71
        CFI (cfiCond21) R6 load(1, XDATA, add(CFA_XSP16, literal(-10)))
        CFI (cfiCond21) VB load(1, XDATA, add(CFA_XSP16, literal(-9)))
        CFI (cfiCond21) V0 load(1, XDATA, add(CFA_XSP16, literal(-8)))
        CFI (cfiCond21) V1 load(1, XDATA, add(CFA_XSP16, literal(-7)))
        CFI (cfiCond21) R7 load(1, XDATA, add(CFA_XSP16, literal(-6)))
        CFI (cfiCond21) ?RET_LOW load(1, XDATA, add(CFA_XSP16, literal(-5)))
        CFI (cfiCond21) ?RET_HIGH load(1, XDATA, add(CFA_XSP16, literal(-4)))
        CFI (cfiCond21) ?BRET_EXT load(1, XDATA, add(CFA_XSP16, literal(-3)))
        CFI (cfiCond21) DPL0 load(1, XDATA, add(CFA_XSP16, literal(-2)))
        CFI (cfiCond21) DPH0 load(1, XDATA, add(CFA_XSP16, literal(-1)))
        CFI (cfiCond21) CFA_SP SP+0
        CFI (cfiCond21) CFA_XSP16 add(XSP16, 11)
        CFI Block cfiCond22 Using cfiCommon0
        CFI (cfiCond22) NoFunction
        CFI (cfiCond22) Conditional ??CrossCallReturnLabel_66
        CFI (cfiCond22) R6 load(1, XDATA, add(CFA_XSP16, literal(-14)))
        CFI (cfiCond22) VB load(1, XDATA, add(CFA_XSP16, literal(-13)))
        CFI (cfiCond22) V0 load(1, XDATA, add(CFA_XSP16, literal(-12)))
        CFI (cfiCond22) V1 load(1, XDATA, add(CFA_XSP16, literal(-11)))
        CFI (cfiCond22) V2 load(1, XDATA, add(CFA_XSP16, literal(-10)))
        CFI (cfiCond22) V3 load(1, XDATA, add(CFA_XSP16, literal(-9)))
        CFI (cfiCond22) V4 load(1, XDATA, add(CFA_XSP16, literal(-8)))
        CFI (cfiCond22) V5 load(1, XDATA, add(CFA_XSP16, literal(-7)))
        CFI (cfiCond22) R7 load(1, XDATA, add(CFA_XSP16, literal(-6)))
        CFI (cfiCond22) ?RET_LOW load(1, XDATA, add(CFA_XSP16, literal(-5)))
        CFI (cfiCond22) ?RET_HIGH load(1, XDATA, add(CFA_XSP16, literal(-4)))
        CFI (cfiCond22) ?BRET_EXT load(1, XDATA, add(CFA_XSP16, literal(-3)))
        CFI (cfiCond22) DPL0 load(1, XDATA, add(CFA_XSP16, literal(-2)))
        CFI (cfiCond22) DPH0 load(1, XDATA, add(CFA_XSP16, literal(-1)))
        CFI (cfiCond22) CFA_SP SP+0
        CFI (cfiCond22) CFA_XSP16 add(XSP16, 15)
        CFI Block cfiPicker23 Using cfiCommon1
        CFI (cfiPicker23) NoFunction
        CFI (cfiPicker23) Picker
        ADD     A,#0xb
        CFI Block cfiCond24 Using cfiCommon0
        CFI (cfiCond24) NoFunction
        CFI (cfiCond24) Conditional ??CrossCallReturnLabel_64
        CFI (cfiCond24) R6 load(1, XDATA, add(CFA_XSP16, literal(-10)))
        CFI (cfiCond24) VB load(1, XDATA, add(CFA_XSP16, literal(-9)))
        CFI (cfiCond24) V0 load(1, XDATA, add(CFA_XSP16, literal(-8)))
        CFI (cfiCond24) V1 load(1, XDATA, add(CFA_XSP16, literal(-7)))
        CFI (cfiCond24) R7 load(1, XDATA, add(CFA_XSP16, literal(-6)))
        CFI (cfiCond24) ?RET_LOW load(1, XDATA, add(CFA_XSP16, literal(-5)))
        CFI (cfiCond24) ?RET_HIGH load(1, XDATA, add(CFA_XSP16, literal(-4)))
        CFI (cfiCond24) ?BRET_EXT load(1, XDATA, add(CFA_XSP16, literal(-3)))
        CFI (cfiCond24) DPL0 load(1, XDATA, add(CFA_XSP16, literal(-2)))
        CFI (cfiCond24) DPH0 load(1, XDATA, add(CFA_XSP16, literal(-1)))
        CFI (cfiCond24) CFA_SP SP+0
        CFI (cfiCond24) CFA_XSP16 add(XSP16, 11)
        CFI Block cfiCond25 Using cfiCommon0
        CFI (cfiCond25) NoFunction
        CFI (cfiCond25) Conditional ??CrossCallReturnLabel_65
        CFI (cfiCond25) R6 load(1, XDATA, add(CFA_XSP16, literal(-10)))
        CFI (cfiCond25) VB load(1, XDATA, add(CFA_XSP16, literal(-9)))
        CFI (cfiCond25) V0 load(1, XDATA, add(CFA_XSP16, literal(-8)))
        CFI (cfiCond25) V1 load(1, XDATA, add(CFA_XSP16, literal(-7)))
        CFI (cfiCond25) R7 load(1, XDATA, add(CFA_XSP16, literal(-6)))
        CFI (cfiCond25) ?RET_LOW load(1, XDATA, add(CFA_XSP16, literal(-5)))
        CFI (cfiCond25) ?RET_HIGH load(1, XDATA, add(CFA_XSP16, literal(-4)))
        CFI (cfiCond25) ?BRET_EXT load(1, XDATA, add(CFA_XSP16, literal(-3)))
        CFI (cfiCond25) DPL0 load(1, XDATA, add(CFA_XSP16, literal(-2)))
        CFI (cfiCond25) DPH0 load(1, XDATA, add(CFA_XSP16, literal(-1)))
        CFI (cfiCond25) CFA_SP SP+-1
        CFI (cfiCond25) CFA_XSP16 add(XSP16, 11)
        CFI Block cfiCond26 Using cfiCommon0
        CFI (cfiCond26) NoFunction
        CFI (cfiCond26) Conditional ??CrossCallReturnLabel_67
        CFI (cfiCond26) R6 load(1, XDATA, add(CFA_XSP16, literal(-14)))
        CFI (cfiCond26) VB load(1, XDATA, add(CFA_XSP16, literal(-13)))
        CFI (cfiCond26) V0 load(1, XDATA, add(CFA_XSP16, literal(-12)))
        CFI (cfiCond26) V1 load(1, XDATA, add(CFA_XSP16, literal(-11)))
        CFI (cfiCond26) V2 load(1, XDATA, add(CFA_XSP16, literal(-10)))
        CFI (cfiCond26) V3 load(1, XDATA, add(CFA_XSP16, literal(-9)))
        CFI (cfiCond26) V4 load(1, XDATA, add(CFA_XSP16, literal(-8)))
        CFI (cfiCond26) V5 load(1, XDATA, add(CFA_XSP16, literal(-7)))
        CFI (cfiCond26) R7 load(1, XDATA, add(CFA_XSP16, literal(-6)))
        CFI (cfiCond26) ?RET_LOW load(1, XDATA, add(CFA_XSP16, literal(-5)))
        CFI (cfiCond26) ?RET_HIGH load(1, XDATA, add(CFA_XSP16, literal(-4)))
        CFI (cfiCond26) ?BRET_EXT load(1, XDATA, add(CFA_XSP16, literal(-3)))
        CFI (cfiCond26) DPL0 load(1, XDATA, add(CFA_XSP16, literal(-2)))
        CFI (cfiCond26) DPH0 load(1, XDATA, add(CFA_XSP16, literal(-1)))
        CFI (cfiCond26) CFA_SP SP+0
        CFI (cfiCond26) CFA_XSP16 add(XSP16, 15)
        CFI Block cfiCond27 Using cfiCommon0
        CFI (cfiCond27) NoFunction
        CFI (cfiCond27) Conditional ??CrossCallReturnLabel_68
        CFI (cfiCond27) R6 load(1, XDATA, add(CFA_XSP16, literal(-14)))
        CFI (cfiCond27) VB load(1, XDATA, add(CFA_XSP16, literal(-13)))
        CFI (cfiCond27) V0 load(1, XDATA, add(CFA_XSP16, literal(-12)))
        CFI (cfiCond27) V1 load(1, XDATA, add(CFA_XSP16, literal(-11)))
        CFI (cfiCond27) V2 load(1, XDATA, add(CFA_XSP16, literal(-10)))
        CFI (cfiCond27) V3 load(1, XDATA, add(CFA_XSP16, literal(-9)))
        CFI (cfiCond27) V4 load(1, XDATA, add(CFA_XSP16, literal(-8)))
        CFI (cfiCond27) V5 load(1, XDATA, add(CFA_XSP16, literal(-7)))
        CFI (cfiCond27) R7 load(1, XDATA, add(CFA_XSP16, literal(-6)))
        CFI (cfiCond27) ?RET_LOW load(1, XDATA, add(CFA_XSP16, literal(-5)))
        CFI (cfiCond27) ?RET_HIGH load(1, XDATA, add(CFA_XSP16, literal(-4)))
        CFI (cfiCond27) ?BRET_EXT load(1, XDATA, add(CFA_XSP16, literal(-3)))
        CFI (cfiCond27) DPL0 load(1, XDATA, add(CFA_XSP16, literal(-2)))
        CFI (cfiCond27) DPH0 load(1, XDATA, add(CFA_XSP16, literal(-1)))
        CFI (cfiCond27) CFA_SP SP+0
        CFI (cfiCond27) CFA_XSP16 add(XSP16, 15)
??Subroutine21_0:
        MOV     DPL,A
        MOV     A,R7
        ADDC    A,#0x0
        MOV     DPH,A
        RET
        CFI EndBlock cfiCond20
        CFI EndBlock cfiCond21
        CFI EndBlock cfiCond22
        CFI EndBlock cfiPicker23
        CFI EndBlock cfiCond24
        CFI EndBlock cfiCond25
        CFI EndBlock cfiCond26
        CFI EndBlock cfiCond27

        RSEG BANKED_CODE:CODE:NOROOT(0)
?Subroutine17:
        CFI Block cfiCond28 Using cfiCommon0
        CFI NoFunction
        CFI Conditional ??CrossCallReturnLabel_51
        CFI R6 load(1, XDATA, add(CFA_XSP16, literal(-14)))
        CFI VB load(1, XDATA, add(CFA_XSP16, literal(-13)))
        CFI V0 load(1, XDATA, add(CFA_XSP16, literal(-12)))
        CFI V1 load(1, XDATA, add(CFA_XSP16, literal(-11)))
        CFI V2 load(1, XDATA, add(CFA_XSP16, literal(-10)))
        CFI V3 load(1, XDATA, add(CFA_XSP16, literal(-9)))
        CFI V4 load(1, XDATA, add(CFA_XSP16, literal(-8)))
        CFI V5 load(1, XDATA, add(CFA_XSP16, literal(-7)))
        CFI R7 load(1, XDATA, add(CFA_XSP16, literal(-6)))
        CFI ?RET_LOW load(1, XDATA, add(CFA_XSP16, literal(-5)))
        CFI ?RET_HIGH load(1, XDATA, add(CFA_XSP16, literal(-4)))
        CFI ?BRET_EXT load(1, XDATA, add(CFA_XSP16, literal(-3)))
        CFI DPL0 load(1, XDATA, add(CFA_XSP16, literal(-2)))
        CFI DPH0 load(1, XDATA, add(CFA_XSP16, literal(-1)))
        CFI CFA_SP SP+0
        CFI CFA_XSP16 add(XSP16, 15)
        CFI Block cfiCond29 Using cfiCommon0
        CFI (cfiCond29) NoFunction
        CFI (cfiCond29) Conditional ??CrossCallReturnLabel_52
        CFI (cfiCond29) R6 load(1, XDATA, add(CFA_XSP16, literal(-14)))
        CFI (cfiCond29) VB load(1, XDATA, add(CFA_XSP16, literal(-13)))
        CFI (cfiCond29) V0 load(1, XDATA, add(CFA_XSP16, literal(-12)))
        CFI (cfiCond29) V1 load(1, XDATA, add(CFA_XSP16, literal(-11)))
        CFI (cfiCond29) V2 load(1, XDATA, add(CFA_XSP16, literal(-10)))
        CFI (cfiCond29) V3 load(1, XDATA, add(CFA_XSP16, literal(-9)))
        CFI (cfiCond29) V4 load(1, XDATA, add(CFA_XSP16, literal(-8)))
        CFI (cfiCond29) V5 load(1, XDATA, add(CFA_XSP16, literal(-7)))
        CFI (cfiCond29) R7 load(1, XDATA, add(CFA_XSP16, literal(-6)))
        CFI (cfiCond29) ?RET_LOW load(1, XDATA, add(CFA_XSP16, literal(-5)))
        CFI (cfiCond29) ?RET_HIGH load(1, XDATA, add(CFA_XSP16, literal(-4)))
        CFI (cfiCond29) ?BRET_EXT load(1, XDATA, add(CFA_XSP16, literal(-3)))
        CFI (cfiCond29) DPL0 load(1, XDATA, add(CFA_XSP16, literal(-2)))
        CFI (cfiCond29) DPH0 load(1, XDATA, add(CFA_XSP16, literal(-1)))
        CFI (cfiCond29) CFA_SP SP+0
        CFI (cfiCond29) CFA_XSP16 add(XSP16, 15)
        CFI Block cfiPicker30 Using cfiCommon1
        CFI (cfiPicker30) NoFunction
        CFI (cfiPicker30) Picker
        LCALL   ??osal_mem_alloc?relay
        MOV     DPL,R6
        MOV     DPH,R7
        MOV     A,R2
        MOVX    @DPTR,A
        INC     DPTR
        MOV     A,R3
        MOVX    @DPTR,A
        RET
        CFI EndBlock cfiCond28
        CFI EndBlock cfiCond29
        CFI EndBlock cfiPicker30

        RSEG BANKED_CODE:CODE:NOROOT(0)
?Subroutine16:
        CFI Block cfiCond31 Using cfiCommon0
        CFI NoFunction
        CFI Conditional ??CrossCallReturnLabel_49
        CFI R6 load(1, XDATA, add(CFA_XSP16, literal(-10)))
        CFI VB load(1, XDATA, add(CFA_XSP16, literal(-9)))
        CFI V0 load(1, XDATA, add(CFA_XSP16, literal(-8)))
        CFI V1 load(1, XDATA, add(CFA_XSP16, literal(-7)))
        CFI R7 load(1, XDATA, add(CFA_XSP16, literal(-6)))
        CFI ?RET_LOW load(1, XDATA, add(CFA_XSP16, literal(-5)))
        CFI ?RET_HIGH load(1, XDATA, add(CFA_XSP16, literal(-4)))
        CFI ?BRET_EXT load(1, XDATA, add(CFA_XSP16, literal(-3)))
        CFI DPL0 load(1, XDATA, add(CFA_XSP16, literal(-2)))
        CFI DPH0 load(1, XDATA, add(CFA_XSP16, literal(-1)))
        CFI CFA_SP SP+0
        CFI CFA_XSP16 add(XSP16, 11)
        CFI Block cfiCond32 Using cfiCommon0
        CFI (cfiCond32) NoFunction
        CFI (cfiCond32) Conditional ??CrossCallReturnLabel_50
        CFI (cfiCond32) R6 load(1, XDATA, add(CFA_XSP16, literal(-14)))
        CFI (cfiCond32) VB load(1, XDATA, add(CFA_XSP16, literal(-13)))
        CFI (cfiCond32) V0 load(1, XDATA, add(CFA_XSP16, literal(-12)))
        CFI (cfiCond32) V1 load(1, XDATA, add(CFA_XSP16, literal(-11)))
        CFI (cfiCond32) V2 load(1, XDATA, add(CFA_XSP16, literal(-10)))
        CFI (cfiCond32) V3 load(1, XDATA, add(CFA_XSP16, literal(-9)))
        CFI (cfiCond32) V4 load(1, XDATA, add(CFA_XSP16, literal(-8)))
        CFI (cfiCond32) V5 load(1, XDATA, add(CFA_XSP16, literal(-7)))
        CFI (cfiCond32) R7 load(1, XDATA, add(CFA_XSP16, literal(-6)))
        CFI (cfiCond32) ?RET_LOW load(1, XDATA, add(CFA_XSP16, literal(-5)))
        CFI (cfiCond32) ?RET_HIGH load(1, XDATA, add(CFA_XSP16, literal(-4)))
        CFI (cfiCond32) ?BRET_EXT load(1, XDATA, add(CFA_XSP16, literal(-3)))
        CFI (cfiCond32) DPL0 load(1, XDATA, add(CFA_XSP16, literal(-2)))
        CFI (cfiCond32) DPH0 load(1, XDATA, add(CFA_XSP16, literal(-1)))
        CFI (cfiCond32) CFA_SP SP+0
        CFI (cfiCond32) CFA_XSP16 add(XSP16, 15)
        CFI Block cfiPicker33 Using cfiCommon1
        CFI (cfiPicker33) NoFunction
        CFI (cfiPicker33) Picker
        CLR     A
        MOV     DPL,R6
        MOV     DPH,R7
        INC     DPTR
        INC     DPTR
        INC     DPTR
        LCALL   ?Subroutine19 & 0xFFFF
??CrossCallReturnLabel_58:
        INC     DPTR
        MOVX    @DPTR,A
        MOV     A,R6
        RET
        CFI EndBlock cfiCond31
        CFI EndBlock cfiCond32
        CFI EndBlock cfiPicker33

        RSEG BANKED_CODE:CODE:NOROOT(0)
?Subroutine10:
        CFI Block cfiCond34 Using cfiCommon0
        CFI NoFunction
        CFI Conditional ??CrossCallReturnLabel_39
        CFI R6 load(1, XDATA, add(CFA_XSP16, literal(-10)))
        CFI VB load(1, XDATA, add(CFA_XSP16, literal(-9)))
        CFI V0 load(1, XDATA, add(CFA_XSP16, literal(-8)))
        CFI V1 load(1, XDATA, add(CFA_XSP16, literal(-7)))
        CFI R7 load(1, XDATA, add(CFA_XSP16, literal(-6)))
        CFI ?RET_LOW load(1, XDATA, add(CFA_XSP16, literal(-5)))
        CFI ?RET_HIGH load(1, XDATA, add(CFA_XSP16, literal(-4)))
        CFI ?BRET_EXT load(1, XDATA, add(CFA_XSP16, literal(-3)))
        CFI DPL0 load(1, XDATA, add(CFA_XSP16, literal(-2)))
        CFI DPH0 load(1, XDATA, add(CFA_XSP16, literal(-1)))
        CFI CFA_SP SP+0
        CFI CFA_XSP16 add(XSP16, 11)
        CFI Block cfiCond35 Using cfiCommon0
        CFI (cfiCond35) NoFunction
        CFI (cfiCond35) Conditional ??CrossCallReturnLabel_40
        CFI (cfiCond35) R6 load(1, XDATA, add(CFA_XSP16, literal(-14)))
        CFI (cfiCond35) VB load(1, XDATA, add(CFA_XSP16, literal(-13)))
        CFI (cfiCond35) V0 load(1, XDATA, add(CFA_XSP16, literal(-12)))
        CFI (cfiCond35) V1 load(1, XDATA, add(CFA_XSP16, literal(-11)))
        CFI (cfiCond35) V2 load(1, XDATA, add(CFA_XSP16, literal(-10)))
        CFI (cfiCond35) V3 load(1, XDATA, add(CFA_XSP16, literal(-9)))
        CFI (cfiCond35) V4 load(1, XDATA, add(CFA_XSP16, literal(-8)))
        CFI (cfiCond35) V5 load(1, XDATA, add(CFA_XSP16, literal(-7)))
        CFI (cfiCond35) R7 load(1, XDATA, add(CFA_XSP16, literal(-6)))
        CFI (cfiCond35) ?RET_LOW load(1, XDATA, add(CFA_XSP16, literal(-5)))
        CFI (cfiCond35) ?RET_HIGH load(1, XDATA, add(CFA_XSP16, literal(-4)))
        CFI (cfiCond35) ?BRET_EXT load(1, XDATA, add(CFA_XSP16, literal(-3)))
        CFI (cfiCond35) DPL0 load(1, XDATA, add(CFA_XSP16, literal(-2)))
        CFI (cfiCond35) DPH0 load(1, XDATA, add(CFA_XSP16, literal(-1)))
        CFI (cfiCond35) CFA_SP SP+0
        CFI (cfiCond35) CFA_XSP16 add(XSP16, 15)
        CFI Block cfiPicker36 Using cfiCommon1
        CFI (cfiPicker36) NoFunction
        CFI (cfiPicker36) Picker
        LCALL   ??osal_memset?relay
        MOV     A,0xc1
        MOV     DPL,?XSP + 0
        MOV     DPH,?XSP + 1
        LCALL   ?Subroutine19 & 0xFFFF
??CrossCallReturnLabel_55:
        MOVX    A,@DPTR
        MOV     DPTR,#(dmaCh1234 + 26)
        MOVX    @DPTR,A
        MOV     DPL,R6
        MOV     DPH,R7
        MOVX    A,@DPTR
        MOV     DPTR,#(dmaCh1234 + 27)
        MOVX    @DPTR,A
        RET
        CFI EndBlock cfiCond34
        CFI EndBlock cfiCond35
        CFI EndBlock cfiPicker36

        RSEG BANKED_CODE:CODE:NOROOT(0)
?Subroutine9:
        CFI Block cfiCond37 Using cfiCommon0
        CFI NoFunction
        CFI Conditional ??CrossCallReturnLabel_37
        CFI R6 load(1, XDATA, add(CFA_XSP16, literal(-10)))
        CFI VB load(1, XDATA, add(CFA_XSP16, literal(-9)))
        CFI V0 load(1, XDATA, add(CFA_XSP16, literal(-8)))
        CFI V1 load(1, XDATA, add(CFA_XSP16, literal(-7)))
        CFI R7 load(1, XDATA, add(CFA_XSP16, literal(-6)))
        CFI ?RET_LOW load(1, XDATA, add(CFA_XSP16, literal(-5)))
        CFI ?RET_HIGH load(1, XDATA, add(CFA_XSP16, literal(-4)))
        CFI ?BRET_EXT load(1, XDATA, add(CFA_XSP16, literal(-3)))
        CFI DPL0 load(1, XDATA, add(CFA_XSP16, literal(-2)))
        CFI DPH0 load(1, XDATA, add(CFA_XSP16, literal(-1)))
        CFI CFA_SP SP+0
        CFI CFA_XSP16 add(XSP16, 11)
        CFI Block cfiCond38 Using cfiCommon0
        CFI (cfiCond38) NoFunction
        CFI (cfiCond38) Conditional ??CrossCallReturnLabel_38
        CFI (cfiCond38) R6 load(1, XDATA, add(CFA_XSP16, literal(-14)))
        CFI (cfiCond38) VB load(1, XDATA, add(CFA_XSP16, literal(-13)))
        CFI (cfiCond38) V0 load(1, XDATA, add(CFA_XSP16, literal(-12)))
        CFI (cfiCond38) V1 load(1, XDATA, add(CFA_XSP16, literal(-11)))
        CFI (cfiCond38) V2 load(1, XDATA, add(CFA_XSP16, literal(-10)))
        CFI (cfiCond38) V3 load(1, XDATA, add(CFA_XSP16, literal(-9)))
        CFI (cfiCond38) V4 load(1, XDATA, add(CFA_XSP16, literal(-8)))
        CFI (cfiCond38) V5 load(1, XDATA, add(CFA_XSP16, literal(-7)))
        CFI (cfiCond38) R7 load(1, XDATA, add(CFA_XSP16, literal(-6)))
        CFI (cfiCond38) ?RET_LOW load(1, XDATA, add(CFA_XSP16, literal(-5)))
        CFI (cfiCond38) ?RET_HIGH load(1, XDATA, add(CFA_XSP16, literal(-4)))
        CFI (cfiCond38) ?BRET_EXT load(1, XDATA, add(CFA_XSP16, literal(-3)))
        CFI (cfiCond38) DPL0 load(1, XDATA, add(CFA_XSP16, literal(-2)))
        CFI (cfiCond38) DPH0 load(1, XDATA, add(CFA_XSP16, literal(-1)))
        CFI (cfiCond38) CFA_SP SP+0
        CFI (cfiCond38) CFA_XSP16 add(XSP16, 15)
        CFI Block cfiPicker39 Using cfiCommon1
        CFI (cfiPicker39) NoFunction
        CFI (cfiPicker39) Picker
        MOVX    A,@DPTR
        CLR     C
        RLC     A
        MOV     R4,A
        CLR     A
        RLC     A
        MOV     R5,A
        MOV     A,0xc2
        CPL     A
        MOV     R1,A
        MOV     DPL,R6
        MOV     DPH,R7
        MOVX    A,@DPTR
        MOV     R2,A
        RET
        CFI EndBlock cfiCond37
        CFI EndBlock cfiCond38
        CFI EndBlock cfiPicker39

        RSEG BANKED_CODE:CODE:NOROOT(0)
?Subroutine8:
        CFI Block cfiCond40 Using cfiCommon0
        CFI NoFunction
        CFI Conditional ??CrossCallReturnLabel_35
        CFI R6 load(1, XDATA, add(CFA_XSP16, literal(-10)))
        CFI VB load(1, XDATA, add(CFA_XSP16, literal(-9)))
        CFI V0 load(1, XDATA, add(CFA_XSP16, literal(-8)))
        CFI V1 load(1, XDATA, add(CFA_XSP16, literal(-7)))
        CFI R7 load(1, XDATA, add(CFA_XSP16, literal(-6)))
        CFI ?RET_LOW load(1, XDATA, add(CFA_XSP16, literal(-5)))
        CFI ?RET_HIGH load(1, XDATA, add(CFA_XSP16, literal(-4)))
        CFI ?BRET_EXT load(1, XDATA, add(CFA_XSP16, literal(-3)))
        CFI DPL0 load(1, XDATA, add(CFA_XSP16, literal(-2)))
        CFI DPH0 load(1, XDATA, add(CFA_XSP16, literal(-1)))
        CFI CFA_SP SP+0
        CFI CFA_XSP16 add(XSP16, 11)
        CFI Block cfiCond41 Using cfiCommon0
        CFI (cfiCond41) NoFunction
        CFI (cfiCond41) Conditional ??CrossCallReturnLabel_36
        CFI (cfiCond41) R6 load(1, XDATA, add(CFA_XSP16, literal(-14)))
        CFI (cfiCond41) VB load(1, XDATA, add(CFA_XSP16, literal(-13)))
        CFI (cfiCond41) V0 load(1, XDATA, add(CFA_XSP16, literal(-12)))
        CFI (cfiCond41) V1 load(1, XDATA, add(CFA_XSP16, literal(-11)))
        CFI (cfiCond41) V2 load(1, XDATA, add(CFA_XSP16, literal(-10)))
        CFI (cfiCond41) V3 load(1, XDATA, add(CFA_XSP16, literal(-9)))
        CFI (cfiCond41) V4 load(1, XDATA, add(CFA_XSP16, literal(-8)))
        CFI (cfiCond41) V5 load(1, XDATA, add(CFA_XSP16, literal(-7)))
        CFI (cfiCond41) R7 load(1, XDATA, add(CFA_XSP16, literal(-6)))
        CFI (cfiCond41) ?RET_LOW load(1, XDATA, add(CFA_XSP16, literal(-5)))
        CFI (cfiCond41) ?RET_HIGH load(1, XDATA, add(CFA_XSP16, literal(-4)))
        CFI (cfiCond41) ?BRET_EXT load(1, XDATA, add(CFA_XSP16, literal(-3)))
        CFI (cfiCond41) DPL0 load(1, XDATA, add(CFA_XSP16, literal(-2)))
        CFI (cfiCond41) DPH0 load(1, XDATA, add(CFA_XSP16, literal(-1)))
        CFI (cfiCond41) CFA_SP SP+0
        CFI (cfiCond41) CFA_XSP16 add(XSP16, 15)
        CFI Block cfiPicker42 Using cfiCommon1
        CFI (cfiPicker42) NoFunction
        CFI (cfiPicker42) Picker
        MOVX    A,@DPTR
        MOV     DPTR,#(dmaCh1234 + 29)
        MOVX    @DPTR,A
        MOV     DPTR,#(dmaCh1234 + 28)
        MOVX    A,@DPTR
        ANL     A,#0xe0
        MOVX    @DPTR,A
        ANL     0xd1,#0xef
        MOV     0xd6,#0x10
        RET
        CFI EndBlock cfiCond40
        CFI EndBlock cfiCond41
        CFI EndBlock cfiPicker42
//  703 
//  704 /******************************************************************************
//  705  * @fn      HalUARTClose
//  706  *
//  707  * @brief   Close the UART
//  708  *
//  709  * @param   port - UART port
//  710  *
//  711  * @return  none
//  712  *****************************************************************************/

        RSEG BANKED_CODE:CODE:NOROOT(0)
//  713 void HalUARTClose( uint8 port )
HalUARTClose:
        CFI Block cfiBlock43 Using cfiCommon0
        CFI Function HalUARTClose
//  714 {
        ; Saved register size: 0
        ; Auto size: 0
//  715 #if HAL_UART_CLOSE
//  716   uartCfg_t *cfg;
//  717 
//  718 #if HAL_UART_0_ENABLE
//  719   if ( port == HAL_UART_PORT_0 )
//  720   {
//  721     U0CSR &= ~CSR_RE;
//  722 #if HAL_UART_DMA == 1
//  723     HAL_DMA_ABORT_CH( HAL_DMA_CH_RX );
//  724     HAL_DMA_ABORT_CH( HAL_DMA_CH_TX );
//  725 #else
//  726     URX0IE = 0;
//  727 #endif
//  728     cfg = cfg0;
//  729     cfg0 = NULL;
//  730   }
//  731 #endif
//  732 #if HAL_UART_1_ENABLE
//  733   if ( port == HAL_UART_PORT_1 )
//  734   {
//  735     U1CSR &= ~CSR_RE;
//  736 #if HAL_UART_DMA == 2
//  737     HAL_DMA_ABORT_CH( HAL_DMA_CH_RX );
//  738     HAL_DMA_ABORT_CH( HAL_DMA_CH_TX );
//  739 #else
//  740     URX1IE = 0;
//  741 #endif
//  742     cfg = cfg1;
//  743     cfg1 = NULL;
//  744   }
//  745 #endif
//  746 
//  747   if ( cfg )
//  748   {
//  749     if ( cfg->rxBuf )
//  750     {
//  751       osal_mem_free( cfg->rxBuf );
//  752     }
//  753     if ( cfg->txBuf )
//  754     {
//  755       osal_mem_free( cfg->txBuf );
//  756     }
//  757     osal_mem_free( cfg );
//  758   }
//  759 #endif
//  760 }
        LJMP    ?BRET
        CFI EndBlock cfiBlock43
//  761 
//  762 /******************************************************************************
//  763  * @fn      HalUARTPoll
//  764  *
//  765  * @brief   Poll the UART.
//  766  *
//  767  * @param   none
//  768  *
//  769  * @return  none
//  770  *****************************************************************************/

        RSEG BANKED_CODE:CODE:NOROOT(0)
//  771 void HalUARTPoll( void )
HalUARTPoll:
        CFI Block cfiBlock44 Using cfiCommon0
        CFI Function HalUARTPoll
//  772 {
        FUNCALL HalUARTPoll, pollDMA
        LOCFRAME ISTACK, 0, STACK
        LOCFRAME PSTACK, 0, STACK
        LOCFRAME XSTACK, 9, STACK
        LOCFRAME IOVERLAY, 0, STATIC
        LOCFRAME DOVERLAY, 0, STATIC
        ARGFRAME ISTACK, 0, STACK
        ARGFRAME PSTACK, 0, STACK
        ARGFRAME XSTACK, 9, STACK
        ARGFRAME IOVERLAY, 0, STATIC
        ARGFRAME DOVERLAY, 0, STATIC
        MOV     A,#-0x9
        LCALL   ?BANKED_ENTER_XDATA
        CFI DPH0 load(1, XDATA, add(CFA_XSP16, literal(-1)))
        CFI DPL0 load(1, XDATA, add(CFA_XSP16, literal(-2)))
        CFI ?BRET_EXT load(1, XDATA, add(CFA_XSP16, literal(-3)))
        CFI ?RET_HIGH load(1, XDATA, add(CFA_XSP16, literal(-4)))
        CFI ?RET_LOW load(1, XDATA, add(CFA_XSP16, literal(-5)))
        CFI R7 load(1, XDATA, add(CFA_XSP16, literal(-6)))
        CFI V0 load(1, XDATA, add(CFA_XSP16, literal(-7)))
        CFI VB load(1, XDATA, add(CFA_XSP16, literal(-8)))
        CFI R6 load(1, XDATA, add(CFA_XSP16, literal(-9)))
        CFI CFA_SP SP+0
        CFI CFA_XSP16 add(XSP16, 9)
        ; Saved register size: 9
        ; Auto size: 0
//  773 #if ( HAL_UART_0_ENABLE | HAL_UART_1_ENABLE )
//  774   static uint8 tickShdw;
//  775   uartCfg_t *cfg;
//  776   uint8 tick;
//  777 
//  778 #if HAL_UART_0_ENABLE
//  779   if ( cfg0 )
        MOV     DPTR,#cfg0
        MOVX    A,@DPTR
        JNZ     ??HalUARTPoll_0
        INC     DPTR
        MOVX    A,@DPTR
??HalUARTPoll_0:
        JZ      ??HalUARTPoll_1
//  780   {
//  781     cfg = cfg0;
        MOV     DPTR,#cfg0
        MOVX    A,@DPTR
        MOV     R6,A
        INC     DPTR
        MOVX    A,@DPTR
        MOV     R7,A
//  782   }
//  783 #endif
//  784 #if HAL_UART_1_ENABLE
//  785   if ( cfg1 )
//  786   {
//  787     cfg = cfg1;
//  788   }
//  789 #endif
//  790 
//  791   // Use the LSB of the sleep timer (ST0 must be read first anyway).
//  792   tick = ST0 - tickShdw;
??HalUARTPoll_1:
        MOV     DPTR,#??tickShdw
        MOVX    A,@DPTR
        MOV     R2,A
        MOV     A,0x95
        CLR     C
        SUBB    A,R2
        MOV     R2,A
//  793   tickShdw = ST0;
        MOV     A,0x95
        MOVX    @DPTR,A
//  794 
//  795   do
//  796   {
//  797     if ( cfg->txTick > tick )
        MOV     A,R6
        ADD     A,#0xe
        LCALL   ??Subroutine7_0 & 0xFFFF
??CrossCallReturnLabel_29:
        MOV     R3,A
        MOV     A,R2
        CLR     C
        SUBB    A,R3
        JNC     ??HalUARTPoll_2
//  798     {
//  799       cfg->txTick -= tick;
        MOVX    A,@DPTR
        CLR     C
        SUBB    A,R2
        SJMP    ??HalUARTPoll_3
//  800     }
//  801     else
//  802     {
//  803       cfg->txTick = 0;
??HalUARTPoll_2:
        CLR     A
??HalUARTPoll_3:
        LCALL   ?Subroutine15 & 0xFFFF
//  804     }
//  805 
//  806     if ( cfg->rxTick > tick )
??CrossCallReturnLabel_47:
        MOVX    A,@DPTR
        MOV     R3,A
        MOV     A,R2
        CLR     C
        SUBB    A,R3
        JNC     ??HalUARTPoll_4
//  807     {
//  808       cfg->rxTick -= tick;
        MOV     DPL,R6
        MOV     DPH,R7
        INC     DPTR
        INC     DPTR
        INC     DPTR
        INC     DPTR
        INC     DPTR
        INC     DPTR
        MOVX    A,@DPTR
        CLR     C
        SUBB    A,R2
        SJMP    ??HalUARTPoll_5
//  809     }
//  810     else
//  811     {
//  812       cfg->rxTick = 0;
??HalUARTPoll_4:
        CLR     A
        MOV     DPL,R6
        MOV     DPH,R7
        INC     DPTR
        INC     DPTR
        INC     DPTR
        INC     DPTR
        INC     DPTR
        INC     DPTR
??HalUARTPoll_5:
        MOVX    @DPTR,A
//  813     }
//  814 
//  815 #if HAL_UART_ISR
//  816 #if HAL_UART_DMA
//  817     if ( cfg->flag & UART_CFG_DMA )
//  818     {
//  819       pollDMA( cfg );
//  820     }
//  821     else
//  822 #endif
//  823       {
//  824       pollISR( cfg );
//  825       }
//  826 #elif HAL_UART_DMA
//  827     pollDMA( cfg );
        ; Setup parameters for call to function pollDMA
        MOV     A,R6
        MOV     R2,A
        MOV     A,R7
        MOV     R3,A
        LCALL   ??pollDMA?relay
//  828 #endif
//  829 
//  830     /* The following logic makes continuous callbacks on any eligible flag
//  831      * until the condition corresponding to the flag is rectified.
//  832      * So even if new data is not received, continuous callbacks are made.
//  833      */
//  834       if ( cfg->rxHead != cfg->rxTail )
        LCALL   ?Subroutine12 & 0xFFFF
??CrossCallReturnLabel_44:
        JZ      ??HalUARTPoll_6
//  835       {
//  836       uint8 evt;
//  837 
//  838       if ( cfg->rxHead >= (cfg->rxMax - SAFE_RX_MIN) )
        LCALL   ?Subroutine1 & 0xFFFF
??CrossCallReturnLabel_1:
        JC      ??HalUARTPoll_7
//  839       {
//  840         evt = HAL_UART_RX_FULL;
        MOV     R2,#0x1
        SJMP    ??HalUARTPoll_8
//  841       }
//  842       else if ( cfg->rxHigh && (cfg->rxHead >= cfg->rxHigh) )
??HalUARTPoll_7:
        MOV     DPL,R6
        MOV     DPH,R7
        INC     DPTR
        INC     DPTR
        INC     DPTR
        INC     DPTR
        INC     DPTR
        INC     DPTR
        INC     DPTR
        MOVX    A,@DPTR
        JZ      ??HalUARTPoll_9
        MOV     DPL,R6
        MOV     DPH,R7
        INC     DPTR
        INC     DPTR
        MOVX    A,@DPTR
        PUSH    A
        CFI CFA_SP SP+-1
        MOV     DPL,R6
        MOV     DPH,R7
        INC     DPTR
        INC     DPTR
        INC     DPTR
        INC     DPTR
        INC     DPTR
        INC     DPTR
        INC     DPTR
        MOVX    A,@DPTR
        MOV     R2,A
        POP     A
        CFI CFA_SP SP+0
        CLR     C
        SUBB    A,R2
        JC      ??HalUARTPoll_9
//  843       {
//  844         evt = HAL_UART_RX_ABOUT_FULL;
        MOV     R2,#0x2
        SJMP    ??HalUARTPoll_8
//  845     }
//  846       else if ( cfg->rxTick == 0 )
??HalUARTPoll_9:
        MOV     DPL,R6
        MOV     DPH,R7
        INC     DPTR
        INC     DPTR
        INC     DPTR
        INC     DPTR
        INC     DPTR
        INC     DPTR
        MOVX    A,@DPTR
        JNZ     ??HalUARTPoll_6
//  847     {
//  848         evt = HAL_UART_RX_TIMEOUT;
        MOV     R2,#0x4
??HalUARTPoll_8:
        MOV     A,R6
        ADD     A,#0x10
        LCALL   ??Subroutine7_0 & 0xFFFF
??CrossCallReturnLabel_30:
        JNZ     ??HalUARTPoll_10
        INC     DPTR
        MOVX    A,@DPTR
??HalUARTPoll_10:
        JZ      ??HalUARTPoll_6
//  849     }
//  850     else
//  851     {
//  852         evt = 0;
//  853     }
//  854 
//  855     if ( evt && cfg->rxCB )
//  856     {
//  857         cfg->rxCB( ((cfg->flag & UART_CFG_U1F)!=0), evt );
        ; Setup parameters for indirect call
        LCALL   ?Subroutine3 & 0xFFFF
??CrossCallReturnLabel_8:
        CLR     A
        MOV     0xE0 /* A   */.0,C
        MOV     R1,A
        MOV     A,R6
        ADD     A,#0x10
        MOV     DPL,A
        MOV     A,R7
        LCALL   ?Subroutine6 & 0xFFFF
??CrossCallReturnLabel_15:
        MOV     DPH,A
        MOV     DPL,R0
        LCALL   ?CALL_IND
//  858     }
//  859     }
//  860 
//  861 #if HAL_UART_0_ENABLE
//  862     if ( cfg == cfg0 )
//  863     {
//  864 #if HAL_UART_1_ENABLE
//  865       if ( cfg1 )
//  866       {
//  867         cfg = cfg1;
//  868       }
//  869       else
//  870 #endif
//  871         break;
//  872     }
//  873     else
//  874 #endif
//  875       break;
//  876 
//  877   } while ( TRUE );
//  878 #else
//  879   return;
//  880 #endif
//  881 }
??HalUARTPoll_6:
        MOV     R7,#0x1
        LJMP    ?BANKED_LEAVE_XDATA
        CFI EndBlock cfiBlock44
        REQUIRE ST0

        RSEG BANKED_CODE:CODE:NOROOT(0)
?Subroutine15:
        CFI Block cfiCond45 Using cfiCommon0
        CFI NoFunction
        CFI Conditional ??CrossCallReturnLabel_48
        CFI R6 load(1, XDATA, add(CFA_XSP16, literal(-14)))
        CFI VB load(1, XDATA, add(CFA_XSP16, literal(-13)))
        CFI V0 load(1, XDATA, add(CFA_XSP16, literal(-12)))
        CFI V1 load(1, XDATA, add(CFA_XSP16, literal(-11)))
        CFI V2 load(1, XDATA, add(CFA_XSP16, literal(-10)))
        CFI V3 load(1, XDATA, add(CFA_XSP16, literal(-9)))
        CFI V4 load(1, XDATA, add(CFA_XSP16, literal(-8)))
        CFI V5 load(1, XDATA, add(CFA_XSP16, literal(-7)))
        CFI R7 load(1, XDATA, add(CFA_XSP16, literal(-6)))
        CFI ?RET_LOW load(1, XDATA, add(CFA_XSP16, literal(-5)))
        CFI ?RET_HIGH load(1, XDATA, add(CFA_XSP16, literal(-4)))
        CFI ?BRET_EXT load(1, XDATA, add(CFA_XSP16, literal(-3)))
        CFI DPL0 load(1, XDATA, add(CFA_XSP16, literal(-2)))
        CFI DPH0 load(1, XDATA, add(CFA_XSP16, literal(-1)))
        CFI CFA_SP SP+0
        CFI CFA_XSP16 add(XSP16, 15)
        CFI Block cfiCond46 Using cfiCommon0
        CFI (cfiCond46) NoFunction
        CFI (cfiCond46) Conditional ??CrossCallReturnLabel_47
        CFI (cfiCond46) R6 load(1, XDATA, add(CFA_XSP16, literal(-9)))
        CFI (cfiCond46) VB load(1, XDATA, add(CFA_XSP16, literal(-8)))
        CFI (cfiCond46) V0 load(1, XDATA, add(CFA_XSP16, literal(-7)))
        CFI (cfiCond46) R7 load(1, XDATA, add(CFA_XSP16, literal(-6)))
        CFI (cfiCond46) ?RET_LOW load(1, XDATA, add(CFA_XSP16, literal(-5)))
        CFI (cfiCond46) ?RET_HIGH load(1, XDATA, add(CFA_XSP16, literal(-4)))
        CFI (cfiCond46) ?BRET_EXT load(1, XDATA, add(CFA_XSP16, literal(-3)))
        CFI (cfiCond46) DPL0 load(1, XDATA, add(CFA_XSP16, literal(-2)))
        CFI (cfiCond46) DPH0 load(1, XDATA, add(CFA_XSP16, literal(-1)))
        CFI (cfiCond46) CFA_SP SP+0
        CFI (cfiCond46) CFA_XSP16 add(XSP16, 9)
        CFI Block cfiPicker47 Using cfiCommon1
        CFI (cfiPicker47) NoFunction
        CFI (cfiPicker47) Picker
        LCALL   ?Subroutine19 & 0xFFFF
??CrossCallReturnLabel_56:
        INC     DPTR
        INC     DPTR
        INC     DPTR
        INC     DPTR
        INC     DPTR
        RET
        CFI EndBlock cfiCond45
        CFI EndBlock cfiCond46
        CFI EndBlock cfiPicker47

        RSEG BANKED_CODE:CODE:NOROOT(0)
?Subroutine19:
        CFI Block cfiCond48 Using cfiCommon0
        CFI NoFunction
        CFI Conditional ??CrossCallReturnLabel_58, ??CrossCallReturnLabel_49
        CFI R6 load(1, XDATA, add(CFA_XSP16, literal(-10)))
        CFI VB load(1, XDATA, add(CFA_XSP16, literal(-9)))
        CFI V0 load(1, XDATA, add(CFA_XSP16, literal(-8)))
        CFI V1 load(1, XDATA, add(CFA_XSP16, literal(-7)))
        CFI R7 load(1, XDATA, add(CFA_XSP16, literal(-6)))
        CFI ?RET_LOW load(1, XDATA, add(CFA_XSP16, literal(-5)))
        CFI ?RET_HIGH load(1, XDATA, add(CFA_XSP16, literal(-4)))
        CFI ?BRET_EXT load(1, XDATA, add(CFA_XSP16, literal(-3)))
        CFI DPL0 load(1, XDATA, add(CFA_XSP16, literal(-2)))
        CFI DPH0 load(1, XDATA, add(CFA_XSP16, literal(-1)))
        CFI CFA_SP SP+0
        CFI CFA_XSP16 add(XSP16, 11)
        CFI Block cfiCond49 Using cfiCommon0
        CFI (cfiCond49) NoFunction
        CFI (cfiCond49) Conditional ??CrossCallReturnLabel_58, ??CrossCallReturnLabel_50
        CFI (cfiCond49) R6 load(1, XDATA, add(CFA_XSP16, literal(-14)))
        CFI (cfiCond49) VB load(1, XDATA, add(CFA_XSP16, literal(-13)))
        CFI (cfiCond49) V0 load(1, XDATA, add(CFA_XSP16, literal(-12)))
        CFI (cfiCond49) V1 load(1, XDATA, add(CFA_XSP16, literal(-11)))
        CFI (cfiCond49) V2 load(1, XDATA, add(CFA_XSP16, literal(-10)))
        CFI (cfiCond49) V3 load(1, XDATA, add(CFA_XSP16, literal(-9)))
        CFI (cfiCond49) V4 load(1, XDATA, add(CFA_XSP16, literal(-8)))
        CFI (cfiCond49) V5 load(1, XDATA, add(CFA_XSP16, literal(-7)))
        CFI (cfiCond49) R7 load(1, XDATA, add(CFA_XSP16, literal(-6)))
        CFI (cfiCond49) ?RET_LOW load(1, XDATA, add(CFA_XSP16, literal(-5)))
        CFI (cfiCond49) ?RET_HIGH load(1, XDATA, add(CFA_XSP16, literal(-4)))
        CFI (cfiCond49) ?BRET_EXT load(1, XDATA, add(CFA_XSP16, literal(-3)))
        CFI (cfiCond49) DPL0 load(1, XDATA, add(CFA_XSP16, literal(-2)))
        CFI (cfiCond49) DPH0 load(1, XDATA, add(CFA_XSP16, literal(-1)))
        CFI (cfiCond49) CFA_SP SP+0
        CFI (cfiCond49) CFA_XSP16 add(XSP16, 15)
        CFI Block cfiCond50 Using cfiCommon0
        CFI (cfiCond50) NoFunction
        CFI (cfiCond50) Conditional ??CrossCallReturnLabel_55, ??CrossCallReturnLabel_39
        CFI (cfiCond50) R6 load(1, XDATA, add(CFA_XSP16, literal(-10)))
        CFI (cfiCond50) VB load(1, XDATA, add(CFA_XSP16, literal(-9)))
        CFI (cfiCond50) V0 load(1, XDATA, add(CFA_XSP16, literal(-8)))
        CFI (cfiCond50) V1 load(1, XDATA, add(CFA_XSP16, literal(-7)))
        CFI (cfiCond50) R7 load(1, XDATA, add(CFA_XSP16, literal(-6)))
        CFI (cfiCond50) ?RET_LOW load(1, XDATA, add(CFA_XSP16, literal(-5)))
        CFI (cfiCond50) ?RET_HIGH load(1, XDATA, add(CFA_XSP16, literal(-4)))
        CFI (cfiCond50) ?BRET_EXT load(1, XDATA, add(CFA_XSP16, literal(-3)))
        CFI (cfiCond50) DPL0 load(1, XDATA, add(CFA_XSP16, literal(-2)))
        CFI (cfiCond50) DPH0 load(1, XDATA, add(CFA_XSP16, literal(-1)))
        CFI (cfiCond50) CFA_SP SP+0
        CFI (cfiCond50) CFA_XSP16 add(XSP16, 11)
        CFI Block cfiCond51 Using cfiCommon0
        CFI (cfiCond51) NoFunction
        CFI (cfiCond51) Conditional ??CrossCallReturnLabel_55, ??CrossCallReturnLabel_40
        CFI (cfiCond51) R6 load(1, XDATA, add(CFA_XSP16, literal(-14)))
        CFI (cfiCond51) VB load(1, XDATA, add(CFA_XSP16, literal(-13)))
        CFI (cfiCond51) V0 load(1, XDATA, add(CFA_XSP16, literal(-12)))
        CFI (cfiCond51) V1 load(1, XDATA, add(CFA_XSP16, literal(-11)))
        CFI (cfiCond51) V2 load(1, XDATA, add(CFA_XSP16, literal(-10)))
        CFI (cfiCond51) V3 load(1, XDATA, add(CFA_XSP16, literal(-9)))
        CFI (cfiCond51) V4 load(1, XDATA, add(CFA_XSP16, literal(-8)))
        CFI (cfiCond51) V5 load(1, XDATA, add(CFA_XSP16, literal(-7)))
        CFI (cfiCond51) R7 load(1, XDATA, add(CFA_XSP16, literal(-6)))
        CFI (cfiCond51) ?RET_LOW load(1, XDATA, add(CFA_XSP16, literal(-5)))
        CFI (cfiCond51) ?RET_HIGH load(1, XDATA, add(CFA_XSP16, literal(-4)))
        CFI (cfiCond51) ?BRET_EXT load(1, XDATA, add(CFA_XSP16, literal(-3)))
        CFI (cfiCond51) DPL0 load(1, XDATA, add(CFA_XSP16, literal(-2)))
        CFI (cfiCond51) DPH0 load(1, XDATA, add(CFA_XSP16, literal(-1)))
        CFI (cfiCond51) CFA_SP SP+0
        CFI (cfiCond51) CFA_XSP16 add(XSP16, 15)
        CFI Block cfiCond52 Using cfiCommon0
        CFI (cfiCond52) NoFunction
        CFI (cfiCond52) Conditional ??CrossCallReturnLabel_56, ??CrossCallReturnLabel_48
        CFI (cfiCond52) R6 load(1, XDATA, add(CFA_XSP16, literal(-14)))
        CFI (cfiCond52) VB load(1, XDATA, add(CFA_XSP16, literal(-13)))
        CFI (cfiCond52) V0 load(1, XDATA, add(CFA_XSP16, literal(-12)))
        CFI (cfiCond52) V1 load(1, XDATA, add(CFA_XSP16, literal(-11)))
        CFI (cfiCond52) V2 load(1, XDATA, add(CFA_XSP16, literal(-10)))
        CFI (cfiCond52) V3 load(1, XDATA, add(CFA_XSP16, literal(-9)))
        CFI (cfiCond52) V4 load(1, XDATA, add(CFA_XSP16, literal(-8)))
        CFI (cfiCond52) V5 load(1, XDATA, add(CFA_XSP16, literal(-7)))
        CFI (cfiCond52) R7 load(1, XDATA, add(CFA_XSP16, literal(-6)))
        CFI (cfiCond52) ?RET_LOW load(1, XDATA, add(CFA_XSP16, literal(-5)))
        CFI (cfiCond52) ?RET_HIGH load(1, XDATA, add(CFA_XSP16, literal(-4)))
        CFI (cfiCond52) ?BRET_EXT load(1, XDATA, add(CFA_XSP16, literal(-3)))
        CFI (cfiCond52) DPL0 load(1, XDATA, add(CFA_XSP16, literal(-2)))
        CFI (cfiCond52) DPH0 load(1, XDATA, add(CFA_XSP16, literal(-1)))
        CFI (cfiCond52) CFA_SP SP+0
        CFI (cfiCond52) CFA_XSP16 add(XSP16, 15)
        CFI Block cfiCond53 Using cfiCommon0
        CFI (cfiCond53) NoFunction
        CFI (cfiCond53) Conditional ??CrossCallReturnLabel_56, ??CrossCallReturnLabel_47
        CFI (cfiCond53) R6 load(1, XDATA, add(CFA_XSP16, literal(-9)))
        CFI (cfiCond53) VB load(1, XDATA, add(CFA_XSP16, literal(-8)))
        CFI (cfiCond53) V0 load(1, XDATA, add(CFA_XSP16, literal(-7)))
        CFI (cfiCond53) R7 load(1, XDATA, add(CFA_XSP16, literal(-6)))
        CFI (cfiCond53) ?RET_LOW load(1, XDATA, add(CFA_XSP16, literal(-5)))
        CFI (cfiCond53) ?RET_HIGH load(1, XDATA, add(CFA_XSP16, literal(-4)))
        CFI (cfiCond53) ?BRET_EXT load(1, XDATA, add(CFA_XSP16, literal(-3)))
        CFI (cfiCond53) DPL0 load(1, XDATA, add(CFA_XSP16, literal(-2)))
        CFI (cfiCond53) DPH0 load(1, XDATA, add(CFA_XSP16, literal(-1)))
        CFI (cfiCond53) CFA_SP SP+0
        CFI (cfiCond53) CFA_XSP16 add(XSP16, 9)
        CFI Block cfiCond54 Using cfiCommon0
        CFI (cfiCond54) NoFunction
        CFI (cfiCond54) Conditional ??CrossCallReturnLabel_57
        CFI (cfiCond54) R6 load(1, XDATA, add(CFA_XSP16, literal(-12)))
        CFI (cfiCond54) VB load(1, XDATA, add(CFA_XSP16, literal(-11)))
        CFI (cfiCond54) V0 load(1, XDATA, add(CFA_XSP16, literal(-10)))
        CFI (cfiCond54) V1 load(1, XDATA, add(CFA_XSP16, literal(-9)))
        CFI (cfiCond54) V2 load(1, XDATA, add(CFA_XSP16, literal(-8)))
        CFI (cfiCond54) V3 load(1, XDATA, add(CFA_XSP16, literal(-7)))
        CFI (cfiCond54) R7 load(1, XDATA, add(CFA_XSP16, literal(-6)))
        CFI (cfiCond54) ?RET_LOW load(1, XDATA, add(CFA_XSP16, literal(-5)))
        CFI (cfiCond54) ?RET_HIGH load(1, XDATA, add(CFA_XSP16, literal(-4)))
        CFI (cfiCond54) ?BRET_EXT load(1, XDATA, add(CFA_XSP16, literal(-3)))
        CFI (cfiCond54) DPL0 load(1, XDATA, add(CFA_XSP16, literal(-2)))
        CFI (cfiCond54) DPH0 load(1, XDATA, add(CFA_XSP16, literal(-1)))
        CFI (cfiCond54) CFA_SP SP+0
        CFI (cfiCond54) CFA_XSP16 add(XSP16, 12)
        CFI Block cfiPicker55 Using cfiCommon1
        CFI (cfiPicker55) NoFunction
        CFI (cfiPicker55) Picker
        MOVX    @DPTR,A
        MOV     DPL,R6
        MOV     DPH,R7
        INC     DPTR
        RET
        CFI EndBlock cfiCond48
        CFI EndBlock cfiCond49
        CFI EndBlock cfiCond50
        CFI EndBlock cfiCond51
        CFI EndBlock cfiCond52
        CFI EndBlock cfiCond53
        CFI EndBlock cfiCond54
        CFI EndBlock cfiPicker55

        RSEG BANKED_CODE:CODE:NOROOT(0)
?Subroutine12:
        CFI Block cfiCond56 Using cfiCommon0
        CFI NoFunction
        CFI Conditional ??CrossCallReturnLabel_43
        CFI R6 load(1, XDATA, add(CFA_XSP16, literal(-10)))
        CFI VB load(1, XDATA, add(CFA_XSP16, literal(-9)))
        CFI V0 load(1, XDATA, add(CFA_XSP16, literal(-8)))
        CFI V1 load(1, XDATA, add(CFA_XSP16, literal(-7)))
        CFI R7 load(1, XDATA, add(CFA_XSP16, literal(-6)))
        CFI ?RET_LOW load(1, XDATA, add(CFA_XSP16, literal(-5)))
        CFI ?RET_HIGH load(1, XDATA, add(CFA_XSP16, literal(-4)))
        CFI ?BRET_EXT load(1, XDATA, add(CFA_XSP16, literal(-3)))
        CFI DPL0 load(1, XDATA, add(CFA_XSP16, literal(-2)))
        CFI DPH0 load(1, XDATA, add(CFA_XSP16, literal(-1)))
        CFI CFA_SP SP+0
        CFI CFA_XSP16 add(XSP16, 11)
        CFI Block cfiCond57 Using cfiCommon0
        CFI (cfiCond57) NoFunction
        CFI (cfiCond57) Conditional ??CrossCallReturnLabel_44
        CFI (cfiCond57) R6 load(1, XDATA, add(CFA_XSP16, literal(-9)))
        CFI (cfiCond57) VB load(1, XDATA, add(CFA_XSP16, literal(-8)))
        CFI (cfiCond57) V0 load(1, XDATA, add(CFA_XSP16, literal(-7)))
        CFI (cfiCond57) R7 load(1, XDATA, add(CFA_XSP16, literal(-6)))
        CFI (cfiCond57) ?RET_LOW load(1, XDATA, add(CFA_XSP16, literal(-5)))
        CFI (cfiCond57) ?RET_HIGH load(1, XDATA, add(CFA_XSP16, literal(-4)))
        CFI (cfiCond57) ?BRET_EXT load(1, XDATA, add(CFA_XSP16, literal(-3)))
        CFI (cfiCond57) DPL0 load(1, XDATA, add(CFA_XSP16, literal(-2)))
        CFI (cfiCond57) DPH0 load(1, XDATA, add(CFA_XSP16, literal(-1)))
        CFI (cfiCond57) CFA_SP SP+0
        CFI (cfiCond57) CFA_XSP16 add(XSP16, 9)
        CFI Block cfiPicker58 Using cfiCommon1
        CFI (cfiPicker58) NoFunction
        CFI (cfiPicker58) Picker
        MOV     DPL,R6
        MOV     DPH,R7
        INC     DPTR
        INC     DPTR
        LCALL   ?Subroutine18 & 0xFFFF
??CrossCallReturnLabel_54:
        MOVX    A,@DPTR
        XRL     A,R2
        RET
        CFI EndBlock cfiCond56
        CFI EndBlock cfiCond57
        CFI EndBlock cfiPicker58

        RSEG BANKED_CODE:CODE:NOROOT(0)
?Subroutine18:
        CFI Block cfiCond59 Using cfiCommon0
        CFI NoFunction
        CFI Conditional ??CrossCallReturnLabel_53, ??CrossCallReturnLabel_70
        CFI R6 load(1, XDATA, add(CFA_XSP16, literal(-10)))
        CFI VB load(1, XDATA, add(CFA_XSP16, literal(-9)))
        CFI V0 load(1, XDATA, add(CFA_XSP16, literal(-8)))
        CFI V1 load(1, XDATA, add(CFA_XSP16, literal(-7)))
        CFI R7 load(1, XDATA, add(CFA_XSP16, literal(-6)))
        CFI ?RET_LOW load(1, XDATA, add(CFA_XSP16, literal(-5)))
        CFI ?RET_HIGH load(1, XDATA, add(CFA_XSP16, literal(-4)))
        CFI ?BRET_EXT load(1, XDATA, add(CFA_XSP16, literal(-3)))
        CFI DPL0 load(1, XDATA, add(CFA_XSP16, literal(-2)))
        CFI DPH0 load(1, XDATA, add(CFA_XSP16, literal(-1)))
        CFI CFA_SP SP+0
        CFI CFA_XSP16 add(XSP16, 11)
        CFI Block cfiCond60 Using cfiCommon0
        CFI (cfiCond60) NoFunction
        CFI (cfiCond60) Conditional ??CrossCallReturnLabel_53, ??CrossCallReturnLabel_71
        CFI (cfiCond60) R6 load(1, XDATA, add(CFA_XSP16, literal(-10)))
        CFI (cfiCond60) VB load(1, XDATA, add(CFA_XSP16, literal(-9)))
        CFI (cfiCond60) V0 load(1, XDATA, add(CFA_XSP16, literal(-8)))
        CFI (cfiCond60) V1 load(1, XDATA, add(CFA_XSP16, literal(-7)))
        CFI (cfiCond60) R7 load(1, XDATA, add(CFA_XSP16, literal(-6)))
        CFI (cfiCond60) ?RET_LOW load(1, XDATA, add(CFA_XSP16, literal(-5)))
        CFI (cfiCond60) ?RET_HIGH load(1, XDATA, add(CFA_XSP16, literal(-4)))
        CFI (cfiCond60) ?BRET_EXT load(1, XDATA, add(CFA_XSP16, literal(-3)))
        CFI (cfiCond60) DPL0 load(1, XDATA, add(CFA_XSP16, literal(-2)))
        CFI (cfiCond60) DPH0 load(1, XDATA, add(CFA_XSP16, literal(-1)))
        CFI (cfiCond60) CFA_SP SP+0
        CFI (cfiCond60) CFA_XSP16 add(XSP16, 11)
        CFI Block cfiCond61 Using cfiCommon0
        CFI (cfiCond61) NoFunction
        CFI (cfiCond61) Conditional ??CrossCallReturnLabel_54, ??CrossCallReturnLabel_43
        CFI (cfiCond61) R6 load(1, XDATA, add(CFA_XSP16, literal(-10)))
        CFI (cfiCond61) VB load(1, XDATA, add(CFA_XSP16, literal(-9)))
        CFI (cfiCond61) V0 load(1, XDATA, add(CFA_XSP16, literal(-8)))
        CFI (cfiCond61) V1 load(1, XDATA, add(CFA_XSP16, literal(-7)))
        CFI (cfiCond61) R7 load(1, XDATA, add(CFA_XSP16, literal(-6)))
        CFI (cfiCond61) ?RET_LOW load(1, XDATA, add(CFA_XSP16, literal(-5)))
        CFI (cfiCond61) ?RET_HIGH load(1, XDATA, add(CFA_XSP16, literal(-4)))
        CFI (cfiCond61) ?BRET_EXT load(1, XDATA, add(CFA_XSP16, literal(-3)))
        CFI (cfiCond61) DPL0 load(1, XDATA, add(CFA_XSP16, literal(-2)))
        CFI (cfiCond61) DPH0 load(1, XDATA, add(CFA_XSP16, literal(-1)))
        CFI (cfiCond61) CFA_SP SP+0
        CFI (cfiCond61) CFA_XSP16 add(XSP16, 11)
        CFI Block cfiCond62 Using cfiCommon0
        CFI (cfiCond62) NoFunction
        CFI (cfiCond62) Conditional ??CrossCallReturnLabel_54, ??CrossCallReturnLabel_44
        CFI (cfiCond62) R6 load(1, XDATA, add(CFA_XSP16, literal(-9)))
        CFI (cfiCond62) VB load(1, XDATA, add(CFA_XSP16, literal(-8)))
        CFI (cfiCond62) V0 load(1, XDATA, add(CFA_XSP16, literal(-7)))
        CFI (cfiCond62) R7 load(1, XDATA, add(CFA_XSP16, literal(-6)))
        CFI (cfiCond62) ?RET_LOW load(1, XDATA, add(CFA_XSP16, literal(-5)))
        CFI (cfiCond62) ?RET_HIGH load(1, XDATA, add(CFA_XSP16, literal(-4)))
        CFI (cfiCond62) ?BRET_EXT load(1, XDATA, add(CFA_XSP16, literal(-3)))
        CFI (cfiCond62) DPL0 load(1, XDATA, add(CFA_XSP16, literal(-2)))
        CFI (cfiCond62) DPH0 load(1, XDATA, add(CFA_XSP16, literal(-1)))
        CFI (cfiCond62) CFA_SP SP+0
        CFI (cfiCond62) CFA_XSP16 add(XSP16, 9)
        CFI Block cfiPicker63 Using cfiCommon1
        CFI (cfiPicker63) NoFunction
        CFI (cfiPicker63) Picker
        MOVX    A,@DPTR
        MOV     R2,A
        MOV     DPL,R6
        MOV     DPH,R7
        INC     DPTR
        INC     DPTR
        INC     DPTR
        RET
        CFI EndBlock cfiCond59
        CFI EndBlock cfiCond60
        CFI EndBlock cfiCond61
        CFI EndBlock cfiCond62
        CFI EndBlock cfiPicker63

        RSEG BANKED_CODE:CODE:NOROOT(0)
?Subroutine6:
        CFI Block cfiCond64 Using cfiCommon0
        CFI NoFunction
        CFI Conditional ??CrossCallReturnLabel_14
        CFI R6 load(1, XDATA, add(CFA_XSP16, literal(-14)))
        CFI VB load(1, XDATA, add(CFA_XSP16, literal(-13)))
        CFI V0 load(1, XDATA, add(CFA_XSP16, literal(-12)))
        CFI V1 load(1, XDATA, add(CFA_XSP16, literal(-11)))
        CFI V2 load(1, XDATA, add(CFA_XSP16, literal(-10)))
        CFI V3 load(1, XDATA, add(CFA_XSP16, literal(-9)))
        CFI V4 load(1, XDATA, add(CFA_XSP16, literal(-8)))
        CFI V5 load(1, XDATA, add(CFA_XSP16, literal(-7)))
        CFI R7 load(1, XDATA, add(CFA_XSP16, literal(-6)))
        CFI ?RET_LOW load(1, XDATA, add(CFA_XSP16, literal(-5)))
        CFI ?RET_HIGH load(1, XDATA, add(CFA_XSP16, literal(-4)))
        CFI ?BRET_EXT load(1, XDATA, add(CFA_XSP16, literal(-3)))
        CFI DPL0 load(1, XDATA, add(CFA_XSP16, literal(-2)))
        CFI DPH0 load(1, XDATA, add(CFA_XSP16, literal(-1)))
        CFI CFA_SP SP+0
        CFI CFA_XSP16 add(XSP16, 15)
        CFI Block cfiCond65 Using cfiCommon0
        CFI (cfiCond65) NoFunction
        CFI (cfiCond65) Conditional ??CrossCallReturnLabel_15
        CFI (cfiCond65) R6 load(1, XDATA, add(CFA_XSP16, literal(-9)))
        CFI (cfiCond65) VB load(1, XDATA, add(CFA_XSP16, literal(-8)))
        CFI (cfiCond65) V0 load(1, XDATA, add(CFA_XSP16, literal(-7)))
        CFI (cfiCond65) R7 load(1, XDATA, add(CFA_XSP16, literal(-6)))
        CFI (cfiCond65) ?RET_LOW load(1, XDATA, add(CFA_XSP16, literal(-5)))
        CFI (cfiCond65) ?RET_HIGH load(1, XDATA, add(CFA_XSP16, literal(-4)))
        CFI (cfiCond65) ?BRET_EXT load(1, XDATA, add(CFA_XSP16, literal(-3)))
        CFI (cfiCond65) DPL0 load(1, XDATA, add(CFA_XSP16, literal(-2)))
        CFI (cfiCond65) DPH0 load(1, XDATA, add(CFA_XSP16, literal(-1)))
        CFI (cfiCond65) CFA_SP SP+0
        CFI (cfiCond65) CFA_XSP16 add(XSP16, 9)
        CFI Block cfiPicker66 Using cfiCommon1
        CFI (cfiPicker66) NoFunction
        CFI (cfiPicker66) Picker
        LCALL   ??Subroutine20_0 & 0xFFFF
??CrossCallReturnLabel_62:
        MOV     R0,A
        INC     DPTR
        MOVX    A,@DPTR
        RET
        CFI EndBlock cfiCond64
        CFI EndBlock cfiCond65
        CFI EndBlock cfiPicker66

        RSEG BANKED_CODE:CODE:NOROOT(0)
?Subroutine3:
        CFI Block cfiCond67 Using cfiCommon0
        CFI NoFunction
        CFI Conditional ??CrossCallReturnLabel_6
        CFI R6 load(1, XDATA, add(CFA_XSP16, literal(-10)))
        CFI VB load(1, XDATA, add(CFA_XSP16, literal(-9)))
        CFI V0 load(1, XDATA, add(CFA_XSP16, literal(-8)))
        CFI V1 load(1, XDATA, add(CFA_XSP16, literal(-7)))
        CFI R7 load(1, XDATA, add(CFA_XSP16, literal(-6)))
        CFI ?RET_LOW load(1, XDATA, add(CFA_XSP16, literal(-5)))
        CFI ?RET_HIGH load(1, XDATA, add(CFA_XSP16, literal(-4)))
        CFI ?BRET_EXT load(1, XDATA, add(CFA_XSP16, literal(-3)))
        CFI DPL0 load(1, XDATA, add(CFA_XSP16, literal(-2)))
        CFI DPH0 load(1, XDATA, add(CFA_XSP16, literal(-1)))
        CFI CFA_SP SP+0
        CFI CFA_XSP16 add(XSP16, 11)
        CFI Block cfiCond68 Using cfiCommon0
        CFI (cfiCond68) NoFunction
        CFI (cfiCond68) Conditional ??CrossCallReturnLabel_7
        CFI (cfiCond68) R6 load(1, XDATA, add(CFA_XSP16, literal(-10)))
        CFI (cfiCond68) VB load(1, XDATA, add(CFA_XSP16, literal(-9)))
        CFI (cfiCond68) V0 load(1, XDATA, add(CFA_XSP16, literal(-8)))
        CFI (cfiCond68) V1 load(1, XDATA, add(CFA_XSP16, literal(-7)))
        CFI (cfiCond68) R7 load(1, XDATA, add(CFA_XSP16, literal(-6)))
        CFI (cfiCond68) ?RET_LOW load(1, XDATA, add(CFA_XSP16, literal(-5)))
        CFI (cfiCond68) ?RET_HIGH load(1, XDATA, add(CFA_XSP16, literal(-4)))
        CFI (cfiCond68) ?BRET_EXT load(1, XDATA, add(CFA_XSP16, literal(-3)))
        CFI (cfiCond68) DPL0 load(1, XDATA, add(CFA_XSP16, literal(-2)))
        CFI (cfiCond68) DPH0 load(1, XDATA, add(CFA_XSP16, literal(-1)))
        CFI (cfiCond68) CFA_SP SP+0
        CFI (cfiCond68) CFA_XSP16 add(XSP16, 11)
        CFI Block cfiCond69 Using cfiCommon0
        CFI (cfiCond69) NoFunction
        CFI (cfiCond69) Conditional ??CrossCallReturnLabel_8
        CFI (cfiCond69) R6 load(1, XDATA, add(CFA_XSP16, literal(-9)))
        CFI (cfiCond69) VB load(1, XDATA, add(CFA_XSP16, literal(-8)))
        CFI (cfiCond69) V0 load(1, XDATA, add(CFA_XSP16, literal(-7)))
        CFI (cfiCond69) R7 load(1, XDATA, add(CFA_XSP16, literal(-6)))
        CFI (cfiCond69) ?RET_LOW load(1, XDATA, add(CFA_XSP16, literal(-5)))
        CFI (cfiCond69) ?RET_HIGH load(1, XDATA, add(CFA_XSP16, literal(-4)))
        CFI (cfiCond69) ?BRET_EXT load(1, XDATA, add(CFA_XSP16, literal(-3)))
        CFI (cfiCond69) DPL0 load(1, XDATA, add(CFA_XSP16, literal(-2)))
        CFI (cfiCond69) DPH0 load(1, XDATA, add(CFA_XSP16, literal(-1)))
        CFI (cfiCond69) CFA_SP SP+0
        CFI (cfiCond69) CFA_XSP16 add(XSP16, 9)
        CFI Block cfiPicker70 Using cfiCommon1
        CFI (cfiPicker70) NoFunction
        CFI (cfiPicker70) Picker
        MOV     A,R6
        ADD     A,#0xf
        LCALL   ?Subroutine20 & 0xFFFF
??CrossCallReturnLabel_60:
        MOV     C,0xE0 /* A   */.7
        RET
        CFI EndBlock cfiCond67
        CFI EndBlock cfiCond68
        CFI EndBlock cfiCond69
        CFI EndBlock cfiPicker70

        RSEG BANKED_CODE:CODE:NOROOT(0)
?Subroutine1:
        CFI Block cfiCond71 Using cfiCommon0
        CFI NoFunction
        CFI Conditional ??CrossCallReturnLabel_0
        CFI R6 load(1, XDATA, add(CFA_XSP16, literal(-10)))
        CFI VB load(1, XDATA, add(CFA_XSP16, literal(-9)))
        CFI V0 load(1, XDATA, add(CFA_XSP16, literal(-8)))
        CFI V1 load(1, XDATA, add(CFA_XSP16, literal(-7)))
        CFI R7 load(1, XDATA, add(CFA_XSP16, literal(-6)))
        CFI ?RET_LOW load(1, XDATA, add(CFA_XSP16, literal(-5)))
        CFI ?RET_HIGH load(1, XDATA, add(CFA_XSP16, literal(-4)))
        CFI ?BRET_EXT load(1, XDATA, add(CFA_XSP16, literal(-3)))
        CFI DPL0 load(1, XDATA, add(CFA_XSP16, literal(-2)))
        CFI DPH0 load(1, XDATA, add(CFA_XSP16, literal(-1)))
        CFI CFA_SP SP+0
        CFI CFA_XSP16 add(XSP16, 11)
        CFI Block cfiCond72 Using cfiCommon0
        CFI (cfiCond72) NoFunction
        CFI (cfiCond72) Conditional ??CrossCallReturnLabel_1
        CFI (cfiCond72) R6 load(1, XDATA, add(CFA_XSP16, literal(-9)))
        CFI (cfiCond72) VB load(1, XDATA, add(CFA_XSP16, literal(-8)))
        CFI (cfiCond72) V0 load(1, XDATA, add(CFA_XSP16, literal(-7)))
        CFI (cfiCond72) R7 load(1, XDATA, add(CFA_XSP16, literal(-6)))
        CFI (cfiCond72) ?RET_LOW load(1, XDATA, add(CFA_XSP16, literal(-5)))
        CFI (cfiCond72) ?RET_HIGH load(1, XDATA, add(CFA_XSP16, literal(-4)))
        CFI (cfiCond72) ?BRET_EXT load(1, XDATA, add(CFA_XSP16, literal(-3)))
        CFI (cfiCond72) DPL0 load(1, XDATA, add(CFA_XSP16, literal(-2)))
        CFI (cfiCond72) DPH0 load(1, XDATA, add(CFA_XSP16, literal(-1)))
        CFI (cfiCond72) CFA_SP SP+0
        CFI (cfiCond72) CFA_XSP16 add(XSP16, 9)
        CFI Block cfiPicker73 Using cfiCommon1
        CFI (cfiPicker73) NoFunction
        CFI (cfiPicker73) Picker
        MOV     DPL,R6
        MOV     DPH,R7
        INC     DPTR
        INC     DPTR
        INC     DPTR
        INC     DPTR
        MOVX    A,@DPTR
        MOV     R0,A
        MOV     A,#-0x30
        ADD     A,R0
        MOV     R0,A
        MOV     A,#-0x1
        ADDC    A,#0x0
        MOV     R1,A
        CLR     C
        MOV     A,R2
        SUBB    A,R0
        CLR     A
        SUBB    A,R1
        MOV     C,0xD0 /* PSW */.2
        XRL     A,PSW
        RLC     A
        RET
        CFI EndBlock cfiCond71
        CFI EndBlock cfiCond72
        CFI EndBlock cfiPicker73

        RSEG XDATA_Z:XDATA:NOROOT(0)
??tickShdw:
        DS 1
        REQUIRE __INIT_XDATA_Z
//  882 
//  883 /**************************************************************************************************
//  884  * @fn      Hal_UART_RxBufLen()
//  885  *
//  886  * @brief   Calculate Rx Buffer length - the number of bytes in the buffer.
//  887  *
//  888  * @param   port - UART port
//  889  *
//  890  * @return  length of current Rx Buffer
//  891  **************************************************************************************************/

        RSEG BANKED_CODE:CODE:NOROOT(0)
//  892 uint16 Hal_UART_RxBufLen( uint8 port )
Hal_UART_RxBufLen:
        CFI Block cfiBlock74 Using cfiCommon0
        CFI Function Hal_UART_RxBufLen
//  893 {
        PUSH    DPL
        CFI DPL0 Frame(CFA_SP, 4)
        CFI CFA_SP SP+-4
        PUSH    DPH
        CFI DPH0 Frame(CFA_SP, 5)
        CFI CFA_SP SP+-5
        ; Saved register size: 2
        ; Auto size: 0
        MOV     A,R1
//  894   uartCfg_t *cfg = NULL;
        MOV     R0,#0x0
        MOV     R1,#0x0
//  895 
//  896 #if HAL_UART_0_ENABLE
//  897   if ( port == HAL_UART_PORT_0 )
        JNZ     ??Hal_UART_RxBufLen_0
//  898   {
//  899     cfg = cfg0;
        MOV     DPTR,#cfg0
        MOVX    A,@DPTR
        MOV     R0,A
        INC     DPTR
        MOVX    A,@DPTR
        MOV     R1,A
//  900   }
//  901 #endif
//  902 #if HAL_UART_1_ENABLE
//  903   if ( port == HAL_UART_PORT_1 )
//  904   {
//  905     cfg = cfg1;
//  906   }
//  907 #endif
//  908 
//  909   HAL_UART_ASSERT( cfg );
//  910 
//  911   return UART_RX_AVAIL( cfg );
??Hal_UART_RxBufLen_0:
        MOV     DPL,R0
        MOV     DPH,R1
        INC     DPTR
        INC     DPTR
        MOVX    A,@DPTR
        PUSH    A
        CFI CFA_SP SP+-6
        MOV     DPL,R0
        MOV     DPH,R1
        INC     DPTR
        INC     DPTR
        INC     DPTR
        MOVX    A,@DPTR
        MOV     R2,A
        POP     A
        CFI CFA_SP SP+-5
        CLR     C
        SUBB    A,R2
        MOV     DPL,R0
        MOV     DPH,R1
        INC     DPTR
        INC     DPTR
        JC      ??Hal_UART_RxBufLen_1
        LCALL   ?Subroutine13 & 0xFFFF
??CrossCallReturnLabel_72:
        MOV     R0,A
        MOV     A,R2
        CLR     C
        SUBB    A,R0
        MOV     R2,A
        CLR     A
        SUBB    A,#0x0
        SJMP    ??Hal_UART_RxBufLen_2
??Hal_UART_RxBufLen_1:
        INC     DPTR
        INC     DPTR
        LCALL   ?Subroutine13 & 0xFFFF
??CrossCallReturnLabel_73:
        MOV     R4,A
        MOV     A,R2
        CLR     C
        SUBB    A,R4
        MOV     R2,A
        CLR     A
        SUBB    A,#0x0
        MOV     R3,A
        MOV     DPL,R0
        MOV     DPH,R1
        INC     DPTR
        INC     DPTR
        MOVX    A,@DPTR
        ADD     A,R2
        MOV     R0,A
        CLR     A
        ADDC    A,R3
        MOV     R1,A
        MOV     A,#0x1
        ADD     A,R0
        MOV     R2,A
        CLR     A
        ADDC    A,R1
??Hal_UART_RxBufLen_2:
        MOV     R3,A
        LJMP    ?Subroutine23 & 0xFFFF
        CFI EndBlock cfiBlock74
//  912 }

        RSEG BANKED_CODE:CODE:NOROOT(0)
?Subroutine13:
        CFI Block cfiCond75 Using cfiCommon0
        CFI NoFunction
        CFI Conditional ??CrossCallReturnLabel_72
        CFI DPL0 Frame(CFA_SP, 4)
        CFI DPH0 Frame(CFA_SP, 5)
        CFI CFA_SP SP+-5
        CFI Block cfiCond76 Using cfiCommon0
        CFI (cfiCond76) NoFunction
        CFI (cfiCond76) Conditional ??CrossCallReturnLabel_73
        CFI (cfiCond76) DPL0 Frame(CFA_SP, 4)
        CFI (cfiCond76) DPH0 Frame(CFA_SP, 5)
        CFI (cfiCond76) CFA_SP SP+-5
        CFI Block cfiPicker77 Using cfiCommon1
        CFI (cfiPicker77) NoFunction
        CFI (cfiPicker77) Picker
        MOVX    A,@DPTR
        MOV     R2,A
        MOV     DPL,R0
        MOV     DPH,R1
        LJMP    ?Subroutine22 & 0xFFFF
        CFI EndBlock cfiCond75
        CFI EndBlock cfiCond76
        CFI EndBlock cfiPicker77
//  913 
//  914 /*****************************************************************************
//  915  * @fn      HalUARTRead
//  916  *
//  917  * @brief   Read a buffer from the UART
//  918  *
//  919  * @param   port - USART module designation
//  920  *          buf  - valid data buffer at least 'len' bytes in size
//  921  *          len  - max length number of bytes to copy to 'buf'
//  922  *
//  923  * @return  length of buffer that was read
//  924  *****************************************************************************/

        RSEG BANKED_CODE:CODE:NOROOT(0)
//  925 uint16 HalUARTRead( uint8 port, uint8 *buf, uint16 len )
HalUARTRead:
        CFI Block cfiBlock78 Using cfiCommon0
        CFI Function HalUARTRead
//  926 {
        MOV     A,#-0xc
        LCALL   ?BANKED_ENTER_XDATA
        CFI DPH0 load(1, XDATA, add(CFA_XSP16, literal(-1)))
        CFI DPL0 load(1, XDATA, add(CFA_XSP16, literal(-2)))
        CFI ?BRET_EXT load(1, XDATA, add(CFA_XSP16, literal(-3)))
        CFI ?RET_HIGH load(1, XDATA, add(CFA_XSP16, literal(-4)))
        CFI ?RET_LOW load(1, XDATA, add(CFA_XSP16, literal(-5)))
        CFI R7 load(1, XDATA, add(CFA_XSP16, literal(-6)))
        CFI V3 load(1, XDATA, add(CFA_XSP16, literal(-7)))
        CFI V2 load(1, XDATA, add(CFA_XSP16, literal(-8)))
        CFI V1 load(1, XDATA, add(CFA_XSP16, literal(-9)))
        CFI V0 load(1, XDATA, add(CFA_XSP16, literal(-10)))
        CFI VB load(1, XDATA, add(CFA_XSP16, literal(-11)))
        CFI R6 load(1, XDATA, add(CFA_XSP16, literal(-12)))
        CFI CFA_SP SP+0
        CFI CFA_XSP16 add(XSP16, 12)
        ; Saved register size: 12
        ; Auto size: 0
        MOV     A,R1
//  927   uartCfg_t *cfg = NULL;
        MOV     R0,#0x0
        MOV     R1,#0x0
//  928   uint8 cnt = 0;
        MOV     ?V0 + 2,R0
//  929 
//  930 #if HAL_UART_0_ENABLE
//  931   if ( port == HAL_UART_PORT_0 )
        JNZ     ??HalUARTRead_0
//  932   {
//  933     cfg = cfg0;
        MOV     DPTR,#cfg0
        MOVX    A,@DPTR
        MOV     R0,A
        INC     DPTR
        MOVX    A,@DPTR
        MOV     R1,A
        SJMP    ??HalUARTRead_0
//  934   }
//  935 #endif
//  936 #if HAL_UART_1_ENABLE
//  937   if ( port == HAL_UART_PORT_1 )
//  938   {
//  939     cfg = cfg1;
//  940   }
//  941 #endif
//  942 
//  943   HAL_UART_ASSERT( cfg );
//  944 
//  945   while ( (cfg->rxTail != cfg->rxHead) && (cnt < len) )
//  946   {
//  947     *buf++ = cfg->rxBuf[cfg->rxTail];
//  948     if ( cfg->rxTail == cfg->rxMax )
//  949     {
//  950       cfg->rxTail = 0;
//  951     }
//  952     else
//  953     {
//  954       cfg->rxTail++;
??HalUARTRead_1:
        MOV     DPL,R0
        MOV     DPH,R1
        INC     DPTR
        INC     DPTR
        INC     DPTR
        MOVX    A,@DPTR
        INC     A
??HalUARTRead_2:
        MOVX    @DPTR,A
//  955     }
//  956     cnt++;
        INC     ?V0 + 2
??HalUARTRead_0:
        MOV     DPL,R0
        MOV     DPH,R1
        INC     DPTR
        INC     DPTR
        INC     DPTR
        LCALL   ?Subroutine14 & 0xFFFF
??CrossCallReturnLabel_45:
        MOVX    A,@DPTR
        XRL     A,R6
        JZ      ??HalUARTRead_3
        MOV     ?V0 + 0,?V0 + 2
        CLR     C
        MOV     A,?V0 + 0
        SUBB    A,R4
        CLR     A
        SUBB    A,R5
        JNC     ??HalUARTRead_3
        MOV     A,R0
        ADD     A,#0x3
        MOV     R6,A
        MOV     A,R1
        ADDC    A,#0x0
        MOV     R7,A
        MOV     DPL,R6
        MOV     DPH,R7
        MOVX    A,@DPTR
        MOV     ?V0 + 0,A
        MOV     DPL,R0
        MOV     DPH,R1
        MOVX    A,@DPTR
        ADD     A,?V0 + 0
        MOV     ?V0 + 3,A
        INC     DPTR
        MOVX    A,@DPTR
        ADDC    A,#0x0
        MOV     DPL,?V0 + 3
        MOV     DPH,A
        MOVX    A,@DPTR
        MOV     DPL,R2
        MOV     DPH,R3
        MOVX    @DPTR,A
        INC     DPTR
        MOV     R2,DPL
        MOV     R3,DPH
        MOV     DPL,R6
        MOV     DPH,R7
        LCALL   ?Subroutine14 & 0xFFFF
??CrossCallReturnLabel_46:
        INC     DPTR
        INC     DPTR
        MOVX    A,@DPTR
        XRL     A,R6
        JNZ     ??HalUARTRead_1
        CLR     A
        MOV     DPL,R0
        MOV     DPH,R1
        INC     DPTR
        INC     DPTR
        INC     DPTR
        SJMP    ??HalUARTRead_2
//  957   }
//  958 
//  959 #if HAL_UART_DMA
//  960   #if HAL_UART_ISR
//  961   if ( cfg->flag & UART_CFG_DMA )
//  962   #endif
//  963   {
//  964     /* If there is no flow control on a DMA-driven UART, the Rx Head & Tail
//  965      * pointers must be reset to zero after every read in order to preserve the
//  966      * full length of the Rx buffer. This implies that every Read must read all
//  967      * of the Rx bytes available, or the pointers will not be reset and the
//  968      * next incoming packet may not fit in the Rx buffer space remaining - thus
//  969      * the end portion of the incoming packet that does not fit would be lost.
//  970      */
//  971     if ( !(cfg->flag & UART_CFG_FLW) )
??HalUARTRead_3:
        MOV     A,R0
        ADD     A,#0xf
        MOV     DPL,A
        MOV     A,R1
        LCALL   ??Subroutine7_1 & 0xFFFF
??CrossCallReturnLabel_31:
        MOV     C,0xE0 /* A   */.5
        JC      ??HalUARTRead_4
//  972     {
//  973       // This is a trick to trigger the DMA abort and restart logic in pollDMA.
//  974       cfg->flag |= UART_CFG_RXF;
        SETB    0xE0 /* A   */.1
        MOVX    @DPTR,A
//  975     }
//  976   }
//  977 #endif
//  978 
//  979 #if HAL_UART_ISR
//  980   #if HAL_UART_DMA
//  981   if ( !(cfg->flag & UART_CFG_DMA) )
//  982   #endif
//  983   {
//  984     cfg->rxCnt = UART_RX_AVAIL( cfg );
//  985 
//  986     if ( cfg->flag & UART_CFG_RXF )
//  987     {
//  988       if ( cfg->rxCnt < (cfg->rxMax - SAFE_RX_MIN) )
//  989       {
//  990         RX_STRT_FLOW( cfg );
//  991       }
//  992     }
//  993   }
//  994 #endif
//  995 
//  996   return cnt;
??HalUARTRead_4:
        MOV     R2,?V0 + 2
        MOV     R3,#0x0
        CFI EndBlock cfiBlock78
        REQUIRE ?Subroutine24
        ; // Fall through to label ?Subroutine24
//  997 }

        RSEG BANKED_CODE:CODE:NOROOT(0)
?Subroutine24:
        CFI Block cfiBlock79 Using cfiCommon0
        CFI NoFunction
        CFI CFA_SP SP+0
        CFI CFA_XSP16 add(XSP16, 12)
        CFI VB load(1, XDATA, add(CFA_XSP16, literal(-11)))
        CFI DPL0 load(1, XDATA, add(CFA_XSP16, literal(-2)))
        CFI DPH0 load(1, XDATA, add(CFA_XSP16, literal(-1)))
        CFI R6 load(1, XDATA, add(CFA_XSP16, literal(-12)))
        CFI R7 load(1, XDATA, add(CFA_XSP16, literal(-6)))
        CFI V0 load(1, XDATA, add(CFA_XSP16, literal(-10)))
        CFI V1 load(1, XDATA, add(CFA_XSP16, literal(-9)))
        CFI V2 load(1, XDATA, add(CFA_XSP16, literal(-8)))
        CFI V3 load(1, XDATA, add(CFA_XSP16, literal(-7)))
        CFI ?BRET_EXT load(1, XDATA, add(CFA_XSP16, literal(-3)))
        CFI ?RET_HIGH load(1, XDATA, add(CFA_XSP16, literal(-4)))
        CFI ?RET_LOW load(1, XDATA, add(CFA_XSP16, literal(-5)))
        MOV     R7,#0x4
        LJMP    ?BANKED_LEAVE_XDATA
        CFI EndBlock cfiBlock79

        RSEG BANKED_CODE:CODE:NOROOT(0)
?Subroutine14:
        CFI Block cfiCond80 Using cfiCommon0
        CFI NoFunction
        CFI Conditional ??CrossCallReturnLabel_45
        CFI R6 load(1, XDATA, add(CFA_XSP16, literal(-12)))
        CFI VB load(1, XDATA, add(CFA_XSP16, literal(-11)))
        CFI V0 load(1, XDATA, add(CFA_XSP16, literal(-10)))
        CFI V1 load(1, XDATA, add(CFA_XSP16, literal(-9)))
        CFI V2 load(1, XDATA, add(CFA_XSP16, literal(-8)))
        CFI V3 load(1, XDATA, add(CFA_XSP16, literal(-7)))
        CFI R7 load(1, XDATA, add(CFA_XSP16, literal(-6)))
        CFI ?RET_LOW load(1, XDATA, add(CFA_XSP16, literal(-5)))
        CFI ?RET_HIGH load(1, XDATA, add(CFA_XSP16, literal(-4)))
        CFI ?BRET_EXT load(1, XDATA, add(CFA_XSP16, literal(-3)))
        CFI DPL0 load(1, XDATA, add(CFA_XSP16, literal(-2)))
        CFI DPH0 load(1, XDATA, add(CFA_XSP16, literal(-1)))
        CFI CFA_SP SP+0
        CFI CFA_XSP16 add(XSP16, 12)
        CFI Block cfiCond81 Using cfiCommon0
        CFI (cfiCond81) NoFunction
        CFI (cfiCond81) Conditional ??CrossCallReturnLabel_46
        CFI (cfiCond81) R6 load(1, XDATA, add(CFA_XSP16, literal(-12)))
        CFI (cfiCond81) VB load(1, XDATA, add(CFA_XSP16, literal(-11)))
        CFI (cfiCond81) V0 load(1, XDATA, add(CFA_XSP16, literal(-10)))
        CFI (cfiCond81) V1 load(1, XDATA, add(CFA_XSP16, literal(-9)))
        CFI (cfiCond81) V2 load(1, XDATA, add(CFA_XSP16, literal(-8)))
        CFI (cfiCond81) V3 load(1, XDATA, add(CFA_XSP16, literal(-7)))
        CFI (cfiCond81) R7 load(1, XDATA, add(CFA_XSP16, literal(-6)))
        CFI (cfiCond81) ?RET_LOW load(1, XDATA, add(CFA_XSP16, literal(-5)))
        CFI (cfiCond81) ?RET_HIGH load(1, XDATA, add(CFA_XSP16, literal(-4)))
        CFI (cfiCond81) ?BRET_EXT load(1, XDATA, add(CFA_XSP16, literal(-3)))
        CFI (cfiCond81) DPL0 load(1, XDATA, add(CFA_XSP16, literal(-2)))
        CFI (cfiCond81) DPH0 load(1, XDATA, add(CFA_XSP16, literal(-1)))
        CFI (cfiCond81) CFA_SP SP+0
        CFI (cfiCond81) CFA_XSP16 add(XSP16, 12)
        CFI Block cfiPicker82 Using cfiCommon1
        CFI (cfiPicker82) NoFunction
        CFI (cfiPicker82) Picker
        MOVX    A,@DPTR
        MOV     R6,A
        MOV     DPL,R0
        MOV     DPH,R1
        INC     DPTR
        INC     DPTR
        RET
        CFI EndBlock cfiCond80
        CFI EndBlock cfiCond81
        CFI EndBlock cfiPicker82
//  998 
//  999 /******************************************************************************
// 1000  * @fn      HalUARTWrite
// 1001  *
// 1002  * @brief   Write a buffer to the UART.
// 1003  *
// 1004  * @param   port    - UART port
// 1005  *          pBuffer - pointer to the buffer that will be written, not freed
// 1006  *          length  - length of
// 1007  *
// 1008  * @return  length of the buffer that was sent
// 1009  *****************************************************************************/

        RSEG BANKED_CODE:CODE:NOROOT(0)
// 1010 uint16 HalUARTWrite( uint8 port, uint8 *buf, uint16 len )
HalUARTWrite:
        CFI Block cfiBlock83 Using cfiCommon0
        CFI Function HalUARTWrite
// 1011 {
        MOV     A,#-0xc
        LCALL   ?BANKED_ENTER_XDATA
        CFI DPH0 load(1, XDATA, add(CFA_XSP16, literal(-1)))
        CFI DPL0 load(1, XDATA, add(CFA_XSP16, literal(-2)))
        CFI ?BRET_EXT load(1, XDATA, add(CFA_XSP16, literal(-3)))
        CFI ?RET_HIGH load(1, XDATA, add(CFA_XSP16, literal(-4)))
        CFI ?RET_LOW load(1, XDATA, add(CFA_XSP16, literal(-5)))
        CFI R7 load(1, XDATA, add(CFA_XSP16, literal(-6)))
        CFI V3 load(1, XDATA, add(CFA_XSP16, literal(-7)))
        CFI V2 load(1, XDATA, add(CFA_XSP16, literal(-8)))
        CFI V1 load(1, XDATA, add(CFA_XSP16, literal(-9)))
        CFI V0 load(1, XDATA, add(CFA_XSP16, literal(-10)))
        CFI VB load(1, XDATA, add(CFA_XSP16, literal(-11)))
        CFI R6 load(1, XDATA, add(CFA_XSP16, literal(-12)))
        CFI CFA_SP SP+0
        CFI CFA_XSP16 add(XSP16, 12)
        ; Saved register size: 12
        ; Auto size: 0
        MOV     ?V0 + 0,R1
        MOV     A,R2
        MOV     R6,A
        MOV     A,R3
        MOV     R7,A
        MOV     A,R4
        MOV     R2,A
        MOV     A,R5
        MOV     R3,A
// 1012   uartCfg_t *cfg = NULL;
        MOV     R0,#0x0
        MOV     R1,#0x0
// 1013   uint8 cnt;
// 1014 
// 1015 #if HAL_UART_0_ENABLE
// 1016   if ( port == HAL_UART_PORT_0 )
        MOV     A,?V0 + 0
        JNZ     ??HalUARTWrite_0
// 1017   {
// 1018     cfg = cfg0;
        MOV     DPTR,#cfg0
        MOVX    A,@DPTR
        MOV     R0,A
        INC     DPTR
        MOVX    A,@DPTR
        MOV     R1,A
// 1019   }
// 1020 #endif
// 1021 #if HAL_UART_1_ENABLE
// 1022   if ( port == HAL_UART_PORT_1 )
// 1023   {
// 1024     cfg = cfg1;
// 1025   }
// 1026 #endif
// 1027 
// 1028   HAL_UART_ASSERT( cfg );
// 1029 
// 1030   if ( cfg->txHead == cfg->txTail )
??HalUARTWrite_0:
        MOV     DPL,R0
        MOV     DPH,R1
        INC     DPTR
        INC     DPTR
        INC     DPTR
        INC     DPTR
        INC     DPTR
        INC     DPTR
        INC     DPTR
        INC     DPTR
        INC     DPTR
        INC     DPTR
        MOVX    A,@DPTR
        MOV     R4,A
        MOV     A,R0
        ADD     A,#0xb
        MOV     DPL,A
        MOV     A,R1
        LCALL   ??Subroutine7_1 & 0xFFFF
??CrossCallReturnLabel_32:
        XRL     A,R4
        JNZ     ??HalUARTWrite_1
// 1031   {
// 1032 #if HAL_UART_DMA
// 1033     // When pointers are equal, reset to zero to get max len w/out wrapping.
// 1034     cfg->txHead = cfg->txTail = 0;
        CLR     A
        MOVX    @DPTR,A
        MOV     DPL,R0
        MOV     DPH,R1
        INC     DPTR
        INC     DPTR
        INC     DPTR
        INC     DPTR
        INC     DPTR
        INC     DPTR
        INC     DPTR
        INC     DPTR
        INC     DPTR
        INC     DPTR
        MOVX    @DPTR,A
        LCALL   ?Subroutine5 & 0xFFFF
??CrossCallReturnLabel_11:
        MOV     A,#-0x1
        ADD     A,R4
        MOV     ?V0 + 0,A
        MOV     A,#-0x1
        ADDC    A,#0x0
        MOV     ?V0 + 1,A
        SJMP    ??HalUARTWrite_2
// 1035 #endif
// 1036 #if HAL_UART_ISR
// 1037 #if HAL_UART_DMA
// 1038     if ( !(cfg->flag & UART_CFG_DMA) )
// 1039 #endif
// 1040     {
// 1041       cfg->flag &= ~UART_CFG_TXF;
// 1042     }
// 1043 #endif
// 1044   }
// 1045 
// 1046   // Accept "all-or-none" on write request.
// 1047   if ( TX_AVAIL( cfg ) < len )
??HalUARTWrite_1:
        MOV     DPL,R0
        MOV     DPH,R1
        INC     DPTR
        INC     DPTR
        INC     DPTR
        INC     DPTR
        INC     DPTR
        INC     DPTR
        INC     DPTR
        INC     DPTR
        INC     DPTR
        INC     DPTR
        MOVX    A,@DPTR
        PUSH    A
        CFI CFA_SP SP+-1
        MOV     A,R0
        ADD     A,#0xb
        LCALL   ??Subroutine5_0 & 0xFFFF
??CrossCallReturnLabel_12:
        POP     A
        CFI CFA_SP SP+0
        CLR     C
        SUBB    A,R4
        JNC     ??HalUARTWrite_3
        LCALL   ?Subroutine11 & 0xFFFF
??CrossCallReturnLabel_41:
        MOV     A,#-0x1
        ADD     A,R4
        DEC     R4
        MOV     A,#-0x1
        SJMP    ??HalUARTWrite_4
??HalUARTWrite_3:
        LCALL   ?Subroutine5 & 0xFFFF
??CrossCallReturnLabel_13:
        LCALL   ?Subroutine11 & 0xFFFF
??CrossCallReturnLabel_42:
        MOV     A,R0
        ADD     A,#0xb
        MOV     DPL,A
        MOV     A,R1
        LCALL   ??Subroutine7_1 & 0xFFFF
??CrossCallReturnLabel_33:
        ADD     A,R4
        MOV     R4,A
        CLR     A
??HalUARTWrite_4:
        ADDC    A,R5
        MOV     R5,A
        MOV     ?V0 + 0,R4
        MOV     ?V0 + 1,R5
??HalUARTWrite_2:
        CLR     C
        MOV     A,?V0 + 0
        SUBB    A,R2
        MOV     A,?V0 + 1
        SUBB    A,R3
        JNC     ??HalUARTWrite_5
// 1048   {
// 1049     return 0;
        MOV     R2,#0x0
        MOV     R3,#0x0
        SJMP    ??HalUARTWrite_6
// 1050   }
// 1051 
// 1052   for ( cnt = len; cnt; cnt-- )
??HalUARTWrite_5:
        MOV     A,R2
        MOV     ?V0 + 3,A
        SJMP    ??HalUARTWrite_7
// 1053   {
// 1054     cfg->txBuf[ cfg->txHead ] = *buf++;
// 1055 
// 1056     if ( cfg->txHead == cfg->txMax )
// 1057     {
// 1058       cfg->txHead = 0;
// 1059     }
// 1060     else
// 1061     {
// 1062       cfg->txHead++;
??HalUARTWrite_8:
        MOV     DPL,R0
        MOV     DPH,R1
        INC     DPTR
        INC     DPTR
        INC     DPTR
        INC     DPTR
        INC     DPTR
        INC     DPTR
        INC     DPTR
        INC     DPTR
        INC     DPTR
        INC     DPTR
        MOVX    A,@DPTR
        INC     A
??HalUARTWrite_9:
        MOVX    @DPTR,A
// 1063     }
        DEC     ?V0 + 3
??HalUARTWrite_7:
        MOV     A,?V0 + 3
        JZ      ??HalUARTWrite_6
        MOV     A,R0
        ADD     A,#0xa
        MOV     R4,A
        MOV     A,R1
        ADDC    A,#0x0
        MOV     R5,A
        MOV     DPL,R6
        MOV     DPH,R7
        MOVX    A,@DPTR
        PUSH    A
        CFI CFA_SP SP+-1
        MOV     DPL,R4
        MOV     DPH,R5
        MOVX    A,@DPTR
        MOV     ?V0 + 0,A
        MOV     DPL,R0
        MOV     DPH,R1
        INC     DPTR
        INC     DPTR
        INC     DPTR
        INC     DPTR
        INC     DPTR
        INC     DPTR
        INC     DPTR
        INC     DPTR
        MOVX    A,@DPTR
        ADD     A,?V0 + 0
        MOV     ?V0 + 2,A
        INC     DPTR
        MOVX    A,@DPTR
        ADDC    A,#0x0
        MOV     DPL,?V0 + 2
        MOV     DPH,A
        POP     A
        CFI CFA_SP SP+0
        LCALL   ?Subroutine19 & 0xFFFF
??CrossCallReturnLabel_57:
        MOV     R6,DPL
        MOV     R7,DPH
        MOV     DPL,R4
        MOV     DPH,R5
        MOVX    A,@DPTR
        MOV     R4,A
        MOV     A,R0
        ADD     A,#0xc
        MOV     DPL,A
        MOV     A,R1
        LCALL   ??Subroutine7_1 & 0xFFFF
??CrossCallReturnLabel_34:
        XRL     A,R4
        JNZ     ??HalUARTWrite_8
        CLR     A
        MOV     DPL,R0
        MOV     DPH,R1
        INC     DPTR
        INC     DPTR
        INC     DPTR
        INC     DPTR
        INC     DPTR
        INC     DPTR
        INC     DPTR
        INC     DPTR
        INC     DPTR
        INC     DPTR
        SJMP    ??HalUARTWrite_9
// 1064   }
// 1065 
// 1066 #if HAL_UART_ISR
// 1067 #if HAL_UART_DMA
// 1068   if ( !(cfg->flag & UART_CFG_DMA) )
// 1069 #endif
// 1070   {
// 1071     if ( !(cfg->flag & UART_CFG_TXF) && len )
// 1072     {
// 1073       cfg->flag |= UART_CFG_TXF;
// 1074       if ( !(cfg->flag & UART_CFG_U1F) )
// 1075       {
// 1076         U0DBUF = cfg->txBuf[cfg->txTail];
// 1077       }
// 1078       else
// 1079       {
// 1080         U1DBUF = cfg->txBuf[cfg->txTail];
// 1081       }
// 1082     }
// 1083   }
// 1084 #endif
// 1085 
// 1086   return len;
??HalUARTWrite_6:
        LJMP    ?Subroutine24 & 0xFFFF
        CFI EndBlock cfiBlock83
// 1087 }

        RSEG BANKED_CODE:CODE:NOROOT(0)
?Subroutine11:
        CFI Block cfiCond84 Using cfiCommon0
        CFI NoFunction
        CFI Conditional ??CrossCallReturnLabel_41
        CFI R6 load(1, XDATA, add(CFA_XSP16, literal(-12)))
        CFI VB load(1, XDATA, add(CFA_XSP16, literal(-11)))
        CFI V0 load(1, XDATA, add(CFA_XSP16, literal(-10)))
        CFI V1 load(1, XDATA, add(CFA_XSP16, literal(-9)))
        CFI V2 load(1, XDATA, add(CFA_XSP16, literal(-8)))
        CFI V3 load(1, XDATA, add(CFA_XSP16, literal(-7)))
        CFI R7 load(1, XDATA, add(CFA_XSP16, literal(-6)))
        CFI ?RET_LOW load(1, XDATA, add(CFA_XSP16, literal(-5)))
        CFI ?RET_HIGH load(1, XDATA, add(CFA_XSP16, literal(-4)))
        CFI ?BRET_EXT load(1, XDATA, add(CFA_XSP16, literal(-3)))
        CFI DPL0 load(1, XDATA, add(CFA_XSP16, literal(-2)))
        CFI DPH0 load(1, XDATA, add(CFA_XSP16, literal(-1)))
        CFI CFA_SP SP+0
        CFI CFA_XSP16 add(XSP16, 12)
        CFI Block cfiCond85 Using cfiCommon0
        CFI (cfiCond85) NoFunction
        CFI (cfiCond85) Conditional ??CrossCallReturnLabel_42
        CFI (cfiCond85) R6 load(1, XDATA, add(CFA_XSP16, literal(-12)))
        CFI (cfiCond85) VB load(1, XDATA, add(CFA_XSP16, literal(-11)))
        CFI (cfiCond85) V0 load(1, XDATA, add(CFA_XSP16, literal(-10)))
        CFI (cfiCond85) V1 load(1, XDATA, add(CFA_XSP16, literal(-9)))
        CFI (cfiCond85) V2 load(1, XDATA, add(CFA_XSP16, literal(-8)))
        CFI (cfiCond85) V3 load(1, XDATA, add(CFA_XSP16, literal(-7)))
        CFI (cfiCond85) R7 load(1, XDATA, add(CFA_XSP16, literal(-6)))
        CFI (cfiCond85) ?RET_LOW load(1, XDATA, add(CFA_XSP16, literal(-5)))
        CFI (cfiCond85) ?RET_HIGH load(1, XDATA, add(CFA_XSP16, literal(-4)))
        CFI (cfiCond85) ?BRET_EXT load(1, XDATA, add(CFA_XSP16, literal(-3)))
        CFI (cfiCond85) DPL0 load(1, XDATA, add(CFA_XSP16, literal(-2)))
        CFI (cfiCond85) DPH0 load(1, XDATA, add(CFA_XSP16, literal(-1)))
        CFI (cfiCond85) CFA_SP SP+0
        CFI (cfiCond85) CFA_XSP16 add(XSP16, 12)
        CFI Block cfiPicker86 Using cfiCommon1
        CFI (cfiPicker86) NoFunction
        CFI (cfiPicker86) Picker
        MOV     DPL,R0
        MOV     DPH,R1
        INC     DPTR
        INC     DPTR
        INC     DPTR
        INC     DPTR
        INC     DPTR
        INC     DPTR
        INC     DPTR
        INC     DPTR
        INC     DPTR
        INC     DPTR
        MOVX    A,@DPTR
        MOV     ?V0 + 0,A
        MOV     A,R4
        CLR     C
        SUBB    A,?V0 + 0
        MOV     R4,A
        CLR     A
        SUBB    A,#0x0
        MOV     R5,A
        RET
        CFI EndBlock cfiCond84
        CFI EndBlock cfiCond85
        CFI EndBlock cfiPicker86

        RSEG BANKED_CODE:CODE:NOROOT(0)
?Subroutine7:
        CFI Block cfiCond87 Using cfiCommon0
        CFI NoFunction
        CFI Conditional ??CrossCallReturnLabel_16
        CFI R6 load(1, XDATA, add(CFA_XSP16, literal(-10)))
        CFI VB load(1, XDATA, add(CFA_XSP16, literal(-9)))
        CFI V0 load(1, XDATA, add(CFA_XSP16, literal(-8)))
        CFI V1 load(1, XDATA, add(CFA_XSP16, literal(-7)))
        CFI R7 load(1, XDATA, add(CFA_XSP16, literal(-6)))
        CFI ?RET_LOW load(1, XDATA, add(CFA_XSP16, literal(-5)))
        CFI ?RET_HIGH load(1, XDATA, add(CFA_XSP16, literal(-4)))
        CFI ?BRET_EXT load(1, XDATA, add(CFA_XSP16, literal(-3)))
        CFI DPL0 load(1, XDATA, add(CFA_XSP16, literal(-2)))
        CFI DPH0 load(1, XDATA, add(CFA_XSP16, literal(-1)))
        CFI CFA_SP SP+0
        CFI CFA_XSP16 add(XSP16, 11)
        CFI Block cfiCond88 Using cfiCommon0
        CFI (cfiCond88) NoFunction
        CFI (cfiCond88) Conditional ??CrossCallReturnLabel_17
        CFI (cfiCond88) R6 load(1, XDATA, add(CFA_XSP16, literal(-10)))
        CFI (cfiCond88) VB load(1, XDATA, add(CFA_XSP16, literal(-9)))
        CFI (cfiCond88) V0 load(1, XDATA, add(CFA_XSP16, literal(-8)))
        CFI (cfiCond88) V1 load(1, XDATA, add(CFA_XSP16, literal(-7)))
        CFI (cfiCond88) R7 load(1, XDATA, add(CFA_XSP16, literal(-6)))
        CFI (cfiCond88) ?RET_LOW load(1, XDATA, add(CFA_XSP16, literal(-5)))
        CFI (cfiCond88) ?RET_HIGH load(1, XDATA, add(CFA_XSP16, literal(-4)))
        CFI (cfiCond88) ?BRET_EXT load(1, XDATA, add(CFA_XSP16, literal(-3)))
        CFI (cfiCond88) DPL0 load(1, XDATA, add(CFA_XSP16, literal(-2)))
        CFI (cfiCond88) DPH0 load(1, XDATA, add(CFA_XSP16, literal(-1)))
        CFI (cfiCond88) CFA_SP SP+0
        CFI (cfiCond88) CFA_XSP16 add(XSP16, 11)
        CFI Block cfiCond89 Using cfiCommon0
        CFI (cfiCond89) NoFunction
        CFI (cfiCond89) Conditional ??CrossCallReturnLabel_18
        CFI (cfiCond89) R6 load(1, XDATA, add(CFA_XSP16, literal(-10)))
        CFI (cfiCond89) VB load(1, XDATA, add(CFA_XSP16, literal(-9)))
        CFI (cfiCond89) V0 load(1, XDATA, add(CFA_XSP16, literal(-8)))
        CFI (cfiCond89) V1 load(1, XDATA, add(CFA_XSP16, literal(-7)))
        CFI (cfiCond89) R7 load(1, XDATA, add(CFA_XSP16, literal(-6)))
        CFI (cfiCond89) ?RET_LOW load(1, XDATA, add(CFA_XSP16, literal(-5)))
        CFI (cfiCond89) ?RET_HIGH load(1, XDATA, add(CFA_XSP16, literal(-4)))
        CFI (cfiCond89) ?BRET_EXT load(1, XDATA, add(CFA_XSP16, literal(-3)))
        CFI (cfiCond89) DPL0 load(1, XDATA, add(CFA_XSP16, literal(-2)))
        CFI (cfiCond89) DPH0 load(1, XDATA, add(CFA_XSP16, literal(-1)))
        CFI (cfiCond89) CFA_SP SP+0
        CFI (cfiCond89) CFA_XSP16 add(XSP16, 11)
        CFI Block cfiCond90 Using cfiCommon0
        CFI (cfiCond90) NoFunction
        CFI (cfiCond90) Conditional ??CrossCallReturnLabel_21
        CFI (cfiCond90) R6 load(1, XDATA, add(CFA_XSP16, literal(-10)))
        CFI (cfiCond90) VB load(1, XDATA, add(CFA_XSP16, literal(-9)))
        CFI (cfiCond90) V0 load(1, XDATA, add(CFA_XSP16, literal(-8)))
        CFI (cfiCond90) V1 load(1, XDATA, add(CFA_XSP16, literal(-7)))
        CFI (cfiCond90) R7 load(1, XDATA, add(CFA_XSP16, literal(-6)))
        CFI (cfiCond90) ?RET_LOW load(1, XDATA, add(CFA_XSP16, literal(-5)))
        CFI (cfiCond90) ?RET_HIGH load(1, XDATA, add(CFA_XSP16, literal(-4)))
        CFI (cfiCond90) ?BRET_EXT load(1, XDATA, add(CFA_XSP16, literal(-3)))
        CFI (cfiCond90) DPL0 load(1, XDATA, add(CFA_XSP16, literal(-2)))
        CFI (cfiCond90) DPH0 load(1, XDATA, add(CFA_XSP16, literal(-1)))
        CFI (cfiCond90) CFA_SP SP+0
        CFI (cfiCond90) CFA_XSP16 add(XSP16, 11)
        CFI Block cfiCond91 Using cfiCommon0
        CFI (cfiCond91) NoFunction
        CFI (cfiCond91) Conditional ??CrossCallReturnLabel_25
        CFI (cfiCond91) R6 load(1, XDATA, add(CFA_XSP16, literal(-10)))
        CFI (cfiCond91) VB load(1, XDATA, add(CFA_XSP16, literal(-9)))
        CFI (cfiCond91) V0 load(1, XDATA, add(CFA_XSP16, literal(-8)))
        CFI (cfiCond91) V1 load(1, XDATA, add(CFA_XSP16, literal(-7)))
        CFI (cfiCond91) R7 load(1, XDATA, add(CFA_XSP16, literal(-6)))
        CFI (cfiCond91) ?RET_LOW load(1, XDATA, add(CFA_XSP16, literal(-5)))
        CFI (cfiCond91) ?RET_HIGH load(1, XDATA, add(CFA_XSP16, literal(-4)))
        CFI (cfiCond91) ?BRET_EXT load(1, XDATA, add(CFA_XSP16, literal(-3)))
        CFI (cfiCond91) DPL0 load(1, XDATA, add(CFA_XSP16, literal(-2)))
        CFI (cfiCond91) DPH0 load(1, XDATA, add(CFA_XSP16, literal(-1)))
        CFI (cfiCond91) CFA_SP SP+0
        CFI (cfiCond91) CFA_XSP16 add(XSP16, 11)
        CFI Block cfiCond92 Using cfiCommon0
        CFI (cfiCond92) NoFunction
        CFI (cfiCond92) Conditional ??CrossCallReturnLabel_28
        CFI (cfiCond92) R6 load(1, XDATA, add(CFA_XSP16, literal(-14)))
        CFI (cfiCond92) VB load(1, XDATA, add(CFA_XSP16, literal(-13)))
        CFI (cfiCond92) V0 load(1, XDATA, add(CFA_XSP16, literal(-12)))
        CFI (cfiCond92) V1 load(1, XDATA, add(CFA_XSP16, literal(-11)))
        CFI (cfiCond92) V2 load(1, XDATA, add(CFA_XSP16, literal(-10)))
        CFI (cfiCond92) V3 load(1, XDATA, add(CFA_XSP16, literal(-9)))
        CFI (cfiCond92) V4 load(1, XDATA, add(CFA_XSP16, literal(-8)))
        CFI (cfiCond92) V5 load(1, XDATA, add(CFA_XSP16, literal(-7)))
        CFI (cfiCond92) R7 load(1, XDATA, add(CFA_XSP16, literal(-6)))
        CFI (cfiCond92) ?RET_LOW load(1, XDATA, add(CFA_XSP16, literal(-5)))
        CFI (cfiCond92) ?RET_HIGH load(1, XDATA, add(CFA_XSP16, literal(-4)))
        CFI (cfiCond92) ?BRET_EXT load(1, XDATA, add(CFA_XSP16, literal(-3)))
        CFI (cfiCond92) DPL0 load(1, XDATA, add(CFA_XSP16, literal(-2)))
        CFI (cfiCond92) DPH0 load(1, XDATA, add(CFA_XSP16, literal(-1)))
        CFI (cfiCond92) CFA_SP SP+0
        CFI (cfiCond92) CFA_XSP16 add(XSP16, 15)
        CFI Block cfiPicker93 Using cfiCommon1
        CFI (cfiPicker93) NoFunction
        CFI (cfiPicker93) Picker
        MOV     A,R6
        ADD     A,#0xf
        CFI Block cfiCond94 Using cfiCommon0
        CFI (cfiCond94) NoFunction
        CFI (cfiCond94) Conditional ??CrossCallReturnLabel_19
        CFI (cfiCond94) R6 load(1, XDATA, add(CFA_XSP16, literal(-10)))
        CFI (cfiCond94) VB load(1, XDATA, add(CFA_XSP16, literal(-9)))
        CFI (cfiCond94) V0 load(1, XDATA, add(CFA_XSP16, literal(-8)))
        CFI (cfiCond94) V1 load(1, XDATA, add(CFA_XSP16, literal(-7)))
        CFI (cfiCond94) R7 load(1, XDATA, add(CFA_XSP16, literal(-6)))
        CFI (cfiCond94) ?RET_LOW load(1, XDATA, add(CFA_XSP16, literal(-5)))
        CFI (cfiCond94) ?RET_HIGH load(1, XDATA, add(CFA_XSP16, literal(-4)))
        CFI (cfiCond94) ?BRET_EXT load(1, XDATA, add(CFA_XSP16, literal(-3)))
        CFI (cfiCond94) DPL0 load(1, XDATA, add(CFA_XSP16, literal(-2)))
        CFI (cfiCond94) DPH0 load(1, XDATA, add(CFA_XSP16, literal(-1)))
        CFI (cfiCond94) CFA_SP SP+0
        CFI (cfiCond94) CFA_XSP16 add(XSP16, 11)
        CFI Block cfiCond95 Using cfiCommon0
        CFI (cfiCond95) NoFunction
        CFI (cfiCond95) Conditional ??CrossCallReturnLabel_20
        CFI (cfiCond95) R6 load(1, XDATA, add(CFA_XSP16, literal(-10)))
        CFI (cfiCond95) VB load(1, XDATA, add(CFA_XSP16, literal(-9)))
        CFI (cfiCond95) V0 load(1, XDATA, add(CFA_XSP16, literal(-8)))
        CFI (cfiCond95) V1 load(1, XDATA, add(CFA_XSP16, literal(-7)))
        CFI (cfiCond95) R7 load(1, XDATA, add(CFA_XSP16, literal(-6)))
        CFI (cfiCond95) ?RET_LOW load(1, XDATA, add(CFA_XSP16, literal(-5)))
        CFI (cfiCond95) ?RET_HIGH load(1, XDATA, add(CFA_XSP16, literal(-4)))
        CFI (cfiCond95) ?BRET_EXT load(1, XDATA, add(CFA_XSP16, literal(-3)))
        CFI (cfiCond95) DPL0 load(1, XDATA, add(CFA_XSP16, literal(-2)))
        CFI (cfiCond95) DPH0 load(1, XDATA, add(CFA_XSP16, literal(-1)))
        CFI (cfiCond95) CFA_SP SP+0
        CFI (cfiCond95) CFA_XSP16 add(XSP16, 11)
        CFI Block cfiCond96 Using cfiCommon0
        CFI (cfiCond96) NoFunction
        CFI (cfiCond96) Conditional ??CrossCallReturnLabel_22
        CFI (cfiCond96) R6 load(1, XDATA, add(CFA_XSP16, literal(-10)))
        CFI (cfiCond96) VB load(1, XDATA, add(CFA_XSP16, literal(-9)))
        CFI (cfiCond96) V0 load(1, XDATA, add(CFA_XSP16, literal(-8)))
        CFI (cfiCond96) V1 load(1, XDATA, add(CFA_XSP16, literal(-7)))
        CFI (cfiCond96) R7 load(1, XDATA, add(CFA_XSP16, literal(-6)))
        CFI (cfiCond96) ?RET_LOW load(1, XDATA, add(CFA_XSP16, literal(-5)))
        CFI (cfiCond96) ?RET_HIGH load(1, XDATA, add(CFA_XSP16, literal(-4)))
        CFI (cfiCond96) ?BRET_EXT load(1, XDATA, add(CFA_XSP16, literal(-3)))
        CFI (cfiCond96) DPL0 load(1, XDATA, add(CFA_XSP16, literal(-2)))
        CFI (cfiCond96) DPH0 load(1, XDATA, add(CFA_XSP16, literal(-1)))
        CFI (cfiCond96) CFA_SP SP+0
        CFI (cfiCond96) CFA_XSP16 add(XSP16, 11)
        CFI Block cfiCond97 Using cfiCommon0
        CFI (cfiCond97) NoFunction
        CFI (cfiCond97) Conditional ??CrossCallReturnLabel_23
        CFI (cfiCond97) R6 load(1, XDATA, add(CFA_XSP16, literal(-10)))
        CFI (cfiCond97) VB load(1, XDATA, add(CFA_XSP16, literal(-9)))
        CFI (cfiCond97) V0 load(1, XDATA, add(CFA_XSP16, literal(-8)))
        CFI (cfiCond97) V1 load(1, XDATA, add(CFA_XSP16, literal(-7)))
        CFI (cfiCond97) R7 load(1, XDATA, add(CFA_XSP16, literal(-6)))
        CFI (cfiCond97) ?RET_LOW load(1, XDATA, add(CFA_XSP16, literal(-5)))
        CFI (cfiCond97) ?RET_HIGH load(1, XDATA, add(CFA_XSP16, literal(-4)))
        CFI (cfiCond97) ?BRET_EXT load(1, XDATA, add(CFA_XSP16, literal(-3)))
        CFI (cfiCond97) DPL0 load(1, XDATA, add(CFA_XSP16, literal(-2)))
        CFI (cfiCond97) DPH0 load(1, XDATA, add(CFA_XSP16, literal(-1)))
        CFI (cfiCond97) CFA_SP SP+0
        CFI (cfiCond97) CFA_XSP16 add(XSP16, 11)
        CFI Block cfiCond98 Using cfiCommon0
        CFI (cfiCond98) NoFunction
        CFI (cfiCond98) Conditional ??CrossCallReturnLabel_24
        CFI (cfiCond98) R6 load(1, XDATA, add(CFA_XSP16, literal(-10)))
        CFI (cfiCond98) VB load(1, XDATA, add(CFA_XSP16, literal(-9)))
        CFI (cfiCond98) V0 load(1, XDATA, add(CFA_XSP16, literal(-8)))
        CFI (cfiCond98) V1 load(1, XDATA, add(CFA_XSP16, literal(-7)))
        CFI (cfiCond98) R7 load(1, XDATA, add(CFA_XSP16, literal(-6)))
        CFI (cfiCond98) ?RET_LOW load(1, XDATA, add(CFA_XSP16, literal(-5)))
        CFI (cfiCond98) ?RET_HIGH load(1, XDATA, add(CFA_XSP16, literal(-4)))
        CFI (cfiCond98) ?BRET_EXT load(1, XDATA, add(CFA_XSP16, literal(-3)))
        CFI (cfiCond98) DPL0 load(1, XDATA, add(CFA_XSP16, literal(-2)))
        CFI (cfiCond98) DPH0 load(1, XDATA, add(CFA_XSP16, literal(-1)))
        CFI (cfiCond98) CFA_SP SP+0
        CFI (cfiCond98) CFA_XSP16 add(XSP16, 11)
        CFI Block cfiCond99 Using cfiCommon0
        CFI (cfiCond99) NoFunction
        CFI (cfiCond99) Conditional ??CrossCallReturnLabel_26
        CFI (cfiCond99) R6 load(1, XDATA, add(CFA_XSP16, literal(-10)))
        CFI (cfiCond99) VB load(1, XDATA, add(CFA_XSP16, literal(-9)))
        CFI (cfiCond99) V0 load(1, XDATA, add(CFA_XSP16, literal(-8)))
        CFI (cfiCond99) V1 load(1, XDATA, add(CFA_XSP16, literal(-7)))
        CFI (cfiCond99) R7 load(1, XDATA, add(CFA_XSP16, literal(-6)))
        CFI (cfiCond99) ?RET_LOW load(1, XDATA, add(CFA_XSP16, literal(-5)))
        CFI (cfiCond99) ?RET_HIGH load(1, XDATA, add(CFA_XSP16, literal(-4)))
        CFI (cfiCond99) ?BRET_EXT load(1, XDATA, add(CFA_XSP16, literal(-3)))
        CFI (cfiCond99) DPL0 load(1, XDATA, add(CFA_XSP16, literal(-2)))
        CFI (cfiCond99) DPH0 load(1, XDATA, add(CFA_XSP16, literal(-1)))
        CFI (cfiCond99) CFA_SP SP+0
        CFI (cfiCond99) CFA_XSP16 add(XSP16, 11)
        CFI Block cfiCond100 Using cfiCommon0
        CFI (cfiCond100) NoFunction
        CFI (cfiCond100) Conditional ??CrossCallReturnLabel_29
        CFI (cfiCond100) R6 load(1, XDATA, add(CFA_XSP16, literal(-9)))
        CFI (cfiCond100) VB load(1, XDATA, add(CFA_XSP16, literal(-8)))
        CFI (cfiCond100) V0 load(1, XDATA, add(CFA_XSP16, literal(-7)))
        CFI (cfiCond100) R7 load(1, XDATA, add(CFA_XSP16, literal(-6)))
        CFI (cfiCond100) ?RET_LOW load(1, XDATA, add(CFA_XSP16, literal(-5)))
        CFI (cfiCond100) ?RET_HIGH load(1, XDATA, add(CFA_XSP16, literal(-4)))
        CFI (cfiCond100) ?BRET_EXT load(1, XDATA, add(CFA_XSP16, literal(-3)))
        CFI (cfiCond100) DPL0 load(1, XDATA, add(CFA_XSP16, literal(-2)))
        CFI (cfiCond100) DPH0 load(1, XDATA, add(CFA_XSP16, literal(-1)))
        CFI (cfiCond100) CFA_SP SP+0
        CFI (cfiCond100) CFA_XSP16 add(XSP16, 9)
        CFI Block cfiCond101 Using cfiCommon0
        CFI (cfiCond101) NoFunction
        CFI (cfiCond101) Conditional ??CrossCallReturnLabel_30
        CFI (cfiCond101) R6 load(1, XDATA, add(CFA_XSP16, literal(-9)))
        CFI (cfiCond101) VB load(1, XDATA, add(CFA_XSP16, literal(-8)))
        CFI (cfiCond101) V0 load(1, XDATA, add(CFA_XSP16, literal(-7)))
        CFI (cfiCond101) R7 load(1, XDATA, add(CFA_XSP16, literal(-6)))
        CFI (cfiCond101) ?RET_LOW load(1, XDATA, add(CFA_XSP16, literal(-5)))
        CFI (cfiCond101) ?RET_HIGH load(1, XDATA, add(CFA_XSP16, literal(-4)))
        CFI (cfiCond101) ?BRET_EXT load(1, XDATA, add(CFA_XSP16, literal(-3)))
        CFI (cfiCond101) DPL0 load(1, XDATA, add(CFA_XSP16, literal(-2)))
        CFI (cfiCond101) DPH0 load(1, XDATA, add(CFA_XSP16, literal(-1)))
        CFI (cfiCond101) CFA_SP SP+0
        CFI (cfiCond101) CFA_XSP16 add(XSP16, 9)
??Subroutine7_0:
        MOV     DPL,A
        MOV     A,R7
        CFI Block cfiCond102 Using cfiCommon0
        CFI (cfiCond102) NoFunction
        CFI (cfiCond102) Conditional ??CrossCallReturnLabel_27
        CFI (cfiCond102) R6 load(1, XDATA, add(CFA_XSP16, literal(-14)))
        CFI (cfiCond102) VB load(1, XDATA, add(CFA_XSP16, literal(-13)))
        CFI (cfiCond102) V0 load(1, XDATA, add(CFA_XSP16, literal(-12)))
        CFI (cfiCond102) V1 load(1, XDATA, add(CFA_XSP16, literal(-11)))
        CFI (cfiCond102) V2 load(1, XDATA, add(CFA_XSP16, literal(-10)))
        CFI (cfiCond102) V3 load(1, XDATA, add(CFA_XSP16, literal(-9)))
        CFI (cfiCond102) V4 load(1, XDATA, add(CFA_XSP16, literal(-8)))
        CFI (cfiCond102) V5 load(1, XDATA, add(CFA_XSP16, literal(-7)))
        CFI (cfiCond102) R7 load(1, XDATA, add(CFA_XSP16, literal(-6)))
        CFI (cfiCond102) ?RET_LOW load(1, XDATA, add(CFA_XSP16, literal(-5)))
        CFI (cfiCond102) ?RET_HIGH load(1, XDATA, add(CFA_XSP16, literal(-4)))
        CFI (cfiCond102) ?BRET_EXT load(1, XDATA, add(CFA_XSP16, literal(-3)))
        CFI (cfiCond102) DPL0 load(1, XDATA, add(CFA_XSP16, literal(-2)))
        CFI (cfiCond102) DPH0 load(1, XDATA, add(CFA_XSP16, literal(-1)))
        CFI (cfiCond102) CFA_SP SP+0
        CFI (cfiCond102) CFA_XSP16 add(XSP16, 15)
        CFI Block cfiCond103 Using cfiCommon0
        CFI (cfiCond103) NoFunction
        CFI (cfiCond103) Conditional ??CrossCallReturnLabel_31
        CFI (cfiCond103) R6 load(1, XDATA, add(CFA_XSP16, literal(-12)))
        CFI (cfiCond103) VB load(1, XDATA, add(CFA_XSP16, literal(-11)))
        CFI (cfiCond103) V0 load(1, XDATA, add(CFA_XSP16, literal(-10)))
        CFI (cfiCond103) V1 load(1, XDATA, add(CFA_XSP16, literal(-9)))
        CFI (cfiCond103) V2 load(1, XDATA, add(CFA_XSP16, literal(-8)))
        CFI (cfiCond103) V3 load(1, XDATA, add(CFA_XSP16, literal(-7)))
        CFI (cfiCond103) R7 load(1, XDATA, add(CFA_XSP16, literal(-6)))
        CFI (cfiCond103) ?RET_LOW load(1, XDATA, add(CFA_XSP16, literal(-5)))
        CFI (cfiCond103) ?RET_HIGH load(1, XDATA, add(CFA_XSP16, literal(-4)))
        CFI (cfiCond103) ?BRET_EXT load(1, XDATA, add(CFA_XSP16, literal(-3)))
        CFI (cfiCond103) DPL0 load(1, XDATA, add(CFA_XSP16, literal(-2)))
        CFI (cfiCond103) DPH0 load(1, XDATA, add(CFA_XSP16, literal(-1)))
        CFI (cfiCond103) CFA_SP SP+0
        CFI (cfiCond103) CFA_XSP16 add(XSP16, 12)
        CFI Block cfiCond104 Using cfiCommon0
        CFI (cfiCond104) NoFunction
        CFI (cfiCond104) Conditional ??CrossCallReturnLabel_32
        CFI (cfiCond104) R6 load(1, XDATA, add(CFA_XSP16, literal(-12)))
        CFI (cfiCond104) VB load(1, XDATA, add(CFA_XSP16, literal(-11)))
        CFI (cfiCond104) V0 load(1, XDATA, add(CFA_XSP16, literal(-10)))
        CFI (cfiCond104) V1 load(1, XDATA, add(CFA_XSP16, literal(-9)))
        CFI (cfiCond104) V2 load(1, XDATA, add(CFA_XSP16, literal(-8)))
        CFI (cfiCond104) V3 load(1, XDATA, add(CFA_XSP16, literal(-7)))
        CFI (cfiCond104) R7 load(1, XDATA, add(CFA_XSP16, literal(-6)))
        CFI (cfiCond104) ?RET_LOW load(1, XDATA, add(CFA_XSP16, literal(-5)))
        CFI (cfiCond104) ?RET_HIGH load(1, XDATA, add(CFA_XSP16, literal(-4)))
        CFI (cfiCond104) ?BRET_EXT load(1, XDATA, add(CFA_XSP16, literal(-3)))
        CFI (cfiCond104) DPL0 load(1, XDATA, add(CFA_XSP16, literal(-2)))
        CFI (cfiCond104) DPH0 load(1, XDATA, add(CFA_XSP16, literal(-1)))
        CFI (cfiCond104) CFA_SP SP+0
        CFI (cfiCond104) CFA_XSP16 add(XSP16, 12)
        CFI Block cfiCond105 Using cfiCommon0
        CFI (cfiCond105) NoFunction
        CFI (cfiCond105) Conditional ??CrossCallReturnLabel_33
        CFI (cfiCond105) R6 load(1, XDATA, add(CFA_XSP16, literal(-12)))
        CFI (cfiCond105) VB load(1, XDATA, add(CFA_XSP16, literal(-11)))
        CFI (cfiCond105) V0 load(1, XDATA, add(CFA_XSP16, literal(-10)))
        CFI (cfiCond105) V1 load(1, XDATA, add(CFA_XSP16, literal(-9)))
        CFI (cfiCond105) V2 load(1, XDATA, add(CFA_XSP16, literal(-8)))
        CFI (cfiCond105) V3 load(1, XDATA, add(CFA_XSP16, literal(-7)))
        CFI (cfiCond105) R7 load(1, XDATA, add(CFA_XSP16, literal(-6)))
        CFI (cfiCond105) ?RET_LOW load(1, XDATA, add(CFA_XSP16, literal(-5)))
        CFI (cfiCond105) ?RET_HIGH load(1, XDATA, add(CFA_XSP16, literal(-4)))
        CFI (cfiCond105) ?BRET_EXT load(1, XDATA, add(CFA_XSP16, literal(-3)))
        CFI (cfiCond105) DPL0 load(1, XDATA, add(CFA_XSP16, literal(-2)))
        CFI (cfiCond105) DPH0 load(1, XDATA, add(CFA_XSP16, literal(-1)))
        CFI (cfiCond105) CFA_SP SP+0
        CFI (cfiCond105) CFA_XSP16 add(XSP16, 12)
        CFI Block cfiCond106 Using cfiCommon0
        CFI (cfiCond106) NoFunction
        CFI (cfiCond106) Conditional ??CrossCallReturnLabel_34
        CFI (cfiCond106) R6 load(1, XDATA, add(CFA_XSP16, literal(-12)))
        CFI (cfiCond106) VB load(1, XDATA, add(CFA_XSP16, literal(-11)))
        CFI (cfiCond106) V0 load(1, XDATA, add(CFA_XSP16, literal(-10)))
        CFI (cfiCond106) V1 load(1, XDATA, add(CFA_XSP16, literal(-9)))
        CFI (cfiCond106) V2 load(1, XDATA, add(CFA_XSP16, literal(-8)))
        CFI (cfiCond106) V3 load(1, XDATA, add(CFA_XSP16, literal(-7)))
        CFI (cfiCond106) R7 load(1, XDATA, add(CFA_XSP16, literal(-6)))
        CFI (cfiCond106) ?RET_LOW load(1, XDATA, add(CFA_XSP16, literal(-5)))
        CFI (cfiCond106) ?RET_HIGH load(1, XDATA, add(CFA_XSP16, literal(-4)))
        CFI (cfiCond106) ?BRET_EXT load(1, XDATA, add(CFA_XSP16, literal(-3)))
        CFI (cfiCond106) DPL0 load(1, XDATA, add(CFA_XSP16, literal(-2)))
        CFI (cfiCond106) DPH0 load(1, XDATA, add(CFA_XSP16, literal(-1)))
        CFI (cfiCond106) CFA_SP SP+0
        CFI (cfiCond106) CFA_XSP16 add(XSP16, 12)
??Subroutine7_1:
        LCALL   ??Subroutine20_0 & 0xFFFF
??CrossCallReturnLabel_63:
        RET
        CFI EndBlock cfiCond87
        CFI EndBlock cfiCond88
        CFI EndBlock cfiCond89
        CFI EndBlock cfiCond90
        CFI EndBlock cfiCond91
        CFI EndBlock cfiCond92
        CFI EndBlock cfiPicker93
        CFI EndBlock cfiCond94
        CFI EndBlock cfiCond95
        CFI EndBlock cfiCond96
        CFI EndBlock cfiCond97
        CFI EndBlock cfiCond98
        CFI EndBlock cfiCond99
        CFI EndBlock cfiCond100
        CFI EndBlock cfiCond101
        CFI EndBlock cfiCond102
        CFI EndBlock cfiCond103
        CFI EndBlock cfiCond104
        CFI EndBlock cfiCond105
        CFI EndBlock cfiCond106

        RSEG BANKED_CODE:CODE:NOROOT(0)
?Subroutine5:
        CFI Block cfiCond107 Using cfiCommon0
        CFI NoFunction
        CFI Conditional ??CrossCallReturnLabel_11
        CFI R6 load(1, XDATA, add(CFA_XSP16, literal(-12)))
        CFI VB load(1, XDATA, add(CFA_XSP16, literal(-11)))
        CFI V0 load(1, XDATA, add(CFA_XSP16, literal(-10)))
        CFI V1 load(1, XDATA, add(CFA_XSP16, literal(-9)))
        CFI V2 load(1, XDATA, add(CFA_XSP16, literal(-8)))
        CFI V3 load(1, XDATA, add(CFA_XSP16, literal(-7)))
        CFI R7 load(1, XDATA, add(CFA_XSP16, literal(-6)))
        CFI ?RET_LOW load(1, XDATA, add(CFA_XSP16, literal(-5)))
        CFI ?RET_HIGH load(1, XDATA, add(CFA_XSP16, literal(-4)))
        CFI ?BRET_EXT load(1, XDATA, add(CFA_XSP16, literal(-3)))
        CFI DPL0 load(1, XDATA, add(CFA_XSP16, literal(-2)))
        CFI DPH0 load(1, XDATA, add(CFA_XSP16, literal(-1)))
        CFI CFA_SP SP+0
        CFI CFA_XSP16 add(XSP16, 12)
        CFI Block cfiCond108 Using cfiCommon0
        CFI (cfiCond108) NoFunction
        CFI (cfiCond108) Conditional ??CrossCallReturnLabel_13
        CFI (cfiCond108) R6 load(1, XDATA, add(CFA_XSP16, literal(-12)))
        CFI (cfiCond108) VB load(1, XDATA, add(CFA_XSP16, literal(-11)))
        CFI (cfiCond108) V0 load(1, XDATA, add(CFA_XSP16, literal(-10)))
        CFI (cfiCond108) V1 load(1, XDATA, add(CFA_XSP16, literal(-9)))
        CFI (cfiCond108) V2 load(1, XDATA, add(CFA_XSP16, literal(-8)))
        CFI (cfiCond108) V3 load(1, XDATA, add(CFA_XSP16, literal(-7)))
        CFI (cfiCond108) R7 load(1, XDATA, add(CFA_XSP16, literal(-6)))
        CFI (cfiCond108) ?RET_LOW load(1, XDATA, add(CFA_XSP16, literal(-5)))
        CFI (cfiCond108) ?RET_HIGH load(1, XDATA, add(CFA_XSP16, literal(-4)))
        CFI (cfiCond108) ?BRET_EXT load(1, XDATA, add(CFA_XSP16, literal(-3)))
        CFI (cfiCond108) DPL0 load(1, XDATA, add(CFA_XSP16, literal(-2)))
        CFI (cfiCond108) DPH0 load(1, XDATA, add(CFA_XSP16, literal(-1)))
        CFI (cfiCond108) CFA_SP SP+0
        CFI (cfiCond108) CFA_XSP16 add(XSP16, 12)
        CFI Block cfiPicker109 Using cfiCommon1
        CFI (cfiPicker109) NoFunction
        CFI (cfiPicker109) Picker
        MOV     A,R0
        ADD     A,#0xc
        CFI Block cfiCond110 Using cfiCommon0
        CFI (cfiCond110) NoFunction
        CFI (cfiCond110) Conditional ??CrossCallReturnLabel_12
        CFI (cfiCond110) R6 load(1, XDATA, add(CFA_XSP16, literal(-12)))
        CFI (cfiCond110) VB load(1, XDATA, add(CFA_XSP16, literal(-11)))
        CFI (cfiCond110) V0 load(1, XDATA, add(CFA_XSP16, literal(-10)))
        CFI (cfiCond110) V1 load(1, XDATA, add(CFA_XSP16, literal(-9)))
        CFI (cfiCond110) V2 load(1, XDATA, add(CFA_XSP16, literal(-8)))
        CFI (cfiCond110) V3 load(1, XDATA, add(CFA_XSP16, literal(-7)))
        CFI (cfiCond110) R7 load(1, XDATA, add(CFA_XSP16, literal(-6)))
        CFI (cfiCond110) ?RET_LOW load(1, XDATA, add(CFA_XSP16, literal(-5)))
        CFI (cfiCond110) ?RET_HIGH load(1, XDATA, add(CFA_XSP16, literal(-4)))
        CFI (cfiCond110) ?BRET_EXT load(1, XDATA, add(CFA_XSP16, literal(-3)))
        CFI (cfiCond110) DPL0 load(1, XDATA, add(CFA_XSP16, literal(-2)))
        CFI (cfiCond110) DPH0 load(1, XDATA, add(CFA_XSP16, literal(-1)))
        CFI (cfiCond110) CFA_SP SP+-1
        CFI (cfiCond110) CFA_XSP16 add(XSP16, 12)
??Subroutine5_0:
        MOV     DPL,A
        MOV     A,R1
        LCALL   ??Subroutine20_0 & 0xFFFF
??CrossCallReturnLabel_61:
        MOV     R4,A
        RET
        CFI EndBlock cfiCond107
        CFI EndBlock cfiCond108
        CFI EndBlock cfiPicker109
        CFI EndBlock cfiCond110

        RSEG BANKED_CODE:CODE:NOROOT(0)
?Subroutine20:
        CFI Block cfiCond111 Using cfiCommon0
        CFI NoFunction
        CFI Conditional ??CrossCallReturnLabel_59, ??CrossCallReturnLabel_2
        CFI R6 load(1, XDATA, add(CFA_XSP16, literal(-10)))
        CFI VB load(1, XDATA, add(CFA_XSP16, literal(-9)))
        CFI V0 load(1, XDATA, add(CFA_XSP16, literal(-8)))
        CFI V1 load(1, XDATA, add(CFA_XSP16, literal(-7)))
        CFI R7 load(1, XDATA, add(CFA_XSP16, literal(-6)))
        CFI ?RET_LOW load(1, XDATA, add(CFA_XSP16, literal(-5)))
        CFI ?RET_HIGH load(1, XDATA, add(CFA_XSP16, literal(-4)))
        CFI ?BRET_EXT load(1, XDATA, add(CFA_XSP16, literal(-3)))
        CFI DPL0 load(1, XDATA, add(CFA_XSP16, literal(-2)))
        CFI DPH0 load(1, XDATA, add(CFA_XSP16, literal(-1)))
        CFI CFA_SP SP+0
        CFI CFA_XSP16 add(XSP16, 11)
        CFI Block cfiCond112 Using cfiCommon0
        CFI (cfiCond112) NoFunction
        CFI (cfiCond112) Conditional ??CrossCallReturnLabel_59, ??CrossCallReturnLabel_4
        CFI (cfiCond112) R6 load(1, XDATA, add(CFA_XSP16, literal(-10)))
        CFI (cfiCond112) VB load(1, XDATA, add(CFA_XSP16, literal(-9)))
        CFI (cfiCond112) V0 load(1, XDATA, add(CFA_XSP16, literal(-8)))
        CFI (cfiCond112) V1 load(1, XDATA, add(CFA_XSP16, literal(-7)))
        CFI (cfiCond112) R7 load(1, XDATA, add(CFA_XSP16, literal(-6)))
        CFI (cfiCond112) ?RET_LOW load(1, XDATA, add(CFA_XSP16, literal(-5)))
        CFI (cfiCond112) ?RET_HIGH load(1, XDATA, add(CFA_XSP16, literal(-4)))
        CFI (cfiCond112) ?BRET_EXT load(1, XDATA, add(CFA_XSP16, literal(-3)))
        CFI (cfiCond112) DPL0 load(1, XDATA, add(CFA_XSP16, literal(-2)))
        CFI (cfiCond112) DPH0 load(1, XDATA, add(CFA_XSP16, literal(-1)))
        CFI (cfiCond112) CFA_SP SP+0
        CFI (cfiCond112) CFA_XSP16 add(XSP16, 11)
        CFI Block cfiCond113 Using cfiCommon0
        CFI (cfiCond113) NoFunction
        CFI (cfiCond113) Conditional ??CrossCallReturnLabel_59, ??CrossCallReturnLabel_3
        CFI (cfiCond113) R6 load(1, XDATA, add(CFA_XSP16, literal(-10)))
        CFI (cfiCond113) VB load(1, XDATA, add(CFA_XSP16, literal(-9)))
        CFI (cfiCond113) V0 load(1, XDATA, add(CFA_XSP16, literal(-8)))
        CFI (cfiCond113) V1 load(1, XDATA, add(CFA_XSP16, literal(-7)))
        CFI (cfiCond113) R7 load(1, XDATA, add(CFA_XSP16, literal(-6)))
        CFI (cfiCond113) ?RET_LOW load(1, XDATA, add(CFA_XSP16, literal(-5)))
        CFI (cfiCond113) ?RET_HIGH load(1, XDATA, add(CFA_XSP16, literal(-4)))
        CFI (cfiCond113) ?BRET_EXT load(1, XDATA, add(CFA_XSP16, literal(-3)))
        CFI (cfiCond113) DPL0 load(1, XDATA, add(CFA_XSP16, literal(-2)))
        CFI (cfiCond113) DPH0 load(1, XDATA, add(CFA_XSP16, literal(-1)))
        CFI (cfiCond113) CFA_SP SP+0
        CFI (cfiCond113) CFA_XSP16 add(XSP16, 11)
        CFI Block cfiCond114 Using cfiCommon0
        CFI (cfiCond114) NoFunction
        CFI (cfiCond114) Conditional ??CrossCallReturnLabel_59, ??CrossCallReturnLabel_5
        CFI (cfiCond114) R6 load(1, XDATA, add(CFA_XSP16, literal(-10)))
        CFI (cfiCond114) VB load(1, XDATA, add(CFA_XSP16, literal(-9)))
        CFI (cfiCond114) V0 load(1, XDATA, add(CFA_XSP16, literal(-8)))
        CFI (cfiCond114) V1 load(1, XDATA, add(CFA_XSP16, literal(-7)))
        CFI (cfiCond114) R7 load(1, XDATA, add(CFA_XSP16, literal(-6)))
        CFI (cfiCond114) ?RET_LOW load(1, XDATA, add(CFA_XSP16, literal(-5)))
        CFI (cfiCond114) ?RET_HIGH load(1, XDATA, add(CFA_XSP16, literal(-4)))
        CFI (cfiCond114) ?BRET_EXT load(1, XDATA, add(CFA_XSP16, literal(-3)))
        CFI (cfiCond114) DPL0 load(1, XDATA, add(CFA_XSP16, literal(-2)))
        CFI (cfiCond114) DPH0 load(1, XDATA, add(CFA_XSP16, literal(-1)))
        CFI (cfiCond114) CFA_SP SP+0
        CFI (cfiCond114) CFA_XSP16 add(XSP16, 11)
        CFI Block cfiCond115 Using cfiCommon0
        CFI (cfiCond115) NoFunction
        CFI (cfiCond115) Conditional ??CrossCallReturnLabel_60, ??CrossCallReturnLabel_6
        CFI (cfiCond115) R6 load(1, XDATA, add(CFA_XSP16, literal(-10)))
        CFI (cfiCond115) VB load(1, XDATA, add(CFA_XSP16, literal(-9)))
        CFI (cfiCond115) V0 load(1, XDATA, add(CFA_XSP16, literal(-8)))
        CFI (cfiCond115) V1 load(1, XDATA, add(CFA_XSP16, literal(-7)))
        CFI (cfiCond115) R7 load(1, XDATA, add(CFA_XSP16, literal(-6)))
        CFI (cfiCond115) ?RET_LOW load(1, XDATA, add(CFA_XSP16, literal(-5)))
        CFI (cfiCond115) ?RET_HIGH load(1, XDATA, add(CFA_XSP16, literal(-4)))
        CFI (cfiCond115) ?BRET_EXT load(1, XDATA, add(CFA_XSP16, literal(-3)))
        CFI (cfiCond115) DPL0 load(1, XDATA, add(CFA_XSP16, literal(-2)))
        CFI (cfiCond115) DPH0 load(1, XDATA, add(CFA_XSP16, literal(-1)))
        CFI (cfiCond115) CFA_SP SP+0
        CFI (cfiCond115) CFA_XSP16 add(XSP16, 11)
        CFI Block cfiCond116 Using cfiCommon0
        CFI (cfiCond116) NoFunction
        CFI (cfiCond116) Conditional ??CrossCallReturnLabel_60, ??CrossCallReturnLabel_7
        CFI (cfiCond116) R6 load(1, XDATA, add(CFA_XSP16, literal(-10)))
        CFI (cfiCond116) VB load(1, XDATA, add(CFA_XSP16, literal(-9)))
        CFI (cfiCond116) V0 load(1, XDATA, add(CFA_XSP16, literal(-8)))
        CFI (cfiCond116) V1 load(1, XDATA, add(CFA_XSP16, literal(-7)))
        CFI (cfiCond116) R7 load(1, XDATA, add(CFA_XSP16, literal(-6)))
        CFI (cfiCond116) ?RET_LOW load(1, XDATA, add(CFA_XSP16, literal(-5)))
        CFI (cfiCond116) ?RET_HIGH load(1, XDATA, add(CFA_XSP16, literal(-4)))
        CFI (cfiCond116) ?BRET_EXT load(1, XDATA, add(CFA_XSP16, literal(-3)))
        CFI (cfiCond116) DPL0 load(1, XDATA, add(CFA_XSP16, literal(-2)))
        CFI (cfiCond116) DPH0 load(1, XDATA, add(CFA_XSP16, literal(-1)))
        CFI (cfiCond116) CFA_SP SP+0
        CFI (cfiCond116) CFA_XSP16 add(XSP16, 11)
        CFI Block cfiCond117 Using cfiCommon0
        CFI (cfiCond117) NoFunction
        CFI (cfiCond117) Conditional ??CrossCallReturnLabel_60, ??CrossCallReturnLabel_8
        CFI (cfiCond117) R6 load(1, XDATA, add(CFA_XSP16, literal(-9)))
        CFI (cfiCond117) VB load(1, XDATA, add(CFA_XSP16, literal(-8)))
        CFI (cfiCond117) V0 load(1, XDATA, add(CFA_XSP16, literal(-7)))
        CFI (cfiCond117) R7 load(1, XDATA, add(CFA_XSP16, literal(-6)))
        CFI (cfiCond117) ?RET_LOW load(1, XDATA, add(CFA_XSP16, literal(-5)))
        CFI (cfiCond117) ?RET_HIGH load(1, XDATA, add(CFA_XSP16, literal(-4)))
        CFI (cfiCond117) ?BRET_EXT load(1, XDATA, add(CFA_XSP16, literal(-3)))
        CFI (cfiCond117) DPL0 load(1, XDATA, add(CFA_XSP16, literal(-2)))
        CFI (cfiCond117) DPH0 load(1, XDATA, add(CFA_XSP16, literal(-1)))
        CFI (cfiCond117) CFA_SP SP+0
        CFI (cfiCond117) CFA_XSP16 add(XSP16, 9)
        CFI Block cfiPicker118 Using cfiCommon1
        CFI (cfiPicker118) NoFunction
        CFI (cfiPicker118) Picker
        MOV     DPL,A
        MOV     A,R7
        CFI Block cfiCond119 Using cfiCommon0
        CFI (cfiCond119) NoFunction
        CFI (cfiCond119) Conditional ??CrossCallReturnLabel_62, ??CrossCallReturnLabel_14
        CFI (cfiCond119) R6 load(1, XDATA, add(CFA_XSP16, literal(-14)))
        CFI (cfiCond119) VB load(1, XDATA, add(CFA_XSP16, literal(-13)))
        CFI (cfiCond119) V0 load(1, XDATA, add(CFA_XSP16, literal(-12)))
        CFI (cfiCond119) V1 load(1, XDATA, add(CFA_XSP16, literal(-11)))
        CFI (cfiCond119) V2 load(1, XDATA, add(CFA_XSP16, literal(-10)))
        CFI (cfiCond119) V3 load(1, XDATA, add(CFA_XSP16, literal(-9)))
        CFI (cfiCond119) V4 load(1, XDATA, add(CFA_XSP16, literal(-8)))
        CFI (cfiCond119) V5 load(1, XDATA, add(CFA_XSP16, literal(-7)))
        CFI (cfiCond119) R7 load(1, XDATA, add(CFA_XSP16, literal(-6)))
        CFI (cfiCond119) ?RET_LOW load(1, XDATA, add(CFA_XSP16, literal(-5)))
        CFI (cfiCond119) ?RET_HIGH load(1, XDATA, add(CFA_XSP16, literal(-4)))
        CFI (cfiCond119) ?BRET_EXT load(1, XDATA, add(CFA_XSP16, literal(-3)))
        CFI (cfiCond119) DPL0 load(1, XDATA, add(CFA_XSP16, literal(-2)))
        CFI (cfiCond119) DPH0 load(1, XDATA, add(CFA_XSP16, literal(-1)))
        CFI (cfiCond119) CFA_SP SP+0
        CFI (cfiCond119) CFA_XSP16 add(XSP16, 15)
        CFI Block cfiCond120 Using cfiCommon0
        CFI (cfiCond120) NoFunction
        CFI (cfiCond120) Conditional ??CrossCallReturnLabel_62, ??CrossCallReturnLabel_15
        CFI (cfiCond120) R6 load(1, XDATA, add(CFA_XSP16, literal(-9)))
        CFI (cfiCond120) VB load(1, XDATA, add(CFA_XSP16, literal(-8)))
        CFI (cfiCond120) V0 load(1, XDATA, add(CFA_XSP16, literal(-7)))
        CFI (cfiCond120) R7 load(1, XDATA, add(CFA_XSP16, literal(-6)))
        CFI (cfiCond120) ?RET_LOW load(1, XDATA, add(CFA_XSP16, literal(-5)))
        CFI (cfiCond120) ?RET_HIGH load(1, XDATA, add(CFA_XSP16, literal(-4)))
        CFI (cfiCond120) ?BRET_EXT load(1, XDATA, add(CFA_XSP16, literal(-3)))
        CFI (cfiCond120) DPL0 load(1, XDATA, add(CFA_XSP16, literal(-2)))
        CFI (cfiCond120) DPH0 load(1, XDATA, add(CFA_XSP16, literal(-1)))
        CFI (cfiCond120) CFA_SP SP+0
        CFI (cfiCond120) CFA_XSP16 add(XSP16, 9)
        CFI Block cfiCond121 Using cfiCommon0
        CFI (cfiCond121) NoFunction
        CFI (cfiCond121) Conditional ??CrossCallReturnLabel_63, ??CrossCallReturnLabel_16
        CFI (cfiCond121) R6 load(1, XDATA, add(CFA_XSP16, literal(-10)))
        CFI (cfiCond121) VB load(1, XDATA, add(CFA_XSP16, literal(-9)))
        CFI (cfiCond121) V0 load(1, XDATA, add(CFA_XSP16, literal(-8)))
        CFI (cfiCond121) V1 load(1, XDATA, add(CFA_XSP16, literal(-7)))
        CFI (cfiCond121) R7 load(1, XDATA, add(CFA_XSP16, literal(-6)))
        CFI (cfiCond121) ?RET_LOW load(1, XDATA, add(CFA_XSP16, literal(-5)))
        CFI (cfiCond121) ?RET_HIGH load(1, XDATA, add(CFA_XSP16, literal(-4)))
        CFI (cfiCond121) ?BRET_EXT load(1, XDATA, add(CFA_XSP16, literal(-3)))
        CFI (cfiCond121) DPL0 load(1, XDATA, add(CFA_XSP16, literal(-2)))
        CFI (cfiCond121) DPH0 load(1, XDATA, add(CFA_XSP16, literal(-1)))
        CFI (cfiCond121) CFA_SP SP+0
        CFI (cfiCond121) CFA_XSP16 add(XSP16, 11)
        CFI Block cfiCond122 Using cfiCommon0
        CFI (cfiCond122) NoFunction
        CFI (cfiCond122) Conditional ??CrossCallReturnLabel_63, ??CrossCallReturnLabel_17
        CFI (cfiCond122) R6 load(1, XDATA, add(CFA_XSP16, literal(-10)))
        CFI (cfiCond122) VB load(1, XDATA, add(CFA_XSP16, literal(-9)))
        CFI (cfiCond122) V0 load(1, XDATA, add(CFA_XSP16, literal(-8)))
        CFI (cfiCond122) V1 load(1, XDATA, add(CFA_XSP16, literal(-7)))
        CFI (cfiCond122) R7 load(1, XDATA, add(CFA_XSP16, literal(-6)))
        CFI (cfiCond122) ?RET_LOW load(1, XDATA, add(CFA_XSP16, literal(-5)))
        CFI (cfiCond122) ?RET_HIGH load(1, XDATA, add(CFA_XSP16, literal(-4)))
        CFI (cfiCond122) ?BRET_EXT load(1, XDATA, add(CFA_XSP16, literal(-3)))
        CFI (cfiCond122) DPL0 load(1, XDATA, add(CFA_XSP16, literal(-2)))
        CFI (cfiCond122) DPH0 load(1, XDATA, add(CFA_XSP16, literal(-1)))
        CFI (cfiCond122) CFA_SP SP+0
        CFI (cfiCond122) CFA_XSP16 add(XSP16, 11)
        CFI Block cfiCond123 Using cfiCommon0
        CFI (cfiCond123) NoFunction
        CFI (cfiCond123) Conditional ??CrossCallReturnLabel_63, ??CrossCallReturnLabel_18
        CFI (cfiCond123) R6 load(1, XDATA, add(CFA_XSP16, literal(-10)))
        CFI (cfiCond123) VB load(1, XDATA, add(CFA_XSP16, literal(-9)))
        CFI (cfiCond123) V0 load(1, XDATA, add(CFA_XSP16, literal(-8)))
        CFI (cfiCond123) V1 load(1, XDATA, add(CFA_XSP16, literal(-7)))
        CFI (cfiCond123) R7 load(1, XDATA, add(CFA_XSP16, literal(-6)))
        CFI (cfiCond123) ?RET_LOW load(1, XDATA, add(CFA_XSP16, literal(-5)))
        CFI (cfiCond123) ?RET_HIGH load(1, XDATA, add(CFA_XSP16, literal(-4)))
        CFI (cfiCond123) ?BRET_EXT load(1, XDATA, add(CFA_XSP16, literal(-3)))
        CFI (cfiCond123) DPL0 load(1, XDATA, add(CFA_XSP16, literal(-2)))
        CFI (cfiCond123) DPH0 load(1, XDATA, add(CFA_XSP16, literal(-1)))
        CFI (cfiCond123) CFA_SP SP+0
        CFI (cfiCond123) CFA_XSP16 add(XSP16, 11)
        CFI Block cfiCond124 Using cfiCommon0
        CFI (cfiCond124) NoFunction
        CFI (cfiCond124) Conditional ??CrossCallReturnLabel_63, ??CrossCallReturnLabel_21
        CFI (cfiCond124) R6 load(1, XDATA, add(CFA_XSP16, literal(-10)))
        CFI (cfiCond124) VB load(1, XDATA, add(CFA_XSP16, literal(-9)))
        CFI (cfiCond124) V0 load(1, XDATA, add(CFA_XSP16, literal(-8)))
        CFI (cfiCond124) V1 load(1, XDATA, add(CFA_XSP16, literal(-7)))
        CFI (cfiCond124) R7 load(1, XDATA, add(CFA_XSP16, literal(-6)))
        CFI (cfiCond124) ?RET_LOW load(1, XDATA, add(CFA_XSP16, literal(-5)))
        CFI (cfiCond124) ?RET_HIGH load(1, XDATA, add(CFA_XSP16, literal(-4)))
        CFI (cfiCond124) ?BRET_EXT load(1, XDATA, add(CFA_XSP16, literal(-3)))
        CFI (cfiCond124) DPL0 load(1, XDATA, add(CFA_XSP16, literal(-2)))
        CFI (cfiCond124) DPH0 load(1, XDATA, add(CFA_XSP16, literal(-1)))
        CFI (cfiCond124) CFA_SP SP+0
        CFI (cfiCond124) CFA_XSP16 add(XSP16, 11)
        CFI Block cfiCond125 Using cfiCommon0
        CFI (cfiCond125) NoFunction
        CFI (cfiCond125) Conditional ??CrossCallReturnLabel_63, ??CrossCallReturnLabel_25
        CFI (cfiCond125) R6 load(1, XDATA, add(CFA_XSP16, literal(-10)))
        CFI (cfiCond125) VB load(1, XDATA, add(CFA_XSP16, literal(-9)))
        CFI (cfiCond125) V0 load(1, XDATA, add(CFA_XSP16, literal(-8)))
        CFI (cfiCond125) V1 load(1, XDATA, add(CFA_XSP16, literal(-7)))
        CFI (cfiCond125) R7 load(1, XDATA, add(CFA_XSP16, literal(-6)))
        CFI (cfiCond125) ?RET_LOW load(1, XDATA, add(CFA_XSP16, literal(-5)))
        CFI (cfiCond125) ?RET_HIGH load(1, XDATA, add(CFA_XSP16, literal(-4)))
        CFI (cfiCond125) ?BRET_EXT load(1, XDATA, add(CFA_XSP16, literal(-3)))
        CFI (cfiCond125) DPL0 load(1, XDATA, add(CFA_XSP16, literal(-2)))
        CFI (cfiCond125) DPH0 load(1, XDATA, add(CFA_XSP16, literal(-1)))
        CFI (cfiCond125) CFA_SP SP+0
        CFI (cfiCond125) CFA_XSP16 add(XSP16, 11)
        CFI Block cfiCond126 Using cfiCommon0
        CFI (cfiCond126) NoFunction
        CFI (cfiCond126) Conditional ??CrossCallReturnLabel_63, ??CrossCallReturnLabel_28
        CFI (cfiCond126) R6 load(1, XDATA, add(CFA_XSP16, literal(-14)))
        CFI (cfiCond126) VB load(1, XDATA, add(CFA_XSP16, literal(-13)))
        CFI (cfiCond126) V0 load(1, XDATA, add(CFA_XSP16, literal(-12)))
        CFI (cfiCond126) V1 load(1, XDATA, add(CFA_XSP16, literal(-11)))
        CFI (cfiCond126) V2 load(1, XDATA, add(CFA_XSP16, literal(-10)))
        CFI (cfiCond126) V3 load(1, XDATA, add(CFA_XSP16, literal(-9)))
        CFI (cfiCond126) V4 load(1, XDATA, add(CFA_XSP16, literal(-8)))
        CFI (cfiCond126) V5 load(1, XDATA, add(CFA_XSP16, literal(-7)))
        CFI (cfiCond126) R7 load(1, XDATA, add(CFA_XSP16, literal(-6)))
        CFI (cfiCond126) ?RET_LOW load(1, XDATA, add(CFA_XSP16, literal(-5)))
        CFI (cfiCond126) ?RET_HIGH load(1, XDATA, add(CFA_XSP16, literal(-4)))
        CFI (cfiCond126) ?BRET_EXT load(1, XDATA, add(CFA_XSP16, literal(-3)))
        CFI (cfiCond126) DPL0 load(1, XDATA, add(CFA_XSP16, literal(-2)))
        CFI (cfiCond126) DPH0 load(1, XDATA, add(CFA_XSP16, literal(-1)))
        CFI (cfiCond126) CFA_SP SP+0
        CFI (cfiCond126) CFA_XSP16 add(XSP16, 15)
        CFI Block cfiCond127 Using cfiCommon0
        CFI (cfiCond127) NoFunction
        CFI (cfiCond127) Conditional ??CrossCallReturnLabel_63, ??CrossCallReturnLabel_19
        CFI (cfiCond127) R6 load(1, XDATA, add(CFA_XSP16, literal(-10)))
        CFI (cfiCond127) VB load(1, XDATA, add(CFA_XSP16, literal(-9)))
        CFI (cfiCond127) V0 load(1, XDATA, add(CFA_XSP16, literal(-8)))
        CFI (cfiCond127) V1 load(1, XDATA, add(CFA_XSP16, literal(-7)))
        CFI (cfiCond127) R7 load(1, XDATA, add(CFA_XSP16, literal(-6)))
        CFI (cfiCond127) ?RET_LOW load(1, XDATA, add(CFA_XSP16, literal(-5)))
        CFI (cfiCond127) ?RET_HIGH load(1, XDATA, add(CFA_XSP16, literal(-4)))
        CFI (cfiCond127) ?BRET_EXT load(1, XDATA, add(CFA_XSP16, literal(-3)))
        CFI (cfiCond127) DPL0 load(1, XDATA, add(CFA_XSP16, literal(-2)))
        CFI (cfiCond127) DPH0 load(1, XDATA, add(CFA_XSP16, literal(-1)))
        CFI (cfiCond127) CFA_SP SP+0
        CFI (cfiCond127) CFA_XSP16 add(XSP16, 11)
        CFI Block cfiCond128 Using cfiCommon0
        CFI (cfiCond128) NoFunction
        CFI (cfiCond128) Conditional ??CrossCallReturnLabel_63, ??CrossCallReturnLabel_20
        CFI (cfiCond128) R6 load(1, XDATA, add(CFA_XSP16, literal(-10)))
        CFI (cfiCond128) VB load(1, XDATA, add(CFA_XSP16, literal(-9)))
        CFI (cfiCond128) V0 load(1, XDATA, add(CFA_XSP16, literal(-8)))
        CFI (cfiCond128) V1 load(1, XDATA, add(CFA_XSP16, literal(-7)))
        CFI (cfiCond128) R7 load(1, XDATA, add(CFA_XSP16, literal(-6)))
        CFI (cfiCond128) ?RET_LOW load(1, XDATA, add(CFA_XSP16, literal(-5)))
        CFI (cfiCond128) ?RET_HIGH load(1, XDATA, add(CFA_XSP16, literal(-4)))
        CFI (cfiCond128) ?BRET_EXT load(1, XDATA, add(CFA_XSP16, literal(-3)))
        CFI (cfiCond128) DPL0 load(1, XDATA, add(CFA_XSP16, literal(-2)))
        CFI (cfiCond128) DPH0 load(1, XDATA, add(CFA_XSP16, literal(-1)))
        CFI (cfiCond128) CFA_SP SP+0
        CFI (cfiCond128) CFA_XSP16 add(XSP16, 11)
        CFI Block cfiCond129 Using cfiCommon0
        CFI (cfiCond129) NoFunction
        CFI (cfiCond129) Conditional ??CrossCallReturnLabel_63, ??CrossCallReturnLabel_22
        CFI (cfiCond129) R6 load(1, XDATA, add(CFA_XSP16, literal(-10)))
        CFI (cfiCond129) VB load(1, XDATA, add(CFA_XSP16, literal(-9)))
        CFI (cfiCond129) V0 load(1, XDATA, add(CFA_XSP16, literal(-8)))
        CFI (cfiCond129) V1 load(1, XDATA, add(CFA_XSP16, literal(-7)))
        CFI (cfiCond129) R7 load(1, XDATA, add(CFA_XSP16, literal(-6)))
        CFI (cfiCond129) ?RET_LOW load(1, XDATA, add(CFA_XSP16, literal(-5)))
        CFI (cfiCond129) ?RET_HIGH load(1, XDATA, add(CFA_XSP16, literal(-4)))
        CFI (cfiCond129) ?BRET_EXT load(1, XDATA, add(CFA_XSP16, literal(-3)))
        CFI (cfiCond129) DPL0 load(1, XDATA, add(CFA_XSP16, literal(-2)))
        CFI (cfiCond129) DPH0 load(1, XDATA, add(CFA_XSP16, literal(-1)))
        CFI (cfiCond129) CFA_SP SP+0
        CFI (cfiCond129) CFA_XSP16 add(XSP16, 11)
        CFI Block cfiCond130 Using cfiCommon0
        CFI (cfiCond130) NoFunction
        CFI (cfiCond130) Conditional ??CrossCallReturnLabel_63, ??CrossCallReturnLabel_23
        CFI (cfiCond130) R6 load(1, XDATA, add(CFA_XSP16, literal(-10)))
        CFI (cfiCond130) VB load(1, XDATA, add(CFA_XSP16, literal(-9)))
        CFI (cfiCond130) V0 load(1, XDATA, add(CFA_XSP16, literal(-8)))
        CFI (cfiCond130) V1 load(1, XDATA, add(CFA_XSP16, literal(-7)))
        CFI (cfiCond130) R7 load(1, XDATA, add(CFA_XSP16, literal(-6)))
        CFI (cfiCond130) ?RET_LOW load(1, XDATA, add(CFA_XSP16, literal(-5)))
        CFI (cfiCond130) ?RET_HIGH load(1, XDATA, add(CFA_XSP16, literal(-4)))
        CFI (cfiCond130) ?BRET_EXT load(1, XDATA, add(CFA_XSP16, literal(-3)))
        CFI (cfiCond130) DPL0 load(1, XDATA, add(CFA_XSP16, literal(-2)))
        CFI (cfiCond130) DPH0 load(1, XDATA, add(CFA_XSP16, literal(-1)))
        CFI (cfiCond130) CFA_SP SP+0
        CFI (cfiCond130) CFA_XSP16 add(XSP16, 11)
        CFI Block cfiCond131 Using cfiCommon0
        CFI (cfiCond131) NoFunction
        CFI (cfiCond131) Conditional ??CrossCallReturnLabel_63, ??CrossCallReturnLabel_24
        CFI (cfiCond131) R6 load(1, XDATA, add(CFA_XSP16, literal(-10)))
        CFI (cfiCond131) VB load(1, XDATA, add(CFA_XSP16, literal(-9)))
        CFI (cfiCond131) V0 load(1, XDATA, add(CFA_XSP16, literal(-8)))
        CFI (cfiCond131) V1 load(1, XDATA, add(CFA_XSP16, literal(-7)))
        CFI (cfiCond131) R7 load(1, XDATA, add(CFA_XSP16, literal(-6)))
        CFI (cfiCond131) ?RET_LOW load(1, XDATA, add(CFA_XSP16, literal(-5)))
        CFI (cfiCond131) ?RET_HIGH load(1, XDATA, add(CFA_XSP16, literal(-4)))
        CFI (cfiCond131) ?BRET_EXT load(1, XDATA, add(CFA_XSP16, literal(-3)))
        CFI (cfiCond131) DPL0 load(1, XDATA, add(CFA_XSP16, literal(-2)))
        CFI (cfiCond131) DPH0 load(1, XDATA, add(CFA_XSP16, literal(-1)))
        CFI (cfiCond131) CFA_SP SP+0
        CFI (cfiCond131) CFA_XSP16 add(XSP16, 11)
        CFI Block cfiCond132 Using cfiCommon0
        CFI (cfiCond132) NoFunction
        CFI (cfiCond132) Conditional ??CrossCallReturnLabel_63, ??CrossCallReturnLabel_26
        CFI (cfiCond132) R6 load(1, XDATA, add(CFA_XSP16, literal(-10)))
        CFI (cfiCond132) VB load(1, XDATA, add(CFA_XSP16, literal(-9)))
        CFI (cfiCond132) V0 load(1, XDATA, add(CFA_XSP16, literal(-8)))
        CFI (cfiCond132) V1 load(1, XDATA, add(CFA_XSP16, literal(-7)))
        CFI (cfiCond132) R7 load(1, XDATA, add(CFA_XSP16, literal(-6)))
        CFI (cfiCond132) ?RET_LOW load(1, XDATA, add(CFA_XSP16, literal(-5)))
        CFI (cfiCond132) ?RET_HIGH load(1, XDATA, add(CFA_XSP16, literal(-4)))
        CFI (cfiCond132) ?BRET_EXT load(1, XDATA, add(CFA_XSP16, literal(-3)))
        CFI (cfiCond132) DPL0 load(1, XDATA, add(CFA_XSP16, literal(-2)))
        CFI (cfiCond132) DPH0 load(1, XDATA, add(CFA_XSP16, literal(-1)))
        CFI (cfiCond132) CFA_SP SP+0
        CFI (cfiCond132) CFA_XSP16 add(XSP16, 11)
        CFI Block cfiCond133 Using cfiCommon0
        CFI (cfiCond133) NoFunction
        CFI (cfiCond133) Conditional ??CrossCallReturnLabel_63, ??CrossCallReturnLabel_29
        CFI (cfiCond133) R6 load(1, XDATA, add(CFA_XSP16, literal(-9)))
        CFI (cfiCond133) VB load(1, XDATA, add(CFA_XSP16, literal(-8)))
        CFI (cfiCond133) V0 load(1, XDATA, add(CFA_XSP16, literal(-7)))
        CFI (cfiCond133) R7 load(1, XDATA, add(CFA_XSP16, literal(-6)))
        CFI (cfiCond133) ?RET_LOW load(1, XDATA, add(CFA_XSP16, literal(-5)))
        CFI (cfiCond133) ?RET_HIGH load(1, XDATA, add(CFA_XSP16, literal(-4)))
        CFI (cfiCond133) ?BRET_EXT load(1, XDATA, add(CFA_XSP16, literal(-3)))
        CFI (cfiCond133) DPL0 load(1, XDATA, add(CFA_XSP16, literal(-2)))
        CFI (cfiCond133) DPH0 load(1, XDATA, add(CFA_XSP16, literal(-1)))
        CFI (cfiCond133) CFA_SP SP+0
        CFI (cfiCond133) CFA_XSP16 add(XSP16, 9)
        CFI Block cfiCond134 Using cfiCommon0
        CFI (cfiCond134) NoFunction
        CFI (cfiCond134) Conditional ??CrossCallReturnLabel_63, ??CrossCallReturnLabel_30
        CFI (cfiCond134) R6 load(1, XDATA, add(CFA_XSP16, literal(-9)))
        CFI (cfiCond134) VB load(1, XDATA, add(CFA_XSP16, literal(-8)))
        CFI (cfiCond134) V0 load(1, XDATA, add(CFA_XSP16, literal(-7)))
        CFI (cfiCond134) R7 load(1, XDATA, add(CFA_XSP16, literal(-6)))
        CFI (cfiCond134) ?RET_LOW load(1, XDATA, add(CFA_XSP16, literal(-5)))
        CFI (cfiCond134) ?RET_HIGH load(1, XDATA, add(CFA_XSP16, literal(-4)))
        CFI (cfiCond134) ?BRET_EXT load(1, XDATA, add(CFA_XSP16, literal(-3)))
        CFI (cfiCond134) DPL0 load(1, XDATA, add(CFA_XSP16, literal(-2)))
        CFI (cfiCond134) DPH0 load(1, XDATA, add(CFA_XSP16, literal(-1)))
        CFI (cfiCond134) CFA_SP SP+0
        CFI (cfiCond134) CFA_XSP16 add(XSP16, 9)
        CFI Block cfiCond135 Using cfiCommon0
        CFI (cfiCond135) NoFunction
        CFI (cfiCond135) Conditional ??CrossCallReturnLabel_63, ??CrossCallReturnLabel_27
        CFI (cfiCond135) R6 load(1, XDATA, add(CFA_XSP16, literal(-14)))
        CFI (cfiCond135) VB load(1, XDATA, add(CFA_XSP16, literal(-13)))
        CFI (cfiCond135) V0 load(1, XDATA, add(CFA_XSP16, literal(-12)))
        CFI (cfiCond135) V1 load(1, XDATA, add(CFA_XSP16, literal(-11)))
        CFI (cfiCond135) V2 load(1, XDATA, add(CFA_XSP16, literal(-10)))
        CFI (cfiCond135) V3 load(1, XDATA, add(CFA_XSP16, literal(-9)))
        CFI (cfiCond135) V4 load(1, XDATA, add(CFA_XSP16, literal(-8)))
        CFI (cfiCond135) V5 load(1, XDATA, add(CFA_XSP16, literal(-7)))
        CFI (cfiCond135) R7 load(1, XDATA, add(CFA_XSP16, literal(-6)))
        CFI (cfiCond135) ?RET_LOW load(1, XDATA, add(CFA_XSP16, literal(-5)))
        CFI (cfiCond135) ?RET_HIGH load(1, XDATA, add(CFA_XSP16, literal(-4)))
        CFI (cfiCond135) ?BRET_EXT load(1, XDATA, add(CFA_XSP16, literal(-3)))
        CFI (cfiCond135) DPL0 load(1, XDATA, add(CFA_XSP16, literal(-2)))
        CFI (cfiCond135) DPH0 load(1, XDATA, add(CFA_XSP16, literal(-1)))
        CFI (cfiCond135) CFA_SP SP+0
        CFI (cfiCond135) CFA_XSP16 add(XSP16, 15)
        CFI Block cfiCond136 Using cfiCommon0
        CFI (cfiCond136) NoFunction
        CFI (cfiCond136) Conditional ??CrossCallReturnLabel_63, ??CrossCallReturnLabel_31
        CFI (cfiCond136) R6 load(1, XDATA, add(CFA_XSP16, literal(-12)))
        CFI (cfiCond136) VB load(1, XDATA, add(CFA_XSP16, literal(-11)))
        CFI (cfiCond136) V0 load(1, XDATA, add(CFA_XSP16, literal(-10)))
        CFI (cfiCond136) V1 load(1, XDATA, add(CFA_XSP16, literal(-9)))
        CFI (cfiCond136) V2 load(1, XDATA, add(CFA_XSP16, literal(-8)))
        CFI (cfiCond136) V3 load(1, XDATA, add(CFA_XSP16, literal(-7)))
        CFI (cfiCond136) R7 load(1, XDATA, add(CFA_XSP16, literal(-6)))
        CFI (cfiCond136) ?RET_LOW load(1, XDATA, add(CFA_XSP16, literal(-5)))
        CFI (cfiCond136) ?RET_HIGH load(1, XDATA, add(CFA_XSP16, literal(-4)))
        CFI (cfiCond136) ?BRET_EXT load(1, XDATA, add(CFA_XSP16, literal(-3)))
        CFI (cfiCond136) DPL0 load(1, XDATA, add(CFA_XSP16, literal(-2)))
        CFI (cfiCond136) DPH0 load(1, XDATA, add(CFA_XSP16, literal(-1)))
        CFI (cfiCond136) CFA_SP SP+0
        CFI (cfiCond136) CFA_XSP16 add(XSP16, 12)
        CFI Block cfiCond137 Using cfiCommon0
        CFI (cfiCond137) NoFunction
        CFI (cfiCond137) Conditional ??CrossCallReturnLabel_63, ??CrossCallReturnLabel_32
        CFI (cfiCond137) R6 load(1, XDATA, add(CFA_XSP16, literal(-12)))
        CFI (cfiCond137) VB load(1, XDATA, add(CFA_XSP16, literal(-11)))
        CFI (cfiCond137) V0 load(1, XDATA, add(CFA_XSP16, literal(-10)))
        CFI (cfiCond137) V1 load(1, XDATA, add(CFA_XSP16, literal(-9)))
        CFI (cfiCond137) V2 load(1, XDATA, add(CFA_XSP16, literal(-8)))
        CFI (cfiCond137) V3 load(1, XDATA, add(CFA_XSP16, literal(-7)))
        CFI (cfiCond137) R7 load(1, XDATA, add(CFA_XSP16, literal(-6)))
        CFI (cfiCond137) ?RET_LOW load(1, XDATA, add(CFA_XSP16, literal(-5)))
        CFI (cfiCond137) ?RET_HIGH load(1, XDATA, add(CFA_XSP16, literal(-4)))
        CFI (cfiCond137) ?BRET_EXT load(1, XDATA, add(CFA_XSP16, literal(-3)))
        CFI (cfiCond137) DPL0 load(1, XDATA, add(CFA_XSP16, literal(-2)))
        CFI (cfiCond137) DPH0 load(1, XDATA, add(CFA_XSP16, literal(-1)))
        CFI (cfiCond137) CFA_SP SP+0
        CFI (cfiCond137) CFA_XSP16 add(XSP16, 12)
        CFI Block cfiCond138 Using cfiCommon0
        CFI (cfiCond138) NoFunction
        CFI (cfiCond138) Conditional ??CrossCallReturnLabel_63, ??CrossCallReturnLabel_33
        CFI (cfiCond138) R6 load(1, XDATA, add(CFA_XSP16, literal(-12)))
        CFI (cfiCond138) VB load(1, XDATA, add(CFA_XSP16, literal(-11)))
        CFI (cfiCond138) V0 load(1, XDATA, add(CFA_XSP16, literal(-10)))
        CFI (cfiCond138) V1 load(1, XDATA, add(CFA_XSP16, literal(-9)))
        CFI (cfiCond138) V2 load(1, XDATA, add(CFA_XSP16, literal(-8)))
        CFI (cfiCond138) V3 load(1, XDATA, add(CFA_XSP16, literal(-7)))
        CFI (cfiCond138) R7 load(1, XDATA, add(CFA_XSP16, literal(-6)))
        CFI (cfiCond138) ?RET_LOW load(1, XDATA, add(CFA_XSP16, literal(-5)))
        CFI (cfiCond138) ?RET_HIGH load(1, XDATA, add(CFA_XSP16, literal(-4)))
        CFI (cfiCond138) ?BRET_EXT load(1, XDATA, add(CFA_XSP16, literal(-3)))
        CFI (cfiCond138) DPL0 load(1, XDATA, add(CFA_XSP16, literal(-2)))
        CFI (cfiCond138) DPH0 load(1, XDATA, add(CFA_XSP16, literal(-1)))
        CFI (cfiCond138) CFA_SP SP+0
        CFI (cfiCond138) CFA_XSP16 add(XSP16, 12)
        CFI Block cfiCond139 Using cfiCommon0
        CFI (cfiCond139) NoFunction
        CFI (cfiCond139) Conditional ??CrossCallReturnLabel_63, ??CrossCallReturnLabel_34
        CFI (cfiCond139) R6 load(1, XDATA, add(CFA_XSP16, literal(-12)))
        CFI (cfiCond139) VB load(1, XDATA, add(CFA_XSP16, literal(-11)))
        CFI (cfiCond139) V0 load(1, XDATA, add(CFA_XSP16, literal(-10)))
        CFI (cfiCond139) V1 load(1, XDATA, add(CFA_XSP16, literal(-9)))
        CFI (cfiCond139) V2 load(1, XDATA, add(CFA_XSP16, literal(-8)))
        CFI (cfiCond139) V3 load(1, XDATA, add(CFA_XSP16, literal(-7)))
        CFI (cfiCond139) R7 load(1, XDATA, add(CFA_XSP16, literal(-6)))
        CFI (cfiCond139) ?RET_LOW load(1, XDATA, add(CFA_XSP16, literal(-5)))
        CFI (cfiCond139) ?RET_HIGH load(1, XDATA, add(CFA_XSP16, literal(-4)))
        CFI (cfiCond139) ?BRET_EXT load(1, XDATA, add(CFA_XSP16, literal(-3)))
        CFI (cfiCond139) DPL0 load(1, XDATA, add(CFA_XSP16, literal(-2)))
        CFI (cfiCond139) DPH0 load(1, XDATA, add(CFA_XSP16, literal(-1)))
        CFI (cfiCond139) CFA_SP SP+0
        CFI (cfiCond139) CFA_XSP16 add(XSP16, 12)
        CFI Block cfiCond140 Using cfiCommon0
        CFI (cfiCond140) NoFunction
        CFI (cfiCond140) Conditional ??CrossCallReturnLabel_61, ??CrossCallReturnLabel_11
        CFI (cfiCond140) R6 load(1, XDATA, add(CFA_XSP16, literal(-12)))
        CFI (cfiCond140) VB load(1, XDATA, add(CFA_XSP16, literal(-11)))
        CFI (cfiCond140) V0 load(1, XDATA, add(CFA_XSP16, literal(-10)))
        CFI (cfiCond140) V1 load(1, XDATA, add(CFA_XSP16, literal(-9)))
        CFI (cfiCond140) V2 load(1, XDATA, add(CFA_XSP16, literal(-8)))
        CFI (cfiCond140) V3 load(1, XDATA, add(CFA_XSP16, literal(-7)))
        CFI (cfiCond140) R7 load(1, XDATA, add(CFA_XSP16, literal(-6)))
        CFI (cfiCond140) ?RET_LOW load(1, XDATA, add(CFA_XSP16, literal(-5)))
        CFI (cfiCond140) ?RET_HIGH load(1, XDATA, add(CFA_XSP16, literal(-4)))
        CFI (cfiCond140) ?BRET_EXT load(1, XDATA, add(CFA_XSP16, literal(-3)))
        CFI (cfiCond140) DPL0 load(1, XDATA, add(CFA_XSP16, literal(-2)))
        CFI (cfiCond140) DPH0 load(1, XDATA, add(CFA_XSP16, literal(-1)))
        CFI (cfiCond140) CFA_SP SP+0
        CFI (cfiCond140) CFA_XSP16 add(XSP16, 12)
        CFI Block cfiCond141 Using cfiCommon0
        CFI (cfiCond141) NoFunction
        CFI (cfiCond141) Conditional ??CrossCallReturnLabel_61, ??CrossCallReturnLabel_13
        CFI (cfiCond141) R6 load(1, XDATA, add(CFA_XSP16, literal(-12)))
        CFI (cfiCond141) VB load(1, XDATA, add(CFA_XSP16, literal(-11)))
        CFI (cfiCond141) V0 load(1, XDATA, add(CFA_XSP16, literal(-10)))
        CFI (cfiCond141) V1 load(1, XDATA, add(CFA_XSP16, literal(-9)))
        CFI (cfiCond141) V2 load(1, XDATA, add(CFA_XSP16, literal(-8)))
        CFI (cfiCond141) V3 load(1, XDATA, add(CFA_XSP16, literal(-7)))
        CFI (cfiCond141) R7 load(1, XDATA, add(CFA_XSP16, literal(-6)))
        CFI (cfiCond141) ?RET_LOW load(1, XDATA, add(CFA_XSP16, literal(-5)))
        CFI (cfiCond141) ?RET_HIGH load(1, XDATA, add(CFA_XSP16, literal(-4)))
        CFI (cfiCond141) ?BRET_EXT load(1, XDATA, add(CFA_XSP16, literal(-3)))
        CFI (cfiCond141) DPL0 load(1, XDATA, add(CFA_XSP16, literal(-2)))
        CFI (cfiCond141) DPH0 load(1, XDATA, add(CFA_XSP16, literal(-1)))
        CFI (cfiCond141) CFA_SP SP+0
        CFI (cfiCond141) CFA_XSP16 add(XSP16, 12)
        CFI Block cfiCond142 Using cfiCommon0
        CFI (cfiCond142) NoFunction
        CFI (cfiCond142) Conditional ??CrossCallReturnLabel_61, ??CrossCallReturnLabel_12
        CFI (cfiCond142) R6 load(1, XDATA, add(CFA_XSP16, literal(-12)))
        CFI (cfiCond142) VB load(1, XDATA, add(CFA_XSP16, literal(-11)))
        CFI (cfiCond142) V0 load(1, XDATA, add(CFA_XSP16, literal(-10)))
        CFI (cfiCond142) V1 load(1, XDATA, add(CFA_XSP16, literal(-9)))
        CFI (cfiCond142) V2 load(1, XDATA, add(CFA_XSP16, literal(-8)))
        CFI (cfiCond142) V3 load(1, XDATA, add(CFA_XSP16, literal(-7)))
        CFI (cfiCond142) R7 load(1, XDATA, add(CFA_XSP16, literal(-6)))
        CFI (cfiCond142) ?RET_LOW load(1, XDATA, add(CFA_XSP16, literal(-5)))
        CFI (cfiCond142) ?RET_HIGH load(1, XDATA, add(CFA_XSP16, literal(-4)))
        CFI (cfiCond142) ?BRET_EXT load(1, XDATA, add(CFA_XSP16, literal(-3)))
        CFI (cfiCond142) DPL0 load(1, XDATA, add(CFA_XSP16, literal(-2)))
        CFI (cfiCond142) DPH0 load(1, XDATA, add(CFA_XSP16, literal(-1)))
        CFI (cfiCond142) CFA_SP SP+-1
        CFI (cfiCond142) CFA_XSP16 add(XSP16, 12)
??Subroutine20_0:
        ADDC    A,#0x0
        MOV     DPH,A
        MOVX    A,@DPTR
        RET
        CFI EndBlock cfiCond111
        CFI EndBlock cfiCond112
        CFI EndBlock cfiCond113
        CFI EndBlock cfiCond114
        CFI EndBlock cfiCond115
        CFI EndBlock cfiCond116
        CFI EndBlock cfiCond117
        CFI EndBlock cfiPicker118
        CFI EndBlock cfiCond119
        CFI EndBlock cfiCond120
        CFI EndBlock cfiCond121
        CFI EndBlock cfiCond122
        CFI EndBlock cfiCond123
        CFI EndBlock cfiCond124
        CFI EndBlock cfiCond125
        CFI EndBlock cfiCond126
        CFI EndBlock cfiCond127
        CFI EndBlock cfiCond128
        CFI EndBlock cfiCond129
        CFI EndBlock cfiCond130
        CFI EndBlock cfiCond131
        CFI EndBlock cfiCond132
        CFI EndBlock cfiCond133
        CFI EndBlock cfiCond134
        CFI EndBlock cfiCond135
        CFI EndBlock cfiCond136
        CFI EndBlock cfiCond137
        CFI EndBlock cfiCond138
        CFI EndBlock cfiCond139
        CFI EndBlock cfiCond140
        CFI EndBlock cfiCond141
        CFI EndBlock cfiCond142

        RSEG BANK_RELAYS:CODE:REORDER:NOROOT(0)
??pollDMA?relay:
        LCALL   ?BDISPATCH
        DATA
        DC24    pollDMA

        RSEG BANK_RELAYS:CODE:REORDER:NOROOT(0)
??HalUARTInit?relay:
        LCALL   ?BDISPATCH
        DATA
        DC24    HalUARTInit

        RSEG BANK_RELAYS:CODE:REORDER:NOROOT(0)
??HalUARTOpen?relay:
        LCALL   ?BDISPATCH
        DATA
        DC24    HalUARTOpen

        RSEG BANK_RELAYS:CODE:REORDER:NOROOT(0)
??HalUARTClose?relay:
        LCALL   ?BDISPATCH
        DATA
        DC24    HalUARTClose

        RSEG BANK_RELAYS:CODE:REORDER:NOROOT(0)
??HalUARTPoll?relay:
        LCALL   ?BDISPATCH
        DATA
        DC24    HalUARTPoll

        RSEG BANK_RELAYS:CODE:REORDER:NOROOT(0)
??Hal_UART_RxBufLen?relay:
        LCALL   ?BDISPATCH
        DATA
        DC24    Hal_UART_RxBufLen

        RSEG BANK_RELAYS:CODE:REORDER:NOROOT(0)
??HalUARTRead?relay:
        LCALL   ?BDISPATCH
        DATA
        DC24    HalUARTRead

        RSEG BANK_RELAYS:CODE:REORDER:NOROOT(0)
??HalUARTWrite?relay:
        LCALL   ?BDISPATCH
        DATA
        DC24    HalUARTWrite

        END
// 1088 
// 1089 #if HAL_UART_ISR
// 1090 /***************************************************************************************************
// 1091  * @fn      halUart0RxIsr
// 1092  *
// 1093  * @brief   UART0 Receive Interrupt
// 1094  *
// 1095  * @param   None
// 1096  *
// 1097  * @return  None
// 1098  ***************************************************************************************************/
// 1099 #if HAL_UART_0_ENABLE
// 1100 HAL_ISR_FUNCTION( halUart0RxIsr, URX0_VECTOR )
// 1101 {
// 1102   cfg0->rxBuf[cfg0->rxHead] = U0DBUF;
// 1103 
// 1104   if ( cfg0->rxHead == cfg0->rxMax )
// 1105   {
// 1106     cfg0->rxHead = 0;
// 1107   }
// 1108   else
// 1109   {
// 1110     cfg0->rxHead++;
// 1111   }
// 1112 }
// 1113 #endif
// 1114 
// 1115 /***************************************************************************************************
// 1116  * @fn      halUart1RxIsr
// 1117  *
// 1118  * @brief   UART1 Receive Interrupt
// 1119  *
// 1120  * @param   None
// 1121  *
// 1122  * @return  None
// 1123  ***************************************************************************************************/
// 1124 #if HAL_UART_1_ENABLE
// 1125 HAL_ISR_FUNCTION( halUart1RxIsr, URX1_VECTOR )
// 1126 {
// 1127   cfg1->rxBuf[cfg1->rxHead] = U1DBUF;
// 1128 
// 1129   if ( cfg1->rxHead == cfg1->rxMax )
// 1130   {
// 1131     cfg1->rxHead = 0;
// 1132   }
// 1133   else
// 1134   {
// 1135     cfg1->rxHead++;
// 1136   }
// 1137 }
// 1138 #endif
// 1139 
// 1140 /***************************************************************************************************
// 1141  * @fn      halUart0TxIsr
// 1142  *
// 1143  * @brief   UART0 Transmit Interrupt
// 1144  *
// 1145  * @param   None
// 1146  *
// 1147  * @return  None
// 1148  ***************************************************************************************************/
// 1149 #if HAL_UART_0_ENABLE
// 1150 HAL_ISR_FUNCTION( halUart0TxIsr, UTX0_VECTOR )
// 1151 {
// 1152   UTX0IF = 0;
// 1153 
// 1154   if ( cfg0->txTail == cfg0->txMax )
// 1155   {
// 1156     cfg0->txTail = 0;
// 1157   }
// 1158   else
// 1159   {
// 1160     cfg0->txTail++;
// 1161   }
// 1162 
// 1163   if ( cfg0->txTail != cfg0->txHead )
// 1164   {
// 1165     U0DBUF = cfg0->txBuf[cfg0->txTail];
// 1166   }
// 1167 }
// 1168 #endif
// 1169 
// 1170 /***************************************************************************************************
// 1171  * @fn      halUart1TxIsr
// 1172  *
// 1173  * @brief   UART1 Transmit Interrupt
// 1174  *
// 1175  * @param   None
// 1176  *
// 1177  * @return  None
// 1178  ***************************************************************************************************/
// 1179 #if HAL_UART_1_ENABLE
// 1180 HAL_ISR_FUNCTION( halUart1TxIsr, UTX1_VECTOR )
// 1181 {
// 1182   UTX1IF = 0;
// 1183   U1CSR &= ~CSR_TX_BYTE;  // Rev-D does not require, older does.
// 1184 
// 1185   if ( cfg1->txTail == cfg1->txMax )
// 1186   {
// 1187     cfg1->txTail = 0;
// 1188   }
// 1189   else
// 1190   {
// 1191     cfg1->txTail++;
// 1192   }
// 1193 
// 1194   if ( cfg1->txTail != cfg1->txHead )
// 1195   {
// 1196     U1DBUF = cfg1->txBuf[cfg1->txTail];
// 1197   }
// 1198 }
// 1199 #endif
// 1200 #endif
// 1201 
// 1202 /******************************************************************************
// 1203 ******************************************************************************/
// 
// 2 031 bytes in segment BANKED_CODE
//    48 bytes in segment BANK_RELAYS
//    16 bytes in segment SFR_AN
//     3 bytes in segment XDATA_Z
// 
// 2 079 bytes of CODE  memory
//     0 bytes of DATA  memory (+ 16 bytes shared)
//     3 bytes of XDATA memory
//
//Errors: none
//Warnings: none
